
kernel/kernel:     file format elf32-i386


Disassembly of section .text:

00100000 <multiboot_header>:
multiboot_header():
  100000:	02 b0 ad 1b 01 00    	add    0x11bad(%eax),%dh
  100006:	01 00                	add    %eax,(%eax)
  100008:	fd                   	std    
  100009:	4f                   	dec    %edi
  10000a:	51                   	push   %ecx
  10000b:	e4 00                	in     $0x0,%al
  10000d:	00 10                	add    %dl,(%eax)
  10000f:	00 00                	add    %al,(%eax)
  100011:	00 10                	add    %dl,(%eax)
  100013:	00 a6 aa 10 00 44    	add    %ah,0x440010aa(%esi)
  100019:	2b 11                	sub    (%ecx),%edx
  10001b:	00 20                	add    %ah,(%eax)
  10001d:	00 10                	add    %dl,(%eax)
	...

00100020 <multiboot_entry>:
multiboot_entry():
/u/a/b/abhijith/CS537/p3a/xv6-sp20/kernel/multiboot.S:45
  100020:	0f 01 15 64 00 10 00 	lgdtl  0x100064
/u/a/b/abhijith/CS537/p3a/xv6-sp20/kernel/multiboot.S:46
  100027:	ea 2e 00 10 00 08 00 	ljmp   $0x8,$0x10002e

0010002e <mbstart32>:
mbstart32():
/u/a/b/abhijith/CS537/p3a/xv6-sp20/kernel/multiboot.S:50
  10002e:	66 b8 10 00          	mov    $0x10,%ax
/u/a/b/abhijith/CS537/p3a/xv6-sp20/kernel/multiboot.S:51
  100032:	8e d8                	mov    %eax,%ds
/u/a/b/abhijith/CS537/p3a/xv6-sp20/kernel/multiboot.S:52
  100034:	8e c0                	mov    %eax,%es
/u/a/b/abhijith/CS537/p3a/xv6-sp20/kernel/multiboot.S:53
  100036:	8e d0                	mov    %eax,%ss
/u/a/b/abhijith/CS537/p3a/xv6-sp20/kernel/multiboot.S:54
  100038:	66 b8 00 00          	mov    $0x0,%ax
/u/a/b/abhijith/CS537/p3a/xv6-sp20/kernel/multiboot.S:55
  10003c:	8e e0                	mov    %eax,%fs
/u/a/b/abhijith/CS537/p3a/xv6-sp20/kernel/multiboot.S:56
  10003e:	8e e8                	mov    %eax,%gs
/u/a/b/abhijith/CS537/p3a/xv6-sp20/kernel/multiboot.S:59
  100040:	bc 80 cb 10 00       	mov    $0x10cb80,%esp
/u/a/b/abhijith/CS537/p3a/xv6-sp20/kernel/multiboot.S:60
  100045:	e8 59 30 00 00       	call   1030a3 <main>

0010004a <spin>:
spin():
/u/a/b/abhijith/CS537/p3a/xv6-sp20/kernel/multiboot.S:62
  10004a:	eb fe                	jmp    10004a <spin>

0010004c <gdt>:
	...
gdt():
/u/a/b/abhijith/CS537/p3a/xv6-sp20/kernel/multiboot.S:62
  100054:	ff                   	(bad)  
  100055:	ff 00                	incl   (%eax)
  100057:	00 00                	add    %al,(%eax)
  100059:	9a cf 00 ff ff 00 00 	lcall  $0x0,$0xffff00cf
  100060:	00                   	.byte 0x0
  100061:	92                   	xchg   %eax,%edx
  100062:	cf                   	iret   
	...

00100064 <gdtdesc>:
gdtdesc():
/u/a/b/abhijith/CS537/p3a/xv6-sp20/kernel/multiboot.S:62
  100064:	17                   	pop    %ss
  100065:	00 4c 00 10          	add    %cl,0x10(%eax,%eax,1)
	...

0010006a <binit>:
binit():
/u/a/b/abhijith/CS537/p3a/xv6-sp20/kernel/bio.c:41
  10006a:	55                   	push   %ebp
  10006b:	89 e5                	mov    %esp,%ebp
  10006d:	83 ec 18             	sub    $0x18,%esp
/u/a/b/abhijith/CS537/p3a/xv6-sp20/kernel/bio.c:44
  100070:	83 ec 08             	sub    $0x8,%esp
  100073:	68 c4 7d 10 00       	push   $0x107dc4
  100078:	68 80 cb 10 00       	push   $0x10cb80
  10007d:	e8 42 47 00 00       	call   1047c4 <initlock>
  100082:	83 c4 10             	add    $0x10,%esp
/u/a/b/abhijith/CS537/p3a/xv6-sp20/kernel/bio.c:47
  100085:	c7 05 b0 e0 10 00 a4 	movl   $0x10e0a4,0x10e0b0
  10008c:	e0 10 00 
/u/a/b/abhijith/CS537/p3a/xv6-sp20/kernel/bio.c:48
  10008f:	c7 05 b4 e0 10 00 a4 	movl   $0x10e0a4,0x10e0b4
  100096:	e0 10 00 
/u/a/b/abhijith/CS537/p3a/xv6-sp20/kernel/bio.c:49
  100099:	c7 45 f4 b4 cb 10 00 	movl   $0x10cbb4,-0xc(%ebp)
  1000a0:	eb 3a                	jmp    1000dc <binit+0x72>
/u/a/b/abhijith/CS537/p3a/xv6-sp20/kernel/bio.c:50 (discriminator 3)
  1000a2:	8b 15 b4 e0 10 00    	mov    0x10e0b4,%edx
  1000a8:	8b 45 f4             	mov    -0xc(%ebp),%eax
  1000ab:	89 50 10             	mov    %edx,0x10(%eax)
/u/a/b/abhijith/CS537/p3a/xv6-sp20/kernel/bio.c:51 (discriminator 3)
  1000ae:	8b 45 f4             	mov    -0xc(%ebp),%eax
  1000b1:	c7 40 0c a4 e0 10 00 	movl   $0x10e0a4,0xc(%eax)
/u/a/b/abhijith/CS537/p3a/xv6-sp20/kernel/bio.c:52 (discriminator 3)
  1000b8:	8b 45 f4             	mov    -0xc(%ebp),%eax
  1000bb:	c7 40 04 ff ff ff ff 	movl   $0xffffffff,0x4(%eax)
/u/a/b/abhijith/CS537/p3a/xv6-sp20/kernel/bio.c:53 (discriminator 3)
  1000c2:	a1 b4 e0 10 00       	mov    0x10e0b4,%eax
  1000c7:	8b 55 f4             	mov    -0xc(%ebp),%edx
  1000ca:	89 50 0c             	mov    %edx,0xc(%eax)
/u/a/b/abhijith/CS537/p3a/xv6-sp20/kernel/bio.c:54 (discriminator 3)
  1000cd:	8b 45 f4             	mov    -0xc(%ebp),%eax
  1000d0:	a3 b4 e0 10 00       	mov    %eax,0x10e0b4
/u/a/b/abhijith/CS537/p3a/xv6-sp20/kernel/bio.c:49 (discriminator 3)
  1000d5:	81 45 f4 18 02 00 00 	addl   $0x218,-0xc(%ebp)
/u/a/b/abhijith/CS537/p3a/xv6-sp20/kernel/bio.c:49 (discriminator 1)
  1000dc:	b8 a4 e0 10 00       	mov    $0x10e0a4,%eax
  1000e1:	39 45 f4             	cmp    %eax,-0xc(%ebp)
  1000e4:	72 bc                	jb     1000a2 <binit+0x38>
/u/a/b/abhijith/CS537/p3a/xv6-sp20/kernel/bio.c:56
  1000e6:	90                   	nop
  1000e7:	c9                   	leave  
  1000e8:	c3                   	ret    

001000e9 <bget>:
bget():
/u/a/b/abhijith/CS537/p3a/xv6-sp20/kernel/bio.c:63
  1000e9:	55                   	push   %ebp
  1000ea:	89 e5                	mov    %esp,%ebp
  1000ec:	83 ec 18             	sub    $0x18,%esp
/u/a/b/abhijith/CS537/p3a/xv6-sp20/kernel/bio.c:66
  1000ef:	83 ec 0c             	sub    $0xc,%esp
  1000f2:	68 80 cb 10 00       	push   $0x10cb80
  1000f7:	e8 ea 46 00 00       	call   1047e6 <acquire>
  1000fc:	83 c4 10             	add    $0x10,%esp
/u/a/b/abhijith/CS537/p3a/xv6-sp20/kernel/bio.c:70
  1000ff:	a1 b4 e0 10 00       	mov    0x10e0b4,%eax
  100104:	89 45 f4             	mov    %eax,-0xc(%ebp)
  100107:	eb 67                	jmp    100170 <bget+0x87>
/u/a/b/abhijith/CS537/p3a/xv6-sp20/kernel/bio.c:71
  100109:	8b 45 f4             	mov    -0xc(%ebp),%eax
  10010c:	8b 40 04             	mov    0x4(%eax),%eax
  10010f:	39 45 08             	cmp    %eax,0x8(%ebp)
  100112:	75 53                	jne    100167 <bget+0x7e>
/u/a/b/abhijith/CS537/p3a/xv6-sp20/kernel/bio.c:71 (discriminator 1)
  100114:	8b 45 f4             	mov    -0xc(%ebp),%eax
  100117:	8b 40 08             	mov    0x8(%eax),%eax
  10011a:	39 45 0c             	cmp    %eax,0xc(%ebp)
  10011d:	75 48                	jne    100167 <bget+0x7e>
/u/a/b/abhijith/CS537/p3a/xv6-sp20/kernel/bio.c:72
  10011f:	8b 45 f4             	mov    -0xc(%ebp),%eax
  100122:	8b 00                	mov    (%eax),%eax
  100124:	83 e0 01             	and    $0x1,%eax
  100127:	85 c0                	test   %eax,%eax
  100129:	75 27                	jne    100152 <bget+0x69>
/u/a/b/abhijith/CS537/p3a/xv6-sp20/kernel/bio.c:73
  10012b:	8b 45 f4             	mov    -0xc(%ebp),%eax
  10012e:	8b 00                	mov    (%eax),%eax
  100130:	83 c8 01             	or     $0x1,%eax
  100133:	89 c2                	mov    %eax,%edx
  100135:	8b 45 f4             	mov    -0xc(%ebp),%eax
  100138:	89 10                	mov    %edx,(%eax)
/u/a/b/abhijith/CS537/p3a/xv6-sp20/kernel/bio.c:74
  10013a:	83 ec 0c             	sub    $0xc,%esp
  10013d:	68 80 cb 10 00       	push   $0x10cb80
  100142:	e8 06 47 00 00       	call   10484d <release>
  100147:	83 c4 10             	add    $0x10,%esp
/u/a/b/abhijith/CS537/p3a/xv6-sp20/kernel/bio.c:75
  10014a:	8b 45 f4             	mov    -0xc(%ebp),%eax
  10014d:	e9 8c 00 00 00       	jmp    1001de <bget+0xf5>
/u/a/b/abhijith/CS537/p3a/xv6-sp20/kernel/bio.c:77
  100152:	83 ec 08             	sub    $0x8,%esp
  100155:	68 80 cb 10 00       	push   $0x10cb80
  10015a:	ff 75 f4             	pushl  -0xc(%ebp)
  10015d:	e8 8b 43 00 00       	call   1044ed <sleep>
  100162:	83 c4 10             	add    $0x10,%esp
/u/a/b/abhijith/CS537/p3a/xv6-sp20/kernel/bio.c:78
  100165:	eb 98                	jmp    1000ff <bget+0x16>
/u/a/b/abhijith/CS537/p3a/xv6-sp20/kernel/bio.c:70 (discriminator 2)
  100167:	8b 45 f4             	mov    -0xc(%ebp),%eax
  10016a:	8b 40 10             	mov    0x10(%eax),%eax
  10016d:	89 45 f4             	mov    %eax,-0xc(%ebp)
/u/a/b/abhijith/CS537/p3a/xv6-sp20/kernel/bio.c:70 (discriminator 1)
  100170:	81 7d f4 a4 e0 10 00 	cmpl   $0x10e0a4,-0xc(%ebp)
  100177:	75 90                	jne    100109 <bget+0x20>
/u/a/b/abhijith/CS537/p3a/xv6-sp20/kernel/bio.c:83
  100179:	a1 b0 e0 10 00       	mov    0x10e0b0,%eax
  10017e:	89 45 f4             	mov    %eax,-0xc(%ebp)
  100181:	eb 45                	jmp    1001c8 <bget+0xdf>
/u/a/b/abhijith/CS537/p3a/xv6-sp20/kernel/bio.c:84
  100183:	8b 45 f4             	mov    -0xc(%ebp),%eax
  100186:	8b 00                	mov    (%eax),%eax
  100188:	83 e0 01             	and    $0x1,%eax
  10018b:	85 c0                	test   %eax,%eax
  10018d:	75 30                	jne    1001bf <bget+0xd6>
/u/a/b/abhijith/CS537/p3a/xv6-sp20/kernel/bio.c:85
  10018f:	8b 45 f4             	mov    -0xc(%ebp),%eax
  100192:	8b 55 08             	mov    0x8(%ebp),%edx
  100195:	89 50 04             	mov    %edx,0x4(%eax)
/u/a/b/abhijith/CS537/p3a/xv6-sp20/kernel/bio.c:86
  100198:	8b 45 f4             	mov    -0xc(%ebp),%eax
  10019b:	8b 55 0c             	mov    0xc(%ebp),%edx
  10019e:	89 50 08             	mov    %edx,0x8(%eax)
/u/a/b/abhijith/CS537/p3a/xv6-sp20/kernel/bio.c:87
  1001a1:	8b 45 f4             	mov    -0xc(%ebp),%eax
  1001a4:	c7 00 01 00 00 00    	movl   $0x1,(%eax)
/u/a/b/abhijith/CS537/p3a/xv6-sp20/kernel/bio.c:88
  1001aa:	83 ec 0c             	sub    $0xc,%esp
  1001ad:	68 80 cb 10 00       	push   $0x10cb80
  1001b2:	e8 96 46 00 00       	call   10484d <release>
  1001b7:	83 c4 10             	add    $0x10,%esp
/u/a/b/abhijith/CS537/p3a/xv6-sp20/kernel/bio.c:89
  1001ba:	8b 45 f4             	mov    -0xc(%ebp),%eax
  1001bd:	eb 1f                	jmp    1001de <bget+0xf5>
/u/a/b/abhijith/CS537/p3a/xv6-sp20/kernel/bio.c:83 (discriminator 2)
  1001bf:	8b 45 f4             	mov    -0xc(%ebp),%eax
  1001c2:	8b 40 0c             	mov    0xc(%eax),%eax
  1001c5:	89 45 f4             	mov    %eax,-0xc(%ebp)
/u/a/b/abhijith/CS537/p3a/xv6-sp20/kernel/bio.c:83 (discriminator 1)
  1001c8:	81 7d f4 a4 e0 10 00 	cmpl   $0x10e0a4,-0xc(%ebp)
  1001cf:	75 b2                	jne    100183 <bget+0x9a>
/u/a/b/abhijith/CS537/p3a/xv6-sp20/kernel/bio.c:92
  1001d1:	83 ec 0c             	sub    $0xc,%esp
  1001d4:	68 cb 7d 10 00       	push   $0x107dcb
  1001d9:	e8 9a 03 00 00       	call   100578 <panic>
/u/a/b/abhijith/CS537/p3a/xv6-sp20/kernel/bio.c:93
  1001de:	c9                   	leave  
  1001df:	c3                   	ret    

001001e0 <bread>:
bread():
/u/a/b/abhijith/CS537/p3a/xv6-sp20/kernel/bio.c:98
  1001e0:	55                   	push   %ebp
  1001e1:	89 e5                	mov    %esp,%ebp
  1001e3:	83 ec 18             	sub    $0x18,%esp
/u/a/b/abhijith/CS537/p3a/xv6-sp20/kernel/bio.c:101
  1001e6:	83 ec 08             	sub    $0x8,%esp
  1001e9:	ff 75 0c             	pushl  0xc(%ebp)
  1001ec:	ff 75 08             	pushl  0x8(%ebp)
  1001ef:	e8 f5 fe ff ff       	call   1000e9 <bget>
  1001f4:	83 c4 10             	add    $0x10,%esp
  1001f7:	89 45 f4             	mov    %eax,-0xc(%ebp)
/u/a/b/abhijith/CS537/p3a/xv6-sp20/kernel/bio.c:102
  1001fa:	8b 45 f4             	mov    -0xc(%ebp),%eax
  1001fd:	8b 00                	mov    (%eax),%eax
  1001ff:	83 e0 02             	and    $0x2,%eax
  100202:	85 c0                	test   %eax,%eax
  100204:	75 0e                	jne    100214 <bread+0x34>
/u/a/b/abhijith/CS537/p3a/xv6-sp20/kernel/bio.c:103
  100206:	83 ec 0c             	sub    $0xc,%esp
  100209:	ff 75 f4             	pushl  -0xc(%ebp)
  10020c:	e8 fd 25 00 00       	call   10280e <iderw>
  100211:	83 c4 10             	add    $0x10,%esp
/u/a/b/abhijith/CS537/p3a/xv6-sp20/kernel/bio.c:104
  100214:	8b 45 f4             	mov    -0xc(%ebp),%eax
/u/a/b/abhijith/CS537/p3a/xv6-sp20/kernel/bio.c:105
  100217:	c9                   	leave  
  100218:	c3                   	ret    

00100219 <bwrite>:
bwrite():
/u/a/b/abhijith/CS537/p3a/xv6-sp20/kernel/bio.c:110
  100219:	55                   	push   %ebp
  10021a:	89 e5                	mov    %esp,%ebp
  10021c:	83 ec 08             	sub    $0x8,%esp
/u/a/b/abhijith/CS537/p3a/xv6-sp20/kernel/bio.c:111
  10021f:	8b 45 08             	mov    0x8(%ebp),%eax
  100222:	8b 00                	mov    (%eax),%eax
  100224:	83 e0 01             	and    $0x1,%eax
  100227:	85 c0                	test   %eax,%eax
  100229:	75 0d                	jne    100238 <bwrite+0x1f>
/u/a/b/abhijith/CS537/p3a/xv6-sp20/kernel/bio.c:112
  10022b:	83 ec 0c             	sub    $0xc,%esp
  10022e:	68 dc 7d 10 00       	push   $0x107ddc
  100233:	e8 40 03 00 00       	call   100578 <panic>
/u/a/b/abhijith/CS537/p3a/xv6-sp20/kernel/bio.c:113
  100238:	8b 45 08             	mov    0x8(%ebp),%eax
  10023b:	8b 00                	mov    (%eax),%eax
  10023d:	83 c8 04             	or     $0x4,%eax
  100240:	89 c2                	mov    %eax,%edx
  100242:	8b 45 08             	mov    0x8(%ebp),%eax
  100245:	89 10                	mov    %edx,(%eax)
/u/a/b/abhijith/CS537/p3a/xv6-sp20/kernel/bio.c:114
  100247:	83 ec 0c             	sub    $0xc,%esp
  10024a:	ff 75 08             	pushl  0x8(%ebp)
  10024d:	e8 bc 25 00 00       	call   10280e <iderw>
  100252:	83 c4 10             	add    $0x10,%esp
/u/a/b/abhijith/CS537/p3a/xv6-sp20/kernel/bio.c:115
  100255:	90                   	nop
  100256:	c9                   	leave  
  100257:	c3                   	ret    

00100258 <brelse>:
brelse():
/u/a/b/abhijith/CS537/p3a/xv6-sp20/kernel/bio.c:120
  100258:	55                   	push   %ebp
  100259:	89 e5                	mov    %esp,%ebp
  10025b:	83 ec 08             	sub    $0x8,%esp
/u/a/b/abhijith/CS537/p3a/xv6-sp20/kernel/bio.c:121
  10025e:	8b 45 08             	mov    0x8(%ebp),%eax
  100261:	8b 00                	mov    (%eax),%eax
  100263:	83 e0 01             	and    $0x1,%eax
  100266:	85 c0                	test   %eax,%eax
  100268:	75 0d                	jne    100277 <brelse+0x1f>
/u/a/b/abhijith/CS537/p3a/xv6-sp20/kernel/bio.c:122
  10026a:	83 ec 0c             	sub    $0xc,%esp
  10026d:	68 e3 7d 10 00       	push   $0x107de3
  100272:	e8 01 03 00 00       	call   100578 <panic>
/u/a/b/abhijith/CS537/p3a/xv6-sp20/kernel/bio.c:124
  100277:	83 ec 0c             	sub    $0xc,%esp
  10027a:	68 80 cb 10 00       	push   $0x10cb80
  10027f:	e8 62 45 00 00       	call   1047e6 <acquire>
  100284:	83 c4 10             	add    $0x10,%esp
/u/a/b/abhijith/CS537/p3a/xv6-sp20/kernel/bio.c:126
  100287:	8b 45 08             	mov    0x8(%ebp),%eax
  10028a:	8b 40 10             	mov    0x10(%eax),%eax
  10028d:	8b 55 08             	mov    0x8(%ebp),%edx
  100290:	8b 52 0c             	mov    0xc(%edx),%edx
  100293:	89 50 0c             	mov    %edx,0xc(%eax)
/u/a/b/abhijith/CS537/p3a/xv6-sp20/kernel/bio.c:127
  100296:	8b 45 08             	mov    0x8(%ebp),%eax
  100299:	8b 40 0c             	mov    0xc(%eax),%eax
  10029c:	8b 55 08             	mov    0x8(%ebp),%edx
  10029f:	8b 52 10             	mov    0x10(%edx),%edx
  1002a2:	89 50 10             	mov    %edx,0x10(%eax)
/u/a/b/abhijith/CS537/p3a/xv6-sp20/kernel/bio.c:128
  1002a5:	8b 15 b4 e0 10 00    	mov    0x10e0b4,%edx
  1002ab:	8b 45 08             	mov    0x8(%ebp),%eax
  1002ae:	89 50 10             	mov    %edx,0x10(%eax)
/u/a/b/abhijith/CS537/p3a/xv6-sp20/kernel/bio.c:129
  1002b1:	8b 45 08             	mov    0x8(%ebp),%eax
  1002b4:	c7 40 0c a4 e0 10 00 	movl   $0x10e0a4,0xc(%eax)
/u/a/b/abhijith/CS537/p3a/xv6-sp20/kernel/bio.c:130
  1002bb:	a1 b4 e0 10 00       	mov    0x10e0b4,%eax
  1002c0:	8b 55 08             	mov    0x8(%ebp),%edx
  1002c3:	89 50 0c             	mov    %edx,0xc(%eax)
/u/a/b/abhijith/CS537/p3a/xv6-sp20/kernel/bio.c:131
  1002c6:	8b 45 08             	mov    0x8(%ebp),%eax
  1002c9:	a3 b4 e0 10 00       	mov    %eax,0x10e0b4
/u/a/b/abhijith/CS537/p3a/xv6-sp20/kernel/bio.c:133
  1002ce:	8b 45 08             	mov    0x8(%ebp),%eax
  1002d1:	8b 00                	mov    (%eax),%eax
  1002d3:	83 e0 fe             	and    $0xfffffffe,%eax
  1002d6:	89 c2                	mov    %eax,%edx
  1002d8:	8b 45 08             	mov    0x8(%ebp),%eax
  1002db:	89 10                	mov    %edx,(%eax)
/u/a/b/abhijith/CS537/p3a/xv6-sp20/kernel/bio.c:134
  1002dd:	83 ec 0c             	sub    $0xc,%esp
  1002e0:	ff 75 08             	pushl  0x8(%ebp)
  1002e3:	e8 f0 42 00 00       	call   1045d8 <wakeup>
  1002e8:	83 c4 10             	add    $0x10,%esp
/u/a/b/abhijith/CS537/p3a/xv6-sp20/kernel/bio.c:136
  1002eb:	83 ec 0c             	sub    $0xc,%esp
  1002ee:	68 80 cb 10 00       	push   $0x10cb80
  1002f3:	e8 55 45 00 00       	call   10484d <release>
  1002f8:	83 c4 10             	add    $0x10,%esp
/u/a/b/abhijith/CS537/p3a/xv6-sp20/kernel/bio.c:137
  1002fb:	90                   	nop
  1002fc:	c9                   	leave  
  1002fd:	c3                   	ret    

001002fe <inb>:
inb():
/u/a/b/abhijith/CS537/p3a/xv6-sp20/include/x86.h:7
  1002fe:	55                   	push   %ebp
  1002ff:	89 e5                	mov    %esp,%ebp
  100301:	83 ec 14             	sub    $0x14,%esp
  100304:	8b 45 08             	mov    0x8(%ebp),%eax
  100307:	66 89 45 ec          	mov    %ax,-0x14(%ebp)
/u/a/b/abhijith/CS537/p3a/xv6-sp20/include/x86.h:10
  10030b:	0f b7 45 ec          	movzwl -0x14(%ebp),%eax
  10030f:	89 c2                	mov    %eax,%edx
  100311:	ec                   	in     (%dx),%al
  100312:	88 45 ff             	mov    %al,-0x1(%ebp)
/u/a/b/abhijith/CS537/p3a/xv6-sp20/include/x86.h:11
  100315:	0f b6 45 ff          	movzbl -0x1(%ebp),%eax
/u/a/b/abhijith/CS537/p3a/xv6-sp20/include/x86.h:12
  100319:	c9                   	leave  
  10031a:	c3                   	ret    

0010031b <outb>:
outb():
/u/a/b/abhijith/CS537/p3a/xv6-sp20/include/x86.h:25
  10031b:	55                   	push   %ebp
  10031c:	89 e5                	mov    %esp,%ebp
  10031e:	83 ec 08             	sub    $0x8,%esp
  100321:	8b 55 08             	mov    0x8(%ebp),%edx
  100324:	8b 45 0c             	mov    0xc(%ebp),%eax
  100327:	66 89 55 fc          	mov    %dx,-0x4(%ebp)
  10032b:	88 45 f8             	mov    %al,-0x8(%ebp)
/u/a/b/abhijith/CS537/p3a/xv6-sp20/include/x86.h:26
  10032e:	0f b6 45 f8          	movzbl -0x8(%ebp),%eax
  100332:	0f b7 55 fc          	movzwl -0x4(%ebp),%edx
  100336:	ee                   	out    %al,(%dx)
/u/a/b/abhijith/CS537/p3a/xv6-sp20/include/x86.h:27
  100337:	90                   	nop
  100338:	c9                   	leave  
  100339:	c3                   	ret    

0010033a <cli>:
cli():
/u/a/b/abhijith/CS537/p3a/xv6-sp20/include/x86.h:119
  10033a:	55                   	push   %ebp
  10033b:	89 e5                	mov    %esp,%ebp
/u/a/b/abhijith/CS537/p3a/xv6-sp20/include/x86.h:120
  10033d:	fa                   	cli    
/u/a/b/abhijith/CS537/p3a/xv6-sp20/include/x86.h:121
  10033e:	90                   	nop
  10033f:	5d                   	pop    %ebp
  100340:	c3                   	ret    

00100341 <printint>:
printint():
/u/a/b/abhijith/CS537/p3a/xv6-sp20/kernel/console.c:27
  100341:	55                   	push   %ebp
  100342:	89 e5                	mov    %esp,%ebp
  100344:	83 ec 28             	sub    $0x28,%esp
/u/a/b/abhijith/CS537/p3a/xv6-sp20/kernel/console.c:33
  100347:	83 7d 10 00          	cmpl   $0x0,0x10(%ebp)
  10034b:	74 1c                	je     100369 <printint+0x28>
/u/a/b/abhijith/CS537/p3a/xv6-sp20/kernel/console.c:33 (discriminator 1)
  10034d:	8b 45 08             	mov    0x8(%ebp),%eax
  100350:	c1 e8 1f             	shr    $0x1f,%eax
  100353:	0f b6 c0             	movzbl %al,%eax
  100356:	89 45 10             	mov    %eax,0x10(%ebp)
  100359:	83 7d 10 00          	cmpl   $0x0,0x10(%ebp)
  10035d:	74 0a                	je     100369 <printint+0x28>
/u/a/b/abhijith/CS537/p3a/xv6-sp20/kernel/console.c:34
  10035f:	8b 45 08             	mov    0x8(%ebp),%eax
  100362:	f7 d8                	neg    %eax
  100364:	89 45 f0             	mov    %eax,-0x10(%ebp)
  100367:	eb 06                	jmp    10036f <printint+0x2e>
/u/a/b/abhijith/CS537/p3a/xv6-sp20/kernel/console.c:36
  100369:	8b 45 08             	mov    0x8(%ebp),%eax
  10036c:	89 45 f0             	mov    %eax,-0x10(%ebp)
/u/a/b/abhijith/CS537/p3a/xv6-sp20/kernel/console.c:38
  10036f:	c7 45 f4 00 00 00 00 	movl   $0x0,-0xc(%ebp)
/u/a/b/abhijith/CS537/p3a/xv6-sp20/kernel/console.c:40 (discriminator 1)
  100376:	8b 4d 0c             	mov    0xc(%ebp),%ecx
  100379:	8b 45 f0             	mov    -0x10(%ebp),%eax
  10037c:	ba 00 00 00 00       	mov    $0x0,%edx
  100381:	f7 f1                	div    %ecx
  100383:	89 d1                	mov    %edx,%ecx
  100385:	8b 45 f4             	mov    -0xc(%ebp),%eax
  100388:	8d 50 01             	lea    0x1(%eax),%edx
  10038b:	89 55 f4             	mov    %edx,-0xc(%ebp)
  10038e:	0f b6 91 08 a0 10 00 	movzbl 0x10a008(%ecx),%edx
  100395:	88 54 05 e0          	mov    %dl,-0x20(%ebp,%eax,1)
/u/a/b/abhijith/CS537/p3a/xv6-sp20/kernel/console.c:41 (discriminator 1)
  100399:	8b 4d 0c             	mov    0xc(%ebp),%ecx
  10039c:	8b 45 f0             	mov    -0x10(%ebp),%eax
  10039f:	ba 00 00 00 00       	mov    $0x0,%edx
  1003a4:	f7 f1                	div    %ecx
  1003a6:	89 45 f0             	mov    %eax,-0x10(%ebp)
  1003a9:	83 7d f0 00          	cmpl   $0x0,-0x10(%ebp)
  1003ad:	75 c7                	jne    100376 <printint+0x35>
/u/a/b/abhijith/CS537/p3a/xv6-sp20/kernel/console.c:43
  1003af:	83 7d 10 00          	cmpl   $0x0,0x10(%ebp)
  1003b3:	74 2a                	je     1003df <printint+0x9e>
/u/a/b/abhijith/CS537/p3a/xv6-sp20/kernel/console.c:44
  1003b5:	8b 45 f4             	mov    -0xc(%ebp),%eax
  1003b8:	8d 50 01             	lea    0x1(%eax),%edx
  1003bb:	89 55 f4             	mov    %edx,-0xc(%ebp)
  1003be:	c6 44 05 e0 2d       	movb   $0x2d,-0x20(%ebp,%eax,1)
/u/a/b/abhijith/CS537/p3a/xv6-sp20/kernel/console.c:46
  1003c3:	eb 1a                	jmp    1003df <printint+0x9e>
/u/a/b/abhijith/CS537/p3a/xv6-sp20/kernel/console.c:47
  1003c5:	8d 55 e0             	lea    -0x20(%ebp),%edx
  1003c8:	8b 45 f4             	mov    -0xc(%ebp),%eax
  1003cb:	01 d0                	add    %edx,%eax
  1003cd:	0f b6 00             	movzbl (%eax),%eax
  1003d0:	0f be c0             	movsbl %al,%eax
  1003d3:	83 ec 0c             	sub    $0xc,%esp
  1003d6:	50                   	push   %eax
  1003d7:	e8 b4 03 00 00       	call   100790 <consputc>
  1003dc:	83 c4 10             	add    $0x10,%esp
/u/a/b/abhijith/CS537/p3a/xv6-sp20/kernel/console.c:46
  1003df:	83 6d f4 01          	subl   $0x1,-0xc(%ebp)
  1003e3:	83 7d f4 00          	cmpl   $0x0,-0xc(%ebp)
  1003e7:	79 dc                	jns    1003c5 <printint+0x84>
/u/a/b/abhijith/CS537/p3a/xv6-sp20/kernel/console.c:48
  1003e9:	90                   	nop
  1003ea:	c9                   	leave  
  1003eb:	c3                   	ret    

001003ec <cprintf>:
cprintf():
/u/a/b/abhijith/CS537/p3a/xv6-sp20/kernel/console.c:53
  1003ec:	55                   	push   %ebp
  1003ed:	89 e5                	mov    %esp,%ebp
  1003ef:	83 ec 28             	sub    $0x28,%esp
/u/a/b/abhijith/CS537/p3a/xv6-sp20/kernel/console.c:58
  1003f2:	a1 14 ab 10 00       	mov    0x10ab14,%eax
  1003f7:	89 45 e8             	mov    %eax,-0x18(%ebp)
/u/a/b/abhijith/CS537/p3a/xv6-sp20/kernel/console.c:59
  1003fa:	83 7d e8 00          	cmpl   $0x0,-0x18(%ebp)
  1003fe:	74 10                	je     100410 <cprintf+0x24>
/u/a/b/abhijith/CS537/p3a/xv6-sp20/kernel/console.c:60
  100400:	83 ec 0c             	sub    $0xc,%esp
  100403:	68 e0 aa 10 00       	push   $0x10aae0
  100408:	e8 d9 43 00 00       	call   1047e6 <acquire>
  10040d:	83 c4 10             	add    $0x10,%esp
/u/a/b/abhijith/CS537/p3a/xv6-sp20/kernel/console.c:62
  100410:	8d 45 0c             	lea    0xc(%ebp),%eax
  100413:	89 45 f0             	mov    %eax,-0x10(%ebp)
/u/a/b/abhijith/CS537/p3a/xv6-sp20/kernel/console.c:63
  100416:	c7 45 f4 00 00 00 00 	movl   $0x0,-0xc(%ebp)
  10041d:	e9 1a 01 00 00       	jmp    10053c <cprintf+0x150>
/u/a/b/abhijith/CS537/p3a/xv6-sp20/kernel/console.c:64
  100422:	83 7d e4 25          	cmpl   $0x25,-0x1c(%ebp)
  100426:	74 13                	je     10043b <cprintf+0x4f>
/u/a/b/abhijith/CS537/p3a/xv6-sp20/kernel/console.c:65
  100428:	83 ec 0c             	sub    $0xc,%esp
  10042b:	ff 75 e4             	pushl  -0x1c(%ebp)
  10042e:	e8 5d 03 00 00       	call   100790 <consputc>
  100433:	83 c4 10             	add    $0x10,%esp
/u/a/b/abhijith/CS537/p3a/xv6-sp20/kernel/console.c:66
  100436:	e9 fd 00 00 00       	jmp    100538 <cprintf+0x14c>
/u/a/b/abhijith/CS537/p3a/xv6-sp20/kernel/console.c:68
  10043b:	8b 55 08             	mov    0x8(%ebp),%edx
  10043e:	83 45 f4 01          	addl   $0x1,-0xc(%ebp)
  100442:	8b 45 f4             	mov    -0xc(%ebp),%eax
  100445:	01 d0                	add    %edx,%eax
  100447:	0f b6 00             	movzbl (%eax),%eax
  10044a:	0f be c0             	movsbl %al,%eax
  10044d:	25 ff 00 00 00       	and    $0xff,%eax
  100452:	89 45 e4             	mov    %eax,-0x1c(%ebp)
/u/a/b/abhijith/CS537/p3a/xv6-sp20/kernel/console.c:69
  100455:	83 7d e4 00          	cmpl   $0x0,-0x1c(%ebp)
  100459:	0f 84 ff 00 00 00    	je     10055e <cprintf+0x172>
/u/a/b/abhijith/CS537/p3a/xv6-sp20/kernel/console.c:71
  10045f:	8b 45 e4             	mov    -0x1c(%ebp),%eax
  100462:	83 f8 70             	cmp    $0x70,%eax
  100465:	74 47                	je     1004ae <cprintf+0xc2>
  100467:	83 f8 70             	cmp    $0x70,%eax
  10046a:	7f 13                	jg     10047f <cprintf+0x93>
  10046c:	83 f8 25             	cmp    $0x25,%eax
  10046f:	0f 84 98 00 00 00    	je     10050d <cprintf+0x121>
  100475:	83 f8 64             	cmp    $0x64,%eax
  100478:	74 14                	je     10048e <cprintf+0xa2>
  10047a:	e9 9d 00 00 00       	jmp    10051c <cprintf+0x130>
  10047f:	83 f8 73             	cmp    $0x73,%eax
  100482:	74 47                	je     1004cb <cprintf+0xdf>
  100484:	83 f8 78             	cmp    $0x78,%eax
  100487:	74 25                	je     1004ae <cprintf+0xc2>
  100489:	e9 8e 00 00 00       	jmp    10051c <cprintf+0x130>
/u/a/b/abhijith/CS537/p3a/xv6-sp20/kernel/console.c:73
  10048e:	8b 45 f0             	mov    -0x10(%ebp),%eax
  100491:	8d 50 04             	lea    0x4(%eax),%edx
  100494:	89 55 f0             	mov    %edx,-0x10(%ebp)
  100497:	8b 00                	mov    (%eax),%eax
  100499:	83 ec 04             	sub    $0x4,%esp
  10049c:	6a 01                	push   $0x1
  10049e:	6a 0a                	push   $0xa
  1004a0:	50                   	push   %eax
  1004a1:	e8 9b fe ff ff       	call   100341 <printint>
  1004a6:	83 c4 10             	add    $0x10,%esp
/u/a/b/abhijith/CS537/p3a/xv6-sp20/kernel/console.c:74
  1004a9:	e9 8a 00 00 00       	jmp    100538 <cprintf+0x14c>
/u/a/b/abhijith/CS537/p3a/xv6-sp20/kernel/console.c:77
  1004ae:	8b 45 f0             	mov    -0x10(%ebp),%eax
  1004b1:	8d 50 04             	lea    0x4(%eax),%edx
  1004b4:	89 55 f0             	mov    %edx,-0x10(%ebp)
  1004b7:	8b 00                	mov    (%eax),%eax
  1004b9:	83 ec 04             	sub    $0x4,%esp
  1004bc:	6a 00                	push   $0x0
  1004be:	6a 10                	push   $0x10
  1004c0:	50                   	push   %eax
  1004c1:	e8 7b fe ff ff       	call   100341 <printint>
  1004c6:	83 c4 10             	add    $0x10,%esp
/u/a/b/abhijith/CS537/p3a/xv6-sp20/kernel/console.c:78
  1004c9:	eb 6d                	jmp    100538 <cprintf+0x14c>
/u/a/b/abhijith/CS537/p3a/xv6-sp20/kernel/console.c:80
  1004cb:	8b 45 f0             	mov    -0x10(%ebp),%eax
  1004ce:	8d 50 04             	lea    0x4(%eax),%edx
  1004d1:	89 55 f0             	mov    %edx,-0x10(%ebp)
  1004d4:	8b 00                	mov    (%eax),%eax
  1004d6:	89 45 ec             	mov    %eax,-0x14(%ebp)
  1004d9:	83 7d ec 00          	cmpl   $0x0,-0x14(%ebp)
  1004dd:	75 22                	jne    100501 <cprintf+0x115>
/u/a/b/abhijith/CS537/p3a/xv6-sp20/kernel/console.c:81
  1004df:	c7 45 ec ea 7d 10 00 	movl   $0x107dea,-0x14(%ebp)
/u/a/b/abhijith/CS537/p3a/xv6-sp20/kernel/console.c:82
  1004e6:	eb 19                	jmp    100501 <cprintf+0x115>
/u/a/b/abhijith/CS537/p3a/xv6-sp20/kernel/console.c:83 (discriminator 2)
  1004e8:	8b 45 ec             	mov    -0x14(%ebp),%eax
  1004eb:	0f b6 00             	movzbl (%eax),%eax
  1004ee:	0f be c0             	movsbl %al,%eax
  1004f1:	83 ec 0c             	sub    $0xc,%esp
  1004f4:	50                   	push   %eax
  1004f5:	e8 96 02 00 00       	call   100790 <consputc>
  1004fa:	83 c4 10             	add    $0x10,%esp
/u/a/b/abhijith/CS537/p3a/xv6-sp20/kernel/console.c:82 (discriminator 2)
  1004fd:	83 45 ec 01          	addl   $0x1,-0x14(%ebp)
/u/a/b/abhijith/CS537/p3a/xv6-sp20/kernel/console.c:82 (discriminator 1)
  100501:	8b 45 ec             	mov    -0x14(%ebp),%eax
  100504:	0f b6 00             	movzbl (%eax),%eax
  100507:	84 c0                	test   %al,%al
  100509:	75 dd                	jne    1004e8 <cprintf+0xfc>
/u/a/b/abhijith/CS537/p3a/xv6-sp20/kernel/console.c:84
  10050b:	eb 2b                	jmp    100538 <cprintf+0x14c>
/u/a/b/abhijith/CS537/p3a/xv6-sp20/kernel/console.c:86
  10050d:	83 ec 0c             	sub    $0xc,%esp
  100510:	6a 25                	push   $0x25
  100512:	e8 79 02 00 00       	call   100790 <consputc>
  100517:	83 c4 10             	add    $0x10,%esp
/u/a/b/abhijith/CS537/p3a/xv6-sp20/kernel/console.c:87
  10051a:	eb 1c                	jmp    100538 <cprintf+0x14c>
/u/a/b/abhijith/CS537/p3a/xv6-sp20/kernel/console.c:90
  10051c:	83 ec 0c             	sub    $0xc,%esp
  10051f:	6a 25                	push   $0x25
  100521:	e8 6a 02 00 00       	call   100790 <consputc>
  100526:	83 c4 10             	add    $0x10,%esp
/u/a/b/abhijith/CS537/p3a/xv6-sp20/kernel/console.c:91
  100529:	83 ec 0c             	sub    $0xc,%esp
  10052c:	ff 75 e4             	pushl  -0x1c(%ebp)
  10052f:	e8 5c 02 00 00       	call   100790 <consputc>
  100534:	83 c4 10             	add    $0x10,%esp
/u/a/b/abhijith/CS537/p3a/xv6-sp20/kernel/console.c:92
  100537:	90                   	nop
/u/a/b/abhijith/CS537/p3a/xv6-sp20/kernel/console.c:63 (discriminator 2)
  100538:	83 45 f4 01          	addl   $0x1,-0xc(%ebp)
/u/a/b/abhijith/CS537/p3a/xv6-sp20/kernel/console.c:63 (discriminator 1)
  10053c:	8b 55 08             	mov    0x8(%ebp),%edx
  10053f:	8b 45 f4             	mov    -0xc(%ebp),%eax
  100542:	01 d0                	add    %edx,%eax
  100544:	0f b6 00             	movzbl (%eax),%eax
  100547:	0f be c0             	movsbl %al,%eax
  10054a:	25 ff 00 00 00       	and    $0xff,%eax
  10054f:	89 45 e4             	mov    %eax,-0x1c(%ebp)
  100552:	83 7d e4 00          	cmpl   $0x0,-0x1c(%ebp)
  100556:	0f 85 c6 fe ff ff    	jne    100422 <cprintf+0x36>
  10055c:	eb 01                	jmp    10055f <cprintf+0x173>
/u/a/b/abhijith/CS537/p3a/xv6-sp20/kernel/console.c:70
  10055e:	90                   	nop
/u/a/b/abhijith/CS537/p3a/xv6-sp20/kernel/console.c:96
  10055f:	83 7d e8 00          	cmpl   $0x0,-0x18(%ebp)
  100563:	74 10                	je     100575 <cprintf+0x189>
/u/a/b/abhijith/CS537/p3a/xv6-sp20/kernel/console.c:97
  100565:	83 ec 0c             	sub    $0xc,%esp
  100568:	68 e0 aa 10 00       	push   $0x10aae0
  10056d:	e8 db 42 00 00       	call   10484d <release>
  100572:	83 c4 10             	add    $0x10,%esp
/u/a/b/abhijith/CS537/p3a/xv6-sp20/kernel/console.c:98
  100575:	90                   	nop
  100576:	c9                   	leave  
  100577:	c3                   	ret    

00100578 <panic>:
panic():
/u/a/b/abhijith/CS537/p3a/xv6-sp20/kernel/console.c:102
  100578:	55                   	push   %ebp
  100579:	89 e5                	mov    %esp,%ebp
  10057b:	83 ec 38             	sub    $0x38,%esp
/u/a/b/abhijith/CS537/p3a/xv6-sp20/kernel/console.c:106
  10057e:	e8 b7 fd ff ff       	call   10033a <cli>
/u/a/b/abhijith/CS537/p3a/xv6-sp20/kernel/console.c:107
  100583:	c7 05 14 ab 10 00 00 	movl   $0x0,0x10ab14
  10058a:	00 00 00 
/u/a/b/abhijith/CS537/p3a/xv6-sp20/kernel/console.c:108
  10058d:	65 a1 00 00 00 00    	mov    %gs:0x0,%eax
  100593:	0f b6 00             	movzbl (%eax),%eax
  100596:	0f b6 c0             	movzbl %al,%eax
  100599:	83 ec 08             	sub    $0x8,%esp
  10059c:	50                   	push   %eax
  10059d:	68 f1 7d 10 00       	push   $0x107df1
  1005a2:	e8 45 fe ff ff       	call   1003ec <cprintf>
  1005a7:	83 c4 10             	add    $0x10,%esp
/u/a/b/abhijith/CS537/p3a/xv6-sp20/kernel/console.c:109
  1005aa:	8b 45 08             	mov    0x8(%ebp),%eax
  1005ad:	83 ec 0c             	sub    $0xc,%esp
  1005b0:	50                   	push   %eax
  1005b1:	e8 36 fe ff ff       	call   1003ec <cprintf>
  1005b6:	83 c4 10             	add    $0x10,%esp
/u/a/b/abhijith/CS537/p3a/xv6-sp20/kernel/console.c:110
  1005b9:	83 ec 0c             	sub    $0xc,%esp
  1005bc:	68 00 7e 10 00       	push   $0x107e00
  1005c1:	e8 26 fe ff ff       	call   1003ec <cprintf>
  1005c6:	83 c4 10             	add    $0x10,%esp
/u/a/b/abhijith/CS537/p3a/xv6-sp20/kernel/console.c:111
  1005c9:	83 ec 08             	sub    $0x8,%esp
  1005cc:	8d 45 cc             	lea    -0x34(%ebp),%eax
  1005cf:	50                   	push   %eax
  1005d0:	8d 45 08             	lea    0x8(%ebp),%eax
  1005d3:	50                   	push   %eax
  1005d4:	e8 c6 42 00 00       	call   10489f <getcallerpcs>
  1005d9:	83 c4 10             	add    $0x10,%esp
/u/a/b/abhijith/CS537/p3a/xv6-sp20/kernel/console.c:112
  1005dc:	c7 45 f4 00 00 00 00 	movl   $0x0,-0xc(%ebp)
  1005e3:	eb 1c                	jmp    100601 <panic+0x89>
/u/a/b/abhijith/CS537/p3a/xv6-sp20/kernel/console.c:113 (discriminator 3)
  1005e5:	8b 45 f4             	mov    -0xc(%ebp),%eax
  1005e8:	8b 44 85 cc          	mov    -0x34(%ebp,%eax,4),%eax
  1005ec:	83 ec 08             	sub    $0x8,%esp
  1005ef:	50                   	push   %eax
  1005f0:	68 02 7e 10 00       	push   $0x107e02
  1005f5:	e8 f2 fd ff ff       	call   1003ec <cprintf>
  1005fa:	83 c4 10             	add    $0x10,%esp
/u/a/b/abhijith/CS537/p3a/xv6-sp20/kernel/console.c:112 (discriminator 3)
  1005fd:	83 45 f4 01          	addl   $0x1,-0xc(%ebp)
/u/a/b/abhijith/CS537/p3a/xv6-sp20/kernel/console.c:112 (discriminator 1)
  100601:	83 7d f4 09          	cmpl   $0x9,-0xc(%ebp)
  100605:	7e de                	jle    1005e5 <panic+0x6d>
/u/a/b/abhijith/CS537/p3a/xv6-sp20/kernel/console.c:114
  100607:	c7 05 c0 aa 10 00 01 	movl   $0x1,0x10aac0
  10060e:	00 00 00 
/u/a/b/abhijith/CS537/p3a/xv6-sp20/kernel/console.c:115 (discriminator 1)
  100611:	eb fe                	jmp    100611 <panic+0x99>

00100613 <cgaputc>:
cgaputc():
/u/a/b/abhijith/CS537/p3a/xv6-sp20/kernel/console.c:125
  100613:	55                   	push   %ebp
  100614:	89 e5                	mov    %esp,%ebp
  100616:	53                   	push   %ebx
  100617:	83 ec 14             	sub    $0x14,%esp
/u/a/b/abhijith/CS537/p3a/xv6-sp20/kernel/console.c:129
  10061a:	6a 0e                	push   $0xe
  10061c:	68 d4 03 00 00       	push   $0x3d4
  100621:	e8 f5 fc ff ff       	call   10031b <outb>
  100626:	83 c4 08             	add    $0x8,%esp
/u/a/b/abhijith/CS537/p3a/xv6-sp20/kernel/console.c:130
  100629:	68 d5 03 00 00       	push   $0x3d5
  10062e:	e8 cb fc ff ff       	call   1002fe <inb>
  100633:	83 c4 04             	add    $0x4,%esp
  100636:	0f b6 c0             	movzbl %al,%eax
  100639:	c1 e0 08             	shl    $0x8,%eax
  10063c:	89 45 f4             	mov    %eax,-0xc(%ebp)
/u/a/b/abhijith/CS537/p3a/xv6-sp20/kernel/console.c:131
  10063f:	6a 0f                	push   $0xf
  100641:	68 d4 03 00 00       	push   $0x3d4
  100646:	e8 d0 fc ff ff       	call   10031b <outb>
  10064b:	83 c4 08             	add    $0x8,%esp
/u/a/b/abhijith/CS537/p3a/xv6-sp20/kernel/console.c:132
  10064e:	68 d5 03 00 00       	push   $0x3d5
  100653:	e8 a6 fc ff ff       	call   1002fe <inb>
  100658:	83 c4 04             	add    $0x4,%esp
  10065b:	0f b6 c0             	movzbl %al,%eax
  10065e:	09 45 f4             	or     %eax,-0xc(%ebp)
/u/a/b/abhijith/CS537/p3a/xv6-sp20/kernel/console.c:134
  100661:	83 7d 08 0a          	cmpl   $0xa,0x8(%ebp)
  100665:	75 30                	jne    100697 <cgaputc+0x84>
/u/a/b/abhijith/CS537/p3a/xv6-sp20/kernel/console.c:135
  100667:	8b 4d f4             	mov    -0xc(%ebp),%ecx
  10066a:	ba 67 66 66 66       	mov    $0x66666667,%edx
  10066f:	89 c8                	mov    %ecx,%eax
  100671:	f7 ea                	imul   %edx
  100673:	c1 fa 05             	sar    $0x5,%edx
  100676:	89 c8                	mov    %ecx,%eax
  100678:	c1 f8 1f             	sar    $0x1f,%eax
  10067b:	29 c2                	sub    %eax,%edx
  10067d:	89 d0                	mov    %edx,%eax
  10067f:	c1 e0 02             	shl    $0x2,%eax
  100682:	01 d0                	add    %edx,%eax
  100684:	c1 e0 04             	shl    $0x4,%eax
  100687:	29 c1                	sub    %eax,%ecx
  100689:	89 ca                	mov    %ecx,%edx
  10068b:	b8 50 00 00 00       	mov    $0x50,%eax
  100690:	29 d0                	sub    %edx,%eax
  100692:	01 45 f4             	add    %eax,-0xc(%ebp)
  100695:	eb 38                	jmp    1006cf <cgaputc+0xbc>
/u/a/b/abhijith/CS537/p3a/xv6-sp20/kernel/console.c:136
  100697:	81 7d 08 00 01 00 00 	cmpl   $0x100,0x8(%ebp)
  10069e:	75 0c                	jne    1006ac <cgaputc+0x99>
/u/a/b/abhijith/CS537/p3a/xv6-sp20/kernel/console.c:137
  1006a0:	83 7d f4 00          	cmpl   $0x0,-0xc(%ebp)
  1006a4:	7e 29                	jle    1006cf <cgaputc+0xbc>
/u/a/b/abhijith/CS537/p3a/xv6-sp20/kernel/console.c:137 (discriminator 1)
  1006a6:	83 6d f4 01          	subl   $0x1,-0xc(%ebp)
  1006aa:	eb 23                	jmp    1006cf <cgaputc+0xbc>
/u/a/b/abhijith/CS537/p3a/xv6-sp20/kernel/console.c:139
  1006ac:	8b 45 08             	mov    0x8(%ebp),%eax
  1006af:	0f b6 c0             	movzbl %al,%eax
  1006b2:	80 cc 07             	or     $0x7,%ah
  1006b5:	89 c3                	mov    %eax,%ebx
  1006b7:	8b 0d 04 a0 10 00    	mov    0x10a004,%ecx
  1006bd:	8b 45 f4             	mov    -0xc(%ebp),%eax
  1006c0:	8d 50 01             	lea    0x1(%eax),%edx
  1006c3:	89 55 f4             	mov    %edx,-0xc(%ebp)
  1006c6:	01 c0                	add    %eax,%eax
  1006c8:	01 c8                	add    %ecx,%eax
  1006ca:	89 da                	mov    %ebx,%edx
  1006cc:	66 89 10             	mov    %dx,(%eax)
/u/a/b/abhijith/CS537/p3a/xv6-sp20/kernel/console.c:141
  1006cf:	81 7d f4 7f 07 00 00 	cmpl   $0x77f,-0xc(%ebp)
  1006d6:	7e 4c                	jle    100724 <cgaputc+0x111>
/u/a/b/abhijith/CS537/p3a/xv6-sp20/kernel/console.c:142
  1006d8:	a1 04 a0 10 00       	mov    0x10a004,%eax
  1006dd:	8d 90 a0 00 00 00    	lea    0xa0(%eax),%edx
  1006e3:	a1 04 a0 10 00       	mov    0x10a004,%eax
  1006e8:	83 ec 04             	sub    $0x4,%esp
  1006eb:	68 60 0e 00 00       	push   $0xe60
  1006f0:	52                   	push   %edx
  1006f1:	50                   	push   %eax
  1006f2:	e8 9e 43 00 00       	call   104a95 <memmove>
  1006f7:	83 c4 10             	add    $0x10,%esp
/u/a/b/abhijith/CS537/p3a/xv6-sp20/kernel/console.c:143
  1006fa:	83 6d f4 50          	subl   $0x50,-0xc(%ebp)
/u/a/b/abhijith/CS537/p3a/xv6-sp20/kernel/console.c:144
  1006fe:	b8 80 07 00 00       	mov    $0x780,%eax
  100703:	2b 45 f4             	sub    -0xc(%ebp),%eax
  100706:	8d 14 00             	lea    (%eax,%eax,1),%edx
  100709:	a1 04 a0 10 00       	mov    0x10a004,%eax
  10070e:	8b 4d f4             	mov    -0xc(%ebp),%ecx
  100711:	01 c9                	add    %ecx,%ecx
  100713:	01 c8                	add    %ecx,%eax
  100715:	83 ec 04             	sub    $0x4,%esp
  100718:	52                   	push   %edx
  100719:	6a 00                	push   $0x0
  10071b:	50                   	push   %eax
  10071c:	e8 02 43 00 00       	call   104a23 <memset>
  100721:	83 c4 10             	add    $0x10,%esp
/u/a/b/abhijith/CS537/p3a/xv6-sp20/kernel/console.c:147
  100724:	83 ec 08             	sub    $0x8,%esp
  100727:	6a 0e                	push   $0xe
  100729:	68 d4 03 00 00       	push   $0x3d4
  10072e:	e8 e8 fb ff ff       	call   10031b <outb>
  100733:	83 c4 10             	add    $0x10,%esp
/u/a/b/abhijith/CS537/p3a/xv6-sp20/kernel/console.c:148
  100736:	8b 45 f4             	mov    -0xc(%ebp),%eax
  100739:	c1 f8 08             	sar    $0x8,%eax
  10073c:	0f b6 c0             	movzbl %al,%eax
  10073f:	83 ec 08             	sub    $0x8,%esp
  100742:	50                   	push   %eax
  100743:	68 d5 03 00 00       	push   $0x3d5
  100748:	e8 ce fb ff ff       	call   10031b <outb>
  10074d:	83 c4 10             	add    $0x10,%esp
/u/a/b/abhijith/CS537/p3a/xv6-sp20/kernel/console.c:149
  100750:	83 ec 08             	sub    $0x8,%esp
  100753:	6a 0f                	push   $0xf
  100755:	68 d4 03 00 00       	push   $0x3d4
  10075a:	e8 bc fb ff ff       	call   10031b <outb>
  10075f:	83 c4 10             	add    $0x10,%esp
/u/a/b/abhijith/CS537/p3a/xv6-sp20/kernel/console.c:150
  100762:	8b 45 f4             	mov    -0xc(%ebp),%eax
  100765:	0f b6 c0             	movzbl %al,%eax
  100768:	83 ec 08             	sub    $0x8,%esp
  10076b:	50                   	push   %eax
  10076c:	68 d5 03 00 00       	push   $0x3d5
  100771:	e8 a5 fb ff ff       	call   10031b <outb>
  100776:	83 c4 10             	add    $0x10,%esp
/u/a/b/abhijith/CS537/p3a/xv6-sp20/kernel/console.c:151
  100779:	a1 04 a0 10 00       	mov    0x10a004,%eax
  10077e:	8b 55 f4             	mov    -0xc(%ebp),%edx
  100781:	01 d2                	add    %edx,%edx
  100783:	01 d0                	add    %edx,%eax
  100785:	66 c7 00 20 07       	movw   $0x720,(%eax)
/u/a/b/abhijith/CS537/p3a/xv6-sp20/kernel/console.c:152
  10078a:	90                   	nop
  10078b:	8b 5d fc             	mov    -0x4(%ebp),%ebx
  10078e:	c9                   	leave  
  10078f:	c3                   	ret    

00100790 <consputc>:
consputc():
/u/a/b/abhijith/CS537/p3a/xv6-sp20/kernel/console.c:156
  100790:	55                   	push   %ebp
  100791:	89 e5                	mov    %esp,%ebp
  100793:	83 ec 08             	sub    $0x8,%esp
/u/a/b/abhijith/CS537/p3a/xv6-sp20/kernel/console.c:157
  100796:	a1 c0 aa 10 00       	mov    0x10aac0,%eax
  10079b:	85 c0                	test   %eax,%eax
  10079d:	74 07                	je     1007a6 <consputc+0x16>
/u/a/b/abhijith/CS537/p3a/xv6-sp20/kernel/console.c:158
  10079f:	e8 96 fb ff ff       	call   10033a <cli>
/u/a/b/abhijith/CS537/p3a/xv6-sp20/kernel/console.c:159 (discriminator 1)
  1007a4:	eb fe                	jmp    1007a4 <consputc+0x14>
/u/a/b/abhijith/CS537/p3a/xv6-sp20/kernel/console.c:163
  1007a6:	81 7d 08 00 01 00 00 	cmpl   $0x100,0x8(%ebp)
  1007ad:	75 29                	jne    1007d8 <consputc+0x48>
/u/a/b/abhijith/CS537/p3a/xv6-sp20/kernel/console.c:164
  1007af:	83 ec 0c             	sub    $0xc,%esp
  1007b2:	6a 08                	push   $0x8
  1007b4:	e8 4d 5c 00 00       	call   106406 <uartputc>
  1007b9:	83 c4 10             	add    $0x10,%esp
  1007bc:	83 ec 0c             	sub    $0xc,%esp
  1007bf:	6a 20                	push   $0x20
  1007c1:	e8 40 5c 00 00       	call   106406 <uartputc>
  1007c6:	83 c4 10             	add    $0x10,%esp
  1007c9:	83 ec 0c             	sub    $0xc,%esp
  1007cc:	6a 08                	push   $0x8
  1007ce:	e8 33 5c 00 00       	call   106406 <uartputc>
  1007d3:	83 c4 10             	add    $0x10,%esp
  1007d6:	eb 0e                	jmp    1007e6 <consputc+0x56>
/u/a/b/abhijith/CS537/p3a/xv6-sp20/kernel/console.c:166
  1007d8:	83 ec 0c             	sub    $0xc,%esp
  1007db:	ff 75 08             	pushl  0x8(%ebp)
  1007de:	e8 23 5c 00 00       	call   106406 <uartputc>
  1007e3:	83 c4 10             	add    $0x10,%esp
/u/a/b/abhijith/CS537/p3a/xv6-sp20/kernel/console.c:167
  1007e6:	83 ec 0c             	sub    $0xc,%esp
  1007e9:	ff 75 08             	pushl  0x8(%ebp)
  1007ec:	e8 22 fe ff ff       	call   100613 <cgaputc>
  1007f1:	83 c4 10             	add    $0x10,%esp
/u/a/b/abhijith/CS537/p3a/xv6-sp20/kernel/console.c:168
  1007f4:	90                   	nop
  1007f5:	c9                   	leave  
  1007f6:	c3                   	ret    

001007f7 <consoleintr>:
consoleintr():
/u/a/b/abhijith/CS537/p3a/xv6-sp20/kernel/console.c:183
  1007f7:	55                   	push   %ebp
  1007f8:	89 e5                	mov    %esp,%ebp
  1007fa:	83 ec 18             	sub    $0x18,%esp
/u/a/b/abhijith/CS537/p3a/xv6-sp20/kernel/console.c:186
  1007fd:	83 ec 0c             	sub    $0xc,%esp
  100800:	68 c0 e2 10 00       	push   $0x10e2c0
  100805:	e8 dc 3f 00 00       	call   1047e6 <acquire>
  10080a:	83 c4 10             	add    $0x10,%esp
/u/a/b/abhijith/CS537/p3a/xv6-sp20/kernel/console.c:187
  10080d:	e9 42 01 00 00       	jmp    100954 <consoleintr+0x15d>
/u/a/b/abhijith/CS537/p3a/xv6-sp20/kernel/console.c:188
  100812:	8b 45 f4             	mov    -0xc(%ebp),%eax
  100815:	83 f8 10             	cmp    $0x10,%eax
  100818:	74 1e                	je     100838 <consoleintr+0x41>
  10081a:	83 f8 10             	cmp    $0x10,%eax
  10081d:	7f 0a                	jg     100829 <consoleintr+0x32>
  10081f:	83 f8 08             	cmp    $0x8,%eax
  100822:	74 69                	je     10088d <consoleintr+0x96>
  100824:	e9 99 00 00 00       	jmp    1008c2 <consoleintr+0xcb>
  100829:	83 f8 15             	cmp    $0x15,%eax
  10082c:	74 31                	je     10085f <consoleintr+0x68>
  10082e:	83 f8 7f             	cmp    $0x7f,%eax
  100831:	74 5a                	je     10088d <consoleintr+0x96>
  100833:	e9 8a 00 00 00       	jmp    1008c2 <consoleintr+0xcb>
/u/a/b/abhijith/CS537/p3a/xv6-sp20/kernel/console.c:190
  100838:	e8 56 3e 00 00       	call   104693 <procdump>
/u/a/b/abhijith/CS537/p3a/xv6-sp20/kernel/console.c:191
  10083d:	e9 12 01 00 00       	jmp    100954 <consoleintr+0x15d>
/u/a/b/abhijith/CS537/p3a/xv6-sp20/kernel/console.c:195
  100842:	a1 7c e3 10 00       	mov    0x10e37c,%eax
  100847:	83 e8 01             	sub    $0x1,%eax
  10084a:	a3 7c e3 10 00       	mov    %eax,0x10e37c
/u/a/b/abhijith/CS537/p3a/xv6-sp20/kernel/console.c:196
  10084f:	83 ec 0c             	sub    $0xc,%esp
  100852:	68 00 01 00 00       	push   $0x100
  100857:	e8 34 ff ff ff       	call   100790 <consputc>
  10085c:	83 c4 10             	add    $0x10,%esp
/u/a/b/abhijith/CS537/p3a/xv6-sp20/kernel/console.c:193
  10085f:	8b 15 7c e3 10 00    	mov    0x10e37c,%edx
  100865:	a1 78 e3 10 00       	mov    0x10e378,%eax
  10086a:	39 c2                	cmp    %eax,%edx
  10086c:	0f 84 e2 00 00 00    	je     100954 <consoleintr+0x15d>
/u/a/b/abhijith/CS537/p3a/xv6-sp20/kernel/console.c:194 (discriminator 1)
  100872:	a1 7c e3 10 00       	mov    0x10e37c,%eax
  100877:	83 e8 01             	sub    $0x1,%eax
  10087a:	83 e0 7f             	and    $0x7f,%eax
  10087d:	0f b6 80 f4 e2 10 00 	movzbl 0x10e2f4(%eax),%eax
/u/a/b/abhijith/CS537/p3a/xv6-sp20/kernel/console.c:193 (discriminator 1)
  100884:	3c 0a                	cmp    $0xa,%al
  100886:	75 ba                	jne    100842 <consoleintr+0x4b>
/u/a/b/abhijith/CS537/p3a/xv6-sp20/kernel/console.c:198
  100888:	e9 c7 00 00 00       	jmp    100954 <consoleintr+0x15d>
/u/a/b/abhijith/CS537/p3a/xv6-sp20/kernel/console.c:200
  10088d:	8b 15 7c e3 10 00    	mov    0x10e37c,%edx
  100893:	a1 78 e3 10 00       	mov    0x10e378,%eax
  100898:	39 c2                	cmp    %eax,%edx
  10089a:	0f 84 b4 00 00 00    	je     100954 <consoleintr+0x15d>
/u/a/b/abhijith/CS537/p3a/xv6-sp20/kernel/console.c:201
  1008a0:	a1 7c e3 10 00       	mov    0x10e37c,%eax
  1008a5:	83 e8 01             	sub    $0x1,%eax
  1008a8:	a3 7c e3 10 00       	mov    %eax,0x10e37c
/u/a/b/abhijith/CS537/p3a/xv6-sp20/kernel/console.c:202
  1008ad:	83 ec 0c             	sub    $0xc,%esp
  1008b0:	68 00 01 00 00       	push   $0x100
  1008b5:	e8 d6 fe ff ff       	call   100790 <consputc>
  1008ba:	83 c4 10             	add    $0x10,%esp
/u/a/b/abhijith/CS537/p3a/xv6-sp20/kernel/console.c:204
  1008bd:	e9 92 00 00 00       	jmp    100954 <consoleintr+0x15d>
/u/a/b/abhijith/CS537/p3a/xv6-sp20/kernel/console.c:206
  1008c2:	83 7d f4 00          	cmpl   $0x0,-0xc(%ebp)
  1008c6:	0f 84 87 00 00 00    	je     100953 <consoleintr+0x15c>
/u/a/b/abhijith/CS537/p3a/xv6-sp20/kernel/console.c:206 (discriminator 1)
  1008cc:	8b 15 7c e3 10 00    	mov    0x10e37c,%edx
  1008d2:	a1 74 e3 10 00       	mov    0x10e374,%eax
  1008d7:	29 c2                	sub    %eax,%edx
  1008d9:	89 d0                	mov    %edx,%eax
  1008db:	83 f8 7f             	cmp    $0x7f,%eax
  1008de:	77 73                	ja     100953 <consoleintr+0x15c>
/u/a/b/abhijith/CS537/p3a/xv6-sp20/kernel/console.c:207
  1008e0:	83 7d f4 0d          	cmpl   $0xd,-0xc(%ebp)
  1008e4:	74 05                	je     1008eb <consoleintr+0xf4>
/u/a/b/abhijith/CS537/p3a/xv6-sp20/kernel/console.c:207 (discriminator 1)
  1008e6:	8b 45 f4             	mov    -0xc(%ebp),%eax
  1008e9:	eb 05                	jmp    1008f0 <consoleintr+0xf9>
/u/a/b/abhijith/CS537/p3a/xv6-sp20/kernel/console.c:207 (discriminator 2)
  1008eb:	b8 0a 00 00 00       	mov    $0xa,%eax
/u/a/b/abhijith/CS537/p3a/xv6-sp20/kernel/console.c:207 (discriminator 4)
  1008f0:	89 45 f4             	mov    %eax,-0xc(%ebp)
/u/a/b/abhijith/CS537/p3a/xv6-sp20/kernel/console.c:208 (discriminator 4)
  1008f3:	a1 7c e3 10 00       	mov    0x10e37c,%eax
  1008f8:	8d 50 01             	lea    0x1(%eax),%edx
  1008fb:	89 15 7c e3 10 00    	mov    %edx,0x10e37c
  100901:	83 e0 7f             	and    $0x7f,%eax
  100904:	8b 55 f4             	mov    -0xc(%ebp),%edx
  100907:	88 90 f4 e2 10 00    	mov    %dl,0x10e2f4(%eax)
/u/a/b/abhijith/CS537/p3a/xv6-sp20/kernel/console.c:209 (discriminator 4)
  10090d:	83 ec 0c             	sub    $0xc,%esp
  100910:	ff 75 f4             	pushl  -0xc(%ebp)
  100913:	e8 78 fe ff ff       	call   100790 <consputc>
  100918:	83 c4 10             	add    $0x10,%esp
/u/a/b/abhijith/CS537/p3a/xv6-sp20/kernel/console.c:210 (discriminator 4)
  10091b:	83 7d f4 0a          	cmpl   $0xa,-0xc(%ebp)
  10091f:	74 18                	je     100939 <consoleintr+0x142>
/u/a/b/abhijith/CS537/p3a/xv6-sp20/kernel/console.c:210 (discriminator 1)
  100921:	83 7d f4 04          	cmpl   $0x4,-0xc(%ebp)
  100925:	74 12                	je     100939 <consoleintr+0x142>
/u/a/b/abhijith/CS537/p3a/xv6-sp20/kernel/console.c:210 (discriminator 2)
  100927:	a1 7c e3 10 00       	mov    0x10e37c,%eax
  10092c:	8b 15 74 e3 10 00    	mov    0x10e374,%edx
  100932:	83 ea 80             	sub    $0xffffff80,%edx
  100935:	39 d0                	cmp    %edx,%eax
  100937:	75 1a                	jne    100953 <consoleintr+0x15c>
/u/a/b/abhijith/CS537/p3a/xv6-sp20/kernel/console.c:211
  100939:	a1 7c e3 10 00       	mov    0x10e37c,%eax
  10093e:	a3 78 e3 10 00       	mov    %eax,0x10e378
/u/a/b/abhijith/CS537/p3a/xv6-sp20/kernel/console.c:212
  100943:	83 ec 0c             	sub    $0xc,%esp
  100946:	68 74 e3 10 00       	push   $0x10e374
  10094b:	e8 88 3c 00 00       	call   1045d8 <wakeup>
  100950:	83 c4 10             	add    $0x10,%esp
/u/a/b/abhijith/CS537/p3a/xv6-sp20/kernel/console.c:215
  100953:	90                   	nop
/u/a/b/abhijith/CS537/p3a/xv6-sp20/kernel/console.c:187
  100954:	8b 45 08             	mov    0x8(%ebp),%eax
  100957:	ff d0                	call   *%eax
  100959:	89 45 f4             	mov    %eax,-0xc(%ebp)
  10095c:	83 7d f4 00          	cmpl   $0x0,-0xc(%ebp)
  100960:	0f 89 ac fe ff ff    	jns    100812 <consoleintr+0x1b>
/u/a/b/abhijith/CS537/p3a/xv6-sp20/kernel/console.c:218
  100966:	83 ec 0c             	sub    $0xc,%esp
  100969:	68 c0 e2 10 00       	push   $0x10e2c0
  10096e:	e8 da 3e 00 00       	call   10484d <release>
  100973:	83 c4 10             	add    $0x10,%esp
/u/a/b/abhijith/CS537/p3a/xv6-sp20/kernel/console.c:219
  100976:	90                   	nop
  100977:	c9                   	leave  
  100978:	c3                   	ret    

00100979 <consoleread>:
consoleread():
/u/a/b/abhijith/CS537/p3a/xv6-sp20/kernel/console.c:223
  100979:	55                   	push   %ebp
  10097a:	89 e5                	mov    %esp,%ebp
  10097c:	83 ec 18             	sub    $0x18,%esp
/u/a/b/abhijith/CS537/p3a/xv6-sp20/kernel/console.c:227
  10097f:	83 ec 0c             	sub    $0xc,%esp
  100982:	ff 75 08             	pushl  0x8(%ebp)
  100985:	e8 1d 10 00 00       	call   1019a7 <iunlock>
  10098a:	83 c4 10             	add    $0x10,%esp
/u/a/b/abhijith/CS537/p3a/xv6-sp20/kernel/console.c:228
  10098d:	8b 45 10             	mov    0x10(%ebp),%eax
  100990:	89 45 f4             	mov    %eax,-0xc(%ebp)
/u/a/b/abhijith/CS537/p3a/xv6-sp20/kernel/console.c:229
  100993:	83 ec 0c             	sub    $0xc,%esp
  100996:	68 c0 e2 10 00       	push   $0x10e2c0
  10099b:	e8 46 3e 00 00       	call   1047e6 <acquire>
  1009a0:	83 c4 10             	add    $0x10,%esp
/u/a/b/abhijith/CS537/p3a/xv6-sp20/kernel/console.c:230
  1009a3:	e9 ac 00 00 00       	jmp    100a54 <consoleread+0xdb>
/u/a/b/abhijith/CS537/p3a/xv6-sp20/kernel/console.c:232
  1009a8:	65 a1 04 00 00 00    	mov    %gs:0x4,%eax
  1009ae:	8b 40 24             	mov    0x24(%eax),%eax
  1009b1:	85 c0                	test   %eax,%eax
  1009b3:	74 28                	je     1009dd <consoleread+0x64>
/u/a/b/abhijith/CS537/p3a/xv6-sp20/kernel/console.c:233
  1009b5:	83 ec 0c             	sub    $0xc,%esp
  1009b8:	68 c0 e2 10 00       	push   $0x10e2c0
  1009bd:	e8 8b 3e 00 00       	call   10484d <release>
  1009c2:	83 c4 10             	add    $0x10,%esp
/u/a/b/abhijith/CS537/p3a/xv6-sp20/kernel/console.c:234
  1009c5:	83 ec 0c             	sub    $0xc,%esp
  1009c8:	ff 75 08             	pushl  0x8(%ebp)
  1009cb:	e8 7f 0e 00 00       	call   10184f <ilock>
  1009d0:	83 c4 10             	add    $0x10,%esp
/u/a/b/abhijith/CS537/p3a/xv6-sp20/kernel/console.c:235
  1009d3:	b8 ff ff ff ff       	mov    $0xffffffff,%eax
  1009d8:	e9 ab 00 00 00       	jmp    100a88 <consoleread+0x10f>
/u/a/b/abhijith/CS537/p3a/xv6-sp20/kernel/console.c:237
  1009dd:	83 ec 08             	sub    $0x8,%esp
  1009e0:	68 c0 e2 10 00       	push   $0x10e2c0
  1009e5:	68 74 e3 10 00       	push   $0x10e374
  1009ea:	e8 fe 3a 00 00       	call   1044ed <sleep>
  1009ef:	83 c4 10             	add    $0x10,%esp
/u/a/b/abhijith/CS537/p3a/xv6-sp20/kernel/console.c:231
  1009f2:	8b 15 74 e3 10 00    	mov    0x10e374,%edx
  1009f8:	a1 78 e3 10 00       	mov    0x10e378,%eax
  1009fd:	39 c2                	cmp    %eax,%edx
  1009ff:	74 a7                	je     1009a8 <consoleread+0x2f>
/u/a/b/abhijith/CS537/p3a/xv6-sp20/kernel/console.c:239
  100a01:	a1 74 e3 10 00       	mov    0x10e374,%eax
  100a06:	8d 50 01             	lea    0x1(%eax),%edx
  100a09:	89 15 74 e3 10 00    	mov    %edx,0x10e374
  100a0f:	83 e0 7f             	and    $0x7f,%eax
  100a12:	0f b6 80 f4 e2 10 00 	movzbl 0x10e2f4(%eax),%eax
  100a19:	0f be c0             	movsbl %al,%eax
  100a1c:	89 45 f0             	mov    %eax,-0x10(%ebp)
/u/a/b/abhijith/CS537/p3a/xv6-sp20/kernel/console.c:240
  100a1f:	83 7d f0 04          	cmpl   $0x4,-0x10(%ebp)
  100a23:	75 17                	jne    100a3c <consoleread+0xc3>
/u/a/b/abhijith/CS537/p3a/xv6-sp20/kernel/console.c:241
  100a25:	8b 45 10             	mov    0x10(%ebp),%eax
  100a28:	39 45 f4             	cmp    %eax,-0xc(%ebp)
  100a2b:	76 2f                	jbe    100a5c <consoleread+0xe3>
/u/a/b/abhijith/CS537/p3a/xv6-sp20/kernel/console.c:244
  100a2d:	a1 74 e3 10 00       	mov    0x10e374,%eax
  100a32:	83 e8 01             	sub    $0x1,%eax
  100a35:	a3 74 e3 10 00       	mov    %eax,0x10e374
/u/a/b/abhijith/CS537/p3a/xv6-sp20/kernel/console.c:246
  100a3a:	eb 20                	jmp    100a5c <consoleread+0xe3>
/u/a/b/abhijith/CS537/p3a/xv6-sp20/kernel/console.c:248
  100a3c:	8b 45 0c             	mov    0xc(%ebp),%eax
  100a3f:	8d 50 01             	lea    0x1(%eax),%edx
  100a42:	89 55 0c             	mov    %edx,0xc(%ebp)
  100a45:	8b 55 f0             	mov    -0x10(%ebp),%edx
  100a48:	88 10                	mov    %dl,(%eax)
/u/a/b/abhijith/CS537/p3a/xv6-sp20/kernel/console.c:249
  100a4a:	83 6d 10 01          	subl   $0x1,0x10(%ebp)
/u/a/b/abhijith/CS537/p3a/xv6-sp20/kernel/console.c:250
  100a4e:	83 7d f0 0a          	cmpl   $0xa,-0x10(%ebp)
  100a52:	74 0b                	je     100a5f <consoleread+0xe6>
/u/a/b/abhijith/CS537/p3a/xv6-sp20/kernel/console.c:230
  100a54:	83 7d 10 00          	cmpl   $0x0,0x10(%ebp)
  100a58:	7f 98                	jg     1009f2 <consoleread+0x79>
  100a5a:	eb 04                	jmp    100a60 <consoleread+0xe7>
/u/a/b/abhijith/CS537/p3a/xv6-sp20/kernel/console.c:246
  100a5c:	90                   	nop
  100a5d:	eb 01                	jmp    100a60 <consoleread+0xe7>
/u/a/b/abhijith/CS537/p3a/xv6-sp20/kernel/console.c:251
  100a5f:	90                   	nop
/u/a/b/abhijith/CS537/p3a/xv6-sp20/kernel/console.c:253
  100a60:	83 ec 0c             	sub    $0xc,%esp
  100a63:	68 c0 e2 10 00       	push   $0x10e2c0
  100a68:	e8 e0 3d 00 00       	call   10484d <release>
  100a6d:	83 c4 10             	add    $0x10,%esp
/u/a/b/abhijith/CS537/p3a/xv6-sp20/kernel/console.c:254
  100a70:	83 ec 0c             	sub    $0xc,%esp
  100a73:	ff 75 08             	pushl  0x8(%ebp)
  100a76:	e8 d4 0d 00 00       	call   10184f <ilock>
  100a7b:	83 c4 10             	add    $0x10,%esp
/u/a/b/abhijith/CS537/p3a/xv6-sp20/kernel/console.c:256
  100a7e:	8b 45 10             	mov    0x10(%ebp),%eax
  100a81:	8b 55 f4             	mov    -0xc(%ebp),%edx
  100a84:	29 c2                	sub    %eax,%edx
  100a86:	89 d0                	mov    %edx,%eax
/u/a/b/abhijith/CS537/p3a/xv6-sp20/kernel/console.c:257
  100a88:	c9                   	leave  
  100a89:	c3                   	ret    

00100a8a <consolewrite>:
consolewrite():
/u/a/b/abhijith/CS537/p3a/xv6-sp20/kernel/console.c:261
  100a8a:	55                   	push   %ebp
  100a8b:	89 e5                	mov    %esp,%ebp
  100a8d:	83 ec 18             	sub    $0x18,%esp
/u/a/b/abhijith/CS537/p3a/xv6-sp20/kernel/console.c:264
  100a90:	83 ec 0c             	sub    $0xc,%esp
  100a93:	ff 75 08             	pushl  0x8(%ebp)
  100a96:	e8 0c 0f 00 00       	call   1019a7 <iunlock>
  100a9b:	83 c4 10             	add    $0x10,%esp
/u/a/b/abhijith/CS537/p3a/xv6-sp20/kernel/console.c:265
  100a9e:	83 ec 0c             	sub    $0xc,%esp
  100aa1:	68 e0 aa 10 00       	push   $0x10aae0
  100aa6:	e8 3b 3d 00 00       	call   1047e6 <acquire>
  100aab:	83 c4 10             	add    $0x10,%esp
/u/a/b/abhijith/CS537/p3a/xv6-sp20/kernel/console.c:266
  100aae:	c7 45 f4 00 00 00 00 	movl   $0x0,-0xc(%ebp)
  100ab5:	eb 21                	jmp    100ad8 <consolewrite+0x4e>
/u/a/b/abhijith/CS537/p3a/xv6-sp20/kernel/console.c:267 (discriminator 3)
  100ab7:	8b 55 f4             	mov    -0xc(%ebp),%edx
  100aba:	8b 45 0c             	mov    0xc(%ebp),%eax
  100abd:	01 d0                	add    %edx,%eax
  100abf:	0f b6 00             	movzbl (%eax),%eax
  100ac2:	0f be c0             	movsbl %al,%eax
  100ac5:	0f b6 c0             	movzbl %al,%eax
  100ac8:	83 ec 0c             	sub    $0xc,%esp
  100acb:	50                   	push   %eax
  100acc:	e8 bf fc ff ff       	call   100790 <consputc>
  100ad1:	83 c4 10             	add    $0x10,%esp
/u/a/b/abhijith/CS537/p3a/xv6-sp20/kernel/console.c:266 (discriminator 3)
  100ad4:	83 45 f4 01          	addl   $0x1,-0xc(%ebp)
/u/a/b/abhijith/CS537/p3a/xv6-sp20/kernel/console.c:266 (discriminator 1)
  100ad8:	8b 45 f4             	mov    -0xc(%ebp),%eax
  100adb:	3b 45 10             	cmp    0x10(%ebp),%eax
  100ade:	7c d7                	jl     100ab7 <consolewrite+0x2d>
/u/a/b/abhijith/CS537/p3a/xv6-sp20/kernel/console.c:268
  100ae0:	83 ec 0c             	sub    $0xc,%esp
  100ae3:	68 e0 aa 10 00       	push   $0x10aae0
  100ae8:	e8 60 3d 00 00       	call   10484d <release>
  100aed:	83 c4 10             	add    $0x10,%esp
/u/a/b/abhijith/CS537/p3a/xv6-sp20/kernel/console.c:269
  100af0:	83 ec 0c             	sub    $0xc,%esp
  100af3:	ff 75 08             	pushl  0x8(%ebp)
  100af6:	e8 54 0d 00 00       	call   10184f <ilock>
  100afb:	83 c4 10             	add    $0x10,%esp
/u/a/b/abhijith/CS537/p3a/xv6-sp20/kernel/console.c:271
  100afe:	8b 45 10             	mov    0x10(%ebp),%eax
/u/a/b/abhijith/CS537/p3a/xv6-sp20/kernel/console.c:272
  100b01:	c9                   	leave  
  100b02:	c3                   	ret    

00100b03 <consoleinit>:
consoleinit():
/u/a/b/abhijith/CS537/p3a/xv6-sp20/kernel/console.c:276
  100b03:	55                   	push   %ebp
  100b04:	89 e5                	mov    %esp,%ebp
  100b06:	83 ec 08             	sub    $0x8,%esp
/u/a/b/abhijith/CS537/p3a/xv6-sp20/kernel/console.c:277
  100b09:	83 ec 08             	sub    $0x8,%esp
  100b0c:	68 06 7e 10 00       	push   $0x107e06
  100b11:	68 e0 aa 10 00       	push   $0x10aae0
  100b16:	e8 a9 3c 00 00       	call   1047c4 <initlock>
  100b1b:	83 c4 10             	add    $0x10,%esp
/u/a/b/abhijith/CS537/p3a/xv6-sp20/kernel/console.c:278
  100b1e:	83 ec 08             	sub    $0x8,%esp
  100b21:	68 0e 7e 10 00       	push   $0x107e0e
  100b26:	68 c0 e2 10 00       	push   $0x10e2c0
  100b2b:	e8 94 3c 00 00       	call   1047c4 <initlock>
  100b30:	83 c4 10             	add    $0x10,%esp
/u/a/b/abhijith/CS537/p3a/xv6-sp20/kernel/console.c:280
  100b33:	c7 05 2c ed 10 00 8a 	movl   $0x100a8a,0x10ed2c
  100b3a:	0a 10 00 
/u/a/b/abhijith/CS537/p3a/xv6-sp20/kernel/console.c:281
  100b3d:	c7 05 28 ed 10 00 79 	movl   $0x100979,0x10ed28
  100b44:	09 10 00 
/u/a/b/abhijith/CS537/p3a/xv6-sp20/kernel/console.c:282
  100b47:	c7 05 14 ab 10 00 01 	movl   $0x1,0x10ab14
  100b4e:	00 00 00 
/u/a/b/abhijith/CS537/p3a/xv6-sp20/kernel/console.c:284
  100b51:	83 ec 0c             	sub    $0xc,%esp
  100b54:	6a 01                	push   $0x1
  100b56:	e8 e9 2b 00 00       	call   103744 <picenable>
  100b5b:	83 c4 10             	add    $0x10,%esp
/u/a/b/abhijith/CS537/p3a/xv6-sp20/kernel/console.c:285
  100b5e:	83 ec 08             	sub    $0x8,%esp
  100b61:	6a 00                	push   $0x0
  100b63:	6a 01                	push   $0x1
  100b65:	e8 71 1e 00 00       	call   1029db <ioapicenable>
  100b6a:	83 c4 10             	add    $0x10,%esp
/u/a/b/abhijith/CS537/p3a/xv6-sp20/kernel/console.c:286
  100b6d:	90                   	nop
  100b6e:	c9                   	leave  
  100b6f:	c3                   	ret    

00100b70 <exec>:
exec():
/u/a/b/abhijith/CS537/p3a/xv6-sp20/kernel/exec.c:11
  100b70:	55                   	push   %ebp
  100b71:	89 e5                	mov    %esp,%ebp
  100b73:	81 ec 18 01 00 00    	sub    $0x118,%esp
/u/a/b/abhijith/CS537/p3a/xv6-sp20/kernel/exec.c:20
  100b79:	83 ec 0c             	sub    $0xc,%esp
  100b7c:	ff 75 08             	pushl  0x8(%ebp)
  100b7f:	e8 e1 18 00 00       	call   102465 <namei>
  100b84:	83 c4 10             	add    $0x10,%esp
  100b87:	89 45 d8             	mov    %eax,-0x28(%ebp)
  100b8a:	83 7d d8 00          	cmpl   $0x0,-0x28(%ebp)
  100b8e:	75 0a                	jne    100b9a <exec+0x2a>
/u/a/b/abhijith/CS537/p3a/xv6-sp20/kernel/exec.c:21
  100b90:	b8 ff ff ff ff       	mov    $0xffffffff,%eax
  100b95:	e9 a7 03 00 00       	jmp    100f41 <exec+0x3d1>
/u/a/b/abhijith/CS537/p3a/xv6-sp20/kernel/exec.c:22
  100b9a:	83 ec 0c             	sub    $0xc,%esp
  100b9d:	ff 75 d8             	pushl  -0x28(%ebp)
  100ba0:	e8 aa 0c 00 00       	call   10184f <ilock>
  100ba5:	83 c4 10             	add    $0x10,%esp
/u/a/b/abhijith/CS537/p3a/xv6-sp20/kernel/exec.c:23
  100ba8:	c7 45 d4 00 00 00 00 	movl   $0x0,-0x2c(%ebp)
/u/a/b/abhijith/CS537/p3a/xv6-sp20/kernel/exec.c:26
  100baf:	6a 34                	push   $0x34
  100bb1:	6a 00                	push   $0x0
  100bb3:	8d 85 0c ff ff ff    	lea    -0xf4(%ebp),%eax
  100bb9:	50                   	push   %eax
  100bba:	ff 75 d8             	pushl  -0x28(%ebp)
  100bbd:	e8 f0 11 00 00       	call   101db2 <readi>
  100bc2:	83 c4 10             	add    $0x10,%esp
  100bc5:	83 f8 33             	cmp    $0x33,%eax
  100bc8:	0f 86 27 03 00 00    	jbe    100ef5 <exec+0x385>
/u/a/b/abhijith/CS537/p3a/xv6-sp20/kernel/exec.c:28
  100bce:	8b 85 0c ff ff ff    	mov    -0xf4(%ebp),%eax
  100bd4:	3d 7f 45 4c 46       	cmp    $0x464c457f,%eax
  100bd9:	0f 85 19 03 00 00    	jne    100ef8 <exec+0x388>
/u/a/b/abhijith/CS537/p3a/xv6-sp20/kernel/exec.c:32
  100bdf:	e8 79 69 00 00       	call   10755d <setupkvm>
  100be4:	89 45 d4             	mov    %eax,-0x2c(%ebp)
  100be7:	83 7d d4 00          	cmpl   $0x0,-0x2c(%ebp)
  100beb:	0f 84 0a 03 00 00    	je     100efb <exec+0x38b>
/u/a/b/abhijith/CS537/p3a/xv6-sp20/kernel/exec.c:38
  100bf1:	c7 45 e0 00 00 00 00 	movl   $0x0,-0x20(%ebp)
/u/a/b/abhijith/CS537/p3a/xv6-sp20/kernel/exec.c:39
  100bf8:	c7 45 ec 00 00 00 00 	movl   $0x0,-0x14(%ebp)
  100bff:	8b 85 28 ff ff ff    	mov    -0xd8(%ebp),%eax
  100c05:	89 45 e8             	mov    %eax,-0x18(%ebp)
  100c08:	e9 ab 00 00 00       	jmp    100cb8 <exec+0x148>
/u/a/b/abhijith/CS537/p3a/xv6-sp20/kernel/exec.c:40
  100c0d:	8b 45 e8             	mov    -0x18(%ebp),%eax
  100c10:	6a 20                	push   $0x20
  100c12:	50                   	push   %eax
  100c13:	8d 85 ec fe ff ff    	lea    -0x114(%ebp),%eax
  100c19:	50                   	push   %eax
  100c1a:	ff 75 d8             	pushl  -0x28(%ebp)
  100c1d:	e8 90 11 00 00       	call   101db2 <readi>
  100c22:	83 c4 10             	add    $0x10,%esp
  100c25:	83 f8 20             	cmp    $0x20,%eax
  100c28:	0f 85 d0 02 00 00    	jne    100efe <exec+0x38e>
/u/a/b/abhijith/CS537/p3a/xv6-sp20/kernel/exec.c:42
  100c2e:	8b 85 ec fe ff ff    	mov    -0x114(%ebp),%eax
  100c34:	83 f8 01             	cmp    $0x1,%eax
  100c37:	75 71                	jne    100caa <exec+0x13a>
/u/a/b/abhijith/CS537/p3a/xv6-sp20/kernel/exec.c:44
  100c39:	8b 95 00 ff ff ff    	mov    -0x100(%ebp),%edx
  100c3f:	8b 85 fc fe ff ff    	mov    -0x104(%ebp),%eax
  100c45:	39 c2                	cmp    %eax,%edx
  100c47:	0f 82 b4 02 00 00    	jb     100f01 <exec+0x391>
/u/a/b/abhijith/CS537/p3a/xv6-sp20/kernel/exec.c:46
  100c4d:	8b 95 f4 fe ff ff    	mov    -0x10c(%ebp),%edx
  100c53:	8b 85 00 ff ff ff    	mov    -0x100(%ebp),%eax
  100c59:	01 d0                	add    %edx,%eax
  100c5b:	83 ec 04             	sub    $0x4,%esp
  100c5e:	50                   	push   %eax
  100c5f:	ff 75 e0             	pushl  -0x20(%ebp)
  100c62:	ff 75 d4             	pushl  -0x2c(%ebp)
  100c65:	e8 64 6c 00 00       	call   1078ce <allocuvm>
  100c6a:	83 c4 10             	add    $0x10,%esp
  100c6d:	89 45 e0             	mov    %eax,-0x20(%ebp)
  100c70:	83 7d e0 00          	cmpl   $0x0,-0x20(%ebp)
  100c74:	0f 84 8a 02 00 00    	je     100f04 <exec+0x394>
/u/a/b/abhijith/CS537/p3a/xv6-sp20/kernel/exec.c:48
  100c7a:	8b 95 fc fe ff ff    	mov    -0x104(%ebp),%edx
  100c80:	8b 85 f0 fe ff ff    	mov    -0x110(%ebp),%eax
  100c86:	8b 8d f4 fe ff ff    	mov    -0x10c(%ebp),%ecx
  100c8c:	83 ec 0c             	sub    $0xc,%esp
  100c8f:	52                   	push   %edx
  100c90:	50                   	push   %eax
  100c91:	ff 75 d8             	pushl  -0x28(%ebp)
  100c94:	51                   	push   %ecx
  100c95:	ff 75 d4             	pushl  -0x2c(%ebp)
  100c98:	e8 6a 6b 00 00       	call   107807 <loaduvm>
  100c9d:	83 c4 20             	add    $0x20,%esp
  100ca0:	85 c0                	test   %eax,%eax
  100ca2:	0f 88 5f 02 00 00    	js     100f07 <exec+0x397>
  100ca8:	eb 01                	jmp    100cab <exec+0x13b>
/u/a/b/abhijith/CS537/p3a/xv6-sp20/kernel/exec.c:43
  100caa:	90                   	nop
/u/a/b/abhijith/CS537/p3a/xv6-sp20/kernel/exec.c:39 (discriminator 2)
  100cab:	83 45 ec 01          	addl   $0x1,-0x14(%ebp)
  100caf:	8b 45 e8             	mov    -0x18(%ebp),%eax
  100cb2:	83 c0 20             	add    $0x20,%eax
  100cb5:	89 45 e8             	mov    %eax,-0x18(%ebp)
/u/a/b/abhijith/CS537/p3a/xv6-sp20/kernel/exec.c:39 (discriminator 1)
  100cb8:	0f b7 85 38 ff ff ff 	movzwl -0xc8(%ebp),%eax
  100cbf:	0f b7 c0             	movzwl %ax,%eax
  100cc2:	39 45 ec             	cmp    %eax,-0x14(%ebp)
  100cc5:	0f 8c 42 ff ff ff    	jl     100c0d <exec+0x9d>
/u/a/b/abhijith/CS537/p3a/xv6-sp20/kernel/exec.c:51
  100ccb:	83 ec 0c             	sub    $0xc,%esp
  100cce:	ff 75 d8             	pushl  -0x28(%ebp)
  100cd1:	e8 33 0e 00 00       	call   101b09 <iunlockput>
  100cd6:	83 c4 10             	add    $0x10,%esp
/u/a/b/abhijith/CS537/p3a/xv6-sp20/kernel/exec.c:52
  100cd9:	c7 45 d8 00 00 00 00 	movl   $0x0,-0x28(%ebp)
/u/a/b/abhijith/CS537/p3a/xv6-sp20/kernel/exec.c:55
  100ce0:	8b 45 e0             	mov    -0x20(%ebp),%eax
  100ce3:	05 ff 0f 00 00       	add    $0xfff,%eax
  100ce8:	25 00 f0 ff ff       	and    $0xfffff000,%eax
  100ced:	89 45 e0             	mov    %eax,-0x20(%ebp)
/u/a/b/abhijith/CS537/p3a/xv6-sp20/kernel/exec.c:56
  100cf0:	8b 45 e0             	mov    -0x20(%ebp),%eax
  100cf3:	05 00 10 00 00       	add    $0x1000,%eax
  100cf8:	83 ec 04             	sub    $0x4,%esp
  100cfb:	50                   	push   %eax
  100cfc:	ff 75 e0             	pushl  -0x20(%ebp)
  100cff:	ff 75 d4             	pushl  -0x2c(%ebp)
  100d02:	e8 c7 6b 00 00       	call   1078ce <allocuvm>
  100d07:	83 c4 10             	add    $0x10,%esp
  100d0a:	89 45 e0             	mov    %eax,-0x20(%ebp)
  100d0d:	83 7d e0 00          	cmpl   $0x0,-0x20(%ebp)
  100d11:	0f 84 f3 01 00 00    	je     100f0a <exec+0x39a>
/u/a/b/abhijith/CS537/p3a/xv6-sp20/kernel/exec.c:60
  100d17:	8b 45 e0             	mov    -0x20(%ebp),%eax
  100d1a:	89 45 dc             	mov    %eax,-0x24(%ebp)
/u/a/b/abhijith/CS537/p3a/xv6-sp20/kernel/exec.c:61
  100d1d:	c7 45 e4 00 00 00 00 	movl   $0x0,-0x1c(%ebp)
  100d24:	e9 90 00 00 00       	jmp    100db9 <exec+0x249>
/u/a/b/abhijith/CS537/p3a/xv6-sp20/kernel/exec.c:62
  100d29:	83 7d e4 1f          	cmpl   $0x1f,-0x1c(%ebp)
  100d2d:	0f 87 da 01 00 00    	ja     100f0d <exec+0x39d>
/u/a/b/abhijith/CS537/p3a/xv6-sp20/kernel/exec.c:64
  100d33:	8b 45 e4             	mov    -0x1c(%ebp),%eax
  100d36:	8d 14 85 00 00 00 00 	lea    0x0(,%eax,4),%edx
  100d3d:	8b 45 0c             	mov    0xc(%ebp),%eax
  100d40:	01 d0                	add    %edx,%eax
  100d42:	8b 00                	mov    (%eax),%eax
  100d44:	83 ec 0c             	sub    $0xc,%esp
  100d47:	50                   	push   %eax
  100d48:	e8 d6 3e 00 00       	call   104c23 <strlen>
  100d4d:	83 c4 10             	add    $0x10,%esp
  100d50:	83 c0 01             	add    $0x1,%eax
  100d53:	29 45 dc             	sub    %eax,-0x24(%ebp)
/u/a/b/abhijith/CS537/p3a/xv6-sp20/kernel/exec.c:65
  100d56:	83 65 dc fc          	andl   $0xfffffffc,-0x24(%ebp)
/u/a/b/abhijith/CS537/p3a/xv6-sp20/kernel/exec.c:66
  100d5a:	8b 45 e4             	mov    -0x1c(%ebp),%eax
  100d5d:	8d 14 85 00 00 00 00 	lea    0x0(,%eax,4),%edx
  100d64:	8b 45 0c             	mov    0xc(%ebp),%eax
  100d67:	01 d0                	add    %edx,%eax
  100d69:	8b 00                	mov    (%eax),%eax
  100d6b:	83 ec 0c             	sub    $0xc,%esp
  100d6e:	50                   	push   %eax
  100d6f:	e8 af 3e 00 00       	call   104c23 <strlen>
  100d74:	83 c4 10             	add    $0x10,%esp
  100d77:	83 c0 01             	add    $0x1,%eax
  100d7a:	89 c1                	mov    %eax,%ecx
  100d7c:	8b 45 e4             	mov    -0x1c(%ebp),%eax
  100d7f:	8d 14 85 00 00 00 00 	lea    0x0(,%eax,4),%edx
  100d86:	8b 45 0c             	mov    0xc(%ebp),%eax
  100d89:	01 d0                	add    %edx,%eax
  100d8b:	8b 00                	mov    (%eax),%eax
  100d8d:	51                   	push   %ecx
  100d8e:	50                   	push   %eax
  100d8f:	ff 75 dc             	pushl  -0x24(%ebp)
  100d92:	ff 75 d4             	pushl  -0x2c(%ebp)
  100d95:	e8 96 6e 00 00       	call   107c30 <copyout>
  100d9a:	83 c4 10             	add    $0x10,%esp
  100d9d:	85 c0                	test   %eax,%eax
  100d9f:	0f 88 6b 01 00 00    	js     100f10 <exec+0x3a0>
/u/a/b/abhijith/CS537/p3a/xv6-sp20/kernel/exec.c:68 (discriminator 2)
  100da5:	8b 45 e4             	mov    -0x1c(%ebp),%eax
  100da8:	8d 50 03             	lea    0x3(%eax),%edx
  100dab:	8b 45 dc             	mov    -0x24(%ebp),%eax
  100dae:	89 84 95 40 ff ff ff 	mov    %eax,-0xc0(%ebp,%edx,4)
/u/a/b/abhijith/CS537/p3a/xv6-sp20/kernel/exec.c:61 (discriminator 2)
  100db5:	83 45 e4 01          	addl   $0x1,-0x1c(%ebp)
/u/a/b/abhijith/CS537/p3a/xv6-sp20/kernel/exec.c:61 (discriminator 1)
  100db9:	8b 45 e4             	mov    -0x1c(%ebp),%eax
  100dbc:	8d 14 85 00 00 00 00 	lea    0x0(,%eax,4),%edx
  100dc3:	8b 45 0c             	mov    0xc(%ebp),%eax
  100dc6:	01 d0                	add    %edx,%eax
  100dc8:	8b 00                	mov    (%eax),%eax
  100dca:	85 c0                	test   %eax,%eax
  100dcc:	0f 85 57 ff ff ff    	jne    100d29 <exec+0x1b9>
/u/a/b/abhijith/CS537/p3a/xv6-sp20/kernel/exec.c:70
  100dd2:	8b 45 e4             	mov    -0x1c(%ebp),%eax
  100dd5:	83 c0 03             	add    $0x3,%eax
  100dd8:	c7 84 85 40 ff ff ff 	movl   $0x0,-0xc0(%ebp,%eax,4)
  100ddf:	00 00 00 00 
/u/a/b/abhijith/CS537/p3a/xv6-sp20/kernel/exec.c:72
  100de3:	c7 85 40 ff ff ff ff 	movl   $0xffffffff,-0xc0(%ebp)
  100dea:	ff ff ff 
/u/a/b/abhijith/CS537/p3a/xv6-sp20/kernel/exec.c:73
  100ded:	8b 45 e4             	mov    -0x1c(%ebp),%eax
  100df0:	89 85 44 ff ff ff    	mov    %eax,-0xbc(%ebp)
/u/a/b/abhijith/CS537/p3a/xv6-sp20/kernel/exec.c:74
  100df6:	8b 45 e4             	mov    -0x1c(%ebp),%eax
  100df9:	83 c0 01             	add    $0x1,%eax
  100dfc:	8d 14 85 00 00 00 00 	lea    0x0(,%eax,4),%edx
  100e03:	8b 45 dc             	mov    -0x24(%ebp),%eax
  100e06:	29 d0                	sub    %edx,%eax
  100e08:	89 85 48 ff ff ff    	mov    %eax,-0xb8(%ebp)
/u/a/b/abhijith/CS537/p3a/xv6-sp20/kernel/exec.c:76
  100e0e:	8b 45 e4             	mov    -0x1c(%ebp),%eax
  100e11:	83 c0 04             	add    $0x4,%eax
  100e14:	c1 e0 02             	shl    $0x2,%eax
  100e17:	29 45 dc             	sub    %eax,-0x24(%ebp)
/u/a/b/abhijith/CS537/p3a/xv6-sp20/kernel/exec.c:77
  100e1a:	8b 45 e4             	mov    -0x1c(%ebp),%eax
  100e1d:	83 c0 04             	add    $0x4,%eax
  100e20:	c1 e0 02             	shl    $0x2,%eax
  100e23:	50                   	push   %eax
  100e24:	8d 85 40 ff ff ff    	lea    -0xc0(%ebp),%eax
  100e2a:	50                   	push   %eax
  100e2b:	ff 75 dc             	pushl  -0x24(%ebp)
  100e2e:	ff 75 d4             	pushl  -0x2c(%ebp)
  100e31:	e8 fa 6d 00 00       	call   107c30 <copyout>
  100e36:	83 c4 10             	add    $0x10,%esp
  100e39:	85 c0                	test   %eax,%eax
  100e3b:	0f 88 d2 00 00 00    	js     100f13 <exec+0x3a3>
/u/a/b/abhijith/CS537/p3a/xv6-sp20/kernel/exec.c:81
  100e41:	8b 45 08             	mov    0x8(%ebp),%eax
  100e44:	89 45 f4             	mov    %eax,-0xc(%ebp)
  100e47:	8b 45 f4             	mov    -0xc(%ebp),%eax
  100e4a:	89 45 f0             	mov    %eax,-0x10(%ebp)
  100e4d:	eb 17                	jmp    100e66 <exec+0x2f6>
/u/a/b/abhijith/CS537/p3a/xv6-sp20/kernel/exec.c:82
  100e4f:	8b 45 f4             	mov    -0xc(%ebp),%eax
  100e52:	0f b6 00             	movzbl (%eax),%eax
  100e55:	3c 2f                	cmp    $0x2f,%al
  100e57:	75 09                	jne    100e62 <exec+0x2f2>
/u/a/b/abhijith/CS537/p3a/xv6-sp20/kernel/exec.c:83
  100e59:	8b 45 f4             	mov    -0xc(%ebp),%eax
  100e5c:	83 c0 01             	add    $0x1,%eax
  100e5f:	89 45 f0             	mov    %eax,-0x10(%ebp)
/u/a/b/abhijith/CS537/p3a/xv6-sp20/kernel/exec.c:81 (discriminator 2)
  100e62:	83 45 f4 01          	addl   $0x1,-0xc(%ebp)
/u/a/b/abhijith/CS537/p3a/xv6-sp20/kernel/exec.c:81 (discriminator 1)
  100e66:	8b 45 f4             	mov    -0xc(%ebp),%eax
  100e69:	0f b6 00             	movzbl (%eax),%eax
  100e6c:	84 c0                	test   %al,%al
  100e6e:	75 df                	jne    100e4f <exec+0x2df>
/u/a/b/abhijith/CS537/p3a/xv6-sp20/kernel/exec.c:84
  100e70:	65 a1 04 00 00 00    	mov    %gs:0x4,%eax
  100e76:	83 c0 6c             	add    $0x6c,%eax
  100e79:	83 ec 04             	sub    $0x4,%esp
  100e7c:	6a 10                	push   $0x10
  100e7e:	ff 75 f0             	pushl  -0x10(%ebp)
  100e81:	50                   	push   %eax
  100e82:	e8 52 3d 00 00       	call   104bd9 <safestrcpy>
  100e87:	83 c4 10             	add    $0x10,%esp
/u/a/b/abhijith/CS537/p3a/xv6-sp20/kernel/exec.c:87
  100e8a:	65 a1 04 00 00 00    	mov    %gs:0x4,%eax
  100e90:	8b 40 04             	mov    0x4(%eax),%eax
  100e93:	89 45 d0             	mov    %eax,-0x30(%ebp)
/u/a/b/abhijith/CS537/p3a/xv6-sp20/kernel/exec.c:88
  100e96:	65 a1 04 00 00 00    	mov    %gs:0x4,%eax
  100e9c:	8b 55 d4             	mov    -0x2c(%ebp),%edx
  100e9f:	89 50 04             	mov    %edx,0x4(%eax)
/u/a/b/abhijith/CS537/p3a/xv6-sp20/kernel/exec.c:89
  100ea2:	65 a1 04 00 00 00    	mov    %gs:0x4,%eax
  100ea8:	8b 55 e0             	mov    -0x20(%ebp),%edx
  100eab:	89 10                	mov    %edx,(%eax)
/u/a/b/abhijith/CS537/p3a/xv6-sp20/kernel/exec.c:90
  100ead:	65 a1 04 00 00 00    	mov    %gs:0x4,%eax
  100eb3:	8b 40 18             	mov    0x18(%eax),%eax
  100eb6:	8b 95 24 ff ff ff    	mov    -0xdc(%ebp),%edx
  100ebc:	89 50 38             	mov    %edx,0x38(%eax)
/u/a/b/abhijith/CS537/p3a/xv6-sp20/kernel/exec.c:91
  100ebf:	65 a1 04 00 00 00    	mov    %gs:0x4,%eax
  100ec5:	8b 40 18             	mov    0x18(%eax),%eax
  100ec8:	8b 55 dc             	mov    -0x24(%ebp),%edx
  100ecb:	89 50 44             	mov    %edx,0x44(%eax)
/u/a/b/abhijith/CS537/p3a/xv6-sp20/kernel/exec.c:92
  100ece:	65 a1 04 00 00 00    	mov    %gs:0x4,%eax
  100ed4:	83 ec 0c             	sub    $0xc,%esp
  100ed7:	50                   	push   %eax
  100ed8:	e8 57 67 00 00       	call   107634 <switchuvm>
  100edd:	83 c4 10             	add    $0x10,%esp
/u/a/b/abhijith/CS537/p3a/xv6-sp20/kernel/exec.c:94
  100ee0:	83 ec 0c             	sub    $0xc,%esp
  100ee3:	ff 75 d0             	pushl  -0x30(%ebp)
  100ee6:	e8 3a 6b 00 00       	call   107a25 <freevm>
  100eeb:	83 c4 10             	add    $0x10,%esp
/u/a/b/abhijith/CS537/p3a/xv6-sp20/kernel/exec.c:97
  100eee:	b8 00 00 00 00       	mov    $0x0,%eax
  100ef3:	eb 4c                	jmp    100f41 <exec+0x3d1>
/u/a/b/abhijith/CS537/p3a/xv6-sp20/kernel/exec.c:27
  100ef5:	90                   	nop
  100ef6:	eb 1c                	jmp    100f14 <exec+0x3a4>
/u/a/b/abhijith/CS537/p3a/xv6-sp20/kernel/exec.c:29
  100ef8:	90                   	nop
  100ef9:	eb 19                	jmp    100f14 <exec+0x3a4>
/u/a/b/abhijith/CS537/p3a/xv6-sp20/kernel/exec.c:33
  100efb:	90                   	nop
  100efc:	eb 16                	jmp    100f14 <exec+0x3a4>
/u/a/b/abhijith/CS537/p3a/xv6-sp20/kernel/exec.c:41
  100efe:	90                   	nop
  100eff:	eb 13                	jmp    100f14 <exec+0x3a4>
/u/a/b/abhijith/CS537/p3a/xv6-sp20/kernel/exec.c:45
  100f01:	90                   	nop
  100f02:	eb 10                	jmp    100f14 <exec+0x3a4>
/u/a/b/abhijith/CS537/p3a/xv6-sp20/kernel/exec.c:47
  100f04:	90                   	nop
  100f05:	eb 0d                	jmp    100f14 <exec+0x3a4>
/u/a/b/abhijith/CS537/p3a/xv6-sp20/kernel/exec.c:49
  100f07:	90                   	nop
  100f08:	eb 0a                	jmp    100f14 <exec+0x3a4>
/u/a/b/abhijith/CS537/p3a/xv6-sp20/kernel/exec.c:57
  100f0a:	90                   	nop
  100f0b:	eb 07                	jmp    100f14 <exec+0x3a4>
/u/a/b/abhijith/CS537/p3a/xv6-sp20/kernel/exec.c:63
  100f0d:	90                   	nop
  100f0e:	eb 04                	jmp    100f14 <exec+0x3a4>
/u/a/b/abhijith/CS537/p3a/xv6-sp20/kernel/exec.c:67
  100f10:	90                   	nop
  100f11:	eb 01                	jmp    100f14 <exec+0x3a4>
/u/a/b/abhijith/CS537/p3a/xv6-sp20/kernel/exec.c:78
  100f13:	90                   	nop
/u/a/b/abhijith/CS537/p3a/xv6-sp20/kernel/exec.c:100
  100f14:	83 7d d4 00          	cmpl   $0x0,-0x2c(%ebp)
  100f18:	74 0e                	je     100f28 <exec+0x3b8>
/u/a/b/abhijith/CS537/p3a/xv6-sp20/kernel/exec.c:101
  100f1a:	83 ec 0c             	sub    $0xc,%esp
  100f1d:	ff 75 d4             	pushl  -0x2c(%ebp)
  100f20:	e8 00 6b 00 00       	call   107a25 <freevm>
  100f25:	83 c4 10             	add    $0x10,%esp
/u/a/b/abhijith/CS537/p3a/xv6-sp20/kernel/exec.c:102
  100f28:	83 7d d8 00          	cmpl   $0x0,-0x28(%ebp)
  100f2c:	74 0e                	je     100f3c <exec+0x3cc>
/u/a/b/abhijith/CS537/p3a/xv6-sp20/kernel/exec.c:103
  100f2e:	83 ec 0c             	sub    $0xc,%esp
  100f31:	ff 75 d8             	pushl  -0x28(%ebp)
  100f34:	e8 d0 0b 00 00       	call   101b09 <iunlockput>
  100f39:	83 c4 10             	add    $0x10,%esp
/u/a/b/abhijith/CS537/p3a/xv6-sp20/kernel/exec.c:104
  100f3c:	b8 ff ff ff ff       	mov    $0xffffffff,%eax
/u/a/b/abhijith/CS537/p3a/xv6-sp20/kernel/exec.c:105 (discriminator 1)
  100f41:	c9                   	leave  
  100f42:	c3                   	ret    

00100f43 <fileinit>:
fileinit():
/u/a/b/abhijith/CS537/p3a/xv6-sp20/kernel/file.c:16
  100f43:	55                   	push   %ebp
  100f44:	89 e5                	mov    %esp,%ebp
  100f46:	83 ec 08             	sub    $0x8,%esp
/u/a/b/abhijith/CS537/p3a/xv6-sp20/kernel/file.c:17
  100f49:	83 ec 08             	sub    $0x8,%esp
  100f4c:	68 14 7e 10 00       	push   $0x107e14
  100f51:	68 80 e3 10 00       	push   $0x10e380
  100f56:	e8 69 38 00 00       	call   1047c4 <initlock>
  100f5b:	83 c4 10             	add    $0x10,%esp
/u/a/b/abhijith/CS537/p3a/xv6-sp20/kernel/file.c:18
  100f5e:	90                   	nop
  100f5f:	c9                   	leave  
  100f60:	c3                   	ret    

00100f61 <filealloc>:
filealloc():
/u/a/b/abhijith/CS537/p3a/xv6-sp20/kernel/file.c:23
  100f61:	55                   	push   %ebp
  100f62:	89 e5                	mov    %esp,%ebp
  100f64:	83 ec 18             	sub    $0x18,%esp
/u/a/b/abhijith/CS537/p3a/xv6-sp20/kernel/file.c:26
  100f67:	83 ec 0c             	sub    $0xc,%esp
  100f6a:	68 80 e3 10 00       	push   $0x10e380
  100f6f:	e8 72 38 00 00       	call   1047e6 <acquire>
  100f74:	83 c4 10             	add    $0x10,%esp
/u/a/b/abhijith/CS537/p3a/xv6-sp20/kernel/file.c:27
  100f77:	c7 45 f4 b4 e3 10 00 	movl   $0x10e3b4,-0xc(%ebp)
  100f7e:	eb 2d                	jmp    100fad <filealloc+0x4c>
/u/a/b/abhijith/CS537/p3a/xv6-sp20/kernel/file.c:28
  100f80:	8b 45 f4             	mov    -0xc(%ebp),%eax
  100f83:	8b 40 04             	mov    0x4(%eax),%eax
  100f86:	85 c0                	test   %eax,%eax
  100f88:	75 1f                	jne    100fa9 <filealloc+0x48>
/u/a/b/abhijith/CS537/p3a/xv6-sp20/kernel/file.c:29
  100f8a:	8b 45 f4             	mov    -0xc(%ebp),%eax
  100f8d:	c7 40 04 01 00 00 00 	movl   $0x1,0x4(%eax)
/u/a/b/abhijith/CS537/p3a/xv6-sp20/kernel/file.c:30
  100f94:	83 ec 0c             	sub    $0xc,%esp
  100f97:	68 80 e3 10 00       	push   $0x10e380
  100f9c:	e8 ac 38 00 00       	call   10484d <release>
  100fa1:	83 c4 10             	add    $0x10,%esp
/u/a/b/abhijith/CS537/p3a/xv6-sp20/kernel/file.c:31
  100fa4:	8b 45 f4             	mov    -0xc(%ebp),%eax
  100fa7:	eb 23                	jmp    100fcc <filealloc+0x6b>
/u/a/b/abhijith/CS537/p3a/xv6-sp20/kernel/file.c:27 (discriminator 2)
  100fa9:	83 45 f4 18          	addl   $0x18,-0xc(%ebp)
/u/a/b/abhijith/CS537/p3a/xv6-sp20/kernel/file.c:27 (discriminator 1)
  100fad:	b8 14 ed 10 00       	mov    $0x10ed14,%eax
  100fb2:	39 45 f4             	cmp    %eax,-0xc(%ebp)
  100fb5:	72 c9                	jb     100f80 <filealloc+0x1f>
/u/a/b/abhijith/CS537/p3a/xv6-sp20/kernel/file.c:34
  100fb7:	83 ec 0c             	sub    $0xc,%esp
  100fba:	68 80 e3 10 00       	push   $0x10e380
  100fbf:	e8 89 38 00 00       	call   10484d <release>
  100fc4:	83 c4 10             	add    $0x10,%esp
/u/a/b/abhijith/CS537/p3a/xv6-sp20/kernel/file.c:35
  100fc7:	b8 00 00 00 00       	mov    $0x0,%eax
/u/a/b/abhijith/CS537/p3a/xv6-sp20/kernel/file.c:36
  100fcc:	c9                   	leave  
  100fcd:	c3                   	ret    

00100fce <filedup>:
filedup():
/u/a/b/abhijith/CS537/p3a/xv6-sp20/kernel/file.c:41
  100fce:	55                   	push   %ebp
  100fcf:	89 e5                	mov    %esp,%ebp
  100fd1:	83 ec 08             	sub    $0x8,%esp
/u/a/b/abhijith/CS537/p3a/xv6-sp20/kernel/file.c:42
  100fd4:	83 ec 0c             	sub    $0xc,%esp
  100fd7:	68 80 e3 10 00       	push   $0x10e380
  100fdc:	e8 05 38 00 00       	call   1047e6 <acquire>
  100fe1:	83 c4 10             	add    $0x10,%esp
/u/a/b/abhijith/CS537/p3a/xv6-sp20/kernel/file.c:43
  100fe4:	8b 45 08             	mov    0x8(%ebp),%eax
  100fe7:	8b 40 04             	mov    0x4(%eax),%eax
  100fea:	85 c0                	test   %eax,%eax
  100fec:	7f 0d                	jg     100ffb <filedup+0x2d>
/u/a/b/abhijith/CS537/p3a/xv6-sp20/kernel/file.c:44
  100fee:	83 ec 0c             	sub    $0xc,%esp
  100ff1:	68 1b 7e 10 00       	push   $0x107e1b
  100ff6:	e8 7d f5 ff ff       	call   100578 <panic>
/u/a/b/abhijith/CS537/p3a/xv6-sp20/kernel/file.c:45
  100ffb:	8b 45 08             	mov    0x8(%ebp),%eax
  100ffe:	8b 40 04             	mov    0x4(%eax),%eax
  101001:	8d 50 01             	lea    0x1(%eax),%edx
  101004:	8b 45 08             	mov    0x8(%ebp),%eax
  101007:	89 50 04             	mov    %edx,0x4(%eax)
/u/a/b/abhijith/CS537/p3a/xv6-sp20/kernel/file.c:46
  10100a:	83 ec 0c             	sub    $0xc,%esp
  10100d:	68 80 e3 10 00       	push   $0x10e380
  101012:	e8 36 38 00 00       	call   10484d <release>
  101017:	83 c4 10             	add    $0x10,%esp
/u/a/b/abhijith/CS537/p3a/xv6-sp20/kernel/file.c:47
  10101a:	8b 45 08             	mov    0x8(%ebp),%eax
/u/a/b/abhijith/CS537/p3a/xv6-sp20/kernel/file.c:48
  10101d:	c9                   	leave  
  10101e:	c3                   	ret    

0010101f <fileclose>:
fileclose():
/u/a/b/abhijith/CS537/p3a/xv6-sp20/kernel/file.c:53
  10101f:	55                   	push   %ebp
  101020:	89 e5                	mov    %esp,%ebp
  101022:	83 ec 28             	sub    $0x28,%esp
/u/a/b/abhijith/CS537/p3a/xv6-sp20/kernel/file.c:56
  101025:	83 ec 0c             	sub    $0xc,%esp
  101028:	68 80 e3 10 00       	push   $0x10e380
  10102d:	e8 b4 37 00 00       	call   1047e6 <acquire>
  101032:	83 c4 10             	add    $0x10,%esp
/u/a/b/abhijith/CS537/p3a/xv6-sp20/kernel/file.c:57
  101035:	8b 45 08             	mov    0x8(%ebp),%eax
  101038:	8b 40 04             	mov    0x4(%eax),%eax
  10103b:	85 c0                	test   %eax,%eax
  10103d:	7f 0d                	jg     10104c <fileclose+0x2d>
/u/a/b/abhijith/CS537/p3a/xv6-sp20/kernel/file.c:58
  10103f:	83 ec 0c             	sub    $0xc,%esp
  101042:	68 23 7e 10 00       	push   $0x107e23
  101047:	e8 2c f5 ff ff       	call   100578 <panic>
/u/a/b/abhijith/CS537/p3a/xv6-sp20/kernel/file.c:59
  10104c:	8b 45 08             	mov    0x8(%ebp),%eax
  10104f:	8b 40 04             	mov    0x4(%eax),%eax
  101052:	8d 50 ff             	lea    -0x1(%eax),%edx
  101055:	8b 45 08             	mov    0x8(%ebp),%eax
  101058:	89 50 04             	mov    %edx,0x4(%eax)
  10105b:	8b 45 08             	mov    0x8(%ebp),%eax
  10105e:	8b 40 04             	mov    0x4(%eax),%eax
  101061:	85 c0                	test   %eax,%eax
  101063:	7e 15                	jle    10107a <fileclose+0x5b>
/u/a/b/abhijith/CS537/p3a/xv6-sp20/kernel/file.c:60
  101065:	83 ec 0c             	sub    $0xc,%esp
  101068:	68 80 e3 10 00       	push   $0x10e380
  10106d:	e8 db 37 00 00       	call   10484d <release>
  101072:	83 c4 10             	add    $0x10,%esp
  101075:	e9 81 00 00 00       	jmp    1010fb <fileclose+0xdc>
/u/a/b/abhijith/CS537/p3a/xv6-sp20/kernel/file.c:63
  10107a:	8b 45 08             	mov    0x8(%ebp),%eax
  10107d:	8b 10                	mov    (%eax),%edx
  10107f:	89 55 e0             	mov    %edx,-0x20(%ebp)
  101082:	8b 50 04             	mov    0x4(%eax),%edx
  101085:	89 55 e4             	mov    %edx,-0x1c(%ebp)
  101088:	8b 50 08             	mov    0x8(%eax),%edx
  10108b:	89 55 e8             	mov    %edx,-0x18(%ebp)
  10108e:	8b 50 0c             	mov    0xc(%eax),%edx
  101091:	89 55 ec             	mov    %edx,-0x14(%ebp)
  101094:	8b 50 10             	mov    0x10(%eax),%edx
  101097:	89 55 f0             	mov    %edx,-0x10(%ebp)
  10109a:	8b 40 14             	mov    0x14(%eax),%eax
  10109d:	89 45 f4             	mov    %eax,-0xc(%ebp)
/u/a/b/abhijith/CS537/p3a/xv6-sp20/kernel/file.c:64
  1010a0:	8b 45 08             	mov    0x8(%ebp),%eax
  1010a3:	c7 40 04 00 00 00 00 	movl   $0x0,0x4(%eax)
/u/a/b/abhijith/CS537/p3a/xv6-sp20/kernel/file.c:65
  1010aa:	8b 45 08             	mov    0x8(%ebp),%eax
  1010ad:	c7 00 00 00 00 00    	movl   $0x0,(%eax)
/u/a/b/abhijith/CS537/p3a/xv6-sp20/kernel/file.c:66
  1010b3:	83 ec 0c             	sub    $0xc,%esp
  1010b6:	68 80 e3 10 00       	push   $0x10e380
  1010bb:	e8 8d 37 00 00       	call   10484d <release>
  1010c0:	83 c4 10             	add    $0x10,%esp
/u/a/b/abhijith/CS537/p3a/xv6-sp20/kernel/file.c:68
  1010c3:	8b 45 e0             	mov    -0x20(%ebp),%eax
  1010c6:	83 f8 01             	cmp    $0x1,%eax
  1010c9:	75 19                	jne    1010e4 <fileclose+0xc5>
/u/a/b/abhijith/CS537/p3a/xv6-sp20/kernel/file.c:69
  1010cb:	0f b6 45 e9          	movzbl -0x17(%ebp),%eax
  1010cf:	0f be d0             	movsbl %al,%edx
  1010d2:	8b 45 ec             	mov    -0x14(%ebp),%eax
  1010d5:	83 ec 08             	sub    $0x8,%esp
  1010d8:	52                   	push   %edx
  1010d9:	50                   	push   %eax
  1010da:	e8 d1 28 00 00       	call   1039b0 <pipeclose>
  1010df:	83 c4 10             	add    $0x10,%esp
  1010e2:	eb 17                	jmp    1010fb <fileclose+0xdc>
/u/a/b/abhijith/CS537/p3a/xv6-sp20/kernel/file.c:70
  1010e4:	8b 45 e0             	mov    -0x20(%ebp),%eax
  1010e7:	83 f8 02             	cmp    $0x2,%eax
  1010ea:	75 0f                	jne    1010fb <fileclose+0xdc>
/u/a/b/abhijith/CS537/p3a/xv6-sp20/kernel/file.c:71
  1010ec:	8b 45 f0             	mov    -0x10(%ebp),%eax
  1010ef:	83 ec 0c             	sub    $0xc,%esp
  1010f2:	50                   	push   %eax
  1010f3:	e8 21 09 00 00       	call   101a19 <iput>
  1010f8:	83 c4 10             	add    $0x10,%esp
/u/a/b/abhijith/CS537/p3a/xv6-sp20/kernel/file.c:72
  1010fb:	c9                   	leave  
  1010fc:	c3                   	ret    

001010fd <filestat>:
filestat():
/u/a/b/abhijith/CS537/p3a/xv6-sp20/kernel/file.c:77
  1010fd:	55                   	push   %ebp
  1010fe:	89 e5                	mov    %esp,%ebp
  101100:	83 ec 08             	sub    $0x8,%esp
/u/a/b/abhijith/CS537/p3a/xv6-sp20/kernel/file.c:78
  101103:	8b 45 08             	mov    0x8(%ebp),%eax
  101106:	8b 00                	mov    (%eax),%eax
  101108:	83 f8 02             	cmp    $0x2,%eax
  10110b:	75 40                	jne    10114d <filestat+0x50>
/u/a/b/abhijith/CS537/p3a/xv6-sp20/kernel/file.c:79
  10110d:	8b 45 08             	mov    0x8(%ebp),%eax
  101110:	8b 40 10             	mov    0x10(%eax),%eax
  101113:	83 ec 0c             	sub    $0xc,%esp
  101116:	50                   	push   %eax
  101117:	e8 33 07 00 00       	call   10184f <ilock>
  10111c:	83 c4 10             	add    $0x10,%esp
/u/a/b/abhijith/CS537/p3a/xv6-sp20/kernel/file.c:80
  10111f:	8b 45 08             	mov    0x8(%ebp),%eax
  101122:	8b 40 10             	mov    0x10(%eax),%eax
  101125:	83 ec 08             	sub    $0x8,%esp
  101128:	ff 75 0c             	pushl  0xc(%ebp)
  10112b:	50                   	push   %eax
  10112c:	e8 3b 0c 00 00       	call   101d6c <stati>
  101131:	83 c4 10             	add    $0x10,%esp
/u/a/b/abhijith/CS537/p3a/xv6-sp20/kernel/file.c:81
  101134:	8b 45 08             	mov    0x8(%ebp),%eax
  101137:	8b 40 10             	mov    0x10(%eax),%eax
  10113a:	83 ec 0c             	sub    $0xc,%esp
  10113d:	50                   	push   %eax
  10113e:	e8 64 08 00 00       	call   1019a7 <iunlock>
  101143:	83 c4 10             	add    $0x10,%esp
/u/a/b/abhijith/CS537/p3a/xv6-sp20/kernel/file.c:82
  101146:	b8 00 00 00 00       	mov    $0x0,%eax
  10114b:	eb 05                	jmp    101152 <filestat+0x55>
/u/a/b/abhijith/CS537/p3a/xv6-sp20/kernel/file.c:84
  10114d:	b8 ff ff ff ff       	mov    $0xffffffff,%eax
/u/a/b/abhijith/CS537/p3a/xv6-sp20/kernel/file.c:85
  101152:	c9                   	leave  
  101153:	c3                   	ret    

00101154 <fileread>:
fileread():
/u/a/b/abhijith/CS537/p3a/xv6-sp20/kernel/file.c:90
  101154:	55                   	push   %ebp
  101155:	89 e5                	mov    %esp,%ebp
  101157:	83 ec 18             	sub    $0x18,%esp
/u/a/b/abhijith/CS537/p3a/xv6-sp20/kernel/file.c:93
  10115a:	8b 45 08             	mov    0x8(%ebp),%eax
  10115d:	0f b6 40 08          	movzbl 0x8(%eax),%eax
  101161:	84 c0                	test   %al,%al
  101163:	75 0a                	jne    10116f <fileread+0x1b>
/u/a/b/abhijith/CS537/p3a/xv6-sp20/kernel/file.c:94
  101165:	b8 ff ff ff ff       	mov    $0xffffffff,%eax
  10116a:	e9 9b 00 00 00       	jmp    10120a <fileread+0xb6>
/u/a/b/abhijith/CS537/p3a/xv6-sp20/kernel/file.c:95
  10116f:	8b 45 08             	mov    0x8(%ebp),%eax
  101172:	8b 00                	mov    (%eax),%eax
  101174:	83 f8 01             	cmp    $0x1,%eax
  101177:	75 1a                	jne    101193 <fileread+0x3f>
/u/a/b/abhijith/CS537/p3a/xv6-sp20/kernel/file.c:96
  101179:	8b 45 08             	mov    0x8(%ebp),%eax
  10117c:	8b 40 0c             	mov    0xc(%eax),%eax
  10117f:	83 ec 04             	sub    $0x4,%esp
  101182:	ff 75 10             	pushl  0x10(%ebp)
  101185:	ff 75 0c             	pushl  0xc(%ebp)
  101188:	50                   	push   %eax
  101189:	e8 cf 29 00 00       	call   103b5d <piperead>
  10118e:	83 c4 10             	add    $0x10,%esp
  101191:	eb 77                	jmp    10120a <fileread+0xb6>
/u/a/b/abhijith/CS537/p3a/xv6-sp20/kernel/file.c:97
  101193:	8b 45 08             	mov    0x8(%ebp),%eax
  101196:	8b 00                	mov    (%eax),%eax
  101198:	83 f8 02             	cmp    $0x2,%eax
  10119b:	75 60                	jne    1011fd <fileread+0xa9>
/u/a/b/abhijith/CS537/p3a/xv6-sp20/kernel/file.c:98
  10119d:	8b 45 08             	mov    0x8(%ebp),%eax
  1011a0:	8b 40 10             	mov    0x10(%eax),%eax
  1011a3:	83 ec 0c             	sub    $0xc,%esp
  1011a6:	50                   	push   %eax
  1011a7:	e8 a3 06 00 00       	call   10184f <ilock>
  1011ac:	83 c4 10             	add    $0x10,%esp
/u/a/b/abhijith/CS537/p3a/xv6-sp20/kernel/file.c:99
  1011af:	8b 4d 10             	mov    0x10(%ebp),%ecx
  1011b2:	8b 45 08             	mov    0x8(%ebp),%eax
  1011b5:	8b 50 14             	mov    0x14(%eax),%edx
  1011b8:	8b 45 08             	mov    0x8(%ebp),%eax
  1011bb:	8b 40 10             	mov    0x10(%eax),%eax
  1011be:	51                   	push   %ecx
  1011bf:	52                   	push   %edx
  1011c0:	ff 75 0c             	pushl  0xc(%ebp)
  1011c3:	50                   	push   %eax
  1011c4:	e8 e9 0b 00 00       	call   101db2 <readi>
  1011c9:	83 c4 10             	add    $0x10,%esp
  1011cc:	89 45 f4             	mov    %eax,-0xc(%ebp)
  1011cf:	83 7d f4 00          	cmpl   $0x0,-0xc(%ebp)
  1011d3:	7e 11                	jle    1011e6 <fileread+0x92>
/u/a/b/abhijith/CS537/p3a/xv6-sp20/kernel/file.c:100
  1011d5:	8b 45 08             	mov    0x8(%ebp),%eax
  1011d8:	8b 50 14             	mov    0x14(%eax),%edx
  1011db:	8b 45 f4             	mov    -0xc(%ebp),%eax
  1011de:	01 c2                	add    %eax,%edx
  1011e0:	8b 45 08             	mov    0x8(%ebp),%eax
  1011e3:	89 50 14             	mov    %edx,0x14(%eax)
/u/a/b/abhijith/CS537/p3a/xv6-sp20/kernel/file.c:101
  1011e6:	8b 45 08             	mov    0x8(%ebp),%eax
  1011e9:	8b 40 10             	mov    0x10(%eax),%eax
  1011ec:	83 ec 0c             	sub    $0xc,%esp
  1011ef:	50                   	push   %eax
  1011f0:	e8 b2 07 00 00       	call   1019a7 <iunlock>
  1011f5:	83 c4 10             	add    $0x10,%esp
/u/a/b/abhijith/CS537/p3a/xv6-sp20/kernel/file.c:102
  1011f8:	8b 45 f4             	mov    -0xc(%ebp),%eax
  1011fb:	eb 0d                	jmp    10120a <fileread+0xb6>
/u/a/b/abhijith/CS537/p3a/xv6-sp20/kernel/file.c:104
  1011fd:	83 ec 0c             	sub    $0xc,%esp
  101200:	68 2d 7e 10 00       	push   $0x107e2d
  101205:	e8 6e f3 ff ff       	call   100578 <panic>
/u/a/b/abhijith/CS537/p3a/xv6-sp20/kernel/file.c:105
  10120a:	c9                   	leave  
  10120b:	c3                   	ret    

0010120c <filewrite>:
filewrite():
/u/a/b/abhijith/CS537/p3a/xv6-sp20/kernel/file.c:110
  10120c:	55                   	push   %ebp
  10120d:	89 e5                	mov    %esp,%ebp
  10120f:	83 ec 18             	sub    $0x18,%esp
/u/a/b/abhijith/CS537/p3a/xv6-sp20/kernel/file.c:113
  101212:	8b 45 08             	mov    0x8(%ebp),%eax
  101215:	0f b6 40 09          	movzbl 0x9(%eax),%eax
  101219:	84 c0                	test   %al,%al
  10121b:	75 0a                	jne    101227 <filewrite+0x1b>
/u/a/b/abhijith/CS537/p3a/xv6-sp20/kernel/file.c:114
  10121d:	b8 ff ff ff ff       	mov    $0xffffffff,%eax
  101222:	e9 9b 00 00 00       	jmp    1012c2 <filewrite+0xb6>
/u/a/b/abhijith/CS537/p3a/xv6-sp20/kernel/file.c:115
  101227:	8b 45 08             	mov    0x8(%ebp),%eax
  10122a:	8b 00                	mov    (%eax),%eax
  10122c:	83 f8 01             	cmp    $0x1,%eax
  10122f:	75 1a                	jne    10124b <filewrite+0x3f>
/u/a/b/abhijith/CS537/p3a/xv6-sp20/kernel/file.c:116
  101231:	8b 45 08             	mov    0x8(%ebp),%eax
  101234:	8b 40 0c             	mov    0xc(%eax),%eax
  101237:	83 ec 04             	sub    $0x4,%esp
  10123a:	ff 75 10             	pushl  0x10(%ebp)
  10123d:	ff 75 0c             	pushl  0xc(%ebp)
  101240:	50                   	push   %eax
  101241:	e8 14 28 00 00       	call   103a5a <pipewrite>
  101246:	83 c4 10             	add    $0x10,%esp
  101249:	eb 77                	jmp    1012c2 <filewrite+0xb6>
/u/a/b/abhijith/CS537/p3a/xv6-sp20/kernel/file.c:117
  10124b:	8b 45 08             	mov    0x8(%ebp),%eax
  10124e:	8b 00                	mov    (%eax),%eax
  101250:	83 f8 02             	cmp    $0x2,%eax
  101253:	75 60                	jne    1012b5 <filewrite+0xa9>
/u/a/b/abhijith/CS537/p3a/xv6-sp20/kernel/file.c:118
  101255:	8b 45 08             	mov    0x8(%ebp),%eax
  101258:	8b 40 10             	mov    0x10(%eax),%eax
  10125b:	83 ec 0c             	sub    $0xc,%esp
  10125e:	50                   	push   %eax
  10125f:	e8 eb 05 00 00       	call   10184f <ilock>
  101264:	83 c4 10             	add    $0x10,%esp
/u/a/b/abhijith/CS537/p3a/xv6-sp20/kernel/file.c:119
  101267:	8b 4d 10             	mov    0x10(%ebp),%ecx
  10126a:	8b 45 08             	mov    0x8(%ebp),%eax
  10126d:	8b 50 14             	mov    0x14(%eax),%edx
  101270:	8b 45 08             	mov    0x8(%ebp),%eax
  101273:	8b 40 10             	mov    0x10(%eax),%eax
  101276:	51                   	push   %ecx
  101277:	52                   	push   %edx
  101278:	ff 75 0c             	pushl  0xc(%ebp)
  10127b:	50                   	push   %eax
  10127c:	e8 88 0c 00 00       	call   101f09 <writei>
  101281:	83 c4 10             	add    $0x10,%esp
  101284:	89 45 f4             	mov    %eax,-0xc(%ebp)
  101287:	83 7d f4 00          	cmpl   $0x0,-0xc(%ebp)
  10128b:	7e 11                	jle    10129e <filewrite+0x92>
/u/a/b/abhijith/CS537/p3a/xv6-sp20/kernel/file.c:120
  10128d:	8b 45 08             	mov    0x8(%ebp),%eax
  101290:	8b 50 14             	mov    0x14(%eax),%edx
  101293:	8b 45 f4             	mov    -0xc(%ebp),%eax
  101296:	01 c2                	add    %eax,%edx
  101298:	8b 45 08             	mov    0x8(%ebp),%eax
  10129b:	89 50 14             	mov    %edx,0x14(%eax)
/u/a/b/abhijith/CS537/p3a/xv6-sp20/kernel/file.c:121
  10129e:	8b 45 08             	mov    0x8(%ebp),%eax
  1012a1:	8b 40 10             	mov    0x10(%eax),%eax
  1012a4:	83 ec 0c             	sub    $0xc,%esp
  1012a7:	50                   	push   %eax
  1012a8:	e8 fa 06 00 00       	call   1019a7 <iunlock>
  1012ad:	83 c4 10             	add    $0x10,%esp
/u/a/b/abhijith/CS537/p3a/xv6-sp20/kernel/file.c:122
  1012b0:	8b 45 f4             	mov    -0xc(%ebp),%eax
  1012b3:	eb 0d                	jmp    1012c2 <filewrite+0xb6>
/u/a/b/abhijith/CS537/p3a/xv6-sp20/kernel/file.c:124
  1012b5:	83 ec 0c             	sub    $0xc,%esp
  1012b8:	68 36 7e 10 00       	push   $0x107e36
  1012bd:	e8 b6 f2 ff ff       	call   100578 <panic>
/u/a/b/abhijith/CS537/p3a/xv6-sp20/kernel/file.c:125
  1012c2:	c9                   	leave  
  1012c3:	c3                   	ret    

001012c4 <readsb>:
readsb():
/u/a/b/abhijith/CS537/p3a/xv6-sp20/kernel/fs.c:30
  1012c4:	55                   	push   %ebp
  1012c5:	89 e5                	mov    %esp,%ebp
  1012c7:	83 ec 18             	sub    $0x18,%esp
/u/a/b/abhijith/CS537/p3a/xv6-sp20/kernel/fs.c:33
  1012ca:	8b 45 08             	mov    0x8(%ebp),%eax
  1012cd:	83 ec 08             	sub    $0x8,%esp
  1012d0:	6a 01                	push   $0x1
  1012d2:	50                   	push   %eax
  1012d3:	e8 08 ef ff ff       	call   1001e0 <bread>
  1012d8:	83 c4 10             	add    $0x10,%esp
  1012db:	89 45 f4             	mov    %eax,-0xc(%ebp)
/u/a/b/abhijith/CS537/p3a/xv6-sp20/kernel/fs.c:34
  1012de:	8b 45 f4             	mov    -0xc(%ebp),%eax
  1012e1:	83 c0 18             	add    $0x18,%eax
  1012e4:	83 ec 04             	sub    $0x4,%esp
  1012e7:	6a 0c                	push   $0xc
  1012e9:	50                   	push   %eax
  1012ea:	ff 75 0c             	pushl  0xc(%ebp)
  1012ed:	e8 a3 37 00 00       	call   104a95 <memmove>
  1012f2:	83 c4 10             	add    $0x10,%esp
/u/a/b/abhijith/CS537/p3a/xv6-sp20/kernel/fs.c:35
  1012f5:	83 ec 0c             	sub    $0xc,%esp
  1012f8:	ff 75 f4             	pushl  -0xc(%ebp)
  1012fb:	e8 58 ef ff ff       	call   100258 <brelse>
  101300:	83 c4 10             	add    $0x10,%esp
/u/a/b/abhijith/CS537/p3a/xv6-sp20/kernel/fs.c:36
  101303:	90                   	nop
  101304:	c9                   	leave  
  101305:	c3                   	ret    

00101306 <bzero>:
bzero():
/u/a/b/abhijith/CS537/p3a/xv6-sp20/kernel/fs.c:41
  101306:	55                   	push   %ebp
  101307:	89 e5                	mov    %esp,%ebp
  101309:	83 ec 18             	sub    $0x18,%esp
/u/a/b/abhijith/CS537/p3a/xv6-sp20/kernel/fs.c:44
  10130c:	8b 55 0c             	mov    0xc(%ebp),%edx
  10130f:	8b 45 08             	mov    0x8(%ebp),%eax
  101312:	83 ec 08             	sub    $0x8,%esp
  101315:	52                   	push   %edx
  101316:	50                   	push   %eax
  101317:	e8 c4 ee ff ff       	call   1001e0 <bread>
  10131c:	83 c4 10             	add    $0x10,%esp
  10131f:	89 45 f4             	mov    %eax,-0xc(%ebp)
/u/a/b/abhijith/CS537/p3a/xv6-sp20/kernel/fs.c:45
  101322:	8b 45 f4             	mov    -0xc(%ebp),%eax
  101325:	83 c0 18             	add    $0x18,%eax
  101328:	83 ec 04             	sub    $0x4,%esp
  10132b:	68 00 02 00 00       	push   $0x200
  101330:	6a 00                	push   $0x0
  101332:	50                   	push   %eax
  101333:	e8 eb 36 00 00       	call   104a23 <memset>
  101338:	83 c4 10             	add    $0x10,%esp
/u/a/b/abhijith/CS537/p3a/xv6-sp20/kernel/fs.c:46
  10133b:	83 ec 0c             	sub    $0xc,%esp
  10133e:	ff 75 f4             	pushl  -0xc(%ebp)
  101341:	e8 d3 ee ff ff       	call   100219 <bwrite>
  101346:	83 c4 10             	add    $0x10,%esp
/u/a/b/abhijith/CS537/p3a/xv6-sp20/kernel/fs.c:47
  101349:	83 ec 0c             	sub    $0xc,%esp
  10134c:	ff 75 f4             	pushl  -0xc(%ebp)
  10134f:	e8 04 ef ff ff       	call   100258 <brelse>
  101354:	83 c4 10             	add    $0x10,%esp
/u/a/b/abhijith/CS537/p3a/xv6-sp20/kernel/fs.c:48
  101357:	90                   	nop
  101358:	c9                   	leave  
  101359:	c3                   	ret    

0010135a <balloc>:
balloc():
/u/a/b/abhijith/CS537/p3a/xv6-sp20/kernel/fs.c:55
  10135a:	55                   	push   %ebp
  10135b:	89 e5                	mov    %esp,%ebp
  10135d:	83 ec 28             	sub    $0x28,%esp
/u/a/b/abhijith/CS537/p3a/xv6-sp20/kernel/fs.c:60
  101360:	c7 45 ec 00 00 00 00 	movl   $0x0,-0x14(%ebp)
/u/a/b/abhijith/CS537/p3a/xv6-sp20/kernel/fs.c:61
  101367:	8b 45 08             	mov    0x8(%ebp),%eax
  10136a:	83 ec 08             	sub    $0x8,%esp
  10136d:	8d 55 dc             	lea    -0x24(%ebp),%edx
  101370:	52                   	push   %edx
  101371:	50                   	push   %eax
  101372:	e8 4d ff ff ff       	call   1012c4 <readsb>
  101377:	83 c4 10             	add    $0x10,%esp
/u/a/b/abhijith/CS537/p3a/xv6-sp20/kernel/fs.c:62
  10137a:	c7 45 f4 00 00 00 00 	movl   $0x0,-0xc(%ebp)
  101381:	e9 ec 00 00 00       	jmp    101472 <balloc+0x118>
/u/a/b/abhijith/CS537/p3a/xv6-sp20/kernel/fs.c:63
  101386:	8b 45 f4             	mov    -0xc(%ebp),%eax
  101389:	8d 90 ff 0f 00 00    	lea    0xfff(%eax),%edx
  10138f:	85 c0                	test   %eax,%eax
  101391:	0f 48 c2             	cmovs  %edx,%eax
  101394:	c1 f8 0c             	sar    $0xc,%eax
  101397:	89 c2                	mov    %eax,%edx
  101399:	8b 45 e4             	mov    -0x1c(%ebp),%eax
  10139c:	c1 e8 03             	shr    $0x3,%eax
  10139f:	01 d0                	add    %edx,%eax
  1013a1:	83 c0 03             	add    $0x3,%eax
  1013a4:	83 ec 08             	sub    $0x8,%esp
  1013a7:	50                   	push   %eax
  1013a8:	ff 75 08             	pushl  0x8(%ebp)
  1013ab:	e8 30 ee ff ff       	call   1001e0 <bread>
  1013b0:	83 c4 10             	add    $0x10,%esp
  1013b3:	89 45 ec             	mov    %eax,-0x14(%ebp)
/u/a/b/abhijith/CS537/p3a/xv6-sp20/kernel/fs.c:64
  1013b6:	c7 45 f0 00 00 00 00 	movl   $0x0,-0x10(%ebp)
  1013bd:	e9 8e 00 00 00       	jmp    101450 <balloc+0xf6>
/u/a/b/abhijith/CS537/p3a/xv6-sp20/kernel/fs.c:65
  1013c2:	8b 45 f0             	mov    -0x10(%ebp),%eax
  1013c5:	99                   	cltd   
  1013c6:	c1 ea 1d             	shr    $0x1d,%edx
  1013c9:	01 d0                	add    %edx,%eax
  1013cb:	83 e0 07             	and    $0x7,%eax
  1013ce:	29 d0                	sub    %edx,%eax
  1013d0:	ba 01 00 00 00       	mov    $0x1,%edx
  1013d5:	89 c1                	mov    %eax,%ecx
  1013d7:	d3 e2                	shl    %cl,%edx
  1013d9:	89 d0                	mov    %edx,%eax
  1013db:	89 45 e8             	mov    %eax,-0x18(%ebp)
/u/a/b/abhijith/CS537/p3a/xv6-sp20/kernel/fs.c:66
  1013de:	8b 45 f0             	mov    -0x10(%ebp),%eax
  1013e1:	8d 50 07             	lea    0x7(%eax),%edx
  1013e4:	85 c0                	test   %eax,%eax
  1013e6:	0f 48 c2             	cmovs  %edx,%eax
  1013e9:	c1 f8 03             	sar    $0x3,%eax
  1013ec:	89 c2                	mov    %eax,%edx
  1013ee:	8b 45 ec             	mov    -0x14(%ebp),%eax
  1013f1:	0f b6 44 10 18       	movzbl 0x18(%eax,%edx,1),%eax
  1013f6:	0f b6 c0             	movzbl %al,%eax
  1013f9:	23 45 e8             	and    -0x18(%ebp),%eax
  1013fc:	85 c0                	test   %eax,%eax
  1013fe:	75 4c                	jne    10144c <balloc+0xf2>
/u/a/b/abhijith/CS537/p3a/xv6-sp20/kernel/fs.c:67
  101400:	8b 45 f0             	mov    -0x10(%ebp),%eax
  101403:	8d 50 07             	lea    0x7(%eax),%edx
  101406:	85 c0                	test   %eax,%eax
  101408:	0f 48 c2             	cmovs  %edx,%eax
  10140b:	c1 f8 03             	sar    $0x3,%eax
  10140e:	8b 55 ec             	mov    -0x14(%ebp),%edx
  101411:	0f b6 54 02 18       	movzbl 0x18(%edx,%eax,1),%edx
  101416:	89 d1                	mov    %edx,%ecx
  101418:	8b 55 e8             	mov    -0x18(%ebp),%edx
  10141b:	09 ca                	or     %ecx,%edx
  10141d:	89 d1                	mov    %edx,%ecx
  10141f:	8b 55 ec             	mov    -0x14(%ebp),%edx
  101422:	88 4c 02 18          	mov    %cl,0x18(%edx,%eax,1)
/u/a/b/abhijith/CS537/p3a/xv6-sp20/kernel/fs.c:68
  101426:	83 ec 0c             	sub    $0xc,%esp
  101429:	ff 75 ec             	pushl  -0x14(%ebp)
  10142c:	e8 e8 ed ff ff       	call   100219 <bwrite>
  101431:	83 c4 10             	add    $0x10,%esp
/u/a/b/abhijith/CS537/p3a/xv6-sp20/kernel/fs.c:69
  101434:	83 ec 0c             	sub    $0xc,%esp
  101437:	ff 75 ec             	pushl  -0x14(%ebp)
  10143a:	e8 19 ee ff ff       	call   100258 <brelse>
  10143f:	83 c4 10             	add    $0x10,%esp
/u/a/b/abhijith/CS537/p3a/xv6-sp20/kernel/fs.c:70
  101442:	8b 55 f4             	mov    -0xc(%ebp),%edx
  101445:	8b 45 f0             	mov    -0x10(%ebp),%eax
  101448:	01 d0                	add    %edx,%eax
  10144a:	eb 41                	jmp    10148d <balloc+0x133>
/u/a/b/abhijith/CS537/p3a/xv6-sp20/kernel/fs.c:64 (discriminator 2)
  10144c:	83 45 f0 01          	addl   $0x1,-0x10(%ebp)
/u/a/b/abhijith/CS537/p3a/xv6-sp20/kernel/fs.c:64 (discriminator 1)
  101450:	81 7d f0 ff 0f 00 00 	cmpl   $0xfff,-0x10(%ebp)
  101457:	0f 8e 65 ff ff ff    	jle    1013c2 <balloc+0x68>
/u/a/b/abhijith/CS537/p3a/xv6-sp20/kernel/fs.c:73 (discriminator 2)
  10145d:	83 ec 0c             	sub    $0xc,%esp
  101460:	ff 75 ec             	pushl  -0x14(%ebp)
  101463:	e8 f0 ed ff ff       	call   100258 <brelse>
  101468:	83 c4 10             	add    $0x10,%esp
/u/a/b/abhijith/CS537/p3a/xv6-sp20/kernel/fs.c:62 (discriminator 2)
  10146b:	81 45 f4 00 10 00 00 	addl   $0x1000,-0xc(%ebp)
/u/a/b/abhijith/CS537/p3a/xv6-sp20/kernel/fs.c:62 (discriminator 1)
  101472:	8b 55 dc             	mov    -0x24(%ebp),%edx
  101475:	8b 45 f4             	mov    -0xc(%ebp),%eax
  101478:	39 c2                	cmp    %eax,%edx
  10147a:	0f 87 06 ff ff ff    	ja     101386 <balloc+0x2c>
/u/a/b/abhijith/CS537/p3a/xv6-sp20/kernel/fs.c:75
  101480:	83 ec 0c             	sub    $0xc,%esp
  101483:	68 40 7e 10 00       	push   $0x107e40
  101488:	e8 eb f0 ff ff       	call   100578 <panic>
/u/a/b/abhijith/CS537/p3a/xv6-sp20/kernel/fs.c:76
  10148d:	c9                   	leave  
  10148e:	c3                   	ret    

0010148f <bfree>:
bfree():
/u/a/b/abhijith/CS537/p3a/xv6-sp20/kernel/fs.c:81
  10148f:	55                   	push   %ebp
  101490:	89 e5                	mov    %esp,%ebp
  101492:	83 ec 28             	sub    $0x28,%esp
/u/a/b/abhijith/CS537/p3a/xv6-sp20/kernel/fs.c:86
  101495:	8b 45 0c             	mov    0xc(%ebp),%eax
  101498:	83 ec 08             	sub    $0x8,%esp
  10149b:	50                   	push   %eax
  10149c:	ff 75 08             	pushl  0x8(%ebp)
  10149f:	e8 62 fe ff ff       	call   101306 <bzero>
  1014a4:	83 c4 10             	add    $0x10,%esp
/u/a/b/abhijith/CS537/p3a/xv6-sp20/kernel/fs.c:88
  1014a7:	83 ec 08             	sub    $0x8,%esp
  1014aa:	8d 45 e0             	lea    -0x20(%ebp),%eax
  1014ad:	50                   	push   %eax
  1014ae:	ff 75 08             	pushl  0x8(%ebp)
  1014b1:	e8 0e fe ff ff       	call   1012c4 <readsb>
  1014b6:	83 c4 10             	add    $0x10,%esp
/u/a/b/abhijith/CS537/p3a/xv6-sp20/kernel/fs.c:89
  1014b9:	8b 45 0c             	mov    0xc(%ebp),%eax
  1014bc:	c1 e8 0c             	shr    $0xc,%eax
  1014bf:	89 c2                	mov    %eax,%edx
  1014c1:	8b 45 e8             	mov    -0x18(%ebp),%eax
  1014c4:	c1 e8 03             	shr    $0x3,%eax
  1014c7:	01 d0                	add    %edx,%eax
  1014c9:	8d 50 03             	lea    0x3(%eax),%edx
  1014cc:	8b 45 08             	mov    0x8(%ebp),%eax
  1014cf:	83 ec 08             	sub    $0x8,%esp
  1014d2:	52                   	push   %edx
  1014d3:	50                   	push   %eax
  1014d4:	e8 07 ed ff ff       	call   1001e0 <bread>
  1014d9:	83 c4 10             	add    $0x10,%esp
  1014dc:	89 45 f4             	mov    %eax,-0xc(%ebp)
/u/a/b/abhijith/CS537/p3a/xv6-sp20/kernel/fs.c:90
  1014df:	8b 45 0c             	mov    0xc(%ebp),%eax
  1014e2:	25 ff 0f 00 00       	and    $0xfff,%eax
  1014e7:	89 45 f0             	mov    %eax,-0x10(%ebp)
/u/a/b/abhijith/CS537/p3a/xv6-sp20/kernel/fs.c:91
  1014ea:	8b 45 f0             	mov    -0x10(%ebp),%eax
  1014ed:	99                   	cltd   
  1014ee:	c1 ea 1d             	shr    $0x1d,%edx
  1014f1:	01 d0                	add    %edx,%eax
  1014f3:	83 e0 07             	and    $0x7,%eax
  1014f6:	29 d0                	sub    %edx,%eax
  1014f8:	ba 01 00 00 00       	mov    $0x1,%edx
  1014fd:	89 c1                	mov    %eax,%ecx
  1014ff:	d3 e2                	shl    %cl,%edx
  101501:	89 d0                	mov    %edx,%eax
  101503:	89 45 ec             	mov    %eax,-0x14(%ebp)
/u/a/b/abhijith/CS537/p3a/xv6-sp20/kernel/fs.c:92
  101506:	8b 45 f0             	mov    -0x10(%ebp),%eax
  101509:	8d 50 07             	lea    0x7(%eax),%edx
  10150c:	85 c0                	test   %eax,%eax
  10150e:	0f 48 c2             	cmovs  %edx,%eax
  101511:	c1 f8 03             	sar    $0x3,%eax
  101514:	89 c2                	mov    %eax,%edx
  101516:	8b 45 f4             	mov    -0xc(%ebp),%eax
  101519:	0f b6 44 10 18       	movzbl 0x18(%eax,%edx,1),%eax
  10151e:	0f b6 c0             	movzbl %al,%eax
  101521:	23 45 ec             	and    -0x14(%ebp),%eax
  101524:	85 c0                	test   %eax,%eax
  101526:	75 0d                	jne    101535 <bfree+0xa6>
/u/a/b/abhijith/CS537/p3a/xv6-sp20/kernel/fs.c:93
  101528:	83 ec 0c             	sub    $0xc,%esp
  10152b:	68 56 7e 10 00       	push   $0x107e56
  101530:	e8 43 f0 ff ff       	call   100578 <panic>
/u/a/b/abhijith/CS537/p3a/xv6-sp20/kernel/fs.c:94
  101535:	8b 45 f0             	mov    -0x10(%ebp),%eax
  101538:	8d 50 07             	lea    0x7(%eax),%edx
  10153b:	85 c0                	test   %eax,%eax
  10153d:	0f 48 c2             	cmovs  %edx,%eax
  101540:	c1 f8 03             	sar    $0x3,%eax
  101543:	8b 55 f4             	mov    -0xc(%ebp),%edx
  101546:	0f b6 54 02 18       	movzbl 0x18(%edx,%eax,1),%edx
  10154b:	89 d1                	mov    %edx,%ecx
  10154d:	8b 55 ec             	mov    -0x14(%ebp),%edx
  101550:	f7 d2                	not    %edx
  101552:	21 ca                	and    %ecx,%edx
  101554:	89 d1                	mov    %edx,%ecx
  101556:	8b 55 f4             	mov    -0xc(%ebp),%edx
  101559:	88 4c 02 18          	mov    %cl,0x18(%edx,%eax,1)
/u/a/b/abhijith/CS537/p3a/xv6-sp20/kernel/fs.c:95
  10155d:	83 ec 0c             	sub    $0xc,%esp
  101560:	ff 75 f4             	pushl  -0xc(%ebp)
  101563:	e8 b1 ec ff ff       	call   100219 <bwrite>
  101568:	83 c4 10             	add    $0x10,%esp
/u/a/b/abhijith/CS537/p3a/xv6-sp20/kernel/fs.c:96
  10156b:	83 ec 0c             	sub    $0xc,%esp
  10156e:	ff 75 f4             	pushl  -0xc(%ebp)
  101571:	e8 e2 ec ff ff       	call   100258 <brelse>
  101576:	83 c4 10             	add    $0x10,%esp
/u/a/b/abhijith/CS537/p3a/xv6-sp20/kernel/fs.c:97
  101579:	90                   	nop
  10157a:	c9                   	leave  
  10157b:	c3                   	ret    

0010157c <iinit>:
iinit():
/u/a/b/abhijith/CS537/p3a/xv6-sp20/kernel/fs.c:139
  10157c:	55                   	push   %ebp
  10157d:	89 e5                	mov    %esp,%ebp
  10157f:	83 ec 08             	sub    $0x8,%esp
/u/a/b/abhijith/CS537/p3a/xv6-sp20/kernel/fs.c:140
  101582:	83 ec 08             	sub    $0x8,%esp
  101585:	68 69 7e 10 00       	push   $0x107e69
  10158a:	68 80 ed 10 00       	push   $0x10ed80
  10158f:	e8 30 32 00 00       	call   1047c4 <initlock>
  101594:	83 c4 10             	add    $0x10,%esp
/u/a/b/abhijith/CS537/p3a/xv6-sp20/kernel/fs.c:141
  101597:	90                   	nop
  101598:	c9                   	leave  
  101599:	c3                   	ret    

0010159a <ialloc>:
ialloc():
/u/a/b/abhijith/CS537/p3a/xv6-sp20/kernel/fs.c:148
  10159a:	55                   	push   %ebp
  10159b:	89 e5                	mov    %esp,%ebp
  10159d:	83 ec 38             	sub    $0x38,%esp
  1015a0:	8b 45 0c             	mov    0xc(%ebp),%eax
  1015a3:	66 89 45 d4          	mov    %ax,-0x2c(%ebp)
/u/a/b/abhijith/CS537/p3a/xv6-sp20/kernel/fs.c:154
  1015a7:	8b 45 08             	mov    0x8(%ebp),%eax
  1015aa:	83 ec 08             	sub    $0x8,%esp
  1015ad:	8d 55 e0             	lea    -0x20(%ebp),%edx
  1015b0:	52                   	push   %edx
  1015b1:	50                   	push   %eax
  1015b2:	e8 0d fd ff ff       	call   1012c4 <readsb>
  1015b7:	83 c4 10             	add    $0x10,%esp
/u/a/b/abhijith/CS537/p3a/xv6-sp20/kernel/fs.c:155
  1015ba:	c7 45 f4 01 00 00 00 	movl   $0x1,-0xc(%ebp)
  1015c1:	e9 98 00 00 00       	jmp    10165e <ialloc+0xc4>
/u/a/b/abhijith/CS537/p3a/xv6-sp20/kernel/fs.c:156
  1015c6:	8b 45 f4             	mov    -0xc(%ebp),%eax
  1015c9:	c1 e8 03             	shr    $0x3,%eax
  1015cc:	83 c0 02             	add    $0x2,%eax
  1015cf:	83 ec 08             	sub    $0x8,%esp
  1015d2:	50                   	push   %eax
  1015d3:	ff 75 08             	pushl  0x8(%ebp)
  1015d6:	e8 05 ec ff ff       	call   1001e0 <bread>
  1015db:	83 c4 10             	add    $0x10,%esp
  1015de:	89 45 f0             	mov    %eax,-0x10(%ebp)
/u/a/b/abhijith/CS537/p3a/xv6-sp20/kernel/fs.c:157
  1015e1:	8b 45 f0             	mov    -0x10(%ebp),%eax
  1015e4:	8d 50 18             	lea    0x18(%eax),%edx
  1015e7:	8b 45 f4             	mov    -0xc(%ebp),%eax
  1015ea:	83 e0 07             	and    $0x7,%eax
  1015ed:	c1 e0 06             	shl    $0x6,%eax
  1015f0:	01 d0                	add    %edx,%eax
  1015f2:	89 45 ec             	mov    %eax,-0x14(%ebp)
/u/a/b/abhijith/CS537/p3a/xv6-sp20/kernel/fs.c:158
  1015f5:	8b 45 ec             	mov    -0x14(%ebp),%eax
  1015f8:	0f b7 00             	movzwl (%eax),%eax
  1015fb:	66 85 c0             	test   %ax,%ax
  1015fe:	75 4c                	jne    10164c <ialloc+0xb2>
/u/a/b/abhijith/CS537/p3a/xv6-sp20/kernel/fs.c:159
  101600:	83 ec 04             	sub    $0x4,%esp
  101603:	6a 40                	push   $0x40
  101605:	6a 00                	push   $0x0
  101607:	ff 75 ec             	pushl  -0x14(%ebp)
  10160a:	e8 14 34 00 00       	call   104a23 <memset>
  10160f:	83 c4 10             	add    $0x10,%esp
/u/a/b/abhijith/CS537/p3a/xv6-sp20/kernel/fs.c:160
  101612:	8b 45 ec             	mov    -0x14(%ebp),%eax
  101615:	0f b7 55 d4          	movzwl -0x2c(%ebp),%edx
  101619:	66 89 10             	mov    %dx,(%eax)
/u/a/b/abhijith/CS537/p3a/xv6-sp20/kernel/fs.c:161
  10161c:	83 ec 0c             	sub    $0xc,%esp
  10161f:	ff 75 f0             	pushl  -0x10(%ebp)
  101622:	e8 f2 eb ff ff       	call   100219 <bwrite>
  101627:	83 c4 10             	add    $0x10,%esp
/u/a/b/abhijith/CS537/p3a/xv6-sp20/kernel/fs.c:162
  10162a:	83 ec 0c             	sub    $0xc,%esp
  10162d:	ff 75 f0             	pushl  -0x10(%ebp)
  101630:	e8 23 ec ff ff       	call   100258 <brelse>
  101635:	83 c4 10             	add    $0x10,%esp
/u/a/b/abhijith/CS537/p3a/xv6-sp20/kernel/fs.c:163
  101638:	8b 45 f4             	mov    -0xc(%ebp),%eax
  10163b:	83 ec 08             	sub    $0x8,%esp
  10163e:	50                   	push   %eax
  10163f:	ff 75 08             	pushl  0x8(%ebp)
  101642:	e8 ef 00 00 00       	call   101736 <iget>
  101647:	83 c4 10             	add    $0x10,%esp
  10164a:	eb 2d                	jmp    101679 <ialloc+0xdf>
/u/a/b/abhijith/CS537/p3a/xv6-sp20/kernel/fs.c:165 (discriminator 2)
  10164c:	83 ec 0c             	sub    $0xc,%esp
  10164f:	ff 75 f0             	pushl  -0x10(%ebp)
  101652:	e8 01 ec ff ff       	call   100258 <brelse>
  101657:	83 c4 10             	add    $0x10,%esp
/u/a/b/abhijith/CS537/p3a/xv6-sp20/kernel/fs.c:155 (discriminator 2)
  10165a:	83 45 f4 01          	addl   $0x1,-0xc(%ebp)
/u/a/b/abhijith/CS537/p3a/xv6-sp20/kernel/fs.c:155 (discriminator 1)
  10165e:	8b 55 e8             	mov    -0x18(%ebp),%edx
  101661:	8b 45 f4             	mov    -0xc(%ebp),%eax
  101664:	39 c2                	cmp    %eax,%edx
  101666:	0f 87 5a ff ff ff    	ja     1015c6 <ialloc+0x2c>
/u/a/b/abhijith/CS537/p3a/xv6-sp20/kernel/fs.c:167
  10166c:	83 ec 0c             	sub    $0xc,%esp
  10166f:	68 70 7e 10 00       	push   $0x107e70
  101674:	e8 ff ee ff ff       	call   100578 <panic>
/u/a/b/abhijith/CS537/p3a/xv6-sp20/kernel/fs.c:168
  101679:	c9                   	leave  
  10167a:	c3                   	ret    

0010167b <iupdate>:
iupdate():
/u/a/b/abhijith/CS537/p3a/xv6-sp20/kernel/fs.c:173
  10167b:	55                   	push   %ebp
  10167c:	89 e5                	mov    %esp,%ebp
  10167e:	83 ec 18             	sub    $0x18,%esp
/u/a/b/abhijith/CS537/p3a/xv6-sp20/kernel/fs.c:177
  101681:	8b 45 08             	mov    0x8(%ebp),%eax
  101684:	8b 40 04             	mov    0x4(%eax),%eax
  101687:	c1 e8 03             	shr    $0x3,%eax
  10168a:	8d 50 02             	lea    0x2(%eax),%edx
  10168d:	8b 45 08             	mov    0x8(%ebp),%eax
  101690:	8b 00                	mov    (%eax),%eax
  101692:	83 ec 08             	sub    $0x8,%esp
  101695:	52                   	push   %edx
  101696:	50                   	push   %eax
  101697:	e8 44 eb ff ff       	call   1001e0 <bread>
  10169c:	83 c4 10             	add    $0x10,%esp
  10169f:	89 45 f4             	mov    %eax,-0xc(%ebp)
/u/a/b/abhijith/CS537/p3a/xv6-sp20/kernel/fs.c:178
  1016a2:	8b 45 f4             	mov    -0xc(%ebp),%eax
  1016a5:	8d 50 18             	lea    0x18(%eax),%edx
  1016a8:	8b 45 08             	mov    0x8(%ebp),%eax
  1016ab:	8b 40 04             	mov    0x4(%eax),%eax
  1016ae:	83 e0 07             	and    $0x7,%eax
  1016b1:	c1 e0 06             	shl    $0x6,%eax
  1016b4:	01 d0                	add    %edx,%eax
  1016b6:	89 45 f0             	mov    %eax,-0x10(%ebp)
/u/a/b/abhijith/CS537/p3a/xv6-sp20/kernel/fs.c:179
  1016b9:	8b 45 08             	mov    0x8(%ebp),%eax
  1016bc:	0f b7 50 10          	movzwl 0x10(%eax),%edx
  1016c0:	8b 45 f0             	mov    -0x10(%ebp),%eax
  1016c3:	66 89 10             	mov    %dx,(%eax)
/u/a/b/abhijith/CS537/p3a/xv6-sp20/kernel/fs.c:180
  1016c6:	8b 45 08             	mov    0x8(%ebp),%eax
  1016c9:	0f b7 50 12          	movzwl 0x12(%eax),%edx
  1016cd:	8b 45 f0             	mov    -0x10(%ebp),%eax
  1016d0:	66 89 50 02          	mov    %dx,0x2(%eax)
/u/a/b/abhijith/CS537/p3a/xv6-sp20/kernel/fs.c:181
  1016d4:	8b 45 08             	mov    0x8(%ebp),%eax
  1016d7:	0f b7 50 14          	movzwl 0x14(%eax),%edx
  1016db:	8b 45 f0             	mov    -0x10(%ebp),%eax
  1016de:	66 89 50 04          	mov    %dx,0x4(%eax)
/u/a/b/abhijith/CS537/p3a/xv6-sp20/kernel/fs.c:182
  1016e2:	8b 45 08             	mov    0x8(%ebp),%eax
  1016e5:	0f b7 50 16          	movzwl 0x16(%eax),%edx
  1016e9:	8b 45 f0             	mov    -0x10(%ebp),%eax
  1016ec:	66 89 50 06          	mov    %dx,0x6(%eax)
/u/a/b/abhijith/CS537/p3a/xv6-sp20/kernel/fs.c:183
  1016f0:	8b 45 08             	mov    0x8(%ebp),%eax
  1016f3:	8b 50 18             	mov    0x18(%eax),%edx
  1016f6:	8b 45 f0             	mov    -0x10(%ebp),%eax
  1016f9:	89 50 08             	mov    %edx,0x8(%eax)
/u/a/b/abhijith/CS537/p3a/xv6-sp20/kernel/fs.c:184
  1016fc:	8b 45 08             	mov    0x8(%ebp),%eax
  1016ff:	8d 50 1c             	lea    0x1c(%eax),%edx
  101702:	8b 45 f0             	mov    -0x10(%ebp),%eax
  101705:	83 c0 0c             	add    $0xc,%eax
  101708:	83 ec 04             	sub    $0x4,%esp
  10170b:	6a 34                	push   $0x34
  10170d:	52                   	push   %edx
  10170e:	50                   	push   %eax
  10170f:	e8 81 33 00 00       	call   104a95 <memmove>
  101714:	83 c4 10             	add    $0x10,%esp
/u/a/b/abhijith/CS537/p3a/xv6-sp20/kernel/fs.c:185
  101717:	83 ec 0c             	sub    $0xc,%esp
  10171a:	ff 75 f4             	pushl  -0xc(%ebp)
  10171d:	e8 f7 ea ff ff       	call   100219 <bwrite>
  101722:	83 c4 10             	add    $0x10,%esp
/u/a/b/abhijith/CS537/p3a/xv6-sp20/kernel/fs.c:186
  101725:	83 ec 0c             	sub    $0xc,%esp
  101728:	ff 75 f4             	pushl  -0xc(%ebp)
  10172b:	e8 28 eb ff ff       	call   100258 <brelse>
  101730:	83 c4 10             	add    $0x10,%esp
/u/a/b/abhijith/CS537/p3a/xv6-sp20/kernel/fs.c:187
  101733:	90                   	nop
  101734:	c9                   	leave  
  101735:	c3                   	ret    

00101736 <iget>:
iget():
/u/a/b/abhijith/CS537/p3a/xv6-sp20/kernel/fs.c:193
  101736:	55                   	push   %ebp
  101737:	89 e5                	mov    %esp,%ebp
  101739:	83 ec 18             	sub    $0x18,%esp
/u/a/b/abhijith/CS537/p3a/xv6-sp20/kernel/fs.c:196
  10173c:	83 ec 0c             	sub    $0xc,%esp
  10173f:	68 80 ed 10 00       	push   $0x10ed80
  101744:	e8 9d 30 00 00       	call   1047e6 <acquire>
  101749:	83 c4 10             	add    $0x10,%esp
/u/a/b/abhijith/CS537/p3a/xv6-sp20/kernel/fs.c:199
  10174c:	c7 45 f0 00 00 00 00 	movl   $0x0,-0x10(%ebp)
/u/a/b/abhijith/CS537/p3a/xv6-sp20/kernel/fs.c:200
  101753:	c7 45 f4 b4 ed 10 00 	movl   $0x10edb4,-0xc(%ebp)
  10175a:	eb 5d                	jmp    1017b9 <iget+0x83>
/u/a/b/abhijith/CS537/p3a/xv6-sp20/kernel/fs.c:201
  10175c:	8b 45 f4             	mov    -0xc(%ebp),%eax
  10175f:	8b 40 08             	mov    0x8(%eax),%eax
  101762:	85 c0                	test   %eax,%eax
  101764:	7e 39                	jle    10179f <iget+0x69>
/u/a/b/abhijith/CS537/p3a/xv6-sp20/kernel/fs.c:201 (discriminator 1)
  101766:	8b 45 f4             	mov    -0xc(%ebp),%eax
  101769:	8b 00                	mov    (%eax),%eax
  10176b:	39 45 08             	cmp    %eax,0x8(%ebp)
  10176e:	75 2f                	jne    10179f <iget+0x69>
/u/a/b/abhijith/CS537/p3a/xv6-sp20/kernel/fs.c:201 (discriminator 2)
  101770:	8b 45 f4             	mov    -0xc(%ebp),%eax
  101773:	8b 40 04             	mov    0x4(%eax),%eax
  101776:	39 45 0c             	cmp    %eax,0xc(%ebp)
  101779:	75 24                	jne    10179f <iget+0x69>
/u/a/b/abhijith/CS537/p3a/xv6-sp20/kernel/fs.c:202
  10177b:	8b 45 f4             	mov    -0xc(%ebp),%eax
  10177e:	8b 40 08             	mov    0x8(%eax),%eax
  101781:	8d 50 01             	lea    0x1(%eax),%edx
  101784:	8b 45 f4             	mov    -0xc(%ebp),%eax
  101787:	89 50 08             	mov    %edx,0x8(%eax)
/u/a/b/abhijith/CS537/p3a/xv6-sp20/kernel/fs.c:203
  10178a:	83 ec 0c             	sub    $0xc,%esp
  10178d:	68 80 ed 10 00       	push   $0x10ed80
  101792:	e8 b6 30 00 00       	call   10484d <release>
  101797:	83 c4 10             	add    $0x10,%esp
/u/a/b/abhijith/CS537/p3a/xv6-sp20/kernel/fs.c:204
  10179a:	8b 45 f4             	mov    -0xc(%ebp),%eax
  10179d:	eb 74                	jmp    101813 <iget+0xdd>
/u/a/b/abhijith/CS537/p3a/xv6-sp20/kernel/fs.c:206
  10179f:	83 7d f0 00          	cmpl   $0x0,-0x10(%ebp)
  1017a3:	75 10                	jne    1017b5 <iget+0x7f>
/u/a/b/abhijith/CS537/p3a/xv6-sp20/kernel/fs.c:206 (discriminator 1)
  1017a5:	8b 45 f4             	mov    -0xc(%ebp),%eax
  1017a8:	8b 40 08             	mov    0x8(%eax),%eax
  1017ab:	85 c0                	test   %eax,%eax
  1017ad:	75 06                	jne    1017b5 <iget+0x7f>
/u/a/b/abhijith/CS537/p3a/xv6-sp20/kernel/fs.c:207
  1017af:	8b 45 f4             	mov    -0xc(%ebp),%eax
  1017b2:	89 45 f0             	mov    %eax,-0x10(%ebp)
/u/a/b/abhijith/CS537/p3a/xv6-sp20/kernel/fs.c:200 (discriminator 2)
  1017b5:	83 45 f4 50          	addl   $0x50,-0xc(%ebp)
/u/a/b/abhijith/CS537/p3a/xv6-sp20/kernel/fs.c:200 (discriminator 1)
  1017b9:	81 7d f4 54 fd 10 00 	cmpl   $0x10fd54,-0xc(%ebp)
  1017c0:	72 9a                	jb     10175c <iget+0x26>
/u/a/b/abhijith/CS537/p3a/xv6-sp20/kernel/fs.c:211
  1017c2:	83 7d f0 00          	cmpl   $0x0,-0x10(%ebp)
  1017c6:	75 0d                	jne    1017d5 <iget+0x9f>
/u/a/b/abhijith/CS537/p3a/xv6-sp20/kernel/fs.c:212
  1017c8:	83 ec 0c             	sub    $0xc,%esp
  1017cb:	68 82 7e 10 00       	push   $0x107e82
  1017d0:	e8 a3 ed ff ff       	call   100578 <panic>
/u/a/b/abhijith/CS537/p3a/xv6-sp20/kernel/fs.c:214
  1017d5:	8b 45 f0             	mov    -0x10(%ebp),%eax
  1017d8:	89 45 f4             	mov    %eax,-0xc(%ebp)
/u/a/b/abhijith/CS537/p3a/xv6-sp20/kernel/fs.c:215
  1017db:	8b 45 f4             	mov    -0xc(%ebp),%eax
  1017de:	8b 55 08             	mov    0x8(%ebp),%edx
  1017e1:	89 10                	mov    %edx,(%eax)
/u/a/b/abhijith/CS537/p3a/xv6-sp20/kernel/fs.c:216
  1017e3:	8b 45 f4             	mov    -0xc(%ebp),%eax
  1017e6:	8b 55 0c             	mov    0xc(%ebp),%edx
  1017e9:	89 50 04             	mov    %edx,0x4(%eax)
/u/a/b/abhijith/CS537/p3a/xv6-sp20/kernel/fs.c:217
  1017ec:	8b 45 f4             	mov    -0xc(%ebp),%eax
  1017ef:	c7 40 08 01 00 00 00 	movl   $0x1,0x8(%eax)
/u/a/b/abhijith/CS537/p3a/xv6-sp20/kernel/fs.c:218
  1017f6:	8b 45 f4             	mov    -0xc(%ebp),%eax
  1017f9:	c7 40 0c 00 00 00 00 	movl   $0x0,0xc(%eax)
/u/a/b/abhijith/CS537/p3a/xv6-sp20/kernel/fs.c:219
  101800:	83 ec 0c             	sub    $0xc,%esp
  101803:	68 80 ed 10 00       	push   $0x10ed80
  101808:	e8 40 30 00 00       	call   10484d <release>
  10180d:	83 c4 10             	add    $0x10,%esp
/u/a/b/abhijith/CS537/p3a/xv6-sp20/kernel/fs.c:221
  101810:	8b 45 f4             	mov    -0xc(%ebp),%eax
/u/a/b/abhijith/CS537/p3a/xv6-sp20/kernel/fs.c:222
  101813:	c9                   	leave  
  101814:	c3                   	ret    

00101815 <idup>:
idup():
/u/a/b/abhijith/CS537/p3a/xv6-sp20/kernel/fs.c:228
  101815:	55                   	push   %ebp
  101816:	89 e5                	mov    %esp,%ebp
  101818:	83 ec 08             	sub    $0x8,%esp
/u/a/b/abhijith/CS537/p3a/xv6-sp20/kernel/fs.c:229
  10181b:	83 ec 0c             	sub    $0xc,%esp
  10181e:	68 80 ed 10 00       	push   $0x10ed80
  101823:	e8 be 2f 00 00       	call   1047e6 <acquire>
  101828:	83 c4 10             	add    $0x10,%esp
/u/a/b/abhijith/CS537/p3a/xv6-sp20/kernel/fs.c:230
  10182b:	8b 45 08             	mov    0x8(%ebp),%eax
  10182e:	8b 40 08             	mov    0x8(%eax),%eax
  101831:	8d 50 01             	lea    0x1(%eax),%edx
  101834:	8b 45 08             	mov    0x8(%ebp),%eax
  101837:	89 50 08             	mov    %edx,0x8(%eax)
/u/a/b/abhijith/CS537/p3a/xv6-sp20/kernel/fs.c:231
  10183a:	83 ec 0c             	sub    $0xc,%esp
  10183d:	68 80 ed 10 00       	push   $0x10ed80
  101842:	e8 06 30 00 00       	call   10484d <release>
  101847:	83 c4 10             	add    $0x10,%esp
/u/a/b/abhijith/CS537/p3a/xv6-sp20/kernel/fs.c:232
  10184a:	8b 45 08             	mov    0x8(%ebp),%eax
/u/a/b/abhijith/CS537/p3a/xv6-sp20/kernel/fs.c:233
  10184d:	c9                   	leave  
  10184e:	c3                   	ret    

0010184f <ilock>:
ilock():
/u/a/b/abhijith/CS537/p3a/xv6-sp20/kernel/fs.c:238
  10184f:	55                   	push   %ebp
  101850:	89 e5                	mov    %esp,%ebp
  101852:	83 ec 18             	sub    $0x18,%esp
/u/a/b/abhijith/CS537/p3a/xv6-sp20/kernel/fs.c:242
  101855:	83 7d 08 00          	cmpl   $0x0,0x8(%ebp)
  101859:	74 0a                	je     101865 <ilock+0x16>
/u/a/b/abhijith/CS537/p3a/xv6-sp20/kernel/fs.c:242 (discriminator 1)
  10185b:	8b 45 08             	mov    0x8(%ebp),%eax
  10185e:	8b 40 08             	mov    0x8(%eax),%eax
  101861:	85 c0                	test   %eax,%eax
  101863:	7f 0d                	jg     101872 <ilock+0x23>
/u/a/b/abhijith/CS537/p3a/xv6-sp20/kernel/fs.c:243
  101865:	83 ec 0c             	sub    $0xc,%esp
  101868:	68 92 7e 10 00       	push   $0x107e92
  10186d:	e8 06 ed ff ff       	call   100578 <panic>
/u/a/b/abhijith/CS537/p3a/xv6-sp20/kernel/fs.c:245
  101872:	83 ec 0c             	sub    $0xc,%esp
  101875:	68 80 ed 10 00       	push   $0x10ed80
  10187a:	e8 67 2f 00 00       	call   1047e6 <acquire>
  10187f:	83 c4 10             	add    $0x10,%esp
/u/a/b/abhijith/CS537/p3a/xv6-sp20/kernel/fs.c:246
  101882:	eb 13                	jmp    101897 <ilock+0x48>
/u/a/b/abhijith/CS537/p3a/xv6-sp20/kernel/fs.c:247
  101884:	83 ec 08             	sub    $0x8,%esp
  101887:	68 80 ed 10 00       	push   $0x10ed80
  10188c:	ff 75 08             	pushl  0x8(%ebp)
  10188f:	e8 59 2c 00 00       	call   1044ed <sleep>
  101894:	83 c4 10             	add    $0x10,%esp
/u/a/b/abhijith/CS537/p3a/xv6-sp20/kernel/fs.c:246
  101897:	8b 45 08             	mov    0x8(%ebp),%eax
  10189a:	8b 40 0c             	mov    0xc(%eax),%eax
  10189d:	83 e0 01             	and    $0x1,%eax
  1018a0:	85 c0                	test   %eax,%eax
  1018a2:	75 e0                	jne    101884 <ilock+0x35>
/u/a/b/abhijith/CS537/p3a/xv6-sp20/kernel/fs.c:248
  1018a4:	8b 45 08             	mov    0x8(%ebp),%eax
  1018a7:	8b 40 0c             	mov    0xc(%eax),%eax
  1018aa:	83 c8 01             	or     $0x1,%eax
  1018ad:	89 c2                	mov    %eax,%edx
  1018af:	8b 45 08             	mov    0x8(%ebp),%eax
  1018b2:	89 50 0c             	mov    %edx,0xc(%eax)
/u/a/b/abhijith/CS537/p3a/xv6-sp20/kernel/fs.c:249
  1018b5:	83 ec 0c             	sub    $0xc,%esp
  1018b8:	68 80 ed 10 00       	push   $0x10ed80
  1018bd:	e8 8b 2f 00 00       	call   10484d <release>
  1018c2:	83 c4 10             	add    $0x10,%esp
/u/a/b/abhijith/CS537/p3a/xv6-sp20/kernel/fs.c:251
  1018c5:	8b 45 08             	mov    0x8(%ebp),%eax
  1018c8:	8b 40 0c             	mov    0xc(%eax),%eax
  1018cb:	83 e0 02             	and    $0x2,%eax
  1018ce:	85 c0                	test   %eax,%eax
  1018d0:	0f 85 ce 00 00 00    	jne    1019a4 <ilock+0x155>
/u/a/b/abhijith/CS537/p3a/xv6-sp20/kernel/fs.c:252
  1018d6:	8b 45 08             	mov    0x8(%ebp),%eax
  1018d9:	8b 40 04             	mov    0x4(%eax),%eax
  1018dc:	c1 e8 03             	shr    $0x3,%eax
  1018df:	8d 50 02             	lea    0x2(%eax),%edx
  1018e2:	8b 45 08             	mov    0x8(%ebp),%eax
  1018e5:	8b 00                	mov    (%eax),%eax
  1018e7:	83 ec 08             	sub    $0x8,%esp
  1018ea:	52                   	push   %edx
  1018eb:	50                   	push   %eax
  1018ec:	e8 ef e8 ff ff       	call   1001e0 <bread>
  1018f1:	83 c4 10             	add    $0x10,%esp
  1018f4:	89 45 f4             	mov    %eax,-0xc(%ebp)
/u/a/b/abhijith/CS537/p3a/xv6-sp20/kernel/fs.c:253
  1018f7:	8b 45 f4             	mov    -0xc(%ebp),%eax
  1018fa:	8d 50 18             	lea    0x18(%eax),%edx
  1018fd:	8b 45 08             	mov    0x8(%ebp),%eax
  101900:	8b 40 04             	mov    0x4(%eax),%eax
  101903:	83 e0 07             	and    $0x7,%eax
  101906:	c1 e0 06             	shl    $0x6,%eax
  101909:	01 d0                	add    %edx,%eax
  10190b:	89 45 f0             	mov    %eax,-0x10(%ebp)
/u/a/b/abhijith/CS537/p3a/xv6-sp20/kernel/fs.c:254
  10190e:	8b 45 f0             	mov    -0x10(%ebp),%eax
  101911:	0f b7 10             	movzwl (%eax),%edx
  101914:	8b 45 08             	mov    0x8(%ebp),%eax
  101917:	66 89 50 10          	mov    %dx,0x10(%eax)
/u/a/b/abhijith/CS537/p3a/xv6-sp20/kernel/fs.c:255
  10191b:	8b 45 f0             	mov    -0x10(%ebp),%eax
  10191e:	0f b7 50 02          	movzwl 0x2(%eax),%edx
  101922:	8b 45 08             	mov    0x8(%ebp),%eax
  101925:	66 89 50 12          	mov    %dx,0x12(%eax)
/u/a/b/abhijith/CS537/p3a/xv6-sp20/kernel/fs.c:256
  101929:	8b 45 f0             	mov    -0x10(%ebp),%eax
  10192c:	0f b7 50 04          	movzwl 0x4(%eax),%edx
  101930:	8b 45 08             	mov    0x8(%ebp),%eax
  101933:	66 89 50 14          	mov    %dx,0x14(%eax)
/u/a/b/abhijith/CS537/p3a/xv6-sp20/kernel/fs.c:257
  101937:	8b 45 f0             	mov    -0x10(%ebp),%eax
  10193a:	0f b7 50 06          	movzwl 0x6(%eax),%edx
  10193e:	8b 45 08             	mov    0x8(%ebp),%eax
  101941:	66 89 50 16          	mov    %dx,0x16(%eax)
/u/a/b/abhijith/CS537/p3a/xv6-sp20/kernel/fs.c:258
  101945:	8b 45 f0             	mov    -0x10(%ebp),%eax
  101948:	8b 50 08             	mov    0x8(%eax),%edx
  10194b:	8b 45 08             	mov    0x8(%ebp),%eax
  10194e:	89 50 18             	mov    %edx,0x18(%eax)
/u/a/b/abhijith/CS537/p3a/xv6-sp20/kernel/fs.c:259
  101951:	8b 45 f0             	mov    -0x10(%ebp),%eax
  101954:	8d 50 0c             	lea    0xc(%eax),%edx
  101957:	8b 45 08             	mov    0x8(%ebp),%eax
  10195a:	83 c0 1c             	add    $0x1c,%eax
  10195d:	83 ec 04             	sub    $0x4,%esp
  101960:	6a 34                	push   $0x34
  101962:	52                   	push   %edx
  101963:	50                   	push   %eax
  101964:	e8 2c 31 00 00       	call   104a95 <memmove>
  101969:	83 c4 10             	add    $0x10,%esp
/u/a/b/abhijith/CS537/p3a/xv6-sp20/kernel/fs.c:260
  10196c:	83 ec 0c             	sub    $0xc,%esp
  10196f:	ff 75 f4             	pushl  -0xc(%ebp)
  101972:	e8 e1 e8 ff ff       	call   100258 <brelse>
  101977:	83 c4 10             	add    $0x10,%esp
/u/a/b/abhijith/CS537/p3a/xv6-sp20/kernel/fs.c:261
  10197a:	8b 45 08             	mov    0x8(%ebp),%eax
  10197d:	8b 40 0c             	mov    0xc(%eax),%eax
  101980:	83 c8 02             	or     $0x2,%eax
  101983:	89 c2                	mov    %eax,%edx
  101985:	8b 45 08             	mov    0x8(%ebp),%eax
  101988:	89 50 0c             	mov    %edx,0xc(%eax)
/u/a/b/abhijith/CS537/p3a/xv6-sp20/kernel/fs.c:262
  10198b:	8b 45 08             	mov    0x8(%ebp),%eax
  10198e:	0f b7 40 10          	movzwl 0x10(%eax),%eax
  101992:	66 85 c0             	test   %ax,%ax
  101995:	75 0d                	jne    1019a4 <ilock+0x155>
/u/a/b/abhijith/CS537/p3a/xv6-sp20/kernel/fs.c:263
  101997:	83 ec 0c             	sub    $0xc,%esp
  10199a:	68 98 7e 10 00       	push   $0x107e98
  10199f:	e8 d4 eb ff ff       	call   100578 <panic>
/u/a/b/abhijith/CS537/p3a/xv6-sp20/kernel/fs.c:265
  1019a4:	90                   	nop
  1019a5:	c9                   	leave  
  1019a6:	c3                   	ret    

001019a7 <iunlock>:
iunlock():
/u/a/b/abhijith/CS537/p3a/xv6-sp20/kernel/fs.c:270
  1019a7:	55                   	push   %ebp
  1019a8:	89 e5                	mov    %esp,%ebp
  1019aa:	83 ec 08             	sub    $0x8,%esp
/u/a/b/abhijith/CS537/p3a/xv6-sp20/kernel/fs.c:271
  1019ad:	83 7d 08 00          	cmpl   $0x0,0x8(%ebp)
  1019b1:	74 17                	je     1019ca <iunlock+0x23>
/u/a/b/abhijith/CS537/p3a/xv6-sp20/kernel/fs.c:271 (discriminator 1)
  1019b3:	8b 45 08             	mov    0x8(%ebp),%eax
  1019b6:	8b 40 0c             	mov    0xc(%eax),%eax
  1019b9:	83 e0 01             	and    $0x1,%eax
  1019bc:	85 c0                	test   %eax,%eax
  1019be:	74 0a                	je     1019ca <iunlock+0x23>
/u/a/b/abhijith/CS537/p3a/xv6-sp20/kernel/fs.c:271 (discriminator 2)
  1019c0:	8b 45 08             	mov    0x8(%ebp),%eax
  1019c3:	8b 40 08             	mov    0x8(%eax),%eax
  1019c6:	85 c0                	test   %eax,%eax
  1019c8:	7f 0d                	jg     1019d7 <iunlock+0x30>
/u/a/b/abhijith/CS537/p3a/xv6-sp20/kernel/fs.c:272
  1019ca:	83 ec 0c             	sub    $0xc,%esp
  1019cd:	68 a7 7e 10 00       	push   $0x107ea7
  1019d2:	e8 a1 eb ff ff       	call   100578 <panic>
/u/a/b/abhijith/CS537/p3a/xv6-sp20/kernel/fs.c:274
  1019d7:	83 ec 0c             	sub    $0xc,%esp
  1019da:	68 80 ed 10 00       	push   $0x10ed80
  1019df:	e8 02 2e 00 00       	call   1047e6 <acquire>
  1019e4:	83 c4 10             	add    $0x10,%esp
/u/a/b/abhijith/CS537/p3a/xv6-sp20/kernel/fs.c:275
  1019e7:	8b 45 08             	mov    0x8(%ebp),%eax
  1019ea:	8b 40 0c             	mov    0xc(%eax),%eax
  1019ed:	83 e0 fe             	and    $0xfffffffe,%eax
  1019f0:	89 c2                	mov    %eax,%edx
  1019f2:	8b 45 08             	mov    0x8(%ebp),%eax
  1019f5:	89 50 0c             	mov    %edx,0xc(%eax)
/u/a/b/abhijith/CS537/p3a/xv6-sp20/kernel/fs.c:276
  1019f8:	83 ec 0c             	sub    $0xc,%esp
  1019fb:	ff 75 08             	pushl  0x8(%ebp)
  1019fe:	e8 d5 2b 00 00       	call   1045d8 <wakeup>
  101a03:	83 c4 10             	add    $0x10,%esp
/u/a/b/abhijith/CS537/p3a/xv6-sp20/kernel/fs.c:277
  101a06:	83 ec 0c             	sub    $0xc,%esp
  101a09:	68 80 ed 10 00       	push   $0x10ed80
  101a0e:	e8 3a 2e 00 00       	call   10484d <release>
  101a13:	83 c4 10             	add    $0x10,%esp
/u/a/b/abhijith/CS537/p3a/xv6-sp20/kernel/fs.c:278
  101a16:	90                   	nop
  101a17:	c9                   	leave  
  101a18:	c3                   	ret    

00101a19 <iput>:
iput():
/u/a/b/abhijith/CS537/p3a/xv6-sp20/kernel/fs.c:283
  101a19:	55                   	push   %ebp
  101a1a:	89 e5                	mov    %esp,%ebp
  101a1c:	83 ec 08             	sub    $0x8,%esp
/u/a/b/abhijith/CS537/p3a/xv6-sp20/kernel/fs.c:284
  101a1f:	83 ec 0c             	sub    $0xc,%esp
  101a22:	68 80 ed 10 00       	push   $0x10ed80
  101a27:	e8 ba 2d 00 00       	call   1047e6 <acquire>
  101a2c:	83 c4 10             	add    $0x10,%esp
/u/a/b/abhijith/CS537/p3a/xv6-sp20/kernel/fs.c:285
  101a2f:	8b 45 08             	mov    0x8(%ebp),%eax
  101a32:	8b 40 08             	mov    0x8(%eax),%eax
  101a35:	83 f8 01             	cmp    $0x1,%eax
  101a38:	0f 85 a9 00 00 00    	jne    101ae7 <iput+0xce>
/u/a/b/abhijith/CS537/p3a/xv6-sp20/kernel/fs.c:285 (discriminator 1)
  101a3e:	8b 45 08             	mov    0x8(%ebp),%eax
  101a41:	8b 40 0c             	mov    0xc(%eax),%eax
  101a44:	83 e0 02             	and    $0x2,%eax
  101a47:	85 c0                	test   %eax,%eax
  101a49:	0f 84 98 00 00 00    	je     101ae7 <iput+0xce>
/u/a/b/abhijith/CS537/p3a/xv6-sp20/kernel/fs.c:285 (discriminator 2)
  101a4f:	8b 45 08             	mov    0x8(%ebp),%eax
  101a52:	0f b7 40 16          	movzwl 0x16(%eax),%eax
  101a56:	66 85 c0             	test   %ax,%ax
  101a59:	0f 85 88 00 00 00    	jne    101ae7 <iput+0xce>
/u/a/b/abhijith/CS537/p3a/xv6-sp20/kernel/fs.c:287
  101a5f:	8b 45 08             	mov    0x8(%ebp),%eax
  101a62:	8b 40 0c             	mov    0xc(%eax),%eax
  101a65:	83 e0 01             	and    $0x1,%eax
  101a68:	85 c0                	test   %eax,%eax
  101a6a:	74 0d                	je     101a79 <iput+0x60>
/u/a/b/abhijith/CS537/p3a/xv6-sp20/kernel/fs.c:288
  101a6c:	83 ec 0c             	sub    $0xc,%esp
  101a6f:	68 af 7e 10 00       	push   $0x107eaf
  101a74:	e8 ff ea ff ff       	call   100578 <panic>
/u/a/b/abhijith/CS537/p3a/xv6-sp20/kernel/fs.c:289
  101a79:	8b 45 08             	mov    0x8(%ebp),%eax
  101a7c:	8b 40 0c             	mov    0xc(%eax),%eax
  101a7f:	83 c8 01             	or     $0x1,%eax
  101a82:	89 c2                	mov    %eax,%edx
  101a84:	8b 45 08             	mov    0x8(%ebp),%eax
  101a87:	89 50 0c             	mov    %edx,0xc(%eax)
/u/a/b/abhijith/CS537/p3a/xv6-sp20/kernel/fs.c:290
  101a8a:	83 ec 0c             	sub    $0xc,%esp
  101a8d:	68 80 ed 10 00       	push   $0x10ed80
  101a92:	e8 b6 2d 00 00       	call   10484d <release>
  101a97:	83 c4 10             	add    $0x10,%esp
/u/a/b/abhijith/CS537/p3a/xv6-sp20/kernel/fs.c:291
  101a9a:	83 ec 0c             	sub    $0xc,%esp
  101a9d:	ff 75 08             	pushl  0x8(%ebp)
  101aa0:	e8 a3 01 00 00       	call   101c48 <itrunc>
  101aa5:	83 c4 10             	add    $0x10,%esp
/u/a/b/abhijith/CS537/p3a/xv6-sp20/kernel/fs.c:292
  101aa8:	8b 45 08             	mov    0x8(%ebp),%eax
  101aab:	66 c7 40 10 00 00    	movw   $0x0,0x10(%eax)
/u/a/b/abhijith/CS537/p3a/xv6-sp20/kernel/fs.c:293
  101ab1:	83 ec 0c             	sub    $0xc,%esp
  101ab4:	ff 75 08             	pushl  0x8(%ebp)
  101ab7:	e8 bf fb ff ff       	call   10167b <iupdate>
  101abc:	83 c4 10             	add    $0x10,%esp
/u/a/b/abhijith/CS537/p3a/xv6-sp20/kernel/fs.c:294
  101abf:	83 ec 0c             	sub    $0xc,%esp
  101ac2:	68 80 ed 10 00       	push   $0x10ed80
  101ac7:	e8 1a 2d 00 00       	call   1047e6 <acquire>
  101acc:	83 c4 10             	add    $0x10,%esp
/u/a/b/abhijith/CS537/p3a/xv6-sp20/kernel/fs.c:295
  101acf:	8b 45 08             	mov    0x8(%ebp),%eax
  101ad2:	c7 40 0c 00 00 00 00 	movl   $0x0,0xc(%eax)
/u/a/b/abhijith/CS537/p3a/xv6-sp20/kernel/fs.c:296
  101ad9:	83 ec 0c             	sub    $0xc,%esp
  101adc:	ff 75 08             	pushl  0x8(%ebp)
  101adf:	e8 f4 2a 00 00       	call   1045d8 <wakeup>
  101ae4:	83 c4 10             	add    $0x10,%esp
/u/a/b/abhijith/CS537/p3a/xv6-sp20/kernel/fs.c:298
  101ae7:	8b 45 08             	mov    0x8(%ebp),%eax
  101aea:	8b 40 08             	mov    0x8(%eax),%eax
  101aed:	8d 50 ff             	lea    -0x1(%eax),%edx
  101af0:	8b 45 08             	mov    0x8(%ebp),%eax
  101af3:	89 50 08             	mov    %edx,0x8(%eax)
/u/a/b/abhijith/CS537/p3a/xv6-sp20/kernel/fs.c:299
  101af6:	83 ec 0c             	sub    $0xc,%esp
  101af9:	68 80 ed 10 00       	push   $0x10ed80
  101afe:	e8 4a 2d 00 00       	call   10484d <release>
  101b03:	83 c4 10             	add    $0x10,%esp
/u/a/b/abhijith/CS537/p3a/xv6-sp20/kernel/fs.c:300
  101b06:	90                   	nop
  101b07:	c9                   	leave  
  101b08:	c3                   	ret    

00101b09 <iunlockput>:
iunlockput():
/u/a/b/abhijith/CS537/p3a/xv6-sp20/kernel/fs.c:305
  101b09:	55                   	push   %ebp
  101b0a:	89 e5                	mov    %esp,%ebp
  101b0c:	83 ec 08             	sub    $0x8,%esp
/u/a/b/abhijith/CS537/p3a/xv6-sp20/kernel/fs.c:306
  101b0f:	83 ec 0c             	sub    $0xc,%esp
  101b12:	ff 75 08             	pushl  0x8(%ebp)
  101b15:	e8 8d fe ff ff       	call   1019a7 <iunlock>
  101b1a:	83 c4 10             	add    $0x10,%esp
/u/a/b/abhijith/CS537/p3a/xv6-sp20/kernel/fs.c:307
  101b1d:	83 ec 0c             	sub    $0xc,%esp
  101b20:	ff 75 08             	pushl  0x8(%ebp)
  101b23:	e8 f1 fe ff ff       	call   101a19 <iput>
  101b28:	83 c4 10             	add    $0x10,%esp
/u/a/b/abhijith/CS537/p3a/xv6-sp20/kernel/fs.c:308
  101b2b:	90                   	nop
  101b2c:	c9                   	leave  
  101b2d:	c3                   	ret    

00101b2e <bmap>:
bmap():
/u/a/b/abhijith/CS537/p3a/xv6-sp20/kernel/fs.c:321
  101b2e:	55                   	push   %ebp
  101b2f:	89 e5                	mov    %esp,%ebp
  101b31:	83 ec 18             	sub    $0x18,%esp
/u/a/b/abhijith/CS537/p3a/xv6-sp20/kernel/fs.c:325
  101b34:	83 7d 0c 0b          	cmpl   $0xb,0xc(%ebp)
  101b38:	77 42                	ja     101b7c <bmap+0x4e>
/u/a/b/abhijith/CS537/p3a/xv6-sp20/kernel/fs.c:326
  101b3a:	8b 45 08             	mov    0x8(%ebp),%eax
  101b3d:	8b 55 0c             	mov    0xc(%ebp),%edx
  101b40:	83 c2 04             	add    $0x4,%edx
  101b43:	8b 44 90 0c          	mov    0xc(%eax,%edx,4),%eax
  101b47:	89 45 f4             	mov    %eax,-0xc(%ebp)
  101b4a:	83 7d f4 00          	cmpl   $0x0,-0xc(%ebp)
  101b4e:	75 24                	jne    101b74 <bmap+0x46>
/u/a/b/abhijith/CS537/p3a/xv6-sp20/kernel/fs.c:327
  101b50:	8b 45 08             	mov    0x8(%ebp),%eax
  101b53:	8b 00                	mov    (%eax),%eax
  101b55:	83 ec 0c             	sub    $0xc,%esp
  101b58:	50                   	push   %eax
  101b59:	e8 fc f7 ff ff       	call   10135a <balloc>
  101b5e:	83 c4 10             	add    $0x10,%esp
  101b61:	89 45 f4             	mov    %eax,-0xc(%ebp)
  101b64:	8b 45 08             	mov    0x8(%ebp),%eax
  101b67:	8b 55 0c             	mov    0xc(%ebp),%edx
  101b6a:	8d 4a 04             	lea    0x4(%edx),%ecx
  101b6d:	8b 55 f4             	mov    -0xc(%ebp),%edx
  101b70:	89 54 88 0c          	mov    %edx,0xc(%eax,%ecx,4)
/u/a/b/abhijith/CS537/p3a/xv6-sp20/kernel/fs.c:328
  101b74:	8b 45 f4             	mov    -0xc(%ebp),%eax
  101b77:	e9 ca 00 00 00       	jmp    101c46 <bmap+0x118>
/u/a/b/abhijith/CS537/p3a/xv6-sp20/kernel/fs.c:330
  101b7c:	83 6d 0c 0c          	subl   $0xc,0xc(%ebp)
/u/a/b/abhijith/CS537/p3a/xv6-sp20/kernel/fs.c:332
  101b80:	83 7d 0c 7f          	cmpl   $0x7f,0xc(%ebp)
  101b84:	0f 87 af 00 00 00    	ja     101c39 <bmap+0x10b>
/u/a/b/abhijith/CS537/p3a/xv6-sp20/kernel/fs.c:334
  101b8a:	8b 45 08             	mov    0x8(%ebp),%eax
  101b8d:	8b 40 4c             	mov    0x4c(%eax),%eax
  101b90:	89 45 f4             	mov    %eax,-0xc(%ebp)
  101b93:	83 7d f4 00          	cmpl   $0x0,-0xc(%ebp)
  101b97:	75 1d                	jne    101bb6 <bmap+0x88>
/u/a/b/abhijith/CS537/p3a/xv6-sp20/kernel/fs.c:335
  101b99:	8b 45 08             	mov    0x8(%ebp),%eax
  101b9c:	8b 00                	mov    (%eax),%eax
  101b9e:	83 ec 0c             	sub    $0xc,%esp
  101ba1:	50                   	push   %eax
  101ba2:	e8 b3 f7 ff ff       	call   10135a <balloc>
  101ba7:	83 c4 10             	add    $0x10,%esp
  101baa:	89 45 f4             	mov    %eax,-0xc(%ebp)
  101bad:	8b 45 08             	mov    0x8(%ebp),%eax
  101bb0:	8b 55 f4             	mov    -0xc(%ebp),%edx
  101bb3:	89 50 4c             	mov    %edx,0x4c(%eax)
/u/a/b/abhijith/CS537/p3a/xv6-sp20/kernel/fs.c:336
  101bb6:	8b 45 08             	mov    0x8(%ebp),%eax
  101bb9:	8b 00                	mov    (%eax),%eax
  101bbb:	83 ec 08             	sub    $0x8,%esp
  101bbe:	ff 75 f4             	pushl  -0xc(%ebp)
  101bc1:	50                   	push   %eax
  101bc2:	e8 19 e6 ff ff       	call   1001e0 <bread>
  101bc7:	83 c4 10             	add    $0x10,%esp
  101bca:	89 45 f0             	mov    %eax,-0x10(%ebp)
/u/a/b/abhijith/CS537/p3a/xv6-sp20/kernel/fs.c:337
  101bcd:	8b 45 f0             	mov    -0x10(%ebp),%eax
  101bd0:	83 c0 18             	add    $0x18,%eax
  101bd3:	89 45 ec             	mov    %eax,-0x14(%ebp)
/u/a/b/abhijith/CS537/p3a/xv6-sp20/kernel/fs.c:338
  101bd6:	8b 45 0c             	mov    0xc(%ebp),%eax
  101bd9:	8d 14 85 00 00 00 00 	lea    0x0(,%eax,4),%edx
  101be0:	8b 45 ec             	mov    -0x14(%ebp),%eax
  101be3:	01 d0                	add    %edx,%eax
  101be5:	8b 00                	mov    (%eax),%eax
  101be7:	89 45 f4             	mov    %eax,-0xc(%ebp)
  101bea:	83 7d f4 00          	cmpl   $0x0,-0xc(%ebp)
  101bee:	75 36                	jne    101c26 <bmap+0xf8>
/u/a/b/abhijith/CS537/p3a/xv6-sp20/kernel/fs.c:339
  101bf0:	8b 45 08             	mov    0x8(%ebp),%eax
  101bf3:	8b 00                	mov    (%eax),%eax
  101bf5:	83 ec 0c             	sub    $0xc,%esp
  101bf8:	50                   	push   %eax
  101bf9:	e8 5c f7 ff ff       	call   10135a <balloc>
  101bfe:	83 c4 10             	add    $0x10,%esp
  101c01:	89 45 f4             	mov    %eax,-0xc(%ebp)
  101c04:	8b 45 0c             	mov    0xc(%ebp),%eax
  101c07:	8d 14 85 00 00 00 00 	lea    0x0(,%eax,4),%edx
  101c0e:	8b 45 ec             	mov    -0x14(%ebp),%eax
  101c11:	01 c2                	add    %eax,%edx
  101c13:	8b 45 f4             	mov    -0xc(%ebp),%eax
  101c16:	89 02                	mov    %eax,(%edx)
/u/a/b/abhijith/CS537/p3a/xv6-sp20/kernel/fs.c:340
  101c18:	83 ec 0c             	sub    $0xc,%esp
  101c1b:	ff 75 f0             	pushl  -0x10(%ebp)
  101c1e:	e8 f6 e5 ff ff       	call   100219 <bwrite>
  101c23:	83 c4 10             	add    $0x10,%esp
/u/a/b/abhijith/CS537/p3a/xv6-sp20/kernel/fs.c:342
  101c26:	83 ec 0c             	sub    $0xc,%esp
  101c29:	ff 75 f0             	pushl  -0x10(%ebp)
  101c2c:	e8 27 e6 ff ff       	call   100258 <brelse>
  101c31:	83 c4 10             	add    $0x10,%esp
/u/a/b/abhijith/CS537/p3a/xv6-sp20/kernel/fs.c:343
  101c34:	8b 45 f4             	mov    -0xc(%ebp),%eax
  101c37:	eb 0d                	jmp    101c46 <bmap+0x118>
/u/a/b/abhijith/CS537/p3a/xv6-sp20/kernel/fs.c:346
  101c39:	83 ec 0c             	sub    $0xc,%esp
  101c3c:	68 b9 7e 10 00       	push   $0x107eb9
  101c41:	e8 32 e9 ff ff       	call   100578 <panic>
/u/a/b/abhijith/CS537/p3a/xv6-sp20/kernel/fs.c:347
  101c46:	c9                   	leave  
  101c47:	c3                   	ret    

00101c48 <itrunc>:
itrunc():
/u/a/b/abhijith/CS537/p3a/xv6-sp20/kernel/fs.c:354
  101c48:	55                   	push   %ebp
  101c49:	89 e5                	mov    %esp,%ebp
  101c4b:	83 ec 18             	sub    $0x18,%esp
/u/a/b/abhijith/CS537/p3a/xv6-sp20/kernel/fs.c:359
  101c4e:	c7 45 f4 00 00 00 00 	movl   $0x0,-0xc(%ebp)
  101c55:	eb 45                	jmp    101c9c <itrunc+0x54>
/u/a/b/abhijith/CS537/p3a/xv6-sp20/kernel/fs.c:360
  101c57:	8b 45 08             	mov    0x8(%ebp),%eax
  101c5a:	8b 55 f4             	mov    -0xc(%ebp),%edx
  101c5d:	83 c2 04             	add    $0x4,%edx
  101c60:	8b 44 90 0c          	mov    0xc(%eax,%edx,4),%eax
  101c64:	85 c0                	test   %eax,%eax
  101c66:	74 30                	je     101c98 <itrunc+0x50>
/u/a/b/abhijith/CS537/p3a/xv6-sp20/kernel/fs.c:361
  101c68:	8b 45 08             	mov    0x8(%ebp),%eax
  101c6b:	8b 55 f4             	mov    -0xc(%ebp),%edx
  101c6e:	83 c2 04             	add    $0x4,%edx
  101c71:	8b 44 90 0c          	mov    0xc(%eax,%edx,4),%eax
  101c75:	8b 55 08             	mov    0x8(%ebp),%edx
  101c78:	8b 12                	mov    (%edx),%edx
  101c7a:	83 ec 08             	sub    $0x8,%esp
  101c7d:	50                   	push   %eax
  101c7e:	52                   	push   %edx
  101c7f:	e8 0b f8 ff ff       	call   10148f <bfree>
  101c84:	83 c4 10             	add    $0x10,%esp
/u/a/b/abhijith/CS537/p3a/xv6-sp20/kernel/fs.c:362
  101c87:	8b 45 08             	mov    0x8(%ebp),%eax
  101c8a:	8b 55 f4             	mov    -0xc(%ebp),%edx
  101c8d:	83 c2 04             	add    $0x4,%edx
  101c90:	c7 44 90 0c 00 00 00 	movl   $0x0,0xc(%eax,%edx,4)
  101c97:	00 
/u/a/b/abhijith/CS537/p3a/xv6-sp20/kernel/fs.c:359 (discriminator 2)
  101c98:	83 45 f4 01          	addl   $0x1,-0xc(%ebp)
/u/a/b/abhijith/CS537/p3a/xv6-sp20/kernel/fs.c:359 (discriminator 1)
  101c9c:	83 7d f4 0b          	cmpl   $0xb,-0xc(%ebp)
  101ca0:	7e b5                	jle    101c57 <itrunc+0xf>
/u/a/b/abhijith/CS537/p3a/xv6-sp20/kernel/fs.c:366
  101ca2:	8b 45 08             	mov    0x8(%ebp),%eax
  101ca5:	8b 40 4c             	mov    0x4c(%eax),%eax
  101ca8:	85 c0                	test   %eax,%eax
  101caa:	0f 84 a1 00 00 00    	je     101d51 <itrunc+0x109>
/u/a/b/abhijith/CS537/p3a/xv6-sp20/kernel/fs.c:367
  101cb0:	8b 45 08             	mov    0x8(%ebp),%eax
  101cb3:	8b 50 4c             	mov    0x4c(%eax),%edx
  101cb6:	8b 45 08             	mov    0x8(%ebp),%eax
  101cb9:	8b 00                	mov    (%eax),%eax
  101cbb:	83 ec 08             	sub    $0x8,%esp
  101cbe:	52                   	push   %edx
  101cbf:	50                   	push   %eax
  101cc0:	e8 1b e5 ff ff       	call   1001e0 <bread>
  101cc5:	83 c4 10             	add    $0x10,%esp
  101cc8:	89 45 ec             	mov    %eax,-0x14(%ebp)
/u/a/b/abhijith/CS537/p3a/xv6-sp20/kernel/fs.c:368
  101ccb:	8b 45 ec             	mov    -0x14(%ebp),%eax
  101cce:	83 c0 18             	add    $0x18,%eax
  101cd1:	89 45 e8             	mov    %eax,-0x18(%ebp)
/u/a/b/abhijith/CS537/p3a/xv6-sp20/kernel/fs.c:369
  101cd4:	c7 45 f0 00 00 00 00 	movl   $0x0,-0x10(%ebp)
  101cdb:	eb 3c                	jmp    101d19 <itrunc+0xd1>
/u/a/b/abhijith/CS537/p3a/xv6-sp20/kernel/fs.c:370
  101cdd:	8b 45 f0             	mov    -0x10(%ebp),%eax
  101ce0:	8d 14 85 00 00 00 00 	lea    0x0(,%eax,4),%edx
  101ce7:	8b 45 e8             	mov    -0x18(%ebp),%eax
  101cea:	01 d0                	add    %edx,%eax
  101cec:	8b 00                	mov    (%eax),%eax
  101cee:	85 c0                	test   %eax,%eax
  101cf0:	74 23                	je     101d15 <itrunc+0xcd>
/u/a/b/abhijith/CS537/p3a/xv6-sp20/kernel/fs.c:371
  101cf2:	8b 45 f0             	mov    -0x10(%ebp),%eax
  101cf5:	8d 14 85 00 00 00 00 	lea    0x0(,%eax,4),%edx
  101cfc:	8b 45 e8             	mov    -0x18(%ebp),%eax
  101cff:	01 d0                	add    %edx,%eax
  101d01:	8b 00                	mov    (%eax),%eax
  101d03:	8b 55 08             	mov    0x8(%ebp),%edx
  101d06:	8b 12                	mov    (%edx),%edx
  101d08:	83 ec 08             	sub    $0x8,%esp
  101d0b:	50                   	push   %eax
  101d0c:	52                   	push   %edx
  101d0d:	e8 7d f7 ff ff       	call   10148f <bfree>
  101d12:	83 c4 10             	add    $0x10,%esp
/u/a/b/abhijith/CS537/p3a/xv6-sp20/kernel/fs.c:369 (discriminator 2)
  101d15:	83 45 f0 01          	addl   $0x1,-0x10(%ebp)
/u/a/b/abhijith/CS537/p3a/xv6-sp20/kernel/fs.c:369 (discriminator 1)
  101d19:	8b 45 f0             	mov    -0x10(%ebp),%eax
  101d1c:	83 f8 7f             	cmp    $0x7f,%eax
  101d1f:	76 bc                	jbe    101cdd <itrunc+0x95>
/u/a/b/abhijith/CS537/p3a/xv6-sp20/kernel/fs.c:373
  101d21:	83 ec 0c             	sub    $0xc,%esp
  101d24:	ff 75 ec             	pushl  -0x14(%ebp)
  101d27:	e8 2c e5 ff ff       	call   100258 <brelse>
  101d2c:	83 c4 10             	add    $0x10,%esp
/u/a/b/abhijith/CS537/p3a/xv6-sp20/kernel/fs.c:374
  101d2f:	8b 45 08             	mov    0x8(%ebp),%eax
  101d32:	8b 40 4c             	mov    0x4c(%eax),%eax
  101d35:	8b 55 08             	mov    0x8(%ebp),%edx
  101d38:	8b 12                	mov    (%edx),%edx
  101d3a:	83 ec 08             	sub    $0x8,%esp
  101d3d:	50                   	push   %eax
  101d3e:	52                   	push   %edx
  101d3f:	e8 4b f7 ff ff       	call   10148f <bfree>
  101d44:	83 c4 10             	add    $0x10,%esp
/u/a/b/abhijith/CS537/p3a/xv6-sp20/kernel/fs.c:375
  101d47:	8b 45 08             	mov    0x8(%ebp),%eax
  101d4a:	c7 40 4c 00 00 00 00 	movl   $0x0,0x4c(%eax)
/u/a/b/abhijith/CS537/p3a/xv6-sp20/kernel/fs.c:378
  101d51:	8b 45 08             	mov    0x8(%ebp),%eax
  101d54:	c7 40 18 00 00 00 00 	movl   $0x0,0x18(%eax)
/u/a/b/abhijith/CS537/p3a/xv6-sp20/kernel/fs.c:379
  101d5b:	83 ec 0c             	sub    $0xc,%esp
  101d5e:	ff 75 08             	pushl  0x8(%ebp)
  101d61:	e8 15 f9 ff ff       	call   10167b <iupdate>
  101d66:	83 c4 10             	add    $0x10,%esp
/u/a/b/abhijith/CS537/p3a/xv6-sp20/kernel/fs.c:380
  101d69:	90                   	nop
  101d6a:	c9                   	leave  
  101d6b:	c3                   	ret    

00101d6c <stati>:
stati():
/u/a/b/abhijith/CS537/p3a/xv6-sp20/kernel/fs.c:385
  101d6c:	55                   	push   %ebp
  101d6d:	89 e5                	mov    %esp,%ebp
/u/a/b/abhijith/CS537/p3a/xv6-sp20/kernel/fs.c:386
  101d6f:	8b 45 08             	mov    0x8(%ebp),%eax
  101d72:	8b 00                	mov    (%eax),%eax
  101d74:	89 c2                	mov    %eax,%edx
  101d76:	8b 45 0c             	mov    0xc(%ebp),%eax
  101d79:	89 50 04             	mov    %edx,0x4(%eax)
/u/a/b/abhijith/CS537/p3a/xv6-sp20/kernel/fs.c:387
  101d7c:	8b 45 08             	mov    0x8(%ebp),%eax
  101d7f:	8b 50 04             	mov    0x4(%eax),%edx
  101d82:	8b 45 0c             	mov    0xc(%ebp),%eax
  101d85:	89 50 08             	mov    %edx,0x8(%eax)
/u/a/b/abhijith/CS537/p3a/xv6-sp20/kernel/fs.c:388
  101d88:	8b 45 08             	mov    0x8(%ebp),%eax
  101d8b:	0f b7 50 10          	movzwl 0x10(%eax),%edx
  101d8f:	8b 45 0c             	mov    0xc(%ebp),%eax
  101d92:	66 89 10             	mov    %dx,(%eax)
/u/a/b/abhijith/CS537/p3a/xv6-sp20/kernel/fs.c:389
  101d95:	8b 45 08             	mov    0x8(%ebp),%eax
  101d98:	0f b7 50 16          	movzwl 0x16(%eax),%edx
  101d9c:	8b 45 0c             	mov    0xc(%ebp),%eax
  101d9f:	66 89 50 0c          	mov    %dx,0xc(%eax)
/u/a/b/abhijith/CS537/p3a/xv6-sp20/kernel/fs.c:390
  101da3:	8b 45 08             	mov    0x8(%ebp),%eax
  101da6:	8b 50 18             	mov    0x18(%eax),%edx
  101da9:	8b 45 0c             	mov    0xc(%ebp),%eax
  101dac:	89 50 10             	mov    %edx,0x10(%eax)
/u/a/b/abhijith/CS537/p3a/xv6-sp20/kernel/fs.c:391
  101daf:	90                   	nop
  101db0:	5d                   	pop    %ebp
  101db1:	c3                   	ret    

00101db2 <readi>:
readi():
/u/a/b/abhijith/CS537/p3a/xv6-sp20/kernel/fs.c:396
  101db2:	55                   	push   %ebp
  101db3:	89 e5                	mov    %esp,%ebp
  101db5:	83 ec 18             	sub    $0x18,%esp
/u/a/b/abhijith/CS537/p3a/xv6-sp20/kernel/fs.c:400
  101db8:	8b 45 08             	mov    0x8(%ebp),%eax
  101dbb:	0f b7 40 10          	movzwl 0x10(%eax),%eax
  101dbf:	66 83 f8 03          	cmp    $0x3,%ax
  101dc3:	75 5c                	jne    101e21 <readi+0x6f>
/u/a/b/abhijith/CS537/p3a/xv6-sp20/kernel/fs.c:401
  101dc5:	8b 45 08             	mov    0x8(%ebp),%eax
  101dc8:	0f b7 40 12          	movzwl 0x12(%eax),%eax
  101dcc:	66 85 c0             	test   %ax,%ax
  101dcf:	78 20                	js     101df1 <readi+0x3f>
/u/a/b/abhijith/CS537/p3a/xv6-sp20/kernel/fs.c:401 (discriminator 1)
  101dd1:	8b 45 08             	mov    0x8(%ebp),%eax
  101dd4:	0f b7 40 12          	movzwl 0x12(%eax),%eax
  101dd8:	66 83 f8 09          	cmp    $0x9,%ax
  101ddc:	7f 13                	jg     101df1 <readi+0x3f>
/u/a/b/abhijith/CS537/p3a/xv6-sp20/kernel/fs.c:401 (discriminator 2)
  101dde:	8b 45 08             	mov    0x8(%ebp),%eax
  101de1:	0f b7 40 12          	movzwl 0x12(%eax),%eax
  101de5:	98                   	cwtl   
  101de6:	8b 04 c5 20 ed 10 00 	mov    0x10ed20(,%eax,8),%eax
  101ded:	85 c0                	test   %eax,%eax
  101def:	75 0a                	jne    101dfb <readi+0x49>
/u/a/b/abhijith/CS537/p3a/xv6-sp20/kernel/fs.c:402
  101df1:	b8 ff ff ff ff       	mov    $0xffffffff,%eax
  101df6:	e9 0c 01 00 00       	jmp    101f07 <readi+0x155>
/u/a/b/abhijith/CS537/p3a/xv6-sp20/kernel/fs.c:403
  101dfb:	8b 45 08             	mov    0x8(%ebp),%eax
  101dfe:	0f b7 40 12          	movzwl 0x12(%eax),%eax
  101e02:	98                   	cwtl   
  101e03:	8b 04 c5 20 ed 10 00 	mov    0x10ed20(,%eax,8),%eax
  101e0a:	8b 55 14             	mov    0x14(%ebp),%edx
  101e0d:	83 ec 04             	sub    $0x4,%esp
  101e10:	52                   	push   %edx
  101e11:	ff 75 0c             	pushl  0xc(%ebp)
  101e14:	ff 75 08             	pushl  0x8(%ebp)
  101e17:	ff d0                	call   *%eax
  101e19:	83 c4 10             	add    $0x10,%esp
  101e1c:	e9 e6 00 00 00       	jmp    101f07 <readi+0x155>
/u/a/b/abhijith/CS537/p3a/xv6-sp20/kernel/fs.c:406
  101e21:	8b 45 08             	mov    0x8(%ebp),%eax
  101e24:	8b 40 18             	mov    0x18(%eax),%eax
  101e27:	39 45 10             	cmp    %eax,0x10(%ebp)
  101e2a:	77 0d                	ja     101e39 <readi+0x87>
/u/a/b/abhijith/CS537/p3a/xv6-sp20/kernel/fs.c:406 (discriminator 1)
  101e2c:	8b 55 10             	mov    0x10(%ebp),%edx
  101e2f:	8b 45 14             	mov    0x14(%ebp),%eax
  101e32:	01 d0                	add    %edx,%eax
  101e34:	39 45 10             	cmp    %eax,0x10(%ebp)
  101e37:	76 0a                	jbe    101e43 <readi+0x91>
/u/a/b/abhijith/CS537/p3a/xv6-sp20/kernel/fs.c:407
  101e39:	b8 ff ff ff ff       	mov    $0xffffffff,%eax
  101e3e:	e9 c4 00 00 00       	jmp    101f07 <readi+0x155>
/u/a/b/abhijith/CS537/p3a/xv6-sp20/kernel/fs.c:408
  101e43:	8b 55 10             	mov    0x10(%ebp),%edx
  101e46:	8b 45 14             	mov    0x14(%ebp),%eax
  101e49:	01 c2                	add    %eax,%edx
  101e4b:	8b 45 08             	mov    0x8(%ebp),%eax
  101e4e:	8b 40 18             	mov    0x18(%eax),%eax
  101e51:	39 c2                	cmp    %eax,%edx
  101e53:	76 0c                	jbe    101e61 <readi+0xaf>
/u/a/b/abhijith/CS537/p3a/xv6-sp20/kernel/fs.c:409
  101e55:	8b 45 08             	mov    0x8(%ebp),%eax
  101e58:	8b 40 18             	mov    0x18(%eax),%eax
  101e5b:	2b 45 10             	sub    0x10(%ebp),%eax
  101e5e:	89 45 14             	mov    %eax,0x14(%ebp)
/u/a/b/abhijith/CS537/p3a/xv6-sp20/kernel/fs.c:411
  101e61:	c7 45 f4 00 00 00 00 	movl   $0x0,-0xc(%ebp)
  101e68:	e9 8b 00 00 00       	jmp    101ef8 <readi+0x146>
/u/a/b/abhijith/CS537/p3a/xv6-sp20/kernel/fs.c:412 (discriminator 3)
  101e6d:	8b 45 10             	mov    0x10(%ebp),%eax
  101e70:	c1 e8 09             	shr    $0x9,%eax
  101e73:	83 ec 08             	sub    $0x8,%esp
  101e76:	50                   	push   %eax
  101e77:	ff 75 08             	pushl  0x8(%ebp)
  101e7a:	e8 af fc ff ff       	call   101b2e <bmap>
  101e7f:	83 c4 10             	add    $0x10,%esp
  101e82:	89 c2                	mov    %eax,%edx
  101e84:	8b 45 08             	mov    0x8(%ebp),%eax
  101e87:	8b 00                	mov    (%eax),%eax
  101e89:	83 ec 08             	sub    $0x8,%esp
  101e8c:	52                   	push   %edx
  101e8d:	50                   	push   %eax
  101e8e:	e8 4d e3 ff ff       	call   1001e0 <bread>
  101e93:	83 c4 10             	add    $0x10,%esp
  101e96:	89 45 f0             	mov    %eax,-0x10(%ebp)
/u/a/b/abhijith/CS537/p3a/xv6-sp20/kernel/fs.c:413 (discriminator 3)
  101e99:	8b 45 10             	mov    0x10(%ebp),%eax
  101e9c:	25 ff 01 00 00       	and    $0x1ff,%eax
  101ea1:	ba 00 02 00 00       	mov    $0x200,%edx
  101ea6:	29 c2                	sub    %eax,%edx
  101ea8:	8b 45 14             	mov    0x14(%ebp),%eax
  101eab:	2b 45 f4             	sub    -0xc(%ebp),%eax
  101eae:	39 c2                	cmp    %eax,%edx
  101eb0:	0f 46 c2             	cmovbe %edx,%eax
  101eb3:	89 45 ec             	mov    %eax,-0x14(%ebp)
/u/a/b/abhijith/CS537/p3a/xv6-sp20/kernel/fs.c:414 (discriminator 3)
  101eb6:	8b 45 f0             	mov    -0x10(%ebp),%eax
  101eb9:	8d 50 18             	lea    0x18(%eax),%edx
  101ebc:	8b 45 10             	mov    0x10(%ebp),%eax
  101ebf:	25 ff 01 00 00       	and    $0x1ff,%eax
  101ec4:	01 d0                	add    %edx,%eax
  101ec6:	83 ec 04             	sub    $0x4,%esp
  101ec9:	ff 75 ec             	pushl  -0x14(%ebp)
  101ecc:	50                   	push   %eax
  101ecd:	ff 75 0c             	pushl  0xc(%ebp)
  101ed0:	e8 c0 2b 00 00       	call   104a95 <memmove>
  101ed5:	83 c4 10             	add    $0x10,%esp
/u/a/b/abhijith/CS537/p3a/xv6-sp20/kernel/fs.c:415 (discriminator 3)
  101ed8:	83 ec 0c             	sub    $0xc,%esp
  101edb:	ff 75 f0             	pushl  -0x10(%ebp)
  101ede:	e8 75 e3 ff ff       	call   100258 <brelse>
  101ee3:	83 c4 10             	add    $0x10,%esp
/u/a/b/abhijith/CS537/p3a/xv6-sp20/kernel/fs.c:411 (discriminator 3)
  101ee6:	8b 45 ec             	mov    -0x14(%ebp),%eax
  101ee9:	01 45 f4             	add    %eax,-0xc(%ebp)
  101eec:	8b 45 ec             	mov    -0x14(%ebp),%eax
  101eef:	01 45 10             	add    %eax,0x10(%ebp)
  101ef2:	8b 45 ec             	mov    -0x14(%ebp),%eax
  101ef5:	01 45 0c             	add    %eax,0xc(%ebp)
/u/a/b/abhijith/CS537/p3a/xv6-sp20/kernel/fs.c:411 (discriminator 1)
  101ef8:	8b 45 f4             	mov    -0xc(%ebp),%eax
  101efb:	3b 45 14             	cmp    0x14(%ebp),%eax
  101efe:	0f 82 69 ff ff ff    	jb     101e6d <readi+0xbb>
/u/a/b/abhijith/CS537/p3a/xv6-sp20/kernel/fs.c:417
  101f04:	8b 45 14             	mov    0x14(%ebp),%eax
/u/a/b/abhijith/CS537/p3a/xv6-sp20/kernel/fs.c:418
  101f07:	c9                   	leave  
  101f08:	c3                   	ret    

00101f09 <writei>:
writei():
/u/a/b/abhijith/CS537/p3a/xv6-sp20/kernel/fs.c:423
  101f09:	55                   	push   %ebp
  101f0a:	89 e5                	mov    %esp,%ebp
  101f0c:	83 ec 18             	sub    $0x18,%esp
/u/a/b/abhijith/CS537/p3a/xv6-sp20/kernel/fs.c:427
  101f0f:	8b 45 08             	mov    0x8(%ebp),%eax
  101f12:	0f b7 40 10          	movzwl 0x10(%eax),%eax
  101f16:	66 83 f8 03          	cmp    $0x3,%ax
  101f1a:	75 5c                	jne    101f78 <writei+0x6f>
/u/a/b/abhijith/CS537/p3a/xv6-sp20/kernel/fs.c:428
  101f1c:	8b 45 08             	mov    0x8(%ebp),%eax
  101f1f:	0f b7 40 12          	movzwl 0x12(%eax),%eax
  101f23:	66 85 c0             	test   %ax,%ax
  101f26:	78 20                	js     101f48 <writei+0x3f>
/u/a/b/abhijith/CS537/p3a/xv6-sp20/kernel/fs.c:428 (discriminator 1)
  101f28:	8b 45 08             	mov    0x8(%ebp),%eax
  101f2b:	0f b7 40 12          	movzwl 0x12(%eax),%eax
  101f2f:	66 83 f8 09          	cmp    $0x9,%ax
  101f33:	7f 13                	jg     101f48 <writei+0x3f>
/u/a/b/abhijith/CS537/p3a/xv6-sp20/kernel/fs.c:428 (discriminator 2)
  101f35:	8b 45 08             	mov    0x8(%ebp),%eax
  101f38:	0f b7 40 12          	movzwl 0x12(%eax),%eax
  101f3c:	98                   	cwtl   
  101f3d:	8b 04 c5 24 ed 10 00 	mov    0x10ed24(,%eax,8),%eax
  101f44:	85 c0                	test   %eax,%eax
  101f46:	75 0a                	jne    101f52 <writei+0x49>
/u/a/b/abhijith/CS537/p3a/xv6-sp20/kernel/fs.c:429
  101f48:	b8 ff ff ff ff       	mov    $0xffffffff,%eax
  101f4d:	e9 3e 01 00 00       	jmp    102090 <writei+0x187>
/u/a/b/abhijith/CS537/p3a/xv6-sp20/kernel/fs.c:430
  101f52:	8b 45 08             	mov    0x8(%ebp),%eax
  101f55:	0f b7 40 12          	movzwl 0x12(%eax),%eax
  101f59:	98                   	cwtl   
  101f5a:	8b 04 c5 24 ed 10 00 	mov    0x10ed24(,%eax,8),%eax
  101f61:	8b 55 14             	mov    0x14(%ebp),%edx
  101f64:	83 ec 04             	sub    $0x4,%esp
  101f67:	52                   	push   %edx
  101f68:	ff 75 0c             	pushl  0xc(%ebp)
  101f6b:	ff 75 08             	pushl  0x8(%ebp)
  101f6e:	ff d0                	call   *%eax
  101f70:	83 c4 10             	add    $0x10,%esp
  101f73:	e9 18 01 00 00       	jmp    102090 <writei+0x187>
/u/a/b/abhijith/CS537/p3a/xv6-sp20/kernel/fs.c:433
  101f78:	8b 45 08             	mov    0x8(%ebp),%eax
  101f7b:	8b 40 18             	mov    0x18(%eax),%eax
  101f7e:	39 45 10             	cmp    %eax,0x10(%ebp)
  101f81:	77 0d                	ja     101f90 <writei+0x87>
/u/a/b/abhijith/CS537/p3a/xv6-sp20/kernel/fs.c:433 (discriminator 1)
  101f83:	8b 55 10             	mov    0x10(%ebp),%edx
  101f86:	8b 45 14             	mov    0x14(%ebp),%eax
  101f89:	01 d0                	add    %edx,%eax
  101f8b:	39 45 10             	cmp    %eax,0x10(%ebp)
  101f8e:	76 0a                	jbe    101f9a <writei+0x91>
/u/a/b/abhijith/CS537/p3a/xv6-sp20/kernel/fs.c:434
  101f90:	b8 ff ff ff ff       	mov    $0xffffffff,%eax
  101f95:	e9 f6 00 00 00       	jmp    102090 <writei+0x187>
/u/a/b/abhijith/CS537/p3a/xv6-sp20/kernel/fs.c:435
  101f9a:	8b 55 10             	mov    0x10(%ebp),%edx
  101f9d:	8b 45 14             	mov    0x14(%ebp),%eax
  101fa0:	01 d0                	add    %edx,%eax
  101fa2:	3d 00 18 01 00       	cmp    $0x11800,%eax
  101fa7:	76 0b                	jbe    101fb4 <writei+0xab>
/u/a/b/abhijith/CS537/p3a/xv6-sp20/kernel/fs.c:436
  101fa9:	b8 00 18 01 00       	mov    $0x11800,%eax
  101fae:	2b 45 10             	sub    0x10(%ebp),%eax
  101fb1:	89 45 14             	mov    %eax,0x14(%ebp)
/u/a/b/abhijith/CS537/p3a/xv6-sp20/kernel/fs.c:438
  101fb4:	c7 45 f4 00 00 00 00 	movl   $0x0,-0xc(%ebp)
  101fbb:	e9 99 00 00 00       	jmp    102059 <writei+0x150>
/u/a/b/abhijith/CS537/p3a/xv6-sp20/kernel/fs.c:439 (discriminator 3)
  101fc0:	8b 45 10             	mov    0x10(%ebp),%eax
  101fc3:	c1 e8 09             	shr    $0x9,%eax
  101fc6:	83 ec 08             	sub    $0x8,%esp
  101fc9:	50                   	push   %eax
  101fca:	ff 75 08             	pushl  0x8(%ebp)
  101fcd:	e8 5c fb ff ff       	call   101b2e <bmap>
  101fd2:	83 c4 10             	add    $0x10,%esp
  101fd5:	89 c2                	mov    %eax,%edx
  101fd7:	8b 45 08             	mov    0x8(%ebp),%eax
  101fda:	8b 00                	mov    (%eax),%eax
  101fdc:	83 ec 08             	sub    $0x8,%esp
  101fdf:	52                   	push   %edx
  101fe0:	50                   	push   %eax
  101fe1:	e8 fa e1 ff ff       	call   1001e0 <bread>
  101fe6:	83 c4 10             	add    $0x10,%esp
  101fe9:	89 45 f0             	mov    %eax,-0x10(%ebp)
/u/a/b/abhijith/CS537/p3a/xv6-sp20/kernel/fs.c:440 (discriminator 3)
  101fec:	8b 45 10             	mov    0x10(%ebp),%eax
  101fef:	25 ff 01 00 00       	and    $0x1ff,%eax
  101ff4:	ba 00 02 00 00       	mov    $0x200,%edx
  101ff9:	29 c2                	sub    %eax,%edx
  101ffb:	8b 45 14             	mov    0x14(%ebp),%eax
  101ffe:	2b 45 f4             	sub    -0xc(%ebp),%eax
  102001:	39 c2                	cmp    %eax,%edx
  102003:	0f 46 c2             	cmovbe %edx,%eax
  102006:	89 45 ec             	mov    %eax,-0x14(%ebp)
/u/a/b/abhijith/CS537/p3a/xv6-sp20/kernel/fs.c:441 (discriminator 3)
  102009:	8b 45 f0             	mov    -0x10(%ebp),%eax
  10200c:	8d 50 18             	lea    0x18(%eax),%edx
  10200f:	8b 45 10             	mov    0x10(%ebp),%eax
  102012:	25 ff 01 00 00       	and    $0x1ff,%eax
  102017:	01 d0                	add    %edx,%eax
  102019:	83 ec 04             	sub    $0x4,%esp
  10201c:	ff 75 ec             	pushl  -0x14(%ebp)
  10201f:	ff 75 0c             	pushl  0xc(%ebp)
  102022:	50                   	push   %eax
  102023:	e8 6d 2a 00 00       	call   104a95 <memmove>
  102028:	83 c4 10             	add    $0x10,%esp
/u/a/b/abhijith/CS537/p3a/xv6-sp20/kernel/fs.c:442 (discriminator 3)
  10202b:	83 ec 0c             	sub    $0xc,%esp
  10202e:	ff 75 f0             	pushl  -0x10(%ebp)
  102031:	e8 e3 e1 ff ff       	call   100219 <bwrite>
  102036:	83 c4 10             	add    $0x10,%esp
/u/a/b/abhijith/CS537/p3a/xv6-sp20/kernel/fs.c:443 (discriminator 3)
  102039:	83 ec 0c             	sub    $0xc,%esp
  10203c:	ff 75 f0             	pushl  -0x10(%ebp)
  10203f:	e8 14 e2 ff ff       	call   100258 <brelse>
  102044:	83 c4 10             	add    $0x10,%esp
/u/a/b/abhijith/CS537/p3a/xv6-sp20/kernel/fs.c:438 (discriminator 3)
  102047:	8b 45 ec             	mov    -0x14(%ebp),%eax
  10204a:	01 45 f4             	add    %eax,-0xc(%ebp)
  10204d:	8b 45 ec             	mov    -0x14(%ebp),%eax
  102050:	01 45 10             	add    %eax,0x10(%ebp)
  102053:	8b 45 ec             	mov    -0x14(%ebp),%eax
  102056:	01 45 0c             	add    %eax,0xc(%ebp)
/u/a/b/abhijith/CS537/p3a/xv6-sp20/kernel/fs.c:438 (discriminator 1)
  102059:	8b 45 f4             	mov    -0xc(%ebp),%eax
  10205c:	3b 45 14             	cmp    0x14(%ebp),%eax
  10205f:	0f 82 5b ff ff ff    	jb     101fc0 <writei+0xb7>
/u/a/b/abhijith/CS537/p3a/xv6-sp20/kernel/fs.c:446
  102065:	83 7d 14 00          	cmpl   $0x0,0x14(%ebp)
  102069:	74 22                	je     10208d <writei+0x184>
/u/a/b/abhijith/CS537/p3a/xv6-sp20/kernel/fs.c:446 (discriminator 1)
  10206b:	8b 45 08             	mov    0x8(%ebp),%eax
  10206e:	8b 40 18             	mov    0x18(%eax),%eax
  102071:	39 45 10             	cmp    %eax,0x10(%ebp)
  102074:	76 17                	jbe    10208d <writei+0x184>
/u/a/b/abhijith/CS537/p3a/xv6-sp20/kernel/fs.c:447
  102076:	8b 45 08             	mov    0x8(%ebp),%eax
  102079:	8b 55 10             	mov    0x10(%ebp),%edx
  10207c:	89 50 18             	mov    %edx,0x18(%eax)
/u/a/b/abhijith/CS537/p3a/xv6-sp20/kernel/fs.c:448
  10207f:	83 ec 0c             	sub    $0xc,%esp
  102082:	ff 75 08             	pushl  0x8(%ebp)
  102085:	e8 f1 f5 ff ff       	call   10167b <iupdate>
  10208a:	83 c4 10             	add    $0x10,%esp
/u/a/b/abhijith/CS537/p3a/xv6-sp20/kernel/fs.c:450
  10208d:	8b 45 14             	mov    0x14(%ebp),%eax
/u/a/b/abhijith/CS537/p3a/xv6-sp20/kernel/fs.c:451
  102090:	c9                   	leave  
  102091:	c3                   	ret    

00102092 <namecmp>:
namecmp():
/u/a/b/abhijith/CS537/p3a/xv6-sp20/kernel/fs.c:457
  102092:	55                   	push   %ebp
  102093:	89 e5                	mov    %esp,%ebp
  102095:	83 ec 08             	sub    $0x8,%esp
/u/a/b/abhijith/CS537/p3a/xv6-sp20/kernel/fs.c:458
  102098:	83 ec 04             	sub    $0x4,%esp
  10209b:	6a 0e                	push   $0xe
  10209d:	ff 75 0c             	pushl  0xc(%ebp)
  1020a0:	ff 75 08             	pushl  0x8(%ebp)
  1020a3:	e8 83 2a 00 00       	call   104b2b <strncmp>
  1020a8:	83 c4 10             	add    $0x10,%esp
/u/a/b/abhijith/CS537/p3a/xv6-sp20/kernel/fs.c:459
  1020ab:	c9                   	leave  
  1020ac:	c3                   	ret    

001020ad <dirlookup>:
dirlookup():
/u/a/b/abhijith/CS537/p3a/xv6-sp20/kernel/fs.c:466
  1020ad:	55                   	push   %ebp
  1020ae:	89 e5                	mov    %esp,%ebp
  1020b0:	83 ec 18             	sub    $0x18,%esp
/u/a/b/abhijith/CS537/p3a/xv6-sp20/kernel/fs.c:471
  1020b3:	8b 45 08             	mov    0x8(%ebp),%eax
  1020b6:	0f b7 40 10          	movzwl 0x10(%eax),%eax
  1020ba:	66 83 f8 01          	cmp    $0x1,%ax
  1020be:	74 0d                	je     1020cd <dirlookup+0x20>
/u/a/b/abhijith/CS537/p3a/xv6-sp20/kernel/fs.c:472
  1020c0:	83 ec 0c             	sub    $0xc,%esp
  1020c3:	68 cc 7e 10 00       	push   $0x107ecc
  1020c8:	e8 ab e4 ff ff       	call   100578 <panic>
/u/a/b/abhijith/CS537/p3a/xv6-sp20/kernel/fs.c:474
  1020cd:	c7 45 f4 00 00 00 00 	movl   $0x0,-0xc(%ebp)
  1020d4:	e9 da 00 00 00       	jmp    1021b3 <dirlookup+0x106>
/u/a/b/abhijith/CS537/p3a/xv6-sp20/kernel/fs.c:475
  1020d9:	8b 45 f4             	mov    -0xc(%ebp),%eax
  1020dc:	c1 e8 09             	shr    $0x9,%eax
  1020df:	83 ec 08             	sub    $0x8,%esp
  1020e2:	50                   	push   %eax
  1020e3:	ff 75 08             	pushl  0x8(%ebp)
  1020e6:	e8 43 fa ff ff       	call   101b2e <bmap>
  1020eb:	83 c4 10             	add    $0x10,%esp
  1020ee:	89 c2                	mov    %eax,%edx
  1020f0:	8b 45 08             	mov    0x8(%ebp),%eax
  1020f3:	8b 00                	mov    (%eax),%eax
  1020f5:	83 ec 08             	sub    $0x8,%esp
  1020f8:	52                   	push   %edx
  1020f9:	50                   	push   %eax
  1020fa:	e8 e1 e0 ff ff       	call   1001e0 <bread>
  1020ff:	83 c4 10             	add    $0x10,%esp
  102102:	89 45 ec             	mov    %eax,-0x14(%ebp)
/u/a/b/abhijith/CS537/p3a/xv6-sp20/kernel/fs.c:476
  102105:	8b 45 ec             	mov    -0x14(%ebp),%eax
  102108:	83 c0 18             	add    $0x18,%eax
  10210b:	89 45 f0             	mov    %eax,-0x10(%ebp)
  10210e:	eb 7a                	jmp    10218a <dirlookup+0xdd>
/u/a/b/abhijith/CS537/p3a/xv6-sp20/kernel/fs.c:479
  102110:	8b 45 f0             	mov    -0x10(%ebp),%eax
  102113:	0f b7 00             	movzwl (%eax),%eax
  102116:	66 85 c0             	test   %ax,%ax
  102119:	74 6a                	je     102185 <dirlookup+0xd8>
/u/a/b/abhijith/CS537/p3a/xv6-sp20/kernel/fs.c:481
  10211b:	8b 45 f0             	mov    -0x10(%ebp),%eax
  10211e:	83 c0 02             	add    $0x2,%eax
  102121:	83 ec 08             	sub    $0x8,%esp
  102124:	50                   	push   %eax
  102125:	ff 75 0c             	pushl  0xc(%ebp)
  102128:	e8 65 ff ff ff       	call   102092 <namecmp>
  10212d:	83 c4 10             	add    $0x10,%esp
  102130:	85 c0                	test   %eax,%eax
  102132:	75 52                	jne    102186 <dirlookup+0xd9>
/u/a/b/abhijith/CS537/p3a/xv6-sp20/kernel/fs.c:483
  102134:	83 7d 10 00          	cmpl   $0x0,0x10(%ebp)
  102138:	74 1b                	je     102155 <dirlookup+0xa8>
/u/a/b/abhijith/CS537/p3a/xv6-sp20/kernel/fs.c:484
  10213a:	8b 55 f0             	mov    -0x10(%ebp),%edx
  10213d:	8b 45 f4             	mov    -0xc(%ebp),%eax
  102140:	01 d0                	add    %edx,%eax
  102142:	89 c2                	mov    %eax,%edx
  102144:	8b 45 ec             	mov    -0x14(%ebp),%eax
  102147:	83 c0 18             	add    $0x18,%eax
  10214a:	29 c2                	sub    %eax,%edx
  10214c:	89 d0                	mov    %edx,%eax
  10214e:	89 c2                	mov    %eax,%edx
  102150:	8b 45 10             	mov    0x10(%ebp),%eax
  102153:	89 10                	mov    %edx,(%eax)
/u/a/b/abhijith/CS537/p3a/xv6-sp20/kernel/fs.c:485
  102155:	8b 45 f0             	mov    -0x10(%ebp),%eax
  102158:	0f b7 00             	movzwl (%eax),%eax
  10215b:	0f b7 c0             	movzwl %ax,%eax
  10215e:	89 45 e8             	mov    %eax,-0x18(%ebp)
/u/a/b/abhijith/CS537/p3a/xv6-sp20/kernel/fs.c:486
  102161:	83 ec 0c             	sub    $0xc,%esp
  102164:	ff 75 ec             	pushl  -0x14(%ebp)
  102167:	e8 ec e0 ff ff       	call   100258 <brelse>
  10216c:	83 c4 10             	add    $0x10,%esp
/u/a/b/abhijith/CS537/p3a/xv6-sp20/kernel/fs.c:487
  10216f:	8b 45 08             	mov    0x8(%ebp),%eax
  102172:	8b 00                	mov    (%eax),%eax
  102174:	83 ec 08             	sub    $0x8,%esp
  102177:	ff 75 e8             	pushl  -0x18(%ebp)
  10217a:	50                   	push   %eax
  10217b:	e8 b6 f5 ff ff       	call   101736 <iget>
  102180:	83 c4 10             	add    $0x10,%esp
  102183:	eb 42                	jmp    1021c7 <dirlookup+0x11a>
/u/a/b/abhijith/CS537/p3a/xv6-sp20/kernel/fs.c:480
  102185:	90                   	nop
/u/a/b/abhijith/CS537/p3a/xv6-sp20/kernel/fs.c:478
  102186:	83 45 f0 10          	addl   $0x10,-0x10(%ebp)
/u/a/b/abhijith/CS537/p3a/xv6-sp20/kernel/fs.c:477 (discriminator 1)
  10218a:	8b 45 ec             	mov    -0x14(%ebp),%eax
  10218d:	83 c0 18             	add    $0x18,%eax
  102190:	05 00 02 00 00       	add    $0x200,%eax
/u/a/b/abhijith/CS537/p3a/xv6-sp20/kernel/fs.c:476 (discriminator 1)
  102195:	39 45 f0             	cmp    %eax,-0x10(%ebp)
  102198:	0f 82 72 ff ff ff    	jb     102110 <dirlookup+0x63>
/u/a/b/abhijith/CS537/p3a/xv6-sp20/kernel/fs.c:490 (discriminator 2)
  10219e:	83 ec 0c             	sub    $0xc,%esp
  1021a1:	ff 75 ec             	pushl  -0x14(%ebp)
  1021a4:	e8 af e0 ff ff       	call   100258 <brelse>
  1021a9:	83 c4 10             	add    $0x10,%esp
/u/a/b/abhijith/CS537/p3a/xv6-sp20/kernel/fs.c:474 (discriminator 2)
  1021ac:	81 45 f4 00 02 00 00 	addl   $0x200,-0xc(%ebp)
/u/a/b/abhijith/CS537/p3a/xv6-sp20/kernel/fs.c:474 (discriminator 1)
  1021b3:	8b 45 08             	mov    0x8(%ebp),%eax
  1021b6:	8b 40 18             	mov    0x18(%eax),%eax
  1021b9:	39 45 f4             	cmp    %eax,-0xc(%ebp)
  1021bc:	0f 82 17 ff ff ff    	jb     1020d9 <dirlookup+0x2c>
/u/a/b/abhijith/CS537/p3a/xv6-sp20/kernel/fs.c:492
  1021c2:	b8 00 00 00 00       	mov    $0x0,%eax
/u/a/b/abhijith/CS537/p3a/xv6-sp20/kernel/fs.c:493
  1021c7:	c9                   	leave  
  1021c8:	c3                   	ret    

001021c9 <dirlink>:
dirlink():
/u/a/b/abhijith/CS537/p3a/xv6-sp20/kernel/fs.c:498
  1021c9:	55                   	push   %ebp
  1021ca:	89 e5                	mov    %esp,%ebp
  1021cc:	83 ec 28             	sub    $0x28,%esp
/u/a/b/abhijith/CS537/p3a/xv6-sp20/kernel/fs.c:504
  1021cf:	83 ec 04             	sub    $0x4,%esp
  1021d2:	6a 00                	push   $0x0
  1021d4:	ff 75 0c             	pushl  0xc(%ebp)
  1021d7:	ff 75 08             	pushl  0x8(%ebp)
  1021da:	e8 ce fe ff ff       	call   1020ad <dirlookup>
  1021df:	83 c4 10             	add    $0x10,%esp
  1021e2:	89 45 f0             	mov    %eax,-0x10(%ebp)
  1021e5:	83 7d f0 00          	cmpl   $0x0,-0x10(%ebp)
  1021e9:	74 18                	je     102203 <dirlink+0x3a>
/u/a/b/abhijith/CS537/p3a/xv6-sp20/kernel/fs.c:505
  1021eb:	83 ec 0c             	sub    $0xc,%esp
  1021ee:	ff 75 f0             	pushl  -0x10(%ebp)
  1021f1:	e8 23 f8 ff ff       	call   101a19 <iput>
  1021f6:	83 c4 10             	add    $0x10,%esp
/u/a/b/abhijith/CS537/p3a/xv6-sp20/kernel/fs.c:506
  1021f9:	b8 ff ff ff ff       	mov    $0xffffffff,%eax
  1021fe:	e9 9c 00 00 00       	jmp    10229f <dirlink+0xd6>
/u/a/b/abhijith/CS537/p3a/xv6-sp20/kernel/fs.c:510
  102203:	c7 45 f4 00 00 00 00 	movl   $0x0,-0xc(%ebp)
  10220a:	eb 39                	jmp    102245 <dirlink+0x7c>
/u/a/b/abhijith/CS537/p3a/xv6-sp20/kernel/fs.c:511
  10220c:	8b 45 f4             	mov    -0xc(%ebp),%eax
  10220f:	6a 10                	push   $0x10
  102211:	50                   	push   %eax
  102212:	8d 45 e0             	lea    -0x20(%ebp),%eax
  102215:	50                   	push   %eax
  102216:	ff 75 08             	pushl  0x8(%ebp)
  102219:	e8 94 fb ff ff       	call   101db2 <readi>
  10221e:	83 c4 10             	add    $0x10,%esp
  102221:	83 f8 10             	cmp    $0x10,%eax
  102224:	74 0d                	je     102233 <dirlink+0x6a>
/u/a/b/abhijith/CS537/p3a/xv6-sp20/kernel/fs.c:512
  102226:	83 ec 0c             	sub    $0xc,%esp
  102229:	68 de 7e 10 00       	push   $0x107ede
  10222e:	e8 45 e3 ff ff       	call   100578 <panic>
/u/a/b/abhijith/CS537/p3a/xv6-sp20/kernel/fs.c:513
  102233:	0f b7 45 e0          	movzwl -0x20(%ebp),%eax
  102237:	66 85 c0             	test   %ax,%ax
  10223a:	74 18                	je     102254 <dirlink+0x8b>
/u/a/b/abhijith/CS537/p3a/xv6-sp20/kernel/fs.c:510 (discriminator 2)
  10223c:	8b 45 f4             	mov    -0xc(%ebp),%eax
  10223f:	83 c0 10             	add    $0x10,%eax
  102242:	89 45 f4             	mov    %eax,-0xc(%ebp)
/u/a/b/abhijith/CS537/p3a/xv6-sp20/kernel/fs.c:510 (discriminator 1)
  102245:	8b 45 08             	mov    0x8(%ebp),%eax
  102248:	8b 50 18             	mov    0x18(%eax),%edx
  10224b:	8b 45 f4             	mov    -0xc(%ebp),%eax
  10224e:	39 c2                	cmp    %eax,%edx
  102250:	77 ba                	ja     10220c <dirlink+0x43>
  102252:	eb 01                	jmp    102255 <dirlink+0x8c>
/u/a/b/abhijith/CS537/p3a/xv6-sp20/kernel/fs.c:514
  102254:	90                   	nop
/u/a/b/abhijith/CS537/p3a/xv6-sp20/kernel/fs.c:517
  102255:	83 ec 04             	sub    $0x4,%esp
  102258:	6a 0e                	push   $0xe
  10225a:	ff 75 0c             	pushl  0xc(%ebp)
  10225d:	8d 45 e0             	lea    -0x20(%ebp),%eax
  102260:	83 c0 02             	add    $0x2,%eax
  102263:	50                   	push   %eax
  102264:	e8 18 29 00 00       	call   104b81 <strncpy>
  102269:	83 c4 10             	add    $0x10,%esp
/u/a/b/abhijith/CS537/p3a/xv6-sp20/kernel/fs.c:518
  10226c:	8b 45 10             	mov    0x10(%ebp),%eax
  10226f:	66 89 45 e0          	mov    %ax,-0x20(%ebp)
/u/a/b/abhijith/CS537/p3a/xv6-sp20/kernel/fs.c:519
  102273:	8b 45 f4             	mov    -0xc(%ebp),%eax
  102276:	6a 10                	push   $0x10
  102278:	50                   	push   %eax
  102279:	8d 45 e0             	lea    -0x20(%ebp),%eax
  10227c:	50                   	push   %eax
  10227d:	ff 75 08             	pushl  0x8(%ebp)
  102280:	e8 84 fc ff ff       	call   101f09 <writei>
  102285:	83 c4 10             	add    $0x10,%esp
  102288:	83 f8 10             	cmp    $0x10,%eax
  10228b:	74 0d                	je     10229a <dirlink+0xd1>
/u/a/b/abhijith/CS537/p3a/xv6-sp20/kernel/fs.c:520
  10228d:	83 ec 0c             	sub    $0xc,%esp
  102290:	68 eb 7e 10 00       	push   $0x107eeb
  102295:	e8 de e2 ff ff       	call   100578 <panic>
/u/a/b/abhijith/CS537/p3a/xv6-sp20/kernel/fs.c:522
  10229a:	b8 00 00 00 00       	mov    $0x0,%eax
/u/a/b/abhijith/CS537/p3a/xv6-sp20/kernel/fs.c:523 (discriminator 1)
  10229f:	c9                   	leave  
  1022a0:	c3                   	ret    

001022a1 <skipelem>:
skipelem():
/u/a/b/abhijith/CS537/p3a/xv6-sp20/kernel/fs.c:541
  1022a1:	55                   	push   %ebp
  1022a2:	89 e5                	mov    %esp,%ebp
  1022a4:	83 ec 18             	sub    $0x18,%esp
/u/a/b/abhijith/CS537/p3a/xv6-sp20/kernel/fs.c:545
  1022a7:	eb 04                	jmp    1022ad <skipelem+0xc>
/u/a/b/abhijith/CS537/p3a/xv6-sp20/kernel/fs.c:546
  1022a9:	83 45 08 01          	addl   $0x1,0x8(%ebp)
/u/a/b/abhijith/CS537/p3a/xv6-sp20/kernel/fs.c:545
  1022ad:	8b 45 08             	mov    0x8(%ebp),%eax
  1022b0:	0f b6 00             	movzbl (%eax),%eax
  1022b3:	3c 2f                	cmp    $0x2f,%al
  1022b5:	74 f2                	je     1022a9 <skipelem+0x8>
/u/a/b/abhijith/CS537/p3a/xv6-sp20/kernel/fs.c:547
  1022b7:	8b 45 08             	mov    0x8(%ebp),%eax
  1022ba:	0f b6 00             	movzbl (%eax),%eax
  1022bd:	84 c0                	test   %al,%al
  1022bf:	75 07                	jne    1022c8 <skipelem+0x27>
/u/a/b/abhijith/CS537/p3a/xv6-sp20/kernel/fs.c:548
  1022c1:	b8 00 00 00 00       	mov    $0x0,%eax
  1022c6:	eb 7b                	jmp    102343 <skipelem+0xa2>
/u/a/b/abhijith/CS537/p3a/xv6-sp20/kernel/fs.c:549
  1022c8:	8b 45 08             	mov    0x8(%ebp),%eax
  1022cb:	89 45 f4             	mov    %eax,-0xc(%ebp)
/u/a/b/abhijith/CS537/p3a/xv6-sp20/kernel/fs.c:550
  1022ce:	eb 04                	jmp    1022d4 <skipelem+0x33>
/u/a/b/abhijith/CS537/p3a/xv6-sp20/kernel/fs.c:551
  1022d0:	83 45 08 01          	addl   $0x1,0x8(%ebp)
/u/a/b/abhijith/CS537/p3a/xv6-sp20/kernel/fs.c:550
  1022d4:	8b 45 08             	mov    0x8(%ebp),%eax
  1022d7:	0f b6 00             	movzbl (%eax),%eax
  1022da:	3c 2f                	cmp    $0x2f,%al
  1022dc:	74 0a                	je     1022e8 <skipelem+0x47>
/u/a/b/abhijith/CS537/p3a/xv6-sp20/kernel/fs.c:550 (discriminator 1)
  1022de:	8b 45 08             	mov    0x8(%ebp),%eax
  1022e1:	0f b6 00             	movzbl (%eax),%eax
  1022e4:	84 c0                	test   %al,%al
  1022e6:	75 e8                	jne    1022d0 <skipelem+0x2f>
/u/a/b/abhijith/CS537/p3a/xv6-sp20/kernel/fs.c:552
  1022e8:	8b 55 08             	mov    0x8(%ebp),%edx
  1022eb:	8b 45 f4             	mov    -0xc(%ebp),%eax
  1022ee:	29 c2                	sub    %eax,%edx
  1022f0:	89 d0                	mov    %edx,%eax
  1022f2:	89 45 f0             	mov    %eax,-0x10(%ebp)
/u/a/b/abhijith/CS537/p3a/xv6-sp20/kernel/fs.c:553
  1022f5:	83 7d f0 0d          	cmpl   $0xd,-0x10(%ebp)
  1022f9:	7e 15                	jle    102310 <skipelem+0x6f>
/u/a/b/abhijith/CS537/p3a/xv6-sp20/kernel/fs.c:554
  1022fb:	83 ec 04             	sub    $0x4,%esp
  1022fe:	6a 0e                	push   $0xe
  102300:	ff 75 f4             	pushl  -0xc(%ebp)
  102303:	ff 75 0c             	pushl  0xc(%ebp)
  102306:	e8 8a 27 00 00       	call   104a95 <memmove>
  10230b:	83 c4 10             	add    $0x10,%esp
  10230e:	eb 26                	jmp    102336 <skipelem+0x95>
/u/a/b/abhijith/CS537/p3a/xv6-sp20/kernel/fs.c:556
  102310:	8b 45 f0             	mov    -0x10(%ebp),%eax
  102313:	83 ec 04             	sub    $0x4,%esp
  102316:	50                   	push   %eax
  102317:	ff 75 f4             	pushl  -0xc(%ebp)
  10231a:	ff 75 0c             	pushl  0xc(%ebp)
  10231d:	e8 73 27 00 00       	call   104a95 <memmove>
  102322:	83 c4 10             	add    $0x10,%esp
/u/a/b/abhijith/CS537/p3a/xv6-sp20/kernel/fs.c:557
  102325:	8b 55 f0             	mov    -0x10(%ebp),%edx
  102328:	8b 45 0c             	mov    0xc(%ebp),%eax
  10232b:	01 d0                	add    %edx,%eax
  10232d:	c6 00 00             	movb   $0x0,(%eax)
/u/a/b/abhijith/CS537/p3a/xv6-sp20/kernel/fs.c:559
  102330:	eb 04                	jmp    102336 <skipelem+0x95>
/u/a/b/abhijith/CS537/p3a/xv6-sp20/kernel/fs.c:560
  102332:	83 45 08 01          	addl   $0x1,0x8(%ebp)
/u/a/b/abhijith/CS537/p3a/xv6-sp20/kernel/fs.c:559
  102336:	8b 45 08             	mov    0x8(%ebp),%eax
  102339:	0f b6 00             	movzbl (%eax),%eax
  10233c:	3c 2f                	cmp    $0x2f,%al
  10233e:	74 f2                	je     102332 <skipelem+0x91>
/u/a/b/abhijith/CS537/p3a/xv6-sp20/kernel/fs.c:561
  102340:	8b 45 08             	mov    0x8(%ebp),%eax
/u/a/b/abhijith/CS537/p3a/xv6-sp20/kernel/fs.c:562
  102343:	c9                   	leave  
  102344:	c3                   	ret    

00102345 <namex>:
namex():
/u/a/b/abhijith/CS537/p3a/xv6-sp20/kernel/fs.c:569
  102345:	55                   	push   %ebp
  102346:	89 e5                	mov    %esp,%ebp
  102348:	83 ec 18             	sub    $0x18,%esp
/u/a/b/abhijith/CS537/p3a/xv6-sp20/kernel/fs.c:572
  10234b:	8b 45 08             	mov    0x8(%ebp),%eax
  10234e:	0f b6 00             	movzbl (%eax),%eax
  102351:	3c 2f                	cmp    $0x2f,%al
  102353:	75 17                	jne    10236c <namex+0x27>
/u/a/b/abhijith/CS537/p3a/xv6-sp20/kernel/fs.c:573
  102355:	83 ec 08             	sub    $0x8,%esp
  102358:	6a 01                	push   $0x1
  10235a:	6a 01                	push   $0x1
  10235c:	e8 d5 f3 ff ff       	call   101736 <iget>
  102361:	83 c4 10             	add    $0x10,%esp
  102364:	89 45 f4             	mov    %eax,-0xc(%ebp)
  102367:	e9 bb 00 00 00       	jmp    102427 <namex+0xe2>
/u/a/b/abhijith/CS537/p3a/xv6-sp20/kernel/fs.c:575
  10236c:	65 a1 04 00 00 00    	mov    %gs:0x4,%eax
  102372:	8b 40 68             	mov    0x68(%eax),%eax
  102375:	83 ec 0c             	sub    $0xc,%esp
  102378:	50                   	push   %eax
  102379:	e8 97 f4 ff ff       	call   101815 <idup>
  10237e:	83 c4 10             	add    $0x10,%esp
  102381:	89 45 f4             	mov    %eax,-0xc(%ebp)
/u/a/b/abhijith/CS537/p3a/xv6-sp20/kernel/fs.c:577
  102384:	e9 9e 00 00 00       	jmp    102427 <namex+0xe2>
/u/a/b/abhijith/CS537/p3a/xv6-sp20/kernel/fs.c:578
  102389:	83 ec 0c             	sub    $0xc,%esp
  10238c:	ff 75 f4             	pushl  -0xc(%ebp)
  10238f:	e8 bb f4 ff ff       	call   10184f <ilock>
  102394:	83 c4 10             	add    $0x10,%esp
/u/a/b/abhijith/CS537/p3a/xv6-sp20/kernel/fs.c:579
  102397:	8b 45 f4             	mov    -0xc(%ebp),%eax
  10239a:	0f b7 40 10          	movzwl 0x10(%eax),%eax
  10239e:	66 83 f8 01          	cmp    $0x1,%ax
  1023a2:	74 18                	je     1023bc <namex+0x77>
/u/a/b/abhijith/CS537/p3a/xv6-sp20/kernel/fs.c:580
  1023a4:	83 ec 0c             	sub    $0xc,%esp
  1023a7:	ff 75 f4             	pushl  -0xc(%ebp)
  1023aa:	e8 5a f7 ff ff       	call   101b09 <iunlockput>
  1023af:	83 c4 10             	add    $0x10,%esp
/u/a/b/abhijith/CS537/p3a/xv6-sp20/kernel/fs.c:581
  1023b2:	b8 00 00 00 00       	mov    $0x0,%eax
  1023b7:	e9 a7 00 00 00       	jmp    102463 <namex+0x11e>
/u/a/b/abhijith/CS537/p3a/xv6-sp20/kernel/fs.c:583
  1023bc:	83 7d 0c 00          	cmpl   $0x0,0xc(%ebp)
  1023c0:	74 20                	je     1023e2 <namex+0x9d>
/u/a/b/abhijith/CS537/p3a/xv6-sp20/kernel/fs.c:583 (discriminator 1)
  1023c2:	8b 45 08             	mov    0x8(%ebp),%eax
  1023c5:	0f b6 00             	movzbl (%eax),%eax
  1023c8:	84 c0                	test   %al,%al
  1023ca:	75 16                	jne    1023e2 <namex+0x9d>
/u/a/b/abhijith/CS537/p3a/xv6-sp20/kernel/fs.c:585
  1023cc:	83 ec 0c             	sub    $0xc,%esp
  1023cf:	ff 75 f4             	pushl  -0xc(%ebp)
  1023d2:	e8 d0 f5 ff ff       	call   1019a7 <iunlock>
  1023d7:	83 c4 10             	add    $0x10,%esp
/u/a/b/abhijith/CS537/p3a/xv6-sp20/kernel/fs.c:586
  1023da:	8b 45 f4             	mov    -0xc(%ebp),%eax
  1023dd:	e9 81 00 00 00       	jmp    102463 <namex+0x11e>
/u/a/b/abhijith/CS537/p3a/xv6-sp20/kernel/fs.c:588
  1023e2:	83 ec 04             	sub    $0x4,%esp
  1023e5:	6a 00                	push   $0x0
  1023e7:	ff 75 10             	pushl  0x10(%ebp)
  1023ea:	ff 75 f4             	pushl  -0xc(%ebp)
  1023ed:	e8 bb fc ff ff       	call   1020ad <dirlookup>
  1023f2:	83 c4 10             	add    $0x10,%esp
  1023f5:	89 45 f0             	mov    %eax,-0x10(%ebp)
  1023f8:	83 7d f0 00          	cmpl   $0x0,-0x10(%ebp)
  1023fc:	75 15                	jne    102413 <namex+0xce>
/u/a/b/abhijith/CS537/p3a/xv6-sp20/kernel/fs.c:589
  1023fe:	83 ec 0c             	sub    $0xc,%esp
  102401:	ff 75 f4             	pushl  -0xc(%ebp)
  102404:	e8 00 f7 ff ff       	call   101b09 <iunlockput>
  102409:	83 c4 10             	add    $0x10,%esp
/u/a/b/abhijith/CS537/p3a/xv6-sp20/kernel/fs.c:590
  10240c:	b8 00 00 00 00       	mov    $0x0,%eax
  102411:	eb 50                	jmp    102463 <namex+0x11e>
/u/a/b/abhijith/CS537/p3a/xv6-sp20/kernel/fs.c:592
  102413:	83 ec 0c             	sub    $0xc,%esp
  102416:	ff 75 f4             	pushl  -0xc(%ebp)
  102419:	e8 eb f6 ff ff       	call   101b09 <iunlockput>
  10241e:	83 c4 10             	add    $0x10,%esp
/u/a/b/abhijith/CS537/p3a/xv6-sp20/kernel/fs.c:593
  102421:	8b 45 f0             	mov    -0x10(%ebp),%eax
  102424:	89 45 f4             	mov    %eax,-0xc(%ebp)
/u/a/b/abhijith/CS537/p3a/xv6-sp20/kernel/fs.c:577
  102427:	83 ec 08             	sub    $0x8,%esp
  10242a:	ff 75 10             	pushl  0x10(%ebp)
  10242d:	ff 75 08             	pushl  0x8(%ebp)
  102430:	e8 6c fe ff ff       	call   1022a1 <skipelem>
  102435:	83 c4 10             	add    $0x10,%esp
  102438:	89 45 08             	mov    %eax,0x8(%ebp)
  10243b:	83 7d 08 00          	cmpl   $0x0,0x8(%ebp)
  10243f:	0f 85 44 ff ff ff    	jne    102389 <namex+0x44>
/u/a/b/abhijith/CS537/p3a/xv6-sp20/kernel/fs.c:595
  102445:	83 7d 0c 00          	cmpl   $0x0,0xc(%ebp)
  102449:	74 15                	je     102460 <namex+0x11b>
/u/a/b/abhijith/CS537/p3a/xv6-sp20/kernel/fs.c:596
  10244b:	83 ec 0c             	sub    $0xc,%esp
  10244e:	ff 75 f4             	pushl  -0xc(%ebp)
  102451:	e8 c3 f5 ff ff       	call   101a19 <iput>
  102456:	83 c4 10             	add    $0x10,%esp
/u/a/b/abhijith/CS537/p3a/xv6-sp20/kernel/fs.c:597
  102459:	b8 00 00 00 00       	mov    $0x0,%eax
  10245e:	eb 03                	jmp    102463 <namex+0x11e>
/u/a/b/abhijith/CS537/p3a/xv6-sp20/kernel/fs.c:599
  102460:	8b 45 f4             	mov    -0xc(%ebp),%eax
/u/a/b/abhijith/CS537/p3a/xv6-sp20/kernel/fs.c:600
  102463:	c9                   	leave  
  102464:	c3                   	ret    

00102465 <namei>:
namei():
/u/a/b/abhijith/CS537/p3a/xv6-sp20/kernel/fs.c:604
  102465:	55                   	push   %ebp
  102466:	89 e5                	mov    %esp,%ebp
  102468:	83 ec 18             	sub    $0x18,%esp
/u/a/b/abhijith/CS537/p3a/xv6-sp20/kernel/fs.c:606
  10246b:	83 ec 04             	sub    $0x4,%esp
  10246e:	8d 45 ea             	lea    -0x16(%ebp),%eax
  102471:	50                   	push   %eax
  102472:	6a 00                	push   $0x0
  102474:	ff 75 08             	pushl  0x8(%ebp)
  102477:	e8 c9 fe ff ff       	call   102345 <namex>
  10247c:	83 c4 10             	add    $0x10,%esp
/u/a/b/abhijith/CS537/p3a/xv6-sp20/kernel/fs.c:607
  10247f:	c9                   	leave  
  102480:	c3                   	ret    

00102481 <nameiparent>:
nameiparent():
/u/a/b/abhijith/CS537/p3a/xv6-sp20/kernel/fs.c:611
  102481:	55                   	push   %ebp
  102482:	89 e5                	mov    %esp,%ebp
  102484:	83 ec 08             	sub    $0x8,%esp
/u/a/b/abhijith/CS537/p3a/xv6-sp20/kernel/fs.c:612
  102487:	83 ec 04             	sub    $0x4,%esp
  10248a:	ff 75 0c             	pushl  0xc(%ebp)
  10248d:	6a 01                	push   $0x1
  10248f:	ff 75 08             	pushl  0x8(%ebp)
  102492:	e8 ae fe ff ff       	call   102345 <namex>
  102497:	83 c4 10             	add    $0x10,%esp
/u/a/b/abhijith/CS537/p3a/xv6-sp20/kernel/fs.c:613
  10249a:	c9                   	leave  
  10249b:	c3                   	ret    

0010249c <inb>:
inb():
/u/a/b/abhijith/CS537/p3a/xv6-sp20/include/x86.h:7
  10249c:	55                   	push   %ebp
  10249d:	89 e5                	mov    %esp,%ebp
  10249f:	83 ec 14             	sub    $0x14,%esp
  1024a2:	8b 45 08             	mov    0x8(%ebp),%eax
  1024a5:	66 89 45 ec          	mov    %ax,-0x14(%ebp)
/u/a/b/abhijith/CS537/p3a/xv6-sp20/include/x86.h:10
  1024a9:	0f b7 45 ec          	movzwl -0x14(%ebp),%eax
  1024ad:	89 c2                	mov    %eax,%edx
  1024af:	ec                   	in     (%dx),%al
  1024b0:	88 45 ff             	mov    %al,-0x1(%ebp)
/u/a/b/abhijith/CS537/p3a/xv6-sp20/include/x86.h:11
  1024b3:	0f b6 45 ff          	movzbl -0x1(%ebp),%eax
/u/a/b/abhijith/CS537/p3a/xv6-sp20/include/x86.h:12
  1024b7:	c9                   	leave  
  1024b8:	c3                   	ret    

001024b9 <insl>:
insl():
/u/a/b/abhijith/CS537/p3a/xv6-sp20/include/x86.h:16
  1024b9:	55                   	push   %ebp
  1024ba:	89 e5                	mov    %esp,%ebp
  1024bc:	57                   	push   %edi
  1024bd:	53                   	push   %ebx
/u/a/b/abhijith/CS537/p3a/xv6-sp20/include/x86.h:17
  1024be:	8b 55 08             	mov    0x8(%ebp),%edx
  1024c1:	8b 4d 0c             	mov    0xc(%ebp),%ecx
  1024c4:	8b 45 10             	mov    0x10(%ebp),%eax
  1024c7:	89 cb                	mov    %ecx,%ebx
  1024c9:	89 df                	mov    %ebx,%edi
  1024cb:	89 c1                	mov    %eax,%ecx
  1024cd:	fc                   	cld    
  1024ce:	f3 6d                	rep insl (%dx),%es:(%edi)
  1024d0:	89 c8                	mov    %ecx,%eax
  1024d2:	89 fb                	mov    %edi,%ebx
  1024d4:	89 5d 0c             	mov    %ebx,0xc(%ebp)
  1024d7:	89 45 10             	mov    %eax,0x10(%ebp)
/u/a/b/abhijith/CS537/p3a/xv6-sp20/include/x86.h:21
  1024da:	90                   	nop
  1024db:	5b                   	pop    %ebx
  1024dc:	5f                   	pop    %edi
  1024dd:	5d                   	pop    %ebp
  1024de:	c3                   	ret    

001024df <outb>:
outb():
/u/a/b/abhijith/CS537/p3a/xv6-sp20/include/x86.h:25
  1024df:	55                   	push   %ebp
  1024e0:	89 e5                	mov    %esp,%ebp
  1024e2:	83 ec 08             	sub    $0x8,%esp
  1024e5:	8b 55 08             	mov    0x8(%ebp),%edx
  1024e8:	8b 45 0c             	mov    0xc(%ebp),%eax
  1024eb:	66 89 55 fc          	mov    %dx,-0x4(%ebp)
  1024ef:	88 45 f8             	mov    %al,-0x8(%ebp)
/u/a/b/abhijith/CS537/p3a/xv6-sp20/include/x86.h:26
  1024f2:	0f b6 45 f8          	movzbl -0x8(%ebp),%eax
  1024f6:	0f b7 55 fc          	movzwl -0x4(%ebp),%edx
  1024fa:	ee                   	out    %al,(%dx)
/u/a/b/abhijith/CS537/p3a/xv6-sp20/include/x86.h:27
  1024fb:	90                   	nop
  1024fc:	c9                   	leave  
  1024fd:	c3                   	ret    

001024fe <outsl>:
outsl():
/u/a/b/abhijith/CS537/p3a/xv6-sp20/include/x86.h:37
  1024fe:	55                   	push   %ebp
  1024ff:	89 e5                	mov    %esp,%ebp
  102501:	56                   	push   %esi
  102502:	53                   	push   %ebx
/u/a/b/abhijith/CS537/p3a/xv6-sp20/include/x86.h:38
  102503:	8b 55 08             	mov    0x8(%ebp),%edx
  102506:	8b 4d 0c             	mov    0xc(%ebp),%ecx
  102509:	8b 45 10             	mov    0x10(%ebp),%eax
  10250c:	89 cb                	mov    %ecx,%ebx
  10250e:	89 de                	mov    %ebx,%esi
  102510:	89 c1                	mov    %eax,%ecx
  102512:	fc                   	cld    
  102513:	f3 6f                	rep outsl %ds:(%esi),(%dx)
  102515:	89 c8                	mov    %ecx,%eax
  102517:	89 f3                	mov    %esi,%ebx
  102519:	89 5d 0c             	mov    %ebx,0xc(%ebp)
  10251c:	89 45 10             	mov    %eax,0x10(%ebp)
/u/a/b/abhijith/CS537/p3a/xv6-sp20/include/x86.h:42
  10251f:	90                   	nop
  102520:	5b                   	pop    %ebx
  102521:	5e                   	pop    %esi
  102522:	5d                   	pop    %ebp
  102523:	c3                   	ret    

00102524 <idewait>:
idewait():
/u/a/b/abhijith/CS537/p3a/xv6-sp20/kernel/ide.c:34
  102524:	55                   	push   %ebp
  102525:	89 e5                	mov    %esp,%ebp
  102527:	83 ec 10             	sub    $0x10,%esp
/u/a/b/abhijith/CS537/p3a/xv6-sp20/kernel/ide.c:37
  10252a:	90                   	nop
/u/a/b/abhijith/CS537/p3a/xv6-sp20/kernel/ide.c:37 (discriminator 1)
  10252b:	68 f7 01 00 00       	push   $0x1f7
  102530:	e8 67 ff ff ff       	call   10249c <inb>
  102535:	83 c4 04             	add    $0x4,%esp
  102538:	0f b6 c0             	movzbl %al,%eax
  10253b:	89 45 fc             	mov    %eax,-0x4(%ebp)
  10253e:	8b 45 fc             	mov    -0x4(%ebp),%eax
  102541:	25 c0 00 00 00       	and    $0xc0,%eax
  102546:	83 f8 40             	cmp    $0x40,%eax
  102549:	75 e0                	jne    10252b <idewait+0x7>
/u/a/b/abhijith/CS537/p3a/xv6-sp20/kernel/ide.c:39
  10254b:	83 7d 08 00          	cmpl   $0x0,0x8(%ebp)
  10254f:	74 11                	je     102562 <idewait+0x3e>
/u/a/b/abhijith/CS537/p3a/xv6-sp20/kernel/ide.c:39 (discriminator 1)
  102551:	8b 45 fc             	mov    -0x4(%ebp),%eax
  102554:	83 e0 21             	and    $0x21,%eax
  102557:	85 c0                	test   %eax,%eax
  102559:	74 07                	je     102562 <idewait+0x3e>
/u/a/b/abhijith/CS537/p3a/xv6-sp20/kernel/ide.c:40
  10255b:	b8 ff ff ff ff       	mov    $0xffffffff,%eax
  102560:	eb 05                	jmp    102567 <idewait+0x43>
/u/a/b/abhijith/CS537/p3a/xv6-sp20/kernel/ide.c:41
  102562:	b8 00 00 00 00       	mov    $0x0,%eax
/u/a/b/abhijith/CS537/p3a/xv6-sp20/kernel/ide.c:42
  102567:	c9                   	leave  
  102568:	c3                   	ret    

00102569 <ideinit>:
ideinit():
/u/a/b/abhijith/CS537/p3a/xv6-sp20/kernel/ide.c:46
  102569:	55                   	push   %ebp
  10256a:	89 e5                	mov    %esp,%ebp
  10256c:	83 ec 18             	sub    $0x18,%esp
/u/a/b/abhijith/CS537/p3a/xv6-sp20/kernel/ide.c:49
  10256f:	83 ec 08             	sub    $0x8,%esp
  102572:	68 f3 7e 10 00       	push   $0x107ef3
  102577:	68 20 ab 10 00       	push   $0x10ab20
  10257c:	e8 43 22 00 00       	call   1047c4 <initlock>
  102581:	83 c4 10             	add    $0x10,%esp
/u/a/b/abhijith/CS537/p3a/xv6-sp20/kernel/ide.c:50
  102584:	83 ec 0c             	sub    $0xc,%esp
  102587:	6a 0e                	push   $0xe
  102589:	e8 b6 11 00 00       	call   103744 <picenable>
  10258e:	83 c4 10             	add    $0x10,%esp
/u/a/b/abhijith/CS537/p3a/xv6-sp20/kernel/ide.c:51
  102591:	a1 a0 03 11 00       	mov    0x1103a0,%eax
  102596:	83 e8 01             	sub    $0x1,%eax
  102599:	83 ec 08             	sub    $0x8,%esp
  10259c:	50                   	push   %eax
  10259d:	6a 0e                	push   $0xe
  10259f:	e8 37 04 00 00       	call   1029db <ioapicenable>
  1025a4:	83 c4 10             	add    $0x10,%esp
/u/a/b/abhijith/CS537/p3a/xv6-sp20/kernel/ide.c:52
  1025a7:	83 ec 0c             	sub    $0xc,%esp
  1025aa:	6a 00                	push   $0x0
  1025ac:	e8 73 ff ff ff       	call   102524 <idewait>
  1025b1:	83 c4 10             	add    $0x10,%esp
/u/a/b/abhijith/CS537/p3a/xv6-sp20/kernel/ide.c:55
  1025b4:	83 ec 08             	sub    $0x8,%esp
  1025b7:	68 f0 00 00 00       	push   $0xf0
  1025bc:	68 f6 01 00 00       	push   $0x1f6
  1025c1:	e8 19 ff ff ff       	call   1024df <outb>
  1025c6:	83 c4 10             	add    $0x10,%esp
/u/a/b/abhijith/CS537/p3a/xv6-sp20/kernel/ide.c:56
  1025c9:	c7 45 f4 00 00 00 00 	movl   $0x0,-0xc(%ebp)
  1025d0:	eb 24                	jmp    1025f6 <ideinit+0x8d>
/u/a/b/abhijith/CS537/p3a/xv6-sp20/kernel/ide.c:57
  1025d2:	83 ec 0c             	sub    $0xc,%esp
  1025d5:	68 f7 01 00 00       	push   $0x1f7
  1025da:	e8 bd fe ff ff       	call   10249c <inb>
  1025df:	83 c4 10             	add    $0x10,%esp
  1025e2:	84 c0                	test   %al,%al
  1025e4:	74 0c                	je     1025f2 <ideinit+0x89>
/u/a/b/abhijith/CS537/p3a/xv6-sp20/kernel/ide.c:58
  1025e6:	c7 05 58 ab 10 00 01 	movl   $0x1,0x10ab58
  1025ed:	00 00 00 
/u/a/b/abhijith/CS537/p3a/xv6-sp20/kernel/ide.c:59
  1025f0:	eb 0d                	jmp    1025ff <ideinit+0x96>
/u/a/b/abhijith/CS537/p3a/xv6-sp20/kernel/ide.c:56 (discriminator 2)
  1025f2:	83 45 f4 01          	addl   $0x1,-0xc(%ebp)
/u/a/b/abhijith/CS537/p3a/xv6-sp20/kernel/ide.c:56 (discriminator 1)
  1025f6:	81 7d f4 e7 03 00 00 	cmpl   $0x3e7,-0xc(%ebp)
  1025fd:	7e d3                	jle    1025d2 <ideinit+0x69>
/u/a/b/abhijith/CS537/p3a/xv6-sp20/kernel/ide.c:64
  1025ff:	83 ec 08             	sub    $0x8,%esp
  102602:	68 e0 00 00 00       	push   $0xe0
  102607:	68 f6 01 00 00       	push   $0x1f6
  10260c:	e8 ce fe ff ff       	call   1024df <outb>
  102611:	83 c4 10             	add    $0x10,%esp
/u/a/b/abhijith/CS537/p3a/xv6-sp20/kernel/ide.c:65
  102614:	90                   	nop
  102615:	c9                   	leave  
  102616:	c3                   	ret    

00102617 <idestart>:
idestart():
/u/a/b/abhijith/CS537/p3a/xv6-sp20/kernel/ide.c:70
  102617:	55                   	push   %ebp
  102618:	89 e5                	mov    %esp,%ebp
  10261a:	83 ec 08             	sub    $0x8,%esp
/u/a/b/abhijith/CS537/p3a/xv6-sp20/kernel/ide.c:71
  10261d:	83 7d 08 00          	cmpl   $0x0,0x8(%ebp)
  102621:	75 0d                	jne    102630 <idestart+0x19>
/u/a/b/abhijith/CS537/p3a/xv6-sp20/kernel/ide.c:72
  102623:	83 ec 0c             	sub    $0xc,%esp
  102626:	68 f7 7e 10 00       	push   $0x107ef7
  10262b:	e8 48 df ff ff       	call   100578 <panic>
/u/a/b/abhijith/CS537/p3a/xv6-sp20/kernel/ide.c:74
  102630:	83 ec 0c             	sub    $0xc,%esp
  102633:	6a 00                	push   $0x0
  102635:	e8 ea fe ff ff       	call   102524 <idewait>
  10263a:	83 c4 10             	add    $0x10,%esp
/u/a/b/abhijith/CS537/p3a/xv6-sp20/kernel/ide.c:75
  10263d:	83 ec 08             	sub    $0x8,%esp
  102640:	6a 00                	push   $0x0
  102642:	68 f6 03 00 00       	push   $0x3f6
  102647:	e8 93 fe ff ff       	call   1024df <outb>
  10264c:	83 c4 10             	add    $0x10,%esp
/u/a/b/abhijith/CS537/p3a/xv6-sp20/kernel/ide.c:76
  10264f:	83 ec 08             	sub    $0x8,%esp
  102652:	6a 01                	push   $0x1
  102654:	68 f2 01 00 00       	push   $0x1f2
  102659:	e8 81 fe ff ff       	call   1024df <outb>
  10265e:	83 c4 10             	add    $0x10,%esp
/u/a/b/abhijith/CS537/p3a/xv6-sp20/kernel/ide.c:77
  102661:	8b 45 08             	mov    0x8(%ebp),%eax
  102664:	8b 40 08             	mov    0x8(%eax),%eax
  102667:	0f b6 c0             	movzbl %al,%eax
  10266a:	83 ec 08             	sub    $0x8,%esp
  10266d:	50                   	push   %eax
  10266e:	68 f3 01 00 00       	push   $0x1f3
  102673:	e8 67 fe ff ff       	call   1024df <outb>
  102678:	83 c4 10             	add    $0x10,%esp
/u/a/b/abhijith/CS537/p3a/xv6-sp20/kernel/ide.c:78
  10267b:	8b 45 08             	mov    0x8(%ebp),%eax
  10267e:	8b 40 08             	mov    0x8(%eax),%eax
  102681:	c1 e8 08             	shr    $0x8,%eax
  102684:	0f b6 c0             	movzbl %al,%eax
  102687:	83 ec 08             	sub    $0x8,%esp
  10268a:	50                   	push   %eax
  10268b:	68 f4 01 00 00       	push   $0x1f4
  102690:	e8 4a fe ff ff       	call   1024df <outb>
  102695:	83 c4 10             	add    $0x10,%esp
/u/a/b/abhijith/CS537/p3a/xv6-sp20/kernel/ide.c:79
  102698:	8b 45 08             	mov    0x8(%ebp),%eax
  10269b:	8b 40 08             	mov    0x8(%eax),%eax
  10269e:	c1 e8 10             	shr    $0x10,%eax
  1026a1:	0f b6 c0             	movzbl %al,%eax
  1026a4:	83 ec 08             	sub    $0x8,%esp
  1026a7:	50                   	push   %eax
  1026a8:	68 f5 01 00 00       	push   $0x1f5
  1026ad:	e8 2d fe ff ff       	call   1024df <outb>
  1026b2:	83 c4 10             	add    $0x10,%esp
/u/a/b/abhijith/CS537/p3a/xv6-sp20/kernel/ide.c:80
  1026b5:	8b 45 08             	mov    0x8(%ebp),%eax
  1026b8:	8b 40 04             	mov    0x4(%eax),%eax
  1026bb:	c1 e0 04             	shl    $0x4,%eax
  1026be:	83 e0 10             	and    $0x10,%eax
  1026c1:	89 c2                	mov    %eax,%edx
  1026c3:	8b 45 08             	mov    0x8(%ebp),%eax
  1026c6:	8b 40 08             	mov    0x8(%eax),%eax
  1026c9:	c1 e8 18             	shr    $0x18,%eax
  1026cc:	83 e0 0f             	and    $0xf,%eax
  1026cf:	09 d0                	or     %edx,%eax
  1026d1:	83 c8 e0             	or     $0xffffffe0,%eax
  1026d4:	0f b6 c0             	movzbl %al,%eax
  1026d7:	83 ec 08             	sub    $0x8,%esp
  1026da:	50                   	push   %eax
  1026db:	68 f6 01 00 00       	push   $0x1f6
  1026e0:	e8 fa fd ff ff       	call   1024df <outb>
  1026e5:	83 c4 10             	add    $0x10,%esp
/u/a/b/abhijith/CS537/p3a/xv6-sp20/kernel/ide.c:81
  1026e8:	8b 45 08             	mov    0x8(%ebp),%eax
  1026eb:	8b 00                	mov    (%eax),%eax
  1026ed:	83 e0 04             	and    $0x4,%eax
  1026f0:	85 c0                	test   %eax,%eax
  1026f2:	74 30                	je     102724 <idestart+0x10d>
/u/a/b/abhijith/CS537/p3a/xv6-sp20/kernel/ide.c:82
  1026f4:	83 ec 08             	sub    $0x8,%esp
  1026f7:	6a 30                	push   $0x30
  1026f9:	68 f7 01 00 00       	push   $0x1f7
  1026fe:	e8 dc fd ff ff       	call   1024df <outb>
  102703:	83 c4 10             	add    $0x10,%esp
/u/a/b/abhijith/CS537/p3a/xv6-sp20/kernel/ide.c:83
  102706:	8b 45 08             	mov    0x8(%ebp),%eax
  102709:	83 c0 18             	add    $0x18,%eax
  10270c:	83 ec 04             	sub    $0x4,%esp
  10270f:	68 80 00 00 00       	push   $0x80
  102714:	50                   	push   %eax
  102715:	68 f0 01 00 00       	push   $0x1f0
  10271a:	e8 df fd ff ff       	call   1024fe <outsl>
  10271f:	83 c4 10             	add    $0x10,%esp
/u/a/b/abhijith/CS537/p3a/xv6-sp20/kernel/ide.c:87
  102722:	eb 12                	jmp    102736 <idestart+0x11f>
/u/a/b/abhijith/CS537/p3a/xv6-sp20/kernel/ide.c:85
  102724:	83 ec 08             	sub    $0x8,%esp
  102727:	6a 20                	push   $0x20
  102729:	68 f7 01 00 00       	push   $0x1f7
  10272e:	e8 ac fd ff ff       	call   1024df <outb>
  102733:	83 c4 10             	add    $0x10,%esp
/u/a/b/abhijith/CS537/p3a/xv6-sp20/kernel/ide.c:87
  102736:	90                   	nop
  102737:	c9                   	leave  
  102738:	c3                   	ret    

00102739 <ideintr>:
ideintr():
/u/a/b/abhijith/CS537/p3a/xv6-sp20/kernel/ide.c:92
  102739:	55                   	push   %ebp
  10273a:	89 e5                	mov    %esp,%ebp
  10273c:	83 ec 18             	sub    $0x18,%esp
/u/a/b/abhijith/CS537/p3a/xv6-sp20/kernel/ide.c:96
  10273f:	83 ec 0c             	sub    $0xc,%esp
  102742:	68 20 ab 10 00       	push   $0x10ab20
  102747:	e8 9a 20 00 00       	call   1047e6 <acquire>
  10274c:	83 c4 10             	add    $0x10,%esp
/u/a/b/abhijith/CS537/p3a/xv6-sp20/kernel/ide.c:97
  10274f:	a1 54 ab 10 00       	mov    0x10ab54,%eax
  102754:	89 45 f4             	mov    %eax,-0xc(%ebp)
  102757:	83 7d f4 00          	cmpl   $0x0,-0xc(%ebp)
  10275b:	75 15                	jne    102772 <ideintr+0x39>
/u/a/b/abhijith/CS537/p3a/xv6-sp20/kernel/ide.c:98
  10275d:	83 ec 0c             	sub    $0xc,%esp
  102760:	68 20 ab 10 00       	push   $0x10ab20
  102765:	e8 e3 20 00 00       	call   10484d <release>
  10276a:	83 c4 10             	add    $0x10,%esp
/u/a/b/abhijith/CS537/p3a/xv6-sp20/kernel/ide.c:100
  10276d:	e9 9a 00 00 00       	jmp    10280c <ideintr+0xd3>
/u/a/b/abhijith/CS537/p3a/xv6-sp20/kernel/ide.c:102
  102772:	8b 45 f4             	mov    -0xc(%ebp),%eax
  102775:	8b 40 14             	mov    0x14(%eax),%eax
  102778:	a3 54 ab 10 00       	mov    %eax,0x10ab54
/u/a/b/abhijith/CS537/p3a/xv6-sp20/kernel/ide.c:105
  10277d:	8b 45 f4             	mov    -0xc(%ebp),%eax
  102780:	8b 00                	mov    (%eax),%eax
  102782:	83 e0 04             	and    $0x4,%eax
  102785:	85 c0                	test   %eax,%eax
  102787:	75 2d                	jne    1027b6 <ideintr+0x7d>
/u/a/b/abhijith/CS537/p3a/xv6-sp20/kernel/ide.c:105 (discriminator 1)
  102789:	83 ec 0c             	sub    $0xc,%esp
  10278c:	6a 01                	push   $0x1
  10278e:	e8 91 fd ff ff       	call   102524 <idewait>
  102793:	83 c4 10             	add    $0x10,%esp
  102796:	85 c0                	test   %eax,%eax
  102798:	78 1c                	js     1027b6 <ideintr+0x7d>
/u/a/b/abhijith/CS537/p3a/xv6-sp20/kernel/ide.c:106
  10279a:	8b 45 f4             	mov    -0xc(%ebp),%eax
  10279d:	83 c0 18             	add    $0x18,%eax
  1027a0:	83 ec 04             	sub    $0x4,%esp
  1027a3:	68 80 00 00 00       	push   $0x80
  1027a8:	50                   	push   %eax
  1027a9:	68 f0 01 00 00       	push   $0x1f0
  1027ae:	e8 06 fd ff ff       	call   1024b9 <insl>
  1027b3:	83 c4 10             	add    $0x10,%esp
/u/a/b/abhijith/CS537/p3a/xv6-sp20/kernel/ide.c:109
  1027b6:	8b 45 f4             	mov    -0xc(%ebp),%eax
  1027b9:	8b 00                	mov    (%eax),%eax
  1027bb:	83 c8 02             	or     $0x2,%eax
  1027be:	89 c2                	mov    %eax,%edx
  1027c0:	8b 45 f4             	mov    -0xc(%ebp),%eax
  1027c3:	89 10                	mov    %edx,(%eax)
/u/a/b/abhijith/CS537/p3a/xv6-sp20/kernel/ide.c:110
  1027c5:	8b 45 f4             	mov    -0xc(%ebp),%eax
  1027c8:	8b 00                	mov    (%eax),%eax
  1027ca:	83 e0 fb             	and    $0xfffffffb,%eax
  1027cd:	89 c2                	mov    %eax,%edx
  1027cf:	8b 45 f4             	mov    -0xc(%ebp),%eax
  1027d2:	89 10                	mov    %edx,(%eax)
/u/a/b/abhijith/CS537/p3a/xv6-sp20/kernel/ide.c:111
  1027d4:	83 ec 0c             	sub    $0xc,%esp
  1027d7:	ff 75 f4             	pushl  -0xc(%ebp)
  1027da:	e8 f9 1d 00 00       	call   1045d8 <wakeup>
  1027df:	83 c4 10             	add    $0x10,%esp
/u/a/b/abhijith/CS537/p3a/xv6-sp20/kernel/ide.c:114
  1027e2:	a1 54 ab 10 00       	mov    0x10ab54,%eax
  1027e7:	85 c0                	test   %eax,%eax
  1027e9:	74 11                	je     1027fc <ideintr+0xc3>
/u/a/b/abhijith/CS537/p3a/xv6-sp20/kernel/ide.c:115
  1027eb:	a1 54 ab 10 00       	mov    0x10ab54,%eax
  1027f0:	83 ec 0c             	sub    $0xc,%esp
  1027f3:	50                   	push   %eax
  1027f4:	e8 1e fe ff ff       	call   102617 <idestart>
  1027f9:	83 c4 10             	add    $0x10,%esp
/u/a/b/abhijith/CS537/p3a/xv6-sp20/kernel/ide.c:117
  1027fc:	83 ec 0c             	sub    $0xc,%esp
  1027ff:	68 20 ab 10 00       	push   $0x10ab20
  102804:	e8 44 20 00 00       	call   10484d <release>
  102809:	83 c4 10             	add    $0x10,%esp
/u/a/b/abhijith/CS537/p3a/xv6-sp20/kernel/ide.c:118
  10280c:	c9                   	leave  
  10280d:	c3                   	ret    

0010280e <iderw>:
iderw():
/u/a/b/abhijith/CS537/p3a/xv6-sp20/kernel/ide.c:125
  10280e:	55                   	push   %ebp
  10280f:	89 e5                	mov    %esp,%ebp
  102811:	83 ec 18             	sub    $0x18,%esp
/u/a/b/abhijith/CS537/p3a/xv6-sp20/kernel/ide.c:128
  102814:	8b 45 08             	mov    0x8(%ebp),%eax
  102817:	8b 00                	mov    (%eax),%eax
  102819:	83 e0 01             	and    $0x1,%eax
  10281c:	85 c0                	test   %eax,%eax
  10281e:	75 0d                	jne    10282d <iderw+0x1f>
/u/a/b/abhijith/CS537/p3a/xv6-sp20/kernel/ide.c:129
  102820:	83 ec 0c             	sub    $0xc,%esp
  102823:	68 00 7f 10 00       	push   $0x107f00
  102828:	e8 4b dd ff ff       	call   100578 <panic>
/u/a/b/abhijith/CS537/p3a/xv6-sp20/kernel/ide.c:130
  10282d:	8b 45 08             	mov    0x8(%ebp),%eax
  102830:	8b 00                	mov    (%eax),%eax
  102832:	83 e0 06             	and    $0x6,%eax
  102835:	83 f8 02             	cmp    $0x2,%eax
  102838:	75 0d                	jne    102847 <iderw+0x39>
/u/a/b/abhijith/CS537/p3a/xv6-sp20/kernel/ide.c:131
  10283a:	83 ec 0c             	sub    $0xc,%esp
  10283d:	68 14 7f 10 00       	push   $0x107f14
  102842:	e8 31 dd ff ff       	call   100578 <panic>
/u/a/b/abhijith/CS537/p3a/xv6-sp20/kernel/ide.c:132
  102847:	8b 45 08             	mov    0x8(%ebp),%eax
  10284a:	8b 40 04             	mov    0x4(%eax),%eax
  10284d:	85 c0                	test   %eax,%eax
  10284f:	74 16                	je     102867 <iderw+0x59>
/u/a/b/abhijith/CS537/p3a/xv6-sp20/kernel/ide.c:132 (discriminator 1)
  102851:	a1 58 ab 10 00       	mov    0x10ab58,%eax
  102856:	85 c0                	test   %eax,%eax
  102858:	75 0d                	jne    102867 <iderw+0x59>
/u/a/b/abhijith/CS537/p3a/xv6-sp20/kernel/ide.c:133
  10285a:	83 ec 0c             	sub    $0xc,%esp
  10285d:	68 29 7f 10 00       	push   $0x107f29
  102862:	e8 11 dd ff ff       	call   100578 <panic>
/u/a/b/abhijith/CS537/p3a/xv6-sp20/kernel/ide.c:135
  102867:	83 ec 0c             	sub    $0xc,%esp
  10286a:	68 20 ab 10 00       	push   $0x10ab20
  10286f:	e8 72 1f 00 00       	call   1047e6 <acquire>
  102874:	83 c4 10             	add    $0x10,%esp
/u/a/b/abhijith/CS537/p3a/xv6-sp20/kernel/ide.c:138
  102877:	8b 45 08             	mov    0x8(%ebp),%eax
  10287a:	c7 40 14 00 00 00 00 	movl   $0x0,0x14(%eax)
/u/a/b/abhijith/CS537/p3a/xv6-sp20/kernel/ide.c:139
  102881:	c7 45 f4 54 ab 10 00 	movl   $0x10ab54,-0xc(%ebp)
  102888:	eb 0b                	jmp    102895 <iderw+0x87>
/u/a/b/abhijith/CS537/p3a/xv6-sp20/kernel/ide.c:139 (discriminator 3)
  10288a:	8b 45 f4             	mov    -0xc(%ebp),%eax
  10288d:	8b 00                	mov    (%eax),%eax
  10288f:	83 c0 14             	add    $0x14,%eax
  102892:	89 45 f4             	mov    %eax,-0xc(%ebp)
/u/a/b/abhijith/CS537/p3a/xv6-sp20/kernel/ide.c:139 (discriminator 1)
  102895:	8b 45 f4             	mov    -0xc(%ebp),%eax
  102898:	8b 00                	mov    (%eax),%eax
  10289a:	85 c0                	test   %eax,%eax
  10289c:	75 ec                	jne    10288a <iderw+0x7c>
/u/a/b/abhijith/CS537/p3a/xv6-sp20/kernel/ide.c:141
  10289e:	8b 45 f4             	mov    -0xc(%ebp),%eax
  1028a1:	8b 55 08             	mov    0x8(%ebp),%edx
  1028a4:	89 10                	mov    %edx,(%eax)
/u/a/b/abhijith/CS537/p3a/xv6-sp20/kernel/ide.c:144
  1028a6:	a1 54 ab 10 00       	mov    0x10ab54,%eax
  1028ab:	39 45 08             	cmp    %eax,0x8(%ebp)
  1028ae:	75 23                	jne    1028d3 <iderw+0xc5>
/u/a/b/abhijith/CS537/p3a/xv6-sp20/kernel/ide.c:145
  1028b0:	83 ec 0c             	sub    $0xc,%esp
  1028b3:	ff 75 08             	pushl  0x8(%ebp)
  1028b6:	e8 5c fd ff ff       	call   102617 <idestart>
  1028bb:	83 c4 10             	add    $0x10,%esp
/u/a/b/abhijith/CS537/p3a/xv6-sp20/kernel/ide.c:149
  1028be:	eb 13                	jmp    1028d3 <iderw+0xc5>
/u/a/b/abhijith/CS537/p3a/xv6-sp20/kernel/ide.c:150
  1028c0:	83 ec 08             	sub    $0x8,%esp
  1028c3:	68 20 ab 10 00       	push   $0x10ab20
  1028c8:	ff 75 08             	pushl  0x8(%ebp)
  1028cb:	e8 1d 1c 00 00       	call   1044ed <sleep>
  1028d0:	83 c4 10             	add    $0x10,%esp
/u/a/b/abhijith/CS537/p3a/xv6-sp20/kernel/ide.c:149
  1028d3:	8b 45 08             	mov    0x8(%ebp),%eax
  1028d6:	8b 00                	mov    (%eax),%eax
  1028d8:	83 e0 06             	and    $0x6,%eax
  1028db:	83 f8 02             	cmp    $0x2,%eax
  1028de:	75 e0                	jne    1028c0 <iderw+0xb2>
/u/a/b/abhijith/CS537/p3a/xv6-sp20/kernel/ide.c:153
  1028e0:	83 ec 0c             	sub    $0xc,%esp
  1028e3:	68 20 ab 10 00       	push   $0x10ab20
  1028e8:	e8 60 1f 00 00       	call   10484d <release>
  1028ed:	83 c4 10             	add    $0x10,%esp
/u/a/b/abhijith/CS537/p3a/xv6-sp20/kernel/ide.c:154
  1028f0:	90                   	nop
  1028f1:	c9                   	leave  
  1028f2:	c3                   	ret    

001028f3 <ioapicread>:
ioapicread():
/u/a/b/abhijith/CS537/p3a/xv6-sp20/kernel/ioapic.c:36
  1028f3:	55                   	push   %ebp
  1028f4:	89 e5                	mov    %esp,%ebp
/u/a/b/abhijith/CS537/p3a/xv6-sp20/kernel/ioapic.c:37
  1028f6:	a1 54 fd 10 00       	mov    0x10fd54,%eax
  1028fb:	8b 55 08             	mov    0x8(%ebp),%edx
  1028fe:	89 10                	mov    %edx,(%eax)
/u/a/b/abhijith/CS537/p3a/xv6-sp20/kernel/ioapic.c:38
  102900:	a1 54 fd 10 00       	mov    0x10fd54,%eax
  102905:	8b 40 10             	mov    0x10(%eax),%eax
/u/a/b/abhijith/CS537/p3a/xv6-sp20/kernel/ioapic.c:39
  102908:	5d                   	pop    %ebp
  102909:	c3                   	ret    

0010290a <ioapicwrite>:
ioapicwrite():
/u/a/b/abhijith/CS537/p3a/xv6-sp20/kernel/ioapic.c:43
  10290a:	55                   	push   %ebp
  10290b:	89 e5                	mov    %esp,%ebp
/u/a/b/abhijith/CS537/p3a/xv6-sp20/kernel/ioapic.c:44
  10290d:	a1 54 fd 10 00       	mov    0x10fd54,%eax
  102912:	8b 55 08             	mov    0x8(%ebp),%edx
  102915:	89 10                	mov    %edx,(%eax)
/u/a/b/abhijith/CS537/p3a/xv6-sp20/kernel/ioapic.c:45
  102917:	a1 54 fd 10 00       	mov    0x10fd54,%eax
  10291c:	8b 55 0c             	mov    0xc(%ebp),%edx
  10291f:	89 50 10             	mov    %edx,0x10(%eax)
/u/a/b/abhijith/CS537/p3a/xv6-sp20/kernel/ioapic.c:46
  102922:	90                   	nop
  102923:	5d                   	pop    %ebp
  102924:	c3                   	ret    

00102925 <ioapicinit>:
ioapicinit():
/u/a/b/abhijith/CS537/p3a/xv6-sp20/kernel/ioapic.c:50
  102925:	55                   	push   %ebp
  102926:	89 e5                	mov    %esp,%ebp
  102928:	83 ec 18             	sub    $0x18,%esp
/u/a/b/abhijith/CS537/p3a/xv6-sp20/kernel/ioapic.c:53
  10292b:	a1 a4 fd 10 00       	mov    0x10fda4,%eax
  102930:	85 c0                	test   %eax,%eax
  102932:	0f 84 a0 00 00 00    	je     1029d8 <ioapicinit+0xb3>
/u/a/b/abhijith/CS537/p3a/xv6-sp20/kernel/ioapic.c:56
  102938:	c7 05 54 fd 10 00 00 	movl   $0xfec00000,0x10fd54
  10293f:	00 c0 fe 
/u/a/b/abhijith/CS537/p3a/xv6-sp20/kernel/ioapic.c:57
  102942:	6a 01                	push   $0x1
  102944:	e8 aa ff ff ff       	call   1028f3 <ioapicread>
  102949:	83 c4 04             	add    $0x4,%esp
  10294c:	c1 e8 10             	shr    $0x10,%eax
  10294f:	25 ff 00 00 00       	and    $0xff,%eax
  102954:	89 45 f0             	mov    %eax,-0x10(%ebp)
/u/a/b/abhijith/CS537/p3a/xv6-sp20/kernel/ioapic.c:58
  102957:	6a 00                	push   $0x0
  102959:	e8 95 ff ff ff       	call   1028f3 <ioapicread>
  10295e:	83 c4 04             	add    $0x4,%esp
  102961:	c1 e8 18             	shr    $0x18,%eax
  102964:	89 45 ec             	mov    %eax,-0x14(%ebp)
/u/a/b/abhijith/CS537/p3a/xv6-sp20/kernel/ioapic.c:59
  102967:	0f b6 05 a0 fd 10 00 	movzbl 0x10fda0,%eax
  10296e:	0f b6 c0             	movzbl %al,%eax
  102971:	39 45 ec             	cmp    %eax,-0x14(%ebp)
  102974:	74 10                	je     102986 <ioapicinit+0x61>
/u/a/b/abhijith/CS537/p3a/xv6-sp20/kernel/ioapic.c:60
  102976:	83 ec 0c             	sub    $0xc,%esp
  102979:	68 48 7f 10 00       	push   $0x107f48
  10297e:	e8 69 da ff ff       	call   1003ec <cprintf>
  102983:	83 c4 10             	add    $0x10,%esp
/u/a/b/abhijith/CS537/p3a/xv6-sp20/kernel/ioapic.c:64
  102986:	c7 45 f4 00 00 00 00 	movl   $0x0,-0xc(%ebp)
  10298d:	eb 3f                	jmp    1029ce <ioapicinit+0xa9>
/u/a/b/abhijith/CS537/p3a/xv6-sp20/kernel/ioapic.c:65 (discriminator 3)
  10298f:	8b 45 f4             	mov    -0xc(%ebp),%eax
  102992:	83 c0 20             	add    $0x20,%eax
  102995:	0d 00 00 01 00       	or     $0x10000,%eax
  10299a:	89 c2                	mov    %eax,%edx
  10299c:	8b 45 f4             	mov    -0xc(%ebp),%eax
  10299f:	83 c0 08             	add    $0x8,%eax
  1029a2:	01 c0                	add    %eax,%eax
  1029a4:	83 ec 08             	sub    $0x8,%esp
  1029a7:	52                   	push   %edx
  1029a8:	50                   	push   %eax
  1029a9:	e8 5c ff ff ff       	call   10290a <ioapicwrite>
  1029ae:	83 c4 10             	add    $0x10,%esp
/u/a/b/abhijith/CS537/p3a/xv6-sp20/kernel/ioapic.c:66 (discriminator 3)
  1029b1:	8b 45 f4             	mov    -0xc(%ebp),%eax
  1029b4:	83 c0 08             	add    $0x8,%eax
  1029b7:	01 c0                	add    %eax,%eax
  1029b9:	83 c0 01             	add    $0x1,%eax
  1029bc:	83 ec 08             	sub    $0x8,%esp
  1029bf:	6a 00                	push   $0x0
  1029c1:	50                   	push   %eax
  1029c2:	e8 43 ff ff ff       	call   10290a <ioapicwrite>
  1029c7:	83 c4 10             	add    $0x10,%esp
/u/a/b/abhijith/CS537/p3a/xv6-sp20/kernel/ioapic.c:64 (discriminator 3)
  1029ca:	83 45 f4 01          	addl   $0x1,-0xc(%ebp)
/u/a/b/abhijith/CS537/p3a/xv6-sp20/kernel/ioapic.c:64 (discriminator 1)
  1029ce:	8b 45 f4             	mov    -0xc(%ebp),%eax
  1029d1:	3b 45 f0             	cmp    -0x10(%ebp),%eax
  1029d4:	7e b9                	jle    10298f <ioapicinit+0x6a>
  1029d6:	eb 01                	jmp    1029d9 <ioapicinit+0xb4>
/u/a/b/abhijith/CS537/p3a/xv6-sp20/kernel/ioapic.c:54
  1029d8:	90                   	nop
/u/a/b/abhijith/CS537/p3a/xv6-sp20/kernel/ioapic.c:68
  1029d9:	c9                   	leave  
  1029da:	c3                   	ret    

001029db <ioapicenable>:
ioapicenable():
/u/a/b/abhijith/CS537/p3a/xv6-sp20/kernel/ioapic.c:72
  1029db:	55                   	push   %ebp
  1029dc:	89 e5                	mov    %esp,%ebp
/u/a/b/abhijith/CS537/p3a/xv6-sp20/kernel/ioapic.c:73
  1029de:	a1 a4 fd 10 00       	mov    0x10fda4,%eax
  1029e3:	85 c0                	test   %eax,%eax
  1029e5:	74 39                	je     102a20 <ioapicenable+0x45>
/u/a/b/abhijith/CS537/p3a/xv6-sp20/kernel/ioapic.c:79
  1029e7:	8b 45 08             	mov    0x8(%ebp),%eax
  1029ea:	83 c0 20             	add    $0x20,%eax
  1029ed:	89 c2                	mov    %eax,%edx
  1029ef:	8b 45 08             	mov    0x8(%ebp),%eax
  1029f2:	83 c0 08             	add    $0x8,%eax
  1029f5:	01 c0                	add    %eax,%eax
  1029f7:	52                   	push   %edx
  1029f8:	50                   	push   %eax
  1029f9:	e8 0c ff ff ff       	call   10290a <ioapicwrite>
  1029fe:	83 c4 08             	add    $0x8,%esp
/u/a/b/abhijith/CS537/p3a/xv6-sp20/kernel/ioapic.c:80
  102a01:	8b 45 0c             	mov    0xc(%ebp),%eax
  102a04:	c1 e0 18             	shl    $0x18,%eax
  102a07:	89 c2                	mov    %eax,%edx
  102a09:	8b 45 08             	mov    0x8(%ebp),%eax
  102a0c:	83 c0 08             	add    $0x8,%eax
  102a0f:	01 c0                	add    %eax,%eax
  102a11:	83 c0 01             	add    $0x1,%eax
  102a14:	52                   	push   %edx
  102a15:	50                   	push   %eax
  102a16:	e8 ef fe ff ff       	call   10290a <ioapicwrite>
  102a1b:	83 c4 08             	add    $0x8,%esp
  102a1e:	eb 01                	jmp    102a21 <ioapicenable+0x46>
/u/a/b/abhijith/CS537/p3a/xv6-sp20/kernel/ioapic.c:74
  102a20:	90                   	nop
/u/a/b/abhijith/CS537/p3a/xv6-sp20/kernel/ioapic.c:81
  102a21:	c9                   	leave  
  102a22:	c3                   	ret    

00102a23 <kinit>:
kinit():
/u/a/b/abhijith/CS537/p3a/xv6-sp20/kernel/kalloc.c:28
  102a23:	55                   	push   %ebp
  102a24:	89 e5                	mov    %esp,%ebp
  102a26:	83 ec 18             	sub    $0x18,%esp
/u/a/b/abhijith/CS537/p3a/xv6-sp20/kernel/kalloc.c:31
  102a29:	c7 05 60 bb 10 00 00 	movl   $0x0,0x10bb60
  102a30:	00 00 00 
/u/a/b/abhijith/CS537/p3a/xv6-sp20/kernel/kalloc.c:33
  102a33:	83 ec 08             	sub    $0x8,%esp
  102a36:	68 7c 7f 10 00       	push   $0x107f7c
  102a3b:	68 60 fd 10 00       	push   $0x10fd60
  102a40:	e8 7f 1d 00 00       	call   1047c4 <initlock>
  102a45:	83 c4 10             	add    $0x10,%esp
/u/a/b/abhijith/CS537/p3a/xv6-sp20/kernel/kalloc.c:34
  102a48:	b8 44 2b 11 00       	mov    $0x112b44,%eax
  102a4d:	05 ff 0f 00 00       	add    $0xfff,%eax
  102a52:	25 00 f0 ff ff       	and    $0xfffff000,%eax
  102a57:	89 45 f4             	mov    %eax,-0xc(%ebp)
/u/a/b/abhijith/CS537/p3a/xv6-sp20/kernel/kalloc.c:35
  102a5a:	eb 15                	jmp    102a71 <kinit+0x4e>
/u/a/b/abhijith/CS537/p3a/xv6-sp20/kernel/kalloc.c:36 (discriminator 2)
  102a5c:	83 ec 0c             	sub    $0xc,%esp
  102a5f:	ff 75 f4             	pushl  -0xc(%ebp)
  102a62:	e8 1c 00 00 00       	call   102a83 <kfree>
  102a67:	83 c4 10             	add    $0x10,%esp
/u/a/b/abhijith/CS537/p3a/xv6-sp20/kernel/kalloc.c:35 (discriminator 2)
  102a6a:	81 45 f4 00 20 00 00 	addl   $0x2000,-0xc(%ebp)
/u/a/b/abhijith/CS537/p3a/xv6-sp20/kernel/kalloc.c:35 (discriminator 1)
  102a71:	8b 45 f4             	mov    -0xc(%ebp),%eax
  102a74:	05 00 20 00 00       	add    $0x2000,%eax
  102a79:	3d 00 00 00 01       	cmp    $0x1000000,%eax
  102a7e:	76 dc                	jbe    102a5c <kinit+0x39>
/u/a/b/abhijith/CS537/p3a/xv6-sp20/kernel/kalloc.c:37
  102a80:	90                   	nop
  102a81:	c9                   	leave  
  102a82:	c3                   	ret    

00102a83 <kfree>:
kfree():
/u/a/b/abhijith/CS537/p3a/xv6-sp20/kernel/kalloc.c:45
  102a83:	55                   	push   %ebp
  102a84:	89 e5                	mov    %esp,%ebp
  102a86:	83 ec 18             	sub    $0x18,%esp
/u/a/b/abhijith/CS537/p3a/xv6-sp20/kernel/kalloc.c:48
  102a89:	8b 45 08             	mov    0x8(%ebp),%eax
  102a8c:	25 ff 0f 00 00       	and    $0xfff,%eax
  102a91:	85 c0                	test   %eax,%eax
  102a93:	75 13                	jne    102aa8 <kfree+0x25>
/u/a/b/abhijith/CS537/p3a/xv6-sp20/kernel/kalloc.c:48 (discriminator 1)
  102a95:	81 7d 08 44 2b 11 00 	cmpl   $0x112b44,0x8(%ebp)
  102a9c:	72 0a                	jb     102aa8 <kfree+0x25>
/u/a/b/abhijith/CS537/p3a/xv6-sp20/kernel/kalloc.c:48 (discriminator 2)
  102a9e:	8b 45 08             	mov    0x8(%ebp),%eax
  102aa1:	3d ff ff ff 00       	cmp    $0xffffff,%eax
  102aa6:	76 0d                	jbe    102ab5 <kfree+0x32>
/u/a/b/abhijith/CS537/p3a/xv6-sp20/kernel/kalloc.c:49
  102aa8:	83 ec 0c             	sub    $0xc,%esp
  102aab:	68 81 7f 10 00       	push   $0x107f81
  102ab0:	e8 c3 da ff ff       	call   100578 <panic>
/u/a/b/abhijith/CS537/p3a/xv6-sp20/kernel/kalloc.c:52
  102ab5:	83 ec 04             	sub    $0x4,%esp
  102ab8:	68 00 10 00 00       	push   $0x1000
  102abd:	6a 01                	push   $0x1
  102abf:	ff 75 08             	pushl  0x8(%ebp)
  102ac2:	e8 5c 1f 00 00       	call   104a23 <memset>
  102ac7:	83 c4 10             	add    $0x10,%esp
/u/a/b/abhijith/CS537/p3a/xv6-sp20/kernel/kalloc.c:54
  102aca:	83 ec 0c             	sub    $0xc,%esp
  102acd:	68 60 fd 10 00       	push   $0x10fd60
  102ad2:	e8 0f 1d 00 00       	call   1047e6 <acquire>
  102ad7:	83 c4 10             	add    $0x10,%esp
/u/a/b/abhijith/CS537/p3a/xv6-sp20/kernel/kalloc.c:56
  102ada:	8b 45 08             	mov    0x8(%ebp),%eax
  102add:	89 45 f4             	mov    %eax,-0xc(%ebp)
/u/a/b/abhijith/CS537/p3a/xv6-sp20/kernel/kalloc.c:57
  102ae0:	8b 15 94 fd 10 00    	mov    0x10fd94,%edx
  102ae6:	8b 45 f4             	mov    -0xc(%ebp),%eax
  102ae9:	89 10                	mov    %edx,(%eax)
/u/a/b/abhijith/CS537/p3a/xv6-sp20/kernel/kalloc.c:58
  102aeb:	8b 45 f4             	mov    -0xc(%ebp),%eax
  102aee:	a3 94 fd 10 00       	mov    %eax,0x10fd94
/u/a/b/abhijith/CS537/p3a/xv6-sp20/kernel/kalloc.c:60
  102af3:	8b 45 08             	mov    0x8(%ebp),%eax
  102af6:	05 00 10 00 00       	add    $0x1000,%eax
  102afb:	89 45 f4             	mov    %eax,-0xc(%ebp)
/u/a/b/abhijith/CS537/p3a/xv6-sp20/kernel/kalloc.c:61
  102afe:	8b 15 94 fd 10 00    	mov    0x10fd94,%edx
  102b04:	8b 45 f4             	mov    -0xc(%ebp),%eax
  102b07:	89 10                	mov    %edx,(%eax)
/u/a/b/abhijith/CS537/p3a/xv6-sp20/kernel/kalloc.c:62
  102b09:	8b 45 f4             	mov    -0xc(%ebp),%eax
  102b0c:	a3 94 fd 10 00       	mov    %eax,0x10fd94
/u/a/b/abhijith/CS537/p3a/xv6-sp20/kernel/kalloc.c:64
  102b11:	83 ec 0c             	sub    $0xc,%esp
  102b14:	68 60 fd 10 00       	push   $0x10fd60
  102b19:	e8 2f 1d 00 00       	call   10484d <release>
  102b1e:	83 c4 10             	add    $0x10,%esp
/u/a/b/abhijith/CS537/p3a/xv6-sp20/kernel/kalloc.c:65
  102b21:	90                   	nop
  102b22:	c9                   	leave  
  102b23:	c3                   	ret    

00102b24 <kalloc>:
kalloc():
/u/a/b/abhijith/CS537/p3a/xv6-sp20/kernel/kalloc.c:72
  102b24:	55                   	push   %ebp
  102b25:	89 e5                	mov    %esp,%ebp
  102b27:	83 ec 18             	sub    $0x18,%esp
/u/a/b/abhijith/CS537/p3a/xv6-sp20/kernel/kalloc.c:75
  102b2a:	83 ec 0c             	sub    $0xc,%esp
  102b2d:	68 60 fd 10 00       	push   $0x10fd60
  102b32:	e8 af 1c 00 00       	call   1047e6 <acquire>
  102b37:	83 c4 10             	add    $0x10,%esp
/u/a/b/abhijith/CS537/p3a/xv6-sp20/kernel/kalloc.c:76
  102b3a:	a1 94 fd 10 00       	mov    0x10fd94,%eax
  102b3f:	89 45 f0             	mov    %eax,-0x10(%ebp)
/u/a/b/abhijith/CS537/p3a/xv6-sp20/kernel/kalloc.c:77
  102b42:	83 7d f0 00          	cmpl   $0x0,-0x10(%ebp)
  102b46:	0f 84 80 00 00 00    	je     102bcc <kalloc+0xa8>
/u/a/b/abhijith/CS537/p3a/xv6-sp20/kernel/kalloc.c:80
  102b4c:	8b 45 f0             	mov    -0x10(%ebp),%eax
  102b4f:	8b 00                	mov    (%eax),%eax
  102b51:	a3 94 fd 10 00       	mov    %eax,0x10fd94
/u/a/b/abhijith/CS537/p3a/xv6-sp20/kernel/kalloc.c:81
  102b56:	a1 94 fd 10 00       	mov    0x10fd94,%eax
  102b5b:	89 45 f4             	mov    %eax,-0xc(%ebp)
/u/a/b/abhijith/CS537/p3a/xv6-sp20/kernel/kalloc.c:82
  102b5e:	83 7d f4 00          	cmpl   $0x0,-0xc(%ebp)
  102b62:	74 55                	je     102bb9 <kalloc+0x95>
/u/a/b/abhijith/CS537/p3a/xv6-sp20/kernel/kalloc.c:84
  102b64:	8b 45 f4             	mov    -0xc(%ebp),%eax
  102b67:	8b 00                	mov    (%eax),%eax
  102b69:	a3 94 fd 10 00       	mov    %eax,0x10fd94
/u/a/b/abhijith/CS537/p3a/xv6-sp20/kernel/kalloc.c:85
  102b6e:	a1 60 bb 10 00       	mov    0x10bb60,%eax
  102b73:	8d 50 01             	lea    0x1(%eax),%edx
  102b76:	89 15 60 bb 10 00    	mov    %edx,0x10bb60
  102b7c:	8b 55 f0             	mov    -0x10(%ebp),%edx
  102b7f:	89 14 85 60 ab 10 00 	mov    %edx,0x10ab60(,%eax,4)
/u/a/b/abhijith/CS537/p3a/xv6-sp20/kernel/kalloc.c:86
  102b86:	a1 60 bb 10 00       	mov    0x10bb60,%eax
  102b8b:	8d 50 01             	lea    0x1(%eax),%edx
  102b8e:	89 15 60 bb 10 00    	mov    %edx,0x10bb60
  102b94:	8b 55 f4             	mov    -0xc(%ebp),%edx
  102b97:	89 14 85 60 ab 10 00 	mov    %edx,0x10ab60(,%eax,4)
/u/a/b/abhijith/CS537/p3a/xv6-sp20/kernel/kalloc.c:88
  102b9e:	a1 60 bb 10 00       	mov    0x10bb60,%eax
  102ba3:	50                   	push   %eax
  102ba4:	ff 75 f4             	pushl  -0xc(%ebp)
  102ba7:	ff 75 f0             	pushl  -0x10(%ebp)
  102baa:	68 88 7f 10 00       	push   $0x107f88
  102baf:	e8 38 d8 ff ff       	call   1003ec <cprintf>
  102bb4:	83 c4 10             	add    $0x10,%esp
  102bb7:	eb 13                	jmp    102bcc <kalloc+0xa8>
/u/a/b/abhijith/CS537/p3a/xv6-sp20/kernel/kalloc.c:92
  102bb9:	83 ec 0c             	sub    $0xc,%esp
  102bbc:	ff 75 f0             	pushl  -0x10(%ebp)
  102bbf:	e8 bf fe ff ff       	call   102a83 <kfree>
  102bc4:	83 c4 10             	add    $0x10,%esp
/u/a/b/abhijith/CS537/p3a/xv6-sp20/kernel/kalloc.c:93
  102bc7:	8b 45 f4             	mov    -0xc(%ebp),%eax
  102bca:	eb 13                	jmp    102bdf <kalloc+0xbb>
/u/a/b/abhijith/CS537/p3a/xv6-sp20/kernel/kalloc.c:96
  102bcc:	83 ec 0c             	sub    $0xc,%esp
  102bcf:	68 60 fd 10 00       	push   $0x10fd60
  102bd4:	e8 74 1c 00 00       	call   10484d <release>
  102bd9:	83 c4 10             	add    $0x10,%esp
/u/a/b/abhijith/CS537/p3a/xv6-sp20/kernel/kalloc.c:97
  102bdc:	8b 45 f4             	mov    -0xc(%ebp),%eax
/u/a/b/abhijith/CS537/p3a/xv6-sp20/kernel/kalloc.c:98
  102bdf:	c9                   	leave  
  102be0:	c3                   	ret    

00102be1 <kalloc_dump_allocated>:
kalloc_dump_allocated():
/u/a/b/abhijith/CS537/p3a/xv6-sp20/kernel/kalloc.c:101
  102be1:	55                   	push   %ebp
  102be2:	89 e5                	mov    %esp,%ebp
/u/a/b/abhijith/CS537/p3a/xv6-sp20/kernel/kalloc.c:102
  102be4:	b8 01 00 00 00       	mov    $0x1,%eax
/u/a/b/abhijith/CS537/p3a/xv6-sp20/kernel/kalloc.c:103
  102be9:	5d                   	pop    %ebp
  102bea:	c3                   	ret    

00102beb <inb>:
inb():
/u/a/b/abhijith/CS537/p3a/xv6-sp20/include/x86.h:7
  102beb:	55                   	push   %ebp
  102bec:	89 e5                	mov    %esp,%ebp
  102bee:	83 ec 14             	sub    $0x14,%esp
  102bf1:	8b 45 08             	mov    0x8(%ebp),%eax
  102bf4:	66 89 45 ec          	mov    %ax,-0x14(%ebp)
/u/a/b/abhijith/CS537/p3a/xv6-sp20/include/x86.h:10
  102bf8:	0f b7 45 ec          	movzwl -0x14(%ebp),%eax
  102bfc:	89 c2                	mov    %eax,%edx
  102bfe:	ec                   	in     (%dx),%al
  102bff:	88 45 ff             	mov    %al,-0x1(%ebp)
/u/a/b/abhijith/CS537/p3a/xv6-sp20/include/x86.h:11
  102c02:	0f b6 45 ff          	movzbl -0x1(%ebp),%eax
/u/a/b/abhijith/CS537/p3a/xv6-sp20/include/x86.h:12
  102c06:	c9                   	leave  
  102c07:	c3                   	ret    

00102c08 <kbdgetc>:
kbdgetc():
/u/a/b/abhijith/CS537/p3a/xv6-sp20/kernel/kbd.c:8
  102c08:	55                   	push   %ebp
  102c09:	89 e5                	mov    %esp,%ebp
  102c0b:	83 ec 10             	sub    $0x10,%esp
/u/a/b/abhijith/CS537/p3a/xv6-sp20/kernel/kbd.c:15
  102c0e:	6a 64                	push   $0x64
  102c10:	e8 d6 ff ff ff       	call   102beb <inb>
  102c15:	83 c4 04             	add    $0x4,%esp
  102c18:	0f b6 c0             	movzbl %al,%eax
  102c1b:	89 45 f4             	mov    %eax,-0xc(%ebp)
/u/a/b/abhijith/CS537/p3a/xv6-sp20/kernel/kbd.c:16
  102c1e:	8b 45 f4             	mov    -0xc(%ebp),%eax
  102c21:	83 e0 01             	and    $0x1,%eax
  102c24:	85 c0                	test   %eax,%eax
  102c26:	75 0a                	jne    102c32 <kbdgetc+0x2a>
/u/a/b/abhijith/CS537/p3a/xv6-sp20/kernel/kbd.c:17
  102c28:	b8 ff ff ff ff       	mov    $0xffffffff,%eax
  102c2d:	e9 23 01 00 00       	jmp    102d55 <kbdgetc+0x14d>
/u/a/b/abhijith/CS537/p3a/xv6-sp20/kernel/kbd.c:18
  102c32:	6a 60                	push   $0x60
  102c34:	e8 b2 ff ff ff       	call   102beb <inb>
  102c39:	83 c4 04             	add    $0x4,%esp
  102c3c:	0f b6 c0             	movzbl %al,%eax
  102c3f:	89 45 fc             	mov    %eax,-0x4(%ebp)
/u/a/b/abhijith/CS537/p3a/xv6-sp20/kernel/kbd.c:20
  102c42:	81 7d fc e0 00 00 00 	cmpl   $0xe0,-0x4(%ebp)
  102c49:	75 17                	jne    102c62 <kbdgetc+0x5a>
/u/a/b/abhijith/CS537/p3a/xv6-sp20/kernel/kbd.c:21
  102c4b:	a1 64 bb 10 00       	mov    0x10bb64,%eax
  102c50:	83 c8 40             	or     $0x40,%eax
  102c53:	a3 64 bb 10 00       	mov    %eax,0x10bb64
/u/a/b/abhijith/CS537/p3a/xv6-sp20/kernel/kbd.c:22
  102c58:	b8 00 00 00 00       	mov    $0x0,%eax
  102c5d:	e9 f3 00 00 00       	jmp    102d55 <kbdgetc+0x14d>
/u/a/b/abhijith/CS537/p3a/xv6-sp20/kernel/kbd.c:23
  102c62:	8b 45 fc             	mov    -0x4(%ebp),%eax
  102c65:	25 80 00 00 00       	and    $0x80,%eax
  102c6a:	85 c0                	test   %eax,%eax
  102c6c:	74 45                	je     102cb3 <kbdgetc+0xab>
/u/a/b/abhijith/CS537/p3a/xv6-sp20/kernel/kbd.c:25
  102c6e:	a1 64 bb 10 00       	mov    0x10bb64,%eax
  102c73:	83 e0 40             	and    $0x40,%eax
  102c76:	85 c0                	test   %eax,%eax
  102c78:	75 08                	jne    102c82 <kbdgetc+0x7a>
/u/a/b/abhijith/CS537/p3a/xv6-sp20/kernel/kbd.c:25 (discriminator 1)
  102c7a:	8b 45 fc             	mov    -0x4(%ebp),%eax
  102c7d:	83 e0 7f             	and    $0x7f,%eax
  102c80:	eb 03                	jmp    102c85 <kbdgetc+0x7d>
/u/a/b/abhijith/CS537/p3a/xv6-sp20/kernel/kbd.c:25 (discriminator 2)
  102c82:	8b 45 fc             	mov    -0x4(%ebp),%eax
/u/a/b/abhijith/CS537/p3a/xv6-sp20/kernel/kbd.c:25 (discriminator 4)
  102c85:	89 45 fc             	mov    %eax,-0x4(%ebp)
/u/a/b/abhijith/CS537/p3a/xv6-sp20/kernel/kbd.c:26 (discriminator 4)
  102c88:	8b 45 fc             	mov    -0x4(%ebp),%eax
  102c8b:	05 20 a0 10 00       	add    $0x10a020,%eax
  102c90:	0f b6 00             	movzbl (%eax),%eax
  102c93:	83 c8 40             	or     $0x40,%eax
  102c96:	0f b6 c0             	movzbl %al,%eax
  102c99:	f7 d0                	not    %eax
  102c9b:	89 c2                	mov    %eax,%edx
  102c9d:	a1 64 bb 10 00       	mov    0x10bb64,%eax
  102ca2:	21 d0                	and    %edx,%eax
  102ca4:	a3 64 bb 10 00       	mov    %eax,0x10bb64
/u/a/b/abhijith/CS537/p3a/xv6-sp20/kernel/kbd.c:27 (discriminator 4)
  102ca9:	b8 00 00 00 00       	mov    $0x0,%eax
  102cae:	e9 a2 00 00 00       	jmp    102d55 <kbdgetc+0x14d>
/u/a/b/abhijith/CS537/p3a/xv6-sp20/kernel/kbd.c:28
  102cb3:	a1 64 bb 10 00       	mov    0x10bb64,%eax
  102cb8:	83 e0 40             	and    $0x40,%eax
  102cbb:	85 c0                	test   %eax,%eax
  102cbd:	74 14                	je     102cd3 <kbdgetc+0xcb>
/u/a/b/abhijith/CS537/p3a/xv6-sp20/kernel/kbd.c:30
  102cbf:	81 4d fc 80 00 00 00 	orl    $0x80,-0x4(%ebp)
/u/a/b/abhijith/CS537/p3a/xv6-sp20/kernel/kbd.c:31
  102cc6:	a1 64 bb 10 00       	mov    0x10bb64,%eax
  102ccb:	83 e0 bf             	and    $0xffffffbf,%eax
  102cce:	a3 64 bb 10 00       	mov    %eax,0x10bb64
/u/a/b/abhijith/CS537/p3a/xv6-sp20/kernel/kbd.c:34
  102cd3:	8b 45 fc             	mov    -0x4(%ebp),%eax
  102cd6:	05 20 a0 10 00       	add    $0x10a020,%eax
  102cdb:	0f b6 00             	movzbl (%eax),%eax
  102cde:	0f b6 d0             	movzbl %al,%edx
  102ce1:	a1 64 bb 10 00       	mov    0x10bb64,%eax
  102ce6:	09 d0                	or     %edx,%eax
  102ce8:	a3 64 bb 10 00       	mov    %eax,0x10bb64
/u/a/b/abhijith/CS537/p3a/xv6-sp20/kernel/kbd.c:35
  102ced:	8b 45 fc             	mov    -0x4(%ebp),%eax
  102cf0:	05 20 a1 10 00       	add    $0x10a120,%eax
  102cf5:	0f b6 00             	movzbl (%eax),%eax
  102cf8:	0f b6 d0             	movzbl %al,%edx
  102cfb:	a1 64 bb 10 00       	mov    0x10bb64,%eax
  102d00:	31 d0                	xor    %edx,%eax
  102d02:	a3 64 bb 10 00       	mov    %eax,0x10bb64
/u/a/b/abhijith/CS537/p3a/xv6-sp20/kernel/kbd.c:36
  102d07:	a1 64 bb 10 00       	mov    0x10bb64,%eax
  102d0c:	83 e0 03             	and    $0x3,%eax
  102d0f:	8b 14 85 20 a5 10 00 	mov    0x10a520(,%eax,4),%edx
  102d16:	8b 45 fc             	mov    -0x4(%ebp),%eax
  102d19:	01 d0                	add    %edx,%eax
  102d1b:	0f b6 00             	movzbl (%eax),%eax
  102d1e:	0f b6 c0             	movzbl %al,%eax
  102d21:	89 45 f8             	mov    %eax,-0x8(%ebp)
/u/a/b/abhijith/CS537/p3a/xv6-sp20/kernel/kbd.c:37
  102d24:	a1 64 bb 10 00       	mov    0x10bb64,%eax
  102d29:	83 e0 08             	and    $0x8,%eax
  102d2c:	85 c0                	test   %eax,%eax
  102d2e:	74 22                	je     102d52 <kbdgetc+0x14a>
/u/a/b/abhijith/CS537/p3a/xv6-sp20/kernel/kbd.c:38
  102d30:	83 7d f8 60          	cmpl   $0x60,-0x8(%ebp)
  102d34:	76 0c                	jbe    102d42 <kbdgetc+0x13a>
/u/a/b/abhijith/CS537/p3a/xv6-sp20/kernel/kbd.c:38 (discriminator 1)
  102d36:	83 7d f8 7a          	cmpl   $0x7a,-0x8(%ebp)
  102d3a:	77 06                	ja     102d42 <kbdgetc+0x13a>
/u/a/b/abhijith/CS537/p3a/xv6-sp20/kernel/kbd.c:39
  102d3c:	83 6d f8 20          	subl   $0x20,-0x8(%ebp)
  102d40:	eb 10                	jmp    102d52 <kbdgetc+0x14a>
/u/a/b/abhijith/CS537/p3a/xv6-sp20/kernel/kbd.c:40
  102d42:	83 7d f8 40          	cmpl   $0x40,-0x8(%ebp)
  102d46:	76 0a                	jbe    102d52 <kbdgetc+0x14a>
/u/a/b/abhijith/CS537/p3a/xv6-sp20/kernel/kbd.c:40 (discriminator 1)
  102d48:	83 7d f8 5a          	cmpl   $0x5a,-0x8(%ebp)
  102d4c:	77 04                	ja     102d52 <kbdgetc+0x14a>
/u/a/b/abhijith/CS537/p3a/xv6-sp20/kernel/kbd.c:41
  102d4e:	83 45 f8 20          	addl   $0x20,-0x8(%ebp)
/u/a/b/abhijith/CS537/p3a/xv6-sp20/kernel/kbd.c:43
  102d52:	8b 45 f8             	mov    -0x8(%ebp),%eax
/u/a/b/abhijith/CS537/p3a/xv6-sp20/kernel/kbd.c:44
  102d55:	c9                   	leave  
  102d56:	c3                   	ret    

00102d57 <kbdintr>:
kbdintr():
/u/a/b/abhijith/CS537/p3a/xv6-sp20/kernel/kbd.c:48
  102d57:	55                   	push   %ebp
  102d58:	89 e5                	mov    %esp,%ebp
  102d5a:	83 ec 08             	sub    $0x8,%esp
/u/a/b/abhijith/CS537/p3a/xv6-sp20/kernel/kbd.c:49
  102d5d:	83 ec 0c             	sub    $0xc,%esp
  102d60:	68 08 2c 10 00       	push   $0x102c08
  102d65:	e8 8d da ff ff       	call   1007f7 <consoleintr>
  102d6a:	83 c4 10             	add    $0x10,%esp
/u/a/b/abhijith/CS537/p3a/xv6-sp20/kernel/kbd.c:50
  102d6d:	90                   	nop
  102d6e:	c9                   	leave  
  102d6f:	c3                   	ret    

00102d70 <outb>:
outb():
/u/a/b/abhijith/CS537/p3a/xv6-sp20/include/x86.h:25
  102d70:	55                   	push   %ebp
  102d71:	89 e5                	mov    %esp,%ebp
  102d73:	83 ec 08             	sub    $0x8,%esp
  102d76:	8b 55 08             	mov    0x8(%ebp),%edx
  102d79:	8b 45 0c             	mov    0xc(%ebp),%eax
  102d7c:	66 89 55 fc          	mov    %dx,-0x4(%ebp)
  102d80:	88 45 f8             	mov    %al,-0x8(%ebp)
/u/a/b/abhijith/CS537/p3a/xv6-sp20/include/x86.h:26
  102d83:	0f b6 45 f8          	movzbl -0x8(%ebp),%eax
  102d87:	0f b7 55 fc          	movzwl -0x4(%ebp),%edx
  102d8b:	ee                   	out    %al,(%dx)
/u/a/b/abhijith/CS537/p3a/xv6-sp20/include/x86.h:27
  102d8c:	90                   	nop
  102d8d:	c9                   	leave  
  102d8e:	c3                   	ret    

00102d8f <readeflags>:
readeflags():
/u/a/b/abhijith/CS537/p3a/xv6-sp20/include/x86.h:89
  102d8f:	55                   	push   %ebp
  102d90:	89 e5                	mov    %esp,%ebp
  102d92:	83 ec 10             	sub    $0x10,%esp
/u/a/b/abhijith/CS537/p3a/xv6-sp20/include/x86.h:91
  102d95:	9c                   	pushf  
  102d96:	58                   	pop    %eax
  102d97:	89 45 fc             	mov    %eax,-0x4(%ebp)
/u/a/b/abhijith/CS537/p3a/xv6-sp20/include/x86.h:92
  102d9a:	8b 45 fc             	mov    -0x4(%ebp),%eax
/u/a/b/abhijith/CS537/p3a/xv6-sp20/include/x86.h:93
  102d9d:	c9                   	leave  
  102d9e:	c3                   	ret    

00102d9f <lapicw>:
lapicw():
/u/a/b/abhijith/CS537/p3a/xv6-sp20/kernel/lapic.c:45
  102d9f:	55                   	push   %ebp
  102da0:	89 e5                	mov    %esp,%ebp
/u/a/b/abhijith/CS537/p3a/xv6-sp20/kernel/lapic.c:46
  102da2:	a1 98 fd 10 00       	mov    0x10fd98,%eax
  102da7:	8b 55 08             	mov    0x8(%ebp),%edx
  102daa:	c1 e2 02             	shl    $0x2,%edx
  102dad:	01 c2                	add    %eax,%edx
  102daf:	8b 45 0c             	mov    0xc(%ebp),%eax
  102db2:	89 02                	mov    %eax,(%edx)
/u/a/b/abhijith/CS537/p3a/xv6-sp20/kernel/lapic.c:47
  102db4:	a1 98 fd 10 00       	mov    0x10fd98,%eax
  102db9:	83 c0 20             	add    $0x20,%eax
  102dbc:	8b 00                	mov    (%eax),%eax
/u/a/b/abhijith/CS537/p3a/xv6-sp20/kernel/lapic.c:48
  102dbe:	90                   	nop
  102dbf:	5d                   	pop    %ebp
  102dc0:	c3                   	ret    

00102dc1 <lapicinit>:
lapicinit():
/u/a/b/abhijith/CS537/p3a/xv6-sp20/kernel/lapic.c:52
  102dc1:	55                   	push   %ebp
  102dc2:	89 e5                	mov    %esp,%ebp
  102dc4:	83 ec 08             	sub    $0x8,%esp
/u/a/b/abhijith/CS537/p3a/xv6-sp20/kernel/lapic.c:53
  102dc7:	a1 98 fd 10 00       	mov    0x10fd98,%eax
  102dcc:	83 ec 04             	sub    $0x4,%esp
  102dcf:	50                   	push   %eax
  102dd0:	ff 75 08             	pushl  0x8(%ebp)
  102dd3:	68 ac 7f 10 00       	push   $0x107fac
  102dd8:	e8 0f d6 ff ff       	call   1003ec <cprintf>
  102ddd:	83 c4 10             	add    $0x10,%esp
/u/a/b/abhijith/CS537/p3a/xv6-sp20/kernel/lapic.c:54
  102de0:	a1 98 fd 10 00       	mov    0x10fd98,%eax
  102de5:	85 c0                	test   %eax,%eax
  102de7:	0f 84 35 01 00 00    	je     102f22 <lapicinit+0x161>
/u/a/b/abhijith/CS537/p3a/xv6-sp20/kernel/lapic.c:58
  102ded:	83 ec 08             	sub    $0x8,%esp
  102df0:	68 3f 01 00 00       	push   $0x13f
  102df5:	6a 3c                	push   $0x3c
  102df7:	e8 a3 ff ff ff       	call   102d9f <lapicw>
  102dfc:	83 c4 10             	add    $0x10,%esp
/u/a/b/abhijith/CS537/p3a/xv6-sp20/kernel/lapic.c:64
  102dff:	83 ec 08             	sub    $0x8,%esp
  102e02:	6a 0b                	push   $0xb
  102e04:	68 f8 00 00 00       	push   $0xf8
  102e09:	e8 91 ff ff ff       	call   102d9f <lapicw>
  102e0e:	83 c4 10             	add    $0x10,%esp
/u/a/b/abhijith/CS537/p3a/xv6-sp20/kernel/lapic.c:65
  102e11:	83 ec 08             	sub    $0x8,%esp
  102e14:	68 20 00 02 00       	push   $0x20020
  102e19:	68 c8 00 00 00       	push   $0xc8
  102e1e:	e8 7c ff ff ff       	call   102d9f <lapicw>
  102e23:	83 c4 10             	add    $0x10,%esp
/u/a/b/abhijith/CS537/p3a/xv6-sp20/kernel/lapic.c:66
  102e26:	83 ec 08             	sub    $0x8,%esp
  102e29:	68 80 96 98 00       	push   $0x989680
  102e2e:	68 e0 00 00 00       	push   $0xe0
  102e33:	e8 67 ff ff ff       	call   102d9f <lapicw>
  102e38:	83 c4 10             	add    $0x10,%esp
/u/a/b/abhijith/CS537/p3a/xv6-sp20/kernel/lapic.c:69
  102e3b:	83 ec 08             	sub    $0x8,%esp
  102e3e:	68 00 00 01 00       	push   $0x10000
  102e43:	68 d4 00 00 00       	push   $0xd4
  102e48:	e8 52 ff ff ff       	call   102d9f <lapicw>
  102e4d:	83 c4 10             	add    $0x10,%esp
/u/a/b/abhijith/CS537/p3a/xv6-sp20/kernel/lapic.c:70
  102e50:	83 ec 08             	sub    $0x8,%esp
  102e53:	68 00 00 01 00       	push   $0x10000
  102e58:	68 d8 00 00 00       	push   $0xd8
  102e5d:	e8 3d ff ff ff       	call   102d9f <lapicw>
  102e62:	83 c4 10             	add    $0x10,%esp
/u/a/b/abhijith/CS537/p3a/xv6-sp20/kernel/lapic.c:74
  102e65:	a1 98 fd 10 00       	mov    0x10fd98,%eax
  102e6a:	83 c0 30             	add    $0x30,%eax
  102e6d:	8b 00                	mov    (%eax),%eax
  102e6f:	c1 e8 10             	shr    $0x10,%eax
  102e72:	0f b6 c0             	movzbl %al,%eax
  102e75:	83 f8 03             	cmp    $0x3,%eax
  102e78:	76 15                	jbe    102e8f <lapicinit+0xce>
/u/a/b/abhijith/CS537/p3a/xv6-sp20/kernel/lapic.c:75
  102e7a:	83 ec 08             	sub    $0x8,%esp
  102e7d:	68 00 00 01 00       	push   $0x10000
  102e82:	68 d0 00 00 00       	push   $0xd0
  102e87:	e8 13 ff ff ff       	call   102d9f <lapicw>
  102e8c:	83 c4 10             	add    $0x10,%esp
/u/a/b/abhijith/CS537/p3a/xv6-sp20/kernel/lapic.c:78
  102e8f:	83 ec 08             	sub    $0x8,%esp
  102e92:	6a 33                	push   $0x33
  102e94:	68 dc 00 00 00       	push   $0xdc
  102e99:	e8 01 ff ff ff       	call   102d9f <lapicw>
  102e9e:	83 c4 10             	add    $0x10,%esp
/u/a/b/abhijith/CS537/p3a/xv6-sp20/kernel/lapic.c:81
  102ea1:	83 ec 08             	sub    $0x8,%esp
  102ea4:	6a 00                	push   $0x0
  102ea6:	68 a0 00 00 00       	push   $0xa0
  102eab:	e8 ef fe ff ff       	call   102d9f <lapicw>
  102eb0:	83 c4 10             	add    $0x10,%esp
/u/a/b/abhijith/CS537/p3a/xv6-sp20/kernel/lapic.c:82
  102eb3:	83 ec 08             	sub    $0x8,%esp
  102eb6:	6a 00                	push   $0x0
  102eb8:	68 a0 00 00 00       	push   $0xa0
  102ebd:	e8 dd fe ff ff       	call   102d9f <lapicw>
  102ec2:	83 c4 10             	add    $0x10,%esp
/u/a/b/abhijith/CS537/p3a/xv6-sp20/kernel/lapic.c:85
  102ec5:	83 ec 08             	sub    $0x8,%esp
  102ec8:	6a 00                	push   $0x0
  102eca:	6a 2c                	push   $0x2c
  102ecc:	e8 ce fe ff ff       	call   102d9f <lapicw>
  102ed1:	83 c4 10             	add    $0x10,%esp
/u/a/b/abhijith/CS537/p3a/xv6-sp20/kernel/lapic.c:88
  102ed4:	83 ec 08             	sub    $0x8,%esp
  102ed7:	6a 00                	push   $0x0
  102ed9:	68 c4 00 00 00       	push   $0xc4
  102ede:	e8 bc fe ff ff       	call   102d9f <lapicw>
  102ee3:	83 c4 10             	add    $0x10,%esp
/u/a/b/abhijith/CS537/p3a/xv6-sp20/kernel/lapic.c:89
  102ee6:	83 ec 08             	sub    $0x8,%esp
  102ee9:	68 00 85 08 00       	push   $0x88500
  102eee:	68 c0 00 00 00       	push   $0xc0
  102ef3:	e8 a7 fe ff ff       	call   102d9f <lapicw>
  102ef8:	83 c4 10             	add    $0x10,%esp
/u/a/b/abhijith/CS537/p3a/xv6-sp20/kernel/lapic.c:90
  102efb:	90                   	nop
/u/a/b/abhijith/CS537/p3a/xv6-sp20/kernel/lapic.c:90 (discriminator 1)
  102efc:	a1 98 fd 10 00       	mov    0x10fd98,%eax
  102f01:	05 00 03 00 00       	add    $0x300,%eax
  102f06:	8b 00                	mov    (%eax),%eax
  102f08:	25 00 10 00 00       	and    $0x1000,%eax
  102f0d:	85 c0                	test   %eax,%eax
  102f0f:	75 eb                	jne    102efc <lapicinit+0x13b>
/u/a/b/abhijith/CS537/p3a/xv6-sp20/kernel/lapic.c:94
  102f11:	83 ec 08             	sub    $0x8,%esp
  102f14:	6a 00                	push   $0x0
  102f16:	6a 20                	push   $0x20
  102f18:	e8 82 fe ff ff       	call   102d9f <lapicw>
  102f1d:	83 c4 10             	add    $0x10,%esp
  102f20:	eb 01                	jmp    102f23 <lapicinit+0x162>
/u/a/b/abhijith/CS537/p3a/xv6-sp20/kernel/lapic.c:55
  102f22:	90                   	nop
/u/a/b/abhijith/CS537/p3a/xv6-sp20/kernel/lapic.c:95
  102f23:	c9                   	leave  
  102f24:	c3                   	ret    

00102f25 <cpunum>:
cpunum():
/u/a/b/abhijith/CS537/p3a/xv6-sp20/kernel/lapic.c:99
  102f25:	55                   	push   %ebp
  102f26:	89 e5                	mov    %esp,%ebp
  102f28:	83 ec 08             	sub    $0x8,%esp
/u/a/b/abhijith/CS537/p3a/xv6-sp20/kernel/lapic.c:105
  102f2b:	e8 5f fe ff ff       	call   102d8f <readeflags>
  102f30:	25 00 02 00 00       	and    $0x200,%eax
  102f35:	85 c0                	test   %eax,%eax
  102f37:	74 26                	je     102f5f <cpunum+0x3a>
/u/a/b/abhijith/CS537/p3a/xv6-sp20/kernel/lapic.c:107
  102f39:	a1 68 bb 10 00       	mov    0x10bb68,%eax
  102f3e:	8d 50 01             	lea    0x1(%eax),%edx
  102f41:	89 15 68 bb 10 00    	mov    %edx,0x10bb68
  102f47:	85 c0                	test   %eax,%eax
  102f49:	75 14                	jne    102f5f <cpunum+0x3a>
/u/a/b/abhijith/CS537/p3a/xv6-sp20/kernel/lapic.c:108
  102f4b:	8b 45 04             	mov    0x4(%ebp),%eax
  102f4e:	83 ec 08             	sub    $0x8,%esp
  102f51:	50                   	push   %eax
  102f52:	68 c0 7f 10 00       	push   $0x107fc0
  102f57:	e8 90 d4 ff ff       	call   1003ec <cprintf>
  102f5c:	83 c4 10             	add    $0x10,%esp
/u/a/b/abhijith/CS537/p3a/xv6-sp20/kernel/lapic.c:112
  102f5f:	a1 98 fd 10 00       	mov    0x10fd98,%eax
  102f64:	85 c0                	test   %eax,%eax
  102f66:	74 0f                	je     102f77 <cpunum+0x52>
/u/a/b/abhijith/CS537/p3a/xv6-sp20/kernel/lapic.c:113
  102f68:	a1 98 fd 10 00       	mov    0x10fd98,%eax
  102f6d:	83 c0 20             	add    $0x20,%eax
  102f70:	8b 00                	mov    (%eax),%eax
  102f72:	c1 e8 18             	shr    $0x18,%eax
  102f75:	eb 05                	jmp    102f7c <cpunum+0x57>
/u/a/b/abhijith/CS537/p3a/xv6-sp20/kernel/lapic.c:114
  102f77:	b8 00 00 00 00       	mov    $0x0,%eax
/u/a/b/abhijith/CS537/p3a/xv6-sp20/kernel/lapic.c:115
  102f7c:	c9                   	leave  
  102f7d:	c3                   	ret    

00102f7e <lapiceoi>:
lapiceoi():
/u/a/b/abhijith/CS537/p3a/xv6-sp20/kernel/lapic.c:120
  102f7e:	55                   	push   %ebp
  102f7f:	89 e5                	mov    %esp,%ebp
/u/a/b/abhijith/CS537/p3a/xv6-sp20/kernel/lapic.c:121
  102f81:	a1 98 fd 10 00       	mov    0x10fd98,%eax
  102f86:	85 c0                	test   %eax,%eax
  102f88:	74 0c                	je     102f96 <lapiceoi+0x18>
/u/a/b/abhijith/CS537/p3a/xv6-sp20/kernel/lapic.c:122
  102f8a:	6a 00                	push   $0x0
  102f8c:	6a 2c                	push   $0x2c
  102f8e:	e8 0c fe ff ff       	call   102d9f <lapicw>
  102f93:	83 c4 08             	add    $0x8,%esp
/u/a/b/abhijith/CS537/p3a/xv6-sp20/kernel/lapic.c:123
  102f96:	90                   	nop
  102f97:	c9                   	leave  
  102f98:	c3                   	ret    

00102f99 <microdelay>:
microdelay():
/u/a/b/abhijith/CS537/p3a/xv6-sp20/kernel/lapic.c:129
  102f99:	55                   	push   %ebp
  102f9a:	89 e5                	mov    %esp,%ebp
/u/a/b/abhijith/CS537/p3a/xv6-sp20/kernel/lapic.c:130
  102f9c:	90                   	nop
  102f9d:	5d                   	pop    %ebp
  102f9e:	c3                   	ret    

00102f9f <lapicstartap>:
lapicstartap():
/u/a/b/abhijith/CS537/p3a/xv6-sp20/kernel/lapic.c:138
  102f9f:	55                   	push   %ebp
  102fa0:	89 e5                	mov    %esp,%ebp
  102fa2:	83 ec 14             	sub    $0x14,%esp
  102fa5:	8b 45 08             	mov    0x8(%ebp),%eax
  102fa8:	88 45 ec             	mov    %al,-0x14(%ebp)
/u/a/b/abhijith/CS537/p3a/xv6-sp20/kernel/lapic.c:145
  102fab:	6a 0f                	push   $0xf
  102fad:	6a 70                	push   $0x70
  102faf:	e8 bc fd ff ff       	call   102d70 <outb>
  102fb4:	83 c4 08             	add    $0x8,%esp
/u/a/b/abhijith/CS537/p3a/xv6-sp20/kernel/lapic.c:146
  102fb7:	6a 0a                	push   $0xa
  102fb9:	6a 71                	push   $0x71
  102fbb:	e8 b0 fd ff ff       	call   102d70 <outb>
  102fc0:	83 c4 08             	add    $0x8,%esp
/u/a/b/abhijith/CS537/p3a/xv6-sp20/kernel/lapic.c:147
  102fc3:	c7 45 f8 67 04 00 00 	movl   $0x467,-0x8(%ebp)
/u/a/b/abhijith/CS537/p3a/xv6-sp20/kernel/lapic.c:148
  102fca:	8b 45 f8             	mov    -0x8(%ebp),%eax
  102fcd:	66 c7 00 00 00       	movw   $0x0,(%eax)
/u/a/b/abhijith/CS537/p3a/xv6-sp20/kernel/lapic.c:149
  102fd2:	8b 45 0c             	mov    0xc(%ebp),%eax
  102fd5:	c1 e8 04             	shr    $0x4,%eax
  102fd8:	89 c2                	mov    %eax,%edx
  102fda:	8b 45 f8             	mov    -0x8(%ebp),%eax
  102fdd:	83 c0 02             	add    $0x2,%eax
  102fe0:	66 89 10             	mov    %dx,(%eax)
/u/a/b/abhijith/CS537/p3a/xv6-sp20/kernel/lapic.c:153
  102fe3:	0f b6 45 ec          	movzbl -0x14(%ebp),%eax
  102fe7:	c1 e0 18             	shl    $0x18,%eax
  102fea:	50                   	push   %eax
  102feb:	68 c4 00 00 00       	push   $0xc4
  102ff0:	e8 aa fd ff ff       	call   102d9f <lapicw>
  102ff5:	83 c4 08             	add    $0x8,%esp
/u/a/b/abhijith/CS537/p3a/xv6-sp20/kernel/lapic.c:154
  102ff8:	68 00 c5 00 00       	push   $0xc500
  102ffd:	68 c0 00 00 00       	push   $0xc0
  103002:	e8 98 fd ff ff       	call   102d9f <lapicw>
  103007:	83 c4 08             	add    $0x8,%esp
/u/a/b/abhijith/CS537/p3a/xv6-sp20/kernel/lapic.c:155
  10300a:	68 c8 00 00 00       	push   $0xc8
  10300f:	e8 85 ff ff ff       	call   102f99 <microdelay>
  103014:	83 c4 04             	add    $0x4,%esp
/u/a/b/abhijith/CS537/p3a/xv6-sp20/kernel/lapic.c:156
  103017:	68 00 85 00 00       	push   $0x8500
  10301c:	68 c0 00 00 00       	push   $0xc0
  103021:	e8 79 fd ff ff       	call   102d9f <lapicw>
  103026:	83 c4 08             	add    $0x8,%esp
/u/a/b/abhijith/CS537/p3a/xv6-sp20/kernel/lapic.c:157
  103029:	6a 64                	push   $0x64
  10302b:	e8 69 ff ff ff       	call   102f99 <microdelay>
  103030:	83 c4 04             	add    $0x4,%esp
/u/a/b/abhijith/CS537/p3a/xv6-sp20/kernel/lapic.c:164
  103033:	c7 45 fc 00 00 00 00 	movl   $0x0,-0x4(%ebp)
  10303a:	eb 3d                	jmp    103079 <lapicstartap+0xda>
/u/a/b/abhijith/CS537/p3a/xv6-sp20/kernel/lapic.c:165 (discriminator 3)
  10303c:	0f b6 45 ec          	movzbl -0x14(%ebp),%eax
  103040:	c1 e0 18             	shl    $0x18,%eax
  103043:	50                   	push   %eax
  103044:	68 c4 00 00 00       	push   $0xc4
  103049:	e8 51 fd ff ff       	call   102d9f <lapicw>
  10304e:	83 c4 08             	add    $0x8,%esp
/u/a/b/abhijith/CS537/p3a/xv6-sp20/kernel/lapic.c:166 (discriminator 3)
  103051:	8b 45 0c             	mov    0xc(%ebp),%eax
  103054:	c1 e8 0c             	shr    $0xc,%eax
  103057:	80 cc 06             	or     $0x6,%ah
  10305a:	50                   	push   %eax
  10305b:	68 c0 00 00 00       	push   $0xc0
  103060:	e8 3a fd ff ff       	call   102d9f <lapicw>
  103065:	83 c4 08             	add    $0x8,%esp
/u/a/b/abhijith/CS537/p3a/xv6-sp20/kernel/lapic.c:167 (discriminator 3)
  103068:	68 c8 00 00 00       	push   $0xc8
  10306d:	e8 27 ff ff ff       	call   102f99 <microdelay>
  103072:	83 c4 04             	add    $0x4,%esp
/u/a/b/abhijith/CS537/p3a/xv6-sp20/kernel/lapic.c:164 (discriminator 3)
  103075:	83 45 fc 01          	addl   $0x1,-0x4(%ebp)
/u/a/b/abhijith/CS537/p3a/xv6-sp20/kernel/lapic.c:164 (discriminator 1)
  103079:	83 7d fc 01          	cmpl   $0x1,-0x4(%ebp)
  10307d:	7e bd                	jle    10303c <lapicstartap+0x9d>
/u/a/b/abhijith/CS537/p3a/xv6-sp20/kernel/lapic.c:169
  10307f:	90                   	nop
  103080:	c9                   	leave  
  103081:	c3                   	ret    

00103082 <sti>:
sti():
/u/a/b/abhijith/CS537/p3a/xv6-sp20/include/x86.h:125
  103082:	55                   	push   %ebp
  103083:	89 e5                	mov    %esp,%ebp
/u/a/b/abhijith/CS537/p3a/xv6-sp20/include/x86.h:126
  103085:	fb                   	sti    
/u/a/b/abhijith/CS537/p3a/xv6-sp20/include/x86.h:127
  103086:	90                   	nop
  103087:	5d                   	pop    %ebp
  103088:	c3                   	ret    

00103089 <xchg>:
xchg():
/u/a/b/abhijith/CS537/p3a/xv6-sp20/include/x86.h:131
  103089:	55                   	push   %ebp
  10308a:	89 e5                	mov    %esp,%ebp
  10308c:	83 ec 10             	sub    $0x10,%esp
/u/a/b/abhijith/CS537/p3a/xv6-sp20/include/x86.h:135
  10308f:	8b 55 08             	mov    0x8(%ebp),%edx
  103092:	8b 45 0c             	mov    0xc(%ebp),%eax
  103095:	8b 4d 08             	mov    0x8(%ebp),%ecx
  103098:	f0 87 02             	lock xchg %eax,(%edx)
  10309b:	89 45 fc             	mov    %eax,-0x4(%ebp)
/u/a/b/abhijith/CS537/p3a/xv6-sp20/include/x86.h:139
  10309e:	8b 45 fc             	mov    -0x4(%ebp),%eax
/u/a/b/abhijith/CS537/p3a/xv6-sp20/include/x86.h:140
  1030a1:	c9                   	leave  
  1030a2:	c3                   	ret    

001030a3 <main>:
main():
/u/a/b/abhijith/CS537/p3a/xv6-sp20/kernel/main.c:19
  1030a3:	8d 4c 24 04          	lea    0x4(%esp),%ecx
  1030a7:	83 e4 f0             	and    $0xfffffff0,%esp
  1030aa:	ff 71 fc             	pushl  -0x4(%ecx)
  1030ad:	55                   	push   %ebp
  1030ae:	89 e5                	mov    %esp,%ebp
  1030b0:	51                   	push   %ecx
  1030b1:	83 ec 04             	sub    $0x4,%esp
/u/a/b/abhijith/CS537/p3a/xv6-sp20/kernel/main.c:20
  1030b4:	e8 62 04 00 00       	call   10351b <mpinit>
/u/a/b/abhijith/CS537/p3a/xv6-sp20/kernel/main.c:21
  1030b9:	e8 50 02 00 00       	call   10330e <mpbcpu>
  1030be:	83 ec 0c             	sub    $0xc,%esp
  1030c1:	50                   	push   %eax
  1030c2:	e8 fa fc ff ff       	call   102dc1 <lapicinit>
  1030c7:	83 c4 10             	add    $0x10,%esp
/u/a/b/abhijith/CS537/p3a/xv6-sp20/kernel/main.c:22
  1030ca:	e8 fd 3e 00 00       	call   106fcc <seginit>
/u/a/b/abhijith/CS537/p3a/xv6-sp20/kernel/main.c:23
  1030cf:	e8 4f f9 ff ff       	call   102a23 <kinit>
/u/a/b/abhijith/CS537/p3a/xv6-sp20/kernel/main.c:24
  1030d4:	e8 00 00 00 00       	call   1030d9 <jmpkstack>

001030d9 <jmpkstack>:
jmpkstack():
/u/a/b/abhijith/CS537/p3a/xv6-sp20/kernel/main.c:29
  1030d9:	55                   	push   %ebp
  1030da:	89 e5                	mov    %esp,%ebp
  1030dc:	83 ec 18             	sub    $0x18,%esp
/u/a/b/abhijith/CS537/p3a/xv6-sp20/kernel/main.c:32
  1030df:	e8 40 fa ff ff       	call   102b24 <kalloc>
  1030e4:	89 45 f4             	mov    %eax,-0xc(%ebp)
/u/a/b/abhijith/CS537/p3a/xv6-sp20/kernel/main.c:33
  1030e7:	83 7d f4 00          	cmpl   $0x0,-0xc(%ebp)
  1030eb:	75 0d                	jne    1030fa <jmpkstack+0x21>
/u/a/b/abhijith/CS537/p3a/xv6-sp20/kernel/main.c:34
  1030ed:	83 ec 0c             	sub    $0xc,%esp
  1030f0:	68 ec 7f 10 00       	push   $0x107fec
  1030f5:	e8 7e d4 ff ff       	call   100578 <panic>
/u/a/b/abhijith/CS537/p3a/xv6-sp20/kernel/main.c:35
  1030fa:	8b 45 f4             	mov    -0xc(%ebp),%eax
  1030fd:	05 00 10 00 00       	add    $0x1000,%eax
  103102:	89 45 f0             	mov    %eax,-0x10(%ebp)
/u/a/b/abhijith/CS537/p3a/xv6-sp20/kernel/main.c:36
  103105:	8b 45 f0             	mov    -0x10(%ebp),%eax
  103108:	89 c4                	mov    %eax,%esp
  10310a:	e8 0d 00 00 00       	call   10311c <mainc>
/u/a/b/abhijith/CS537/p3a/xv6-sp20/kernel/main.c:37
  10310f:	83 ec 0c             	sub    $0xc,%esp
  103112:	68 fd 7f 10 00       	push   $0x107ffd
  103117:	e8 5c d4 ff ff       	call   100578 <panic>

0010311c <mainc>:
mainc():
/u/a/b/abhijith/CS537/p3a/xv6-sp20/kernel/main.c:44
  10311c:	55                   	push   %ebp
  10311d:	89 e5                	mov    %esp,%ebp
  10311f:	83 ec 08             	sub    $0x8,%esp
/u/a/b/abhijith/CS537/p3a/xv6-sp20/kernel/main.c:45
  103122:	65 a1 00 00 00 00    	mov    %gs:0x0,%eax
  103128:	0f b6 00             	movzbl (%eax),%eax
  10312b:	0f b6 c0             	movzbl %al,%eax
  10312e:	83 ec 08             	sub    $0x8,%esp
  103131:	50                   	push   %eax
  103132:	68 07 80 10 00       	push   $0x108007
  103137:	e8 b0 d2 ff ff       	call   1003ec <cprintf>
  10313c:	83 c4 10             	add    $0x10,%esp
/u/a/b/abhijith/CS537/p3a/xv6-sp20/kernel/main.c:46
  10313f:	e8 2d 06 00 00       	call   103771 <picinit>
/u/a/b/abhijith/CS537/p3a/xv6-sp20/kernel/main.c:47
  103144:	e8 dc f7 ff ff       	call   102925 <ioapicinit>
/u/a/b/abhijith/CS537/p3a/xv6-sp20/kernel/main.c:48
  103149:	e8 b5 d9 ff ff       	call   100b03 <consoleinit>
/u/a/b/abhijith/CS537/p3a/xv6-sp20/kernel/main.c:49
  10314e:	e8 bf 31 00 00       	call   106312 <uartinit>
/u/a/b/abhijith/CS537/p3a/xv6-sp20/kernel/main.c:50
  103153:	e8 61 3e 00 00       	call   106fb9 <kvmalloc>
/u/a/b/abhijith/CS537/p3a/xv6-sp20/kernel/main.c:51
  103158:	e8 14 0b 00 00       	call   103c71 <pinit>
/u/a/b/abhijith/CS537/p3a/xv6-sp20/kernel/main.c:52
  10315d:	e8 7a 2d 00 00       	call   105edc <tvinit>
/u/a/b/abhijith/CS537/p3a/xv6-sp20/kernel/main.c:53
  103162:	e8 03 cf ff ff       	call   10006a <binit>
/u/a/b/abhijith/CS537/p3a/xv6-sp20/kernel/main.c:54
  103167:	e8 d7 dd ff ff       	call   100f43 <fileinit>
/u/a/b/abhijith/CS537/p3a/xv6-sp20/kernel/main.c:55
  10316c:	e8 0b e4 ff ff       	call   10157c <iinit>
/u/a/b/abhijith/CS537/p3a/xv6-sp20/kernel/main.c:56
  103171:	e8 f3 f3 ff ff       	call   102569 <ideinit>
/u/a/b/abhijith/CS537/p3a/xv6-sp20/kernel/main.c:57
  103176:	a1 a4 fd 10 00       	mov    0x10fda4,%eax
  10317b:	85 c0                	test   %eax,%eax
  10317d:	75 05                	jne    103184 <mainc+0x68>
/u/a/b/abhijith/CS537/p3a/xv6-sp20/kernel/main.c:58
  10317f:	e8 b5 2c 00 00       	call   105e39 <timerinit>
/u/a/b/abhijith/CS537/p3a/xv6-sp20/kernel/main.c:59
  103184:	e8 97 00 00 00       	call   103220 <bootothers>
/u/a/b/abhijith/CS537/p3a/xv6-sp20/kernel/main.c:62
  103189:	e8 0f 00 00 00       	call   10319d <cinit>
/u/a/b/abhijith/CS537/p3a/xv6-sp20/kernel/main.c:63
  10318e:	e8 ef fe ff ff       	call   103082 <sti>
/u/a/b/abhijith/CS537/p3a/xv6-sp20/kernel/main.c:64
  103193:	e8 fd 0b 00 00       	call   103d95 <userinit>
/u/a/b/abhijith/CS537/p3a/xv6-sp20/kernel/main.c:65
  103198:	e8 9b 11 00 00       	call   104338 <scheduler>

0010319d <cinit>:
cinit():
/u/a/b/abhijith/CS537/p3a/xv6-sp20/kernel/main.c:70
  10319d:	55                   	push   %ebp
  10319e:	89 e5                	mov    %esp,%ebp
  1031a0:	53                   	push   %ebx
  1031a1:	83 ec 04             	sub    $0x4,%esp
/u/a/b/abhijith/CS537/p3a/xv6-sp20/kernel/main.c:71
  1031a4:	e8 7c fd ff ff       	call   102f25 <cpunum>
  1031a9:	89 c3                	mov    %eax,%ebx
  1031ab:	e8 5e 01 00 00       	call   10330e <mpbcpu>
  1031b0:	39 c3                	cmp    %eax,%ebx
  1031b2:	74 16                	je     1031ca <cinit+0x2d>
/u/a/b/abhijith/CS537/p3a/xv6-sp20/kernel/main.c:72
  1031b4:	e8 13 3e 00 00       	call   106fcc <seginit>
/u/a/b/abhijith/CS537/p3a/xv6-sp20/kernel/main.c:73
  1031b9:	e8 67 fd ff ff       	call   102f25 <cpunum>
  1031be:	83 ec 0c             	sub    $0xc,%esp
  1031c1:	50                   	push   %eax
  1031c2:	e8 fa fb ff ff       	call   102dc1 <lapicinit>
  1031c7:	83 c4 10             	add    $0x10,%esp
/u/a/b/abhijith/CS537/p3a/xv6-sp20/kernel/main.c:75
  1031ca:	e8 26 44 00 00       	call   1075f5 <vmenable>
/u/a/b/abhijith/CS537/p3a/xv6-sp20/kernel/main.c:76
  1031cf:	65 a1 00 00 00 00    	mov    %gs:0x0,%eax
  1031d5:	0f b6 00             	movzbl (%eax),%eax
  1031d8:	0f b6 c0             	movzbl %al,%eax
  1031db:	83 ec 08             	sub    $0x8,%esp
  1031de:	50                   	push   %eax
  1031df:	68 1e 80 10 00       	push   $0x10801e
  1031e4:	e8 03 d2 ff ff       	call   1003ec <cprintf>
  1031e9:	83 c4 10             	add    $0x10,%esp
/u/a/b/abhijith/CS537/p3a/xv6-sp20/kernel/main.c:77
  1031ec:	e8 61 2e 00 00       	call   106052 <idtinit>
/u/a/b/abhijith/CS537/p3a/xv6-sp20/kernel/main.c:78
  1031f1:	65 a1 00 00 00 00    	mov    %gs:0x0,%eax
  1031f7:	05 a8 00 00 00       	add    $0xa8,%eax
  1031fc:	83 ec 08             	sub    $0x8,%esp
  1031ff:	6a 01                	push   $0x1
  103201:	50                   	push   %eax
  103202:	e8 82 fe ff ff       	call   103089 <xchg>
  103207:	83 c4 10             	add    $0x10,%esp
/u/a/b/abhijith/CS537/p3a/xv6-sp20/kernel/main.c:79
  10320a:	90                   	nop
  10320b:	8b 5d fc             	mov    -0x4(%ebp),%ebx
  10320e:	c9                   	leave  
  10320f:	c3                   	ret    

00103210 <mpmain>:
mpmain():
/u/a/b/abhijith/CS537/p3a/xv6-sp20/kernel/main.c:86
  103210:	55                   	push   %ebp
  103211:	89 e5                	mov    %esp,%ebp
  103213:	83 ec 08             	sub    $0x8,%esp
/u/a/b/abhijith/CS537/p3a/xv6-sp20/kernel/main.c:87
  103216:	e8 82 ff ff ff       	call   10319d <cinit>
/u/a/b/abhijith/CS537/p3a/xv6-sp20/kernel/main.c:88
  10321b:	e8 18 11 00 00       	call   104338 <scheduler>

00103220 <bootothers>:
bootothers():
/u/a/b/abhijith/CS537/p3a/xv6-sp20/kernel/main.c:94
  103220:	55                   	push   %ebp
  103221:	89 e5                	mov    %esp,%ebp
  103223:	83 ec 18             	sub    $0x18,%esp
/u/a/b/abhijith/CS537/p3a/xv6-sp20/kernel/main.c:103
  103226:	c7 45 f0 00 70 00 00 	movl   $0x7000,-0x10(%ebp)
/u/a/b/abhijith/CS537/p3a/xv6-sp20/kernel/main.c:104
  10322d:	b8 6a 00 00 00       	mov    $0x6a,%eax
  103232:	83 ec 04             	sub    $0x4,%esp
  103235:	50                   	push   %eax
  103236:	68 3c aa 10 00       	push   $0x10aa3c
  10323b:	ff 75 f0             	pushl  -0x10(%ebp)
  10323e:	e8 52 18 00 00       	call   104a95 <memmove>
  103243:	83 c4 10             	add    $0x10,%esp
/u/a/b/abhijith/CS537/p3a/xv6-sp20/kernel/main.c:106
  103246:	c7 45 f4 c0 fd 10 00 	movl   $0x10fdc0,-0xc(%ebp)
  10324d:	eb 6b                	jmp    1032ba <bootothers+0x9a>
/u/a/b/abhijith/CS537/p3a/xv6-sp20/kernel/main.c:107
  10324f:	e8 d1 fc ff ff       	call   102f25 <cpunum>
  103254:	69 c0 bc 00 00 00    	imul   $0xbc,%eax,%eax
  10325a:	05 c0 fd 10 00       	add    $0x10fdc0,%eax
  10325f:	39 45 f4             	cmp    %eax,-0xc(%ebp)
  103262:	74 4e                	je     1032b2 <bootothers+0x92>
/u/a/b/abhijith/CS537/p3a/xv6-sp20/kernel/main.c:113
  103264:	e8 bb f8 ff ff       	call   102b24 <kalloc>
  103269:	89 45 ec             	mov    %eax,-0x14(%ebp)
/u/a/b/abhijith/CS537/p3a/xv6-sp20/kernel/main.c:114
  10326c:	8b 45 f0             	mov    -0x10(%ebp),%eax
  10326f:	83 e8 04             	sub    $0x4,%eax
  103272:	8b 55 ec             	mov    -0x14(%ebp),%edx
  103275:	81 c2 00 10 00 00    	add    $0x1000,%edx
  10327b:	89 10                	mov    %edx,(%eax)
/u/a/b/abhijith/CS537/p3a/xv6-sp20/kernel/main.c:115
  10327d:	8b 45 f0             	mov    -0x10(%ebp),%eax
  103280:	83 e8 08             	sub    $0x8,%eax
  103283:	c7 00 10 32 10 00    	movl   $0x103210,(%eax)
/u/a/b/abhijith/CS537/p3a/xv6-sp20/kernel/main.c:117
  103289:	8b 55 f0             	mov    -0x10(%ebp),%edx
  10328c:	8b 45 f4             	mov    -0xc(%ebp),%eax
  10328f:	0f b6 00             	movzbl (%eax),%eax
  103292:	0f b6 c0             	movzbl %al,%eax
  103295:	83 ec 08             	sub    $0x8,%esp
  103298:	52                   	push   %edx
  103299:	50                   	push   %eax
  10329a:	e8 00 fd ff ff       	call   102f9f <lapicstartap>
  10329f:	83 c4 10             	add    $0x10,%esp
/u/a/b/abhijith/CS537/p3a/xv6-sp20/kernel/main.c:120
  1032a2:	90                   	nop
/u/a/b/abhijith/CS537/p3a/xv6-sp20/kernel/main.c:120 (discriminator 1)
  1032a3:	8b 45 f4             	mov    -0xc(%ebp),%eax
  1032a6:	8b 80 a8 00 00 00    	mov    0xa8(%eax),%eax
  1032ac:	85 c0                	test   %eax,%eax
  1032ae:	74 f3                	je     1032a3 <bootothers+0x83>
  1032b0:	eb 01                	jmp    1032b3 <bootothers+0x93>
/u/a/b/abhijith/CS537/p3a/xv6-sp20/kernel/main.c:108
  1032b2:	90                   	nop
/u/a/b/abhijith/CS537/p3a/xv6-sp20/kernel/main.c:106 (discriminator 2)
  1032b3:	81 45 f4 bc 00 00 00 	addl   $0xbc,-0xc(%ebp)
/u/a/b/abhijith/CS537/p3a/xv6-sp20/kernel/main.c:106 (discriminator 1)
  1032ba:	a1 a0 03 11 00       	mov    0x1103a0,%eax
  1032bf:	69 c0 bc 00 00 00    	imul   $0xbc,%eax,%eax
  1032c5:	05 c0 fd 10 00       	add    $0x10fdc0,%eax
  1032ca:	39 45 f4             	cmp    %eax,-0xc(%ebp)
  1032cd:	72 80                	jb     10324f <bootothers+0x2f>
/u/a/b/abhijith/CS537/p3a/xv6-sp20/kernel/main.c:123
  1032cf:	90                   	nop
  1032d0:	c9                   	leave  
  1032d1:	c3                   	ret    

001032d2 <inb>:
inb():
/u/a/b/abhijith/CS537/p3a/xv6-sp20/include/x86.h:7
  1032d2:	55                   	push   %ebp
  1032d3:	89 e5                	mov    %esp,%ebp
  1032d5:	83 ec 14             	sub    $0x14,%esp
  1032d8:	8b 45 08             	mov    0x8(%ebp),%eax
  1032db:	66 89 45 ec          	mov    %ax,-0x14(%ebp)
/u/a/b/abhijith/CS537/p3a/xv6-sp20/include/x86.h:10
  1032df:	0f b7 45 ec          	movzwl -0x14(%ebp),%eax
  1032e3:	89 c2                	mov    %eax,%edx
  1032e5:	ec                   	in     (%dx),%al
  1032e6:	88 45 ff             	mov    %al,-0x1(%ebp)
/u/a/b/abhijith/CS537/p3a/xv6-sp20/include/x86.h:11
  1032e9:	0f b6 45 ff          	movzbl -0x1(%ebp),%eax
/u/a/b/abhijith/CS537/p3a/xv6-sp20/include/x86.h:12
  1032ed:	c9                   	leave  
  1032ee:	c3                   	ret    

001032ef <outb>:
outb():
/u/a/b/abhijith/CS537/p3a/xv6-sp20/include/x86.h:25
  1032ef:	55                   	push   %ebp
  1032f0:	89 e5                	mov    %esp,%ebp
  1032f2:	83 ec 08             	sub    $0x8,%esp
  1032f5:	8b 55 08             	mov    0x8(%ebp),%edx
  1032f8:	8b 45 0c             	mov    0xc(%ebp),%eax
  1032fb:	66 89 55 fc          	mov    %dx,-0x4(%ebp)
  1032ff:	88 45 f8             	mov    %al,-0x8(%ebp)
/u/a/b/abhijith/CS537/p3a/xv6-sp20/include/x86.h:26
  103302:	0f b6 45 f8          	movzbl -0x8(%ebp),%eax
  103306:	0f b7 55 fc          	movzwl -0x4(%ebp),%edx
  10330a:	ee                   	out    %al,(%dx)
/u/a/b/abhijith/CS537/p3a/xv6-sp20/include/x86.h:27
  10330b:	90                   	nop
  10330c:	c9                   	leave  
  10330d:	c3                   	ret    

0010330e <mpbcpu>:
mpbcpu():
/u/a/b/abhijith/CS537/p3a/xv6-sp20/kernel/mp.c:21
  10330e:	55                   	push   %ebp
  10330f:	89 e5                	mov    %esp,%ebp
/u/a/b/abhijith/CS537/p3a/xv6-sp20/kernel/mp.c:22
  103311:	a1 6c bb 10 00       	mov    0x10bb6c,%eax
  103316:	89 c2                	mov    %eax,%edx
  103318:	b8 c0 fd 10 00       	mov    $0x10fdc0,%eax
  10331d:	29 c2                	sub    %eax,%edx
  10331f:	89 d0                	mov    %edx,%eax
  103321:	c1 f8 02             	sar    $0x2,%eax
  103324:	69 c0 cf 46 7d 67    	imul   $0x677d46cf,%eax,%eax
/u/a/b/abhijith/CS537/p3a/xv6-sp20/kernel/mp.c:23
  10332a:	5d                   	pop    %ebp
  10332b:	c3                   	ret    

0010332c <sum>:
sum():
/u/a/b/abhijith/CS537/p3a/xv6-sp20/kernel/mp.c:27
  10332c:	55                   	push   %ebp
  10332d:	89 e5                	mov    %esp,%ebp
  10332f:	83 ec 10             	sub    $0x10,%esp
/u/a/b/abhijith/CS537/p3a/xv6-sp20/kernel/mp.c:30
  103332:	c7 45 f8 00 00 00 00 	movl   $0x0,-0x8(%ebp)
/u/a/b/abhijith/CS537/p3a/xv6-sp20/kernel/mp.c:31
  103339:	c7 45 fc 00 00 00 00 	movl   $0x0,-0x4(%ebp)
  103340:	eb 15                	jmp    103357 <sum+0x2b>
/u/a/b/abhijith/CS537/p3a/xv6-sp20/kernel/mp.c:32 (discriminator 3)
  103342:	8b 55 fc             	mov    -0x4(%ebp),%edx
  103345:	8b 45 08             	mov    0x8(%ebp),%eax
  103348:	01 d0                	add    %edx,%eax
  10334a:	0f b6 00             	movzbl (%eax),%eax
  10334d:	0f b6 c0             	movzbl %al,%eax
  103350:	01 45 f8             	add    %eax,-0x8(%ebp)
/u/a/b/abhijith/CS537/p3a/xv6-sp20/kernel/mp.c:31 (discriminator 3)
  103353:	83 45 fc 01          	addl   $0x1,-0x4(%ebp)
/u/a/b/abhijith/CS537/p3a/xv6-sp20/kernel/mp.c:31 (discriminator 1)
  103357:	8b 45 fc             	mov    -0x4(%ebp),%eax
  10335a:	3b 45 0c             	cmp    0xc(%ebp),%eax
  10335d:	7c e3                	jl     103342 <sum+0x16>
/u/a/b/abhijith/CS537/p3a/xv6-sp20/kernel/mp.c:33
  10335f:	8b 45 f8             	mov    -0x8(%ebp),%eax
/u/a/b/abhijith/CS537/p3a/xv6-sp20/kernel/mp.c:34
  103362:	c9                   	leave  
  103363:	c3                   	ret    

00103364 <mpsearch1>:
mpsearch1():
/u/a/b/abhijith/CS537/p3a/xv6-sp20/kernel/mp.c:39
  103364:	55                   	push   %ebp
  103365:	89 e5                	mov    %esp,%ebp
  103367:	83 ec 18             	sub    $0x18,%esp
/u/a/b/abhijith/CS537/p3a/xv6-sp20/kernel/mp.c:42
  10336a:	8b 55 0c             	mov    0xc(%ebp),%edx
  10336d:	8b 45 08             	mov    0x8(%ebp),%eax
  103370:	01 d0                	add    %edx,%eax
  103372:	89 45 f0             	mov    %eax,-0x10(%ebp)
/u/a/b/abhijith/CS537/p3a/xv6-sp20/kernel/mp.c:43
  103375:	8b 45 08             	mov    0x8(%ebp),%eax
  103378:	89 45 f4             	mov    %eax,-0xc(%ebp)
  10337b:	eb 36                	jmp    1033b3 <mpsearch1+0x4f>
/u/a/b/abhijith/CS537/p3a/xv6-sp20/kernel/mp.c:44
  10337d:	83 ec 04             	sub    $0x4,%esp
  103380:	6a 04                	push   $0x4
  103382:	68 30 80 10 00       	push   $0x108030
  103387:	ff 75 f4             	pushl  -0xc(%ebp)
  10338a:	e8 ae 16 00 00       	call   104a3d <memcmp>
  10338f:	83 c4 10             	add    $0x10,%esp
  103392:	85 c0                	test   %eax,%eax
  103394:	75 19                	jne    1033af <mpsearch1+0x4b>
/u/a/b/abhijith/CS537/p3a/xv6-sp20/kernel/mp.c:44 (discriminator 1)
  103396:	83 ec 08             	sub    $0x8,%esp
  103399:	6a 10                	push   $0x10
  10339b:	ff 75 f4             	pushl  -0xc(%ebp)
  10339e:	e8 89 ff ff ff       	call   10332c <sum>
  1033a3:	83 c4 10             	add    $0x10,%esp
  1033a6:	84 c0                	test   %al,%al
  1033a8:	75 05                	jne    1033af <mpsearch1+0x4b>
/u/a/b/abhijith/CS537/p3a/xv6-sp20/kernel/mp.c:45
  1033aa:	8b 45 f4             	mov    -0xc(%ebp),%eax
  1033ad:	eb 11                	jmp    1033c0 <mpsearch1+0x5c>
/u/a/b/abhijith/CS537/p3a/xv6-sp20/kernel/mp.c:43 (discriminator 2)
  1033af:	83 45 f4 10          	addl   $0x10,-0xc(%ebp)
/u/a/b/abhijith/CS537/p3a/xv6-sp20/kernel/mp.c:43 (discriminator 1)
  1033b3:	8b 45 f4             	mov    -0xc(%ebp),%eax
  1033b6:	3b 45 f0             	cmp    -0x10(%ebp),%eax
  1033b9:	72 c2                	jb     10337d <mpsearch1+0x19>
/u/a/b/abhijith/CS537/p3a/xv6-sp20/kernel/mp.c:46
  1033bb:	b8 00 00 00 00       	mov    $0x0,%eax
/u/a/b/abhijith/CS537/p3a/xv6-sp20/kernel/mp.c:47
  1033c0:	c9                   	leave  
  1033c1:	c3                   	ret    

001033c2 <mpsearch>:
mpsearch():
/u/a/b/abhijith/CS537/p3a/xv6-sp20/kernel/mp.c:56
  1033c2:	55                   	push   %ebp
  1033c3:	89 e5                	mov    %esp,%ebp
  1033c5:	83 ec 18             	sub    $0x18,%esp
/u/a/b/abhijith/CS537/p3a/xv6-sp20/kernel/mp.c:61
  1033c8:	c7 45 f4 00 04 00 00 	movl   $0x400,-0xc(%ebp)
/u/a/b/abhijith/CS537/p3a/xv6-sp20/kernel/mp.c:62
  1033cf:	8b 45 f4             	mov    -0xc(%ebp),%eax
  1033d2:	83 c0 0f             	add    $0xf,%eax
  1033d5:	0f b6 00             	movzbl (%eax),%eax
  1033d8:	0f b6 c0             	movzbl %al,%eax
  1033db:	c1 e0 08             	shl    $0x8,%eax
  1033de:	89 c2                	mov    %eax,%edx
  1033e0:	8b 45 f4             	mov    -0xc(%ebp),%eax
  1033e3:	83 c0 0e             	add    $0xe,%eax
  1033e6:	0f b6 00             	movzbl (%eax),%eax
  1033e9:	0f b6 c0             	movzbl %al,%eax
  1033ec:	09 d0                	or     %edx,%eax
  1033ee:	c1 e0 04             	shl    $0x4,%eax
  1033f1:	89 45 f0             	mov    %eax,-0x10(%ebp)
  1033f4:	83 7d f0 00          	cmpl   $0x0,-0x10(%ebp)
  1033f8:	74 22                	je     10341c <mpsearch+0x5a>
/u/a/b/abhijith/CS537/p3a/xv6-sp20/kernel/mp.c:63
  1033fa:	8b 45 f0             	mov    -0x10(%ebp),%eax
  1033fd:	83 ec 08             	sub    $0x8,%esp
  103400:	68 00 04 00 00       	push   $0x400
  103405:	50                   	push   %eax
  103406:	e8 59 ff ff ff       	call   103364 <mpsearch1>
  10340b:	83 c4 10             	add    $0x10,%esp
  10340e:	89 45 ec             	mov    %eax,-0x14(%ebp)
  103411:	83 7d ec 00          	cmpl   $0x0,-0x14(%ebp)
  103415:	74 51                	je     103468 <mpsearch+0xa6>
/u/a/b/abhijith/CS537/p3a/xv6-sp20/kernel/mp.c:64
  103417:	8b 45 ec             	mov    -0x14(%ebp),%eax
  10341a:	eb 61                	jmp    10347d <mpsearch+0xbb>
/u/a/b/abhijith/CS537/p3a/xv6-sp20/kernel/mp.c:66
  10341c:	8b 45 f4             	mov    -0xc(%ebp),%eax
  10341f:	83 c0 14             	add    $0x14,%eax
  103422:	0f b6 00             	movzbl (%eax),%eax
  103425:	0f b6 c0             	movzbl %al,%eax
  103428:	c1 e0 08             	shl    $0x8,%eax
  10342b:	89 c2                	mov    %eax,%edx
  10342d:	8b 45 f4             	mov    -0xc(%ebp),%eax
  103430:	83 c0 13             	add    $0x13,%eax
  103433:	0f b6 00             	movzbl (%eax),%eax
  103436:	0f b6 c0             	movzbl %al,%eax
  103439:	09 d0                	or     %edx,%eax
  10343b:	c1 e0 0a             	shl    $0xa,%eax
  10343e:	89 45 f0             	mov    %eax,-0x10(%ebp)
/u/a/b/abhijith/CS537/p3a/xv6-sp20/kernel/mp.c:67
  103441:	8b 45 f0             	mov    -0x10(%ebp),%eax
  103444:	2d 00 04 00 00       	sub    $0x400,%eax
  103449:	83 ec 08             	sub    $0x8,%esp
  10344c:	68 00 04 00 00       	push   $0x400
  103451:	50                   	push   %eax
  103452:	e8 0d ff ff ff       	call   103364 <mpsearch1>
  103457:	83 c4 10             	add    $0x10,%esp
  10345a:	89 45 ec             	mov    %eax,-0x14(%ebp)
  10345d:	83 7d ec 00          	cmpl   $0x0,-0x14(%ebp)
  103461:	74 05                	je     103468 <mpsearch+0xa6>
/u/a/b/abhijith/CS537/p3a/xv6-sp20/kernel/mp.c:68
  103463:	8b 45 ec             	mov    -0x14(%ebp),%eax
  103466:	eb 15                	jmp    10347d <mpsearch+0xbb>
/u/a/b/abhijith/CS537/p3a/xv6-sp20/kernel/mp.c:70
  103468:	83 ec 08             	sub    $0x8,%esp
  10346b:	68 00 00 01 00       	push   $0x10000
  103470:	68 00 00 0f 00       	push   $0xf0000
  103475:	e8 ea fe ff ff       	call   103364 <mpsearch1>
  10347a:	83 c4 10             	add    $0x10,%esp
/u/a/b/abhijith/CS537/p3a/xv6-sp20/kernel/mp.c:71
  10347d:	c9                   	leave  
  10347e:	c3                   	ret    

0010347f <mpconfig>:
mpconfig():
/u/a/b/abhijith/CS537/p3a/xv6-sp20/kernel/mp.c:80
  10347f:	55                   	push   %ebp
  103480:	89 e5                	mov    %esp,%ebp
  103482:	83 ec 18             	sub    $0x18,%esp
/u/a/b/abhijith/CS537/p3a/xv6-sp20/kernel/mp.c:84
  103485:	e8 38 ff ff ff       	call   1033c2 <mpsearch>
  10348a:	89 45 f4             	mov    %eax,-0xc(%ebp)
  10348d:	83 7d f4 00          	cmpl   $0x0,-0xc(%ebp)
  103491:	74 0a                	je     10349d <mpconfig+0x1e>
/u/a/b/abhijith/CS537/p3a/xv6-sp20/kernel/mp.c:84 (discriminator 1)
  103493:	8b 45 f4             	mov    -0xc(%ebp),%eax
  103496:	8b 40 04             	mov    0x4(%eax),%eax
  103499:	85 c0                	test   %eax,%eax
  10349b:	75 07                	jne    1034a4 <mpconfig+0x25>
/u/a/b/abhijith/CS537/p3a/xv6-sp20/kernel/mp.c:85
  10349d:	b8 00 00 00 00       	mov    $0x0,%eax
  1034a2:	eb 75                	jmp    103519 <mpconfig+0x9a>
/u/a/b/abhijith/CS537/p3a/xv6-sp20/kernel/mp.c:86
  1034a4:	8b 45 f4             	mov    -0xc(%ebp),%eax
  1034a7:	8b 40 04             	mov    0x4(%eax),%eax
  1034aa:	89 45 f0             	mov    %eax,-0x10(%ebp)
/u/a/b/abhijith/CS537/p3a/xv6-sp20/kernel/mp.c:87
  1034ad:	83 ec 04             	sub    $0x4,%esp
  1034b0:	6a 04                	push   $0x4
  1034b2:	68 35 80 10 00       	push   $0x108035
  1034b7:	ff 75 f0             	pushl  -0x10(%ebp)
  1034ba:	e8 7e 15 00 00       	call   104a3d <memcmp>
  1034bf:	83 c4 10             	add    $0x10,%esp
  1034c2:	85 c0                	test   %eax,%eax
  1034c4:	74 07                	je     1034cd <mpconfig+0x4e>
/u/a/b/abhijith/CS537/p3a/xv6-sp20/kernel/mp.c:88
  1034c6:	b8 00 00 00 00       	mov    $0x0,%eax
  1034cb:	eb 4c                	jmp    103519 <mpconfig+0x9a>
/u/a/b/abhijith/CS537/p3a/xv6-sp20/kernel/mp.c:89
  1034cd:	8b 45 f0             	mov    -0x10(%ebp),%eax
  1034d0:	0f b6 40 06          	movzbl 0x6(%eax),%eax
  1034d4:	3c 01                	cmp    $0x1,%al
  1034d6:	74 12                	je     1034ea <mpconfig+0x6b>
/u/a/b/abhijith/CS537/p3a/xv6-sp20/kernel/mp.c:89 (discriminator 1)
  1034d8:	8b 45 f0             	mov    -0x10(%ebp),%eax
  1034db:	0f b6 40 06          	movzbl 0x6(%eax),%eax
  1034df:	3c 04                	cmp    $0x4,%al
  1034e1:	74 07                	je     1034ea <mpconfig+0x6b>
/u/a/b/abhijith/CS537/p3a/xv6-sp20/kernel/mp.c:90
  1034e3:	b8 00 00 00 00       	mov    $0x0,%eax
  1034e8:	eb 2f                	jmp    103519 <mpconfig+0x9a>
/u/a/b/abhijith/CS537/p3a/xv6-sp20/kernel/mp.c:91
  1034ea:	8b 45 f0             	mov    -0x10(%ebp),%eax
  1034ed:	0f b7 40 04          	movzwl 0x4(%eax),%eax
  1034f1:	0f b7 c0             	movzwl %ax,%eax
  1034f4:	83 ec 08             	sub    $0x8,%esp
  1034f7:	50                   	push   %eax
  1034f8:	ff 75 f0             	pushl  -0x10(%ebp)
  1034fb:	e8 2c fe ff ff       	call   10332c <sum>
  103500:	83 c4 10             	add    $0x10,%esp
  103503:	84 c0                	test   %al,%al
  103505:	74 07                	je     10350e <mpconfig+0x8f>
/u/a/b/abhijith/CS537/p3a/xv6-sp20/kernel/mp.c:92
  103507:	b8 00 00 00 00       	mov    $0x0,%eax
  10350c:	eb 0b                	jmp    103519 <mpconfig+0x9a>
/u/a/b/abhijith/CS537/p3a/xv6-sp20/kernel/mp.c:93
  10350e:	8b 45 08             	mov    0x8(%ebp),%eax
  103511:	8b 55 f4             	mov    -0xc(%ebp),%edx
  103514:	89 10                	mov    %edx,(%eax)
/u/a/b/abhijith/CS537/p3a/xv6-sp20/kernel/mp.c:94
  103516:	8b 45 f0             	mov    -0x10(%ebp),%eax
/u/a/b/abhijith/CS537/p3a/xv6-sp20/kernel/mp.c:95
  103519:	c9                   	leave  
  10351a:	c3                   	ret    

0010351b <mpinit>:
mpinit():
/u/a/b/abhijith/CS537/p3a/xv6-sp20/kernel/mp.c:99
  10351b:	55                   	push   %ebp
  10351c:	89 e5                	mov    %esp,%ebp
  10351e:	83 ec 28             	sub    $0x28,%esp
/u/a/b/abhijith/CS537/p3a/xv6-sp20/kernel/mp.c:106
  103521:	c7 05 6c bb 10 00 c0 	movl   $0x10fdc0,0x10bb6c
  103528:	fd 10 00 
/u/a/b/abhijith/CS537/p3a/xv6-sp20/kernel/mp.c:107
  10352b:	83 ec 0c             	sub    $0xc,%esp
  10352e:	8d 45 e0             	lea    -0x20(%ebp),%eax
  103531:	50                   	push   %eax
  103532:	e8 48 ff ff ff       	call   10347f <mpconfig>
  103537:	83 c4 10             	add    $0x10,%esp
  10353a:	89 45 f0             	mov    %eax,-0x10(%ebp)
  10353d:	83 7d f0 00          	cmpl   $0x0,-0x10(%ebp)
  103541:	0f 84 96 01 00 00    	je     1036dd <mpinit+0x1c2>
/u/a/b/abhijith/CS537/p3a/xv6-sp20/kernel/mp.c:109
  103547:	c7 05 a4 fd 10 00 01 	movl   $0x1,0x10fda4
  10354e:	00 00 00 
/u/a/b/abhijith/CS537/p3a/xv6-sp20/kernel/mp.c:110
  103551:	8b 45 f0             	mov    -0x10(%ebp),%eax
  103554:	8b 40 24             	mov    0x24(%eax),%eax
  103557:	a3 98 fd 10 00       	mov    %eax,0x10fd98
/u/a/b/abhijith/CS537/p3a/xv6-sp20/kernel/mp.c:111
  10355c:	8b 45 f0             	mov    -0x10(%ebp),%eax
  10355f:	83 c0 2c             	add    $0x2c,%eax
  103562:	89 45 f4             	mov    %eax,-0xc(%ebp)
  103565:	8b 45 f0             	mov    -0x10(%ebp),%eax
  103568:	0f b7 40 04          	movzwl 0x4(%eax),%eax
  10356c:	0f b7 d0             	movzwl %ax,%edx
  10356f:	8b 45 f0             	mov    -0x10(%ebp),%eax
  103572:	01 d0                	add    %edx,%eax
  103574:	89 45 ec             	mov    %eax,-0x14(%ebp)
  103577:	e9 f2 00 00 00       	jmp    10366e <mpinit+0x153>
/u/a/b/abhijith/CS537/p3a/xv6-sp20/kernel/mp.c:112
  10357c:	8b 45 f4             	mov    -0xc(%ebp),%eax
  10357f:	0f b6 00             	movzbl (%eax),%eax
  103582:	0f b6 c0             	movzbl %al,%eax
  103585:	83 f8 04             	cmp    $0x4,%eax
  103588:	0f 87 bc 00 00 00    	ja     10364a <mpinit+0x12f>
  10358e:	8b 04 85 78 80 10 00 	mov    0x108078(,%eax,4),%eax
  103595:	ff e0                	jmp    *%eax
/u/a/b/abhijith/CS537/p3a/xv6-sp20/kernel/mp.c:114
  103597:	8b 45 f4             	mov    -0xc(%ebp),%eax
  10359a:	89 45 e4             	mov    %eax,-0x1c(%ebp)
/u/a/b/abhijith/CS537/p3a/xv6-sp20/kernel/mp.c:115
  10359d:	8b 45 e4             	mov    -0x1c(%ebp),%eax
  1035a0:	0f b6 40 01          	movzbl 0x1(%eax),%eax
  1035a4:	0f b6 d0             	movzbl %al,%edx
  1035a7:	a1 a0 03 11 00       	mov    0x1103a0,%eax
  1035ac:	39 c2                	cmp    %eax,%edx
  1035ae:	74 2b                	je     1035db <mpinit+0xc0>
/u/a/b/abhijith/CS537/p3a/xv6-sp20/kernel/mp.c:116
  1035b0:	8b 45 e4             	mov    -0x1c(%ebp),%eax
  1035b3:	0f b6 40 01          	movzbl 0x1(%eax),%eax
  1035b7:	0f b6 d0             	movzbl %al,%edx
  1035ba:	a1 a0 03 11 00       	mov    0x1103a0,%eax
  1035bf:	83 ec 04             	sub    $0x4,%esp
  1035c2:	52                   	push   %edx
  1035c3:	50                   	push   %eax
  1035c4:	68 3a 80 10 00       	push   $0x10803a
  1035c9:	e8 1e ce ff ff       	call   1003ec <cprintf>
  1035ce:	83 c4 10             	add    $0x10,%esp
/u/a/b/abhijith/CS537/p3a/xv6-sp20/kernel/mp.c:117
  1035d1:	c7 05 a4 fd 10 00 00 	movl   $0x0,0x10fda4
  1035d8:	00 00 00 
/u/a/b/abhijith/CS537/p3a/xv6-sp20/kernel/mp.c:119
  1035db:	8b 45 e4             	mov    -0x1c(%ebp),%eax
  1035de:	0f b6 40 03          	movzbl 0x3(%eax),%eax
  1035e2:	0f b6 c0             	movzbl %al,%eax
  1035e5:	83 e0 02             	and    $0x2,%eax
  1035e8:	85 c0                	test   %eax,%eax
  1035ea:	74 15                	je     103601 <mpinit+0xe6>
/u/a/b/abhijith/CS537/p3a/xv6-sp20/kernel/mp.c:120
  1035ec:	a1 a0 03 11 00       	mov    0x1103a0,%eax
  1035f1:	69 c0 bc 00 00 00    	imul   $0xbc,%eax,%eax
  1035f7:	05 c0 fd 10 00       	add    $0x10fdc0,%eax
  1035fc:	a3 6c bb 10 00       	mov    %eax,0x10bb6c
/u/a/b/abhijith/CS537/p3a/xv6-sp20/kernel/mp.c:121
  103601:	8b 15 a0 03 11 00    	mov    0x1103a0,%edx
  103607:	a1 a0 03 11 00       	mov    0x1103a0,%eax
  10360c:	69 c0 bc 00 00 00    	imul   $0xbc,%eax,%eax
  103612:	05 c0 fd 10 00       	add    $0x10fdc0,%eax
  103617:	88 10                	mov    %dl,(%eax)
/u/a/b/abhijith/CS537/p3a/xv6-sp20/kernel/mp.c:122
  103619:	a1 a0 03 11 00       	mov    0x1103a0,%eax
  10361e:	83 c0 01             	add    $0x1,%eax
  103621:	a3 a0 03 11 00       	mov    %eax,0x1103a0
/u/a/b/abhijith/CS537/p3a/xv6-sp20/kernel/mp.c:123
  103626:	83 45 f4 14          	addl   $0x14,-0xc(%ebp)
/u/a/b/abhijith/CS537/p3a/xv6-sp20/kernel/mp.c:124
  10362a:	eb 42                	jmp    10366e <mpinit+0x153>
/u/a/b/abhijith/CS537/p3a/xv6-sp20/kernel/mp.c:126
  10362c:	8b 45 f4             	mov    -0xc(%ebp),%eax
  10362f:	89 45 e8             	mov    %eax,-0x18(%ebp)
/u/a/b/abhijith/CS537/p3a/xv6-sp20/kernel/mp.c:127
  103632:	8b 45 e8             	mov    -0x18(%ebp),%eax
  103635:	0f b6 40 01          	movzbl 0x1(%eax),%eax
  103639:	a2 a0 fd 10 00       	mov    %al,0x10fda0
/u/a/b/abhijith/CS537/p3a/xv6-sp20/kernel/mp.c:128
  10363e:	83 45 f4 08          	addl   $0x8,-0xc(%ebp)
/u/a/b/abhijith/CS537/p3a/xv6-sp20/kernel/mp.c:129
  103642:	eb 2a                	jmp    10366e <mpinit+0x153>
/u/a/b/abhijith/CS537/p3a/xv6-sp20/kernel/mp.c:133
  103644:	83 45 f4 08          	addl   $0x8,-0xc(%ebp)
/u/a/b/abhijith/CS537/p3a/xv6-sp20/kernel/mp.c:134
  103648:	eb 24                	jmp    10366e <mpinit+0x153>
/u/a/b/abhijith/CS537/p3a/xv6-sp20/kernel/mp.c:136
  10364a:	8b 45 f4             	mov    -0xc(%ebp),%eax
  10364d:	0f b6 00             	movzbl (%eax),%eax
  103650:	0f b6 c0             	movzbl %al,%eax
  103653:	83 ec 08             	sub    $0x8,%esp
  103656:	50                   	push   %eax
  103657:	68 58 80 10 00       	push   $0x108058
  10365c:	e8 8b cd ff ff       	call   1003ec <cprintf>
  103661:	83 c4 10             	add    $0x10,%esp
/u/a/b/abhijith/CS537/p3a/xv6-sp20/kernel/mp.c:137
  103664:	c7 05 a4 fd 10 00 00 	movl   $0x0,0x10fda4
  10366b:	00 00 00 
/u/a/b/abhijith/CS537/p3a/xv6-sp20/kernel/mp.c:111 (discriminator 1)
  10366e:	8b 45 f4             	mov    -0xc(%ebp),%eax
  103671:	3b 45 ec             	cmp    -0x14(%ebp),%eax
  103674:	0f 82 02 ff ff ff    	jb     10357c <mpinit+0x61>
/u/a/b/abhijith/CS537/p3a/xv6-sp20/kernel/mp.c:140
  10367a:	a1 a4 fd 10 00       	mov    0x10fda4,%eax
  10367f:	85 c0                	test   %eax,%eax
  103681:	75 1d                	jne    1036a0 <mpinit+0x185>
/u/a/b/abhijith/CS537/p3a/xv6-sp20/kernel/mp.c:142
  103683:	c7 05 a0 03 11 00 01 	movl   $0x1,0x1103a0
  10368a:	00 00 00 
/u/a/b/abhijith/CS537/p3a/xv6-sp20/kernel/mp.c:143
  10368d:	c7 05 98 fd 10 00 00 	movl   $0x0,0x10fd98
  103694:	00 00 00 
/u/a/b/abhijith/CS537/p3a/xv6-sp20/kernel/mp.c:144
  103697:	c6 05 a0 fd 10 00 00 	movb   $0x0,0x10fda0
/u/a/b/abhijith/CS537/p3a/xv6-sp20/kernel/mp.c:145
  10369e:	eb 3e                	jmp    1036de <mpinit+0x1c3>
/u/a/b/abhijith/CS537/p3a/xv6-sp20/kernel/mp.c:148
  1036a0:	8b 45 e0             	mov    -0x20(%ebp),%eax
  1036a3:	0f b6 40 0c          	movzbl 0xc(%eax),%eax
  1036a7:	84 c0                	test   %al,%al
  1036a9:	74 33                	je     1036de <mpinit+0x1c3>
/u/a/b/abhijith/CS537/p3a/xv6-sp20/kernel/mp.c:151
  1036ab:	83 ec 08             	sub    $0x8,%esp
  1036ae:	6a 70                	push   $0x70
  1036b0:	6a 22                	push   $0x22
  1036b2:	e8 38 fc ff ff       	call   1032ef <outb>
  1036b7:	83 c4 10             	add    $0x10,%esp
/u/a/b/abhijith/CS537/p3a/xv6-sp20/kernel/mp.c:152
  1036ba:	83 ec 0c             	sub    $0xc,%esp
  1036bd:	6a 23                	push   $0x23
  1036bf:	e8 0e fc ff ff       	call   1032d2 <inb>
  1036c4:	83 c4 10             	add    $0x10,%esp
  1036c7:	83 c8 01             	or     $0x1,%eax
  1036ca:	0f b6 c0             	movzbl %al,%eax
  1036cd:	83 ec 08             	sub    $0x8,%esp
  1036d0:	50                   	push   %eax
  1036d1:	6a 23                	push   $0x23
  1036d3:	e8 17 fc ff ff       	call   1032ef <outb>
  1036d8:	83 c4 10             	add    $0x10,%esp
  1036db:	eb 01                	jmp    1036de <mpinit+0x1c3>
/u/a/b/abhijith/CS537/p3a/xv6-sp20/kernel/mp.c:108
  1036dd:	90                   	nop
/u/a/b/abhijith/CS537/p3a/xv6-sp20/kernel/mp.c:154
  1036de:	c9                   	leave  
  1036df:	c3                   	ret    

001036e0 <outb>:
outb():
/u/a/b/abhijith/CS537/p3a/xv6-sp20/include/x86.h:25
  1036e0:	55                   	push   %ebp
  1036e1:	89 e5                	mov    %esp,%ebp
  1036e3:	83 ec 08             	sub    $0x8,%esp
  1036e6:	8b 55 08             	mov    0x8(%ebp),%edx
  1036e9:	8b 45 0c             	mov    0xc(%ebp),%eax
  1036ec:	66 89 55 fc          	mov    %dx,-0x4(%ebp)
  1036f0:	88 45 f8             	mov    %al,-0x8(%ebp)
/u/a/b/abhijith/CS537/p3a/xv6-sp20/include/x86.h:26
  1036f3:	0f b6 45 f8          	movzbl -0x8(%ebp),%eax
  1036f7:	0f b7 55 fc          	movzwl -0x4(%ebp),%edx
  1036fb:	ee                   	out    %al,(%dx)
/u/a/b/abhijith/CS537/p3a/xv6-sp20/include/x86.h:27
  1036fc:	90                   	nop
  1036fd:	c9                   	leave  
  1036fe:	c3                   	ret    

001036ff <picsetmask>:
picsetmask():
/u/a/b/abhijith/CS537/p3a/xv6-sp20/kernel/picirq.c:19
  1036ff:	55                   	push   %ebp
  103700:	89 e5                	mov    %esp,%ebp
  103702:	83 ec 04             	sub    $0x4,%esp
  103705:	8b 45 08             	mov    0x8(%ebp),%eax
  103708:	66 89 45 fc          	mov    %ax,-0x4(%ebp)
/u/a/b/abhijith/CS537/p3a/xv6-sp20/kernel/picirq.c:20
  10370c:	0f b7 45 fc          	movzwl -0x4(%ebp),%eax
  103710:	66 a3 30 a5 10 00    	mov    %ax,0x10a530
/u/a/b/abhijith/CS537/p3a/xv6-sp20/kernel/picirq.c:21
  103716:	0f b7 45 fc          	movzwl -0x4(%ebp),%eax
  10371a:	0f b6 c0             	movzbl %al,%eax
  10371d:	50                   	push   %eax
  10371e:	6a 21                	push   $0x21
  103720:	e8 bb ff ff ff       	call   1036e0 <outb>
  103725:	83 c4 08             	add    $0x8,%esp
/u/a/b/abhijith/CS537/p3a/xv6-sp20/kernel/picirq.c:22
  103728:	0f b7 45 fc          	movzwl -0x4(%ebp),%eax
  10372c:	66 c1 e8 08          	shr    $0x8,%ax
  103730:	0f b6 c0             	movzbl %al,%eax
  103733:	50                   	push   %eax
  103734:	68 a1 00 00 00       	push   $0xa1
  103739:	e8 a2 ff ff ff       	call   1036e0 <outb>
  10373e:	83 c4 08             	add    $0x8,%esp
/u/a/b/abhijith/CS537/p3a/xv6-sp20/kernel/picirq.c:23
  103741:	90                   	nop
  103742:	c9                   	leave  
  103743:	c3                   	ret    

00103744 <picenable>:
picenable():
/u/a/b/abhijith/CS537/p3a/xv6-sp20/kernel/picirq.c:27
  103744:	55                   	push   %ebp
  103745:	89 e5                	mov    %esp,%ebp
/u/a/b/abhijith/CS537/p3a/xv6-sp20/kernel/picirq.c:28
  103747:	8b 45 08             	mov    0x8(%ebp),%eax
  10374a:	ba 01 00 00 00       	mov    $0x1,%edx
  10374f:	89 c1                	mov    %eax,%ecx
  103751:	d3 e2                	shl    %cl,%edx
  103753:	89 d0                	mov    %edx,%eax
  103755:	f7 d0                	not    %eax
  103757:	89 c2                	mov    %eax,%edx
  103759:	0f b7 05 30 a5 10 00 	movzwl 0x10a530,%eax
  103760:	21 d0                	and    %edx,%eax
  103762:	0f b7 c0             	movzwl %ax,%eax
  103765:	50                   	push   %eax
  103766:	e8 94 ff ff ff       	call   1036ff <picsetmask>
  10376b:	83 c4 04             	add    $0x4,%esp
/u/a/b/abhijith/CS537/p3a/xv6-sp20/kernel/picirq.c:29
  10376e:	90                   	nop
  10376f:	c9                   	leave  
  103770:	c3                   	ret    

00103771 <picinit>:
picinit():
/u/a/b/abhijith/CS537/p3a/xv6-sp20/kernel/picirq.c:34
  103771:	55                   	push   %ebp
  103772:	89 e5                	mov    %esp,%ebp
/u/a/b/abhijith/CS537/p3a/xv6-sp20/kernel/picirq.c:36
  103774:	68 ff 00 00 00       	push   $0xff
  103779:	6a 21                	push   $0x21
  10377b:	e8 60 ff ff ff       	call   1036e0 <outb>
  103780:	83 c4 08             	add    $0x8,%esp
/u/a/b/abhijith/CS537/p3a/xv6-sp20/kernel/picirq.c:37
  103783:	68 ff 00 00 00       	push   $0xff
  103788:	68 a1 00 00 00       	push   $0xa1
  10378d:	e8 4e ff ff ff       	call   1036e0 <outb>
  103792:	83 c4 08             	add    $0x8,%esp
/u/a/b/abhijith/CS537/p3a/xv6-sp20/kernel/picirq.c:45
  103795:	6a 11                	push   $0x11
  103797:	6a 20                	push   $0x20
  103799:	e8 42 ff ff ff       	call   1036e0 <outb>
  10379e:	83 c4 08             	add    $0x8,%esp
/u/a/b/abhijith/CS537/p3a/xv6-sp20/kernel/picirq.c:48
  1037a1:	6a 20                	push   $0x20
  1037a3:	6a 21                	push   $0x21
  1037a5:	e8 36 ff ff ff       	call   1036e0 <outb>
  1037aa:	83 c4 08             	add    $0x8,%esp
/u/a/b/abhijith/CS537/p3a/xv6-sp20/kernel/picirq.c:52
  1037ad:	6a 04                	push   $0x4
  1037af:	6a 21                	push   $0x21
  1037b1:	e8 2a ff ff ff       	call   1036e0 <outb>
  1037b6:	83 c4 08             	add    $0x8,%esp
/u/a/b/abhijith/CS537/p3a/xv6-sp20/kernel/picirq.c:62
  1037b9:	6a 03                	push   $0x3
  1037bb:	6a 21                	push   $0x21
  1037bd:	e8 1e ff ff ff       	call   1036e0 <outb>
  1037c2:	83 c4 08             	add    $0x8,%esp
/u/a/b/abhijith/CS537/p3a/xv6-sp20/kernel/picirq.c:65
  1037c5:	6a 11                	push   $0x11
  1037c7:	68 a0 00 00 00       	push   $0xa0
  1037cc:	e8 0f ff ff ff       	call   1036e0 <outb>
  1037d1:	83 c4 08             	add    $0x8,%esp
/u/a/b/abhijith/CS537/p3a/xv6-sp20/kernel/picirq.c:66
  1037d4:	6a 28                	push   $0x28
  1037d6:	68 a1 00 00 00       	push   $0xa1
  1037db:	e8 00 ff ff ff       	call   1036e0 <outb>
  1037e0:	83 c4 08             	add    $0x8,%esp
/u/a/b/abhijith/CS537/p3a/xv6-sp20/kernel/picirq.c:67
  1037e3:	6a 02                	push   $0x2
  1037e5:	68 a1 00 00 00       	push   $0xa1
  1037ea:	e8 f1 fe ff ff       	call   1036e0 <outb>
  1037ef:	83 c4 08             	add    $0x8,%esp
/u/a/b/abhijith/CS537/p3a/xv6-sp20/kernel/picirq.c:70
  1037f2:	6a 03                	push   $0x3
  1037f4:	68 a1 00 00 00       	push   $0xa1
  1037f9:	e8 e2 fe ff ff       	call   1036e0 <outb>
  1037fe:	83 c4 08             	add    $0x8,%esp
/u/a/b/abhijith/CS537/p3a/xv6-sp20/kernel/picirq.c:76
  103801:	6a 68                	push   $0x68
  103803:	6a 20                	push   $0x20
  103805:	e8 d6 fe ff ff       	call   1036e0 <outb>
  10380a:	83 c4 08             	add    $0x8,%esp
/u/a/b/abhijith/CS537/p3a/xv6-sp20/kernel/picirq.c:77
  10380d:	6a 0a                	push   $0xa
  10380f:	6a 20                	push   $0x20
  103811:	e8 ca fe ff ff       	call   1036e0 <outb>
  103816:	83 c4 08             	add    $0x8,%esp
/u/a/b/abhijith/CS537/p3a/xv6-sp20/kernel/picirq.c:79
  103819:	6a 68                	push   $0x68
  10381b:	68 a0 00 00 00       	push   $0xa0
  103820:	e8 bb fe ff ff       	call   1036e0 <outb>
  103825:	83 c4 08             	add    $0x8,%esp
/u/a/b/abhijith/CS537/p3a/xv6-sp20/kernel/picirq.c:80
  103828:	6a 0a                	push   $0xa
  10382a:	68 a0 00 00 00       	push   $0xa0
  10382f:	e8 ac fe ff ff       	call   1036e0 <outb>
  103834:	83 c4 08             	add    $0x8,%esp
/u/a/b/abhijith/CS537/p3a/xv6-sp20/kernel/picirq.c:82
  103837:	0f b7 05 30 a5 10 00 	movzwl 0x10a530,%eax
  10383e:	66 83 f8 ff          	cmp    $0xffff,%ax
  103842:	74 13                	je     103857 <picinit+0xe6>
/u/a/b/abhijith/CS537/p3a/xv6-sp20/kernel/picirq.c:83
  103844:	0f b7 05 30 a5 10 00 	movzwl 0x10a530,%eax
  10384b:	0f b7 c0             	movzwl %ax,%eax
  10384e:	50                   	push   %eax
  10384f:	e8 ab fe ff ff       	call   1036ff <picsetmask>
  103854:	83 c4 04             	add    $0x4,%esp
/u/a/b/abhijith/CS537/p3a/xv6-sp20/kernel/picirq.c:84
  103857:	90                   	nop
  103858:	c9                   	leave  
  103859:	c3                   	ret    

0010385a <pipealloc>:
pipealloc():
/u/a/b/abhijith/CS537/p3a/xv6-sp20/kernel/pipe.c:23
  10385a:	55                   	push   %ebp
  10385b:	89 e5                	mov    %esp,%ebp
  10385d:	83 ec 18             	sub    $0x18,%esp
/u/a/b/abhijith/CS537/p3a/xv6-sp20/kernel/pipe.c:26
  103860:	c7 45 f4 00 00 00 00 	movl   $0x0,-0xc(%ebp)
/u/a/b/abhijith/CS537/p3a/xv6-sp20/kernel/pipe.c:27
  103867:	8b 45 0c             	mov    0xc(%ebp),%eax
  10386a:	c7 00 00 00 00 00    	movl   $0x0,(%eax)
  103870:	8b 45 0c             	mov    0xc(%ebp),%eax
  103873:	8b 10                	mov    (%eax),%edx
  103875:	8b 45 08             	mov    0x8(%ebp),%eax
  103878:	89 10                	mov    %edx,(%eax)
/u/a/b/abhijith/CS537/p3a/xv6-sp20/kernel/pipe.c:28
  10387a:	e8 e2 d6 ff ff       	call   100f61 <filealloc>
  10387f:	89 c2                	mov    %eax,%edx
  103881:	8b 45 08             	mov    0x8(%ebp),%eax
  103884:	89 10                	mov    %edx,(%eax)
  103886:	8b 45 08             	mov    0x8(%ebp),%eax
  103889:	8b 00                	mov    (%eax),%eax
  10388b:	85 c0                	test   %eax,%eax
  10388d:	0f 84 ca 00 00 00    	je     10395d <pipealloc+0x103>
/u/a/b/abhijith/CS537/p3a/xv6-sp20/kernel/pipe.c:28 (discriminator 1)
  103893:	e8 c9 d6 ff ff       	call   100f61 <filealloc>
  103898:	89 c2                	mov    %eax,%edx
  10389a:	8b 45 0c             	mov    0xc(%ebp),%eax
  10389d:	89 10                	mov    %edx,(%eax)
  10389f:	8b 45 0c             	mov    0xc(%ebp),%eax
  1038a2:	8b 00                	mov    (%eax),%eax
  1038a4:	85 c0                	test   %eax,%eax
  1038a6:	0f 84 b1 00 00 00    	je     10395d <pipealloc+0x103>
/u/a/b/abhijith/CS537/p3a/xv6-sp20/kernel/pipe.c:30
  1038ac:	e8 73 f2 ff ff       	call   102b24 <kalloc>
  1038b1:	89 45 f4             	mov    %eax,-0xc(%ebp)
  1038b4:	83 7d f4 00          	cmpl   $0x0,-0xc(%ebp)
  1038b8:	0f 84 a2 00 00 00    	je     103960 <pipealloc+0x106>
/u/a/b/abhijith/CS537/p3a/xv6-sp20/kernel/pipe.c:32
  1038be:	8b 45 f4             	mov    -0xc(%ebp),%eax
  1038c1:	c7 80 3c 02 00 00 01 	movl   $0x1,0x23c(%eax)
  1038c8:	00 00 00 
/u/a/b/abhijith/CS537/p3a/xv6-sp20/kernel/pipe.c:33
  1038cb:	8b 45 f4             	mov    -0xc(%ebp),%eax
  1038ce:	c7 80 40 02 00 00 01 	movl   $0x1,0x240(%eax)
  1038d5:	00 00 00 
/u/a/b/abhijith/CS537/p3a/xv6-sp20/kernel/pipe.c:34
  1038d8:	8b 45 f4             	mov    -0xc(%ebp),%eax
  1038db:	c7 80 38 02 00 00 00 	movl   $0x0,0x238(%eax)
  1038e2:	00 00 00 
/u/a/b/abhijith/CS537/p3a/xv6-sp20/kernel/pipe.c:35
  1038e5:	8b 45 f4             	mov    -0xc(%ebp),%eax
  1038e8:	c7 80 34 02 00 00 00 	movl   $0x0,0x234(%eax)
  1038ef:	00 00 00 
/u/a/b/abhijith/CS537/p3a/xv6-sp20/kernel/pipe.c:36
  1038f2:	8b 45 f4             	mov    -0xc(%ebp),%eax
  1038f5:	83 ec 08             	sub    $0x8,%esp
  1038f8:	68 8c 80 10 00       	push   $0x10808c
  1038fd:	50                   	push   %eax
  1038fe:	e8 c1 0e 00 00       	call   1047c4 <initlock>
  103903:	83 c4 10             	add    $0x10,%esp
/u/a/b/abhijith/CS537/p3a/xv6-sp20/kernel/pipe.c:37
  103906:	8b 45 08             	mov    0x8(%ebp),%eax
  103909:	8b 00                	mov    (%eax),%eax
  10390b:	c7 00 01 00 00 00    	movl   $0x1,(%eax)
/u/a/b/abhijith/CS537/p3a/xv6-sp20/kernel/pipe.c:38
  103911:	8b 45 08             	mov    0x8(%ebp),%eax
  103914:	8b 00                	mov    (%eax),%eax
  103916:	c6 40 08 01          	movb   $0x1,0x8(%eax)
/u/a/b/abhijith/CS537/p3a/xv6-sp20/kernel/pipe.c:39
  10391a:	8b 45 08             	mov    0x8(%ebp),%eax
  10391d:	8b 00                	mov    (%eax),%eax
  10391f:	c6 40 09 00          	movb   $0x0,0x9(%eax)
/u/a/b/abhijith/CS537/p3a/xv6-sp20/kernel/pipe.c:40
  103923:	8b 45 08             	mov    0x8(%ebp),%eax
  103926:	8b 00                	mov    (%eax),%eax
  103928:	8b 55 f4             	mov    -0xc(%ebp),%edx
  10392b:	89 50 0c             	mov    %edx,0xc(%eax)
/u/a/b/abhijith/CS537/p3a/xv6-sp20/kernel/pipe.c:41
  10392e:	8b 45 0c             	mov    0xc(%ebp),%eax
  103931:	8b 00                	mov    (%eax),%eax
  103933:	c7 00 01 00 00 00    	movl   $0x1,(%eax)
/u/a/b/abhijith/CS537/p3a/xv6-sp20/kernel/pipe.c:42
  103939:	8b 45 0c             	mov    0xc(%ebp),%eax
  10393c:	8b 00                	mov    (%eax),%eax
  10393e:	c6 40 08 00          	movb   $0x0,0x8(%eax)
/u/a/b/abhijith/CS537/p3a/xv6-sp20/kernel/pipe.c:43
  103942:	8b 45 0c             	mov    0xc(%ebp),%eax
  103945:	8b 00                	mov    (%eax),%eax
  103947:	c6 40 09 01          	movb   $0x1,0x9(%eax)
/u/a/b/abhijith/CS537/p3a/xv6-sp20/kernel/pipe.c:44
  10394b:	8b 45 0c             	mov    0xc(%ebp),%eax
  10394e:	8b 00                	mov    (%eax),%eax
  103950:	8b 55 f4             	mov    -0xc(%ebp),%edx
  103953:	89 50 0c             	mov    %edx,0xc(%eax)
/u/a/b/abhijith/CS537/p3a/xv6-sp20/kernel/pipe.c:45
  103956:	b8 00 00 00 00       	mov    $0x0,%eax
  10395b:	eb 51                	jmp    1039ae <pipealloc+0x154>
/u/a/b/abhijith/CS537/p3a/xv6-sp20/kernel/pipe.c:47
  10395d:	90                   	nop
  10395e:	eb 01                	jmp    103961 <pipealloc+0x107>
/u/a/b/abhijith/CS537/p3a/xv6-sp20/kernel/pipe.c:31
  103960:	90                   	nop
/u/a/b/abhijith/CS537/p3a/xv6-sp20/kernel/pipe.c:48
  103961:	83 7d f4 00          	cmpl   $0x0,-0xc(%ebp)
  103965:	74 0e                	je     103975 <pipealloc+0x11b>
/u/a/b/abhijith/CS537/p3a/xv6-sp20/kernel/pipe.c:49
  103967:	83 ec 0c             	sub    $0xc,%esp
  10396a:	ff 75 f4             	pushl  -0xc(%ebp)
  10396d:	e8 11 f1 ff ff       	call   102a83 <kfree>
  103972:	83 c4 10             	add    $0x10,%esp
/u/a/b/abhijith/CS537/p3a/xv6-sp20/kernel/pipe.c:50
  103975:	8b 45 08             	mov    0x8(%ebp),%eax
  103978:	8b 00                	mov    (%eax),%eax
  10397a:	85 c0                	test   %eax,%eax
  10397c:	74 11                	je     10398f <pipealloc+0x135>
/u/a/b/abhijith/CS537/p3a/xv6-sp20/kernel/pipe.c:51
  10397e:	8b 45 08             	mov    0x8(%ebp),%eax
  103981:	8b 00                	mov    (%eax),%eax
  103983:	83 ec 0c             	sub    $0xc,%esp
  103986:	50                   	push   %eax
  103987:	e8 93 d6 ff ff       	call   10101f <fileclose>
  10398c:	83 c4 10             	add    $0x10,%esp
/u/a/b/abhijith/CS537/p3a/xv6-sp20/kernel/pipe.c:52
  10398f:	8b 45 0c             	mov    0xc(%ebp),%eax
  103992:	8b 00                	mov    (%eax),%eax
  103994:	85 c0                	test   %eax,%eax
  103996:	74 11                	je     1039a9 <pipealloc+0x14f>
/u/a/b/abhijith/CS537/p3a/xv6-sp20/kernel/pipe.c:53
  103998:	8b 45 0c             	mov    0xc(%ebp),%eax
  10399b:	8b 00                	mov    (%eax),%eax
  10399d:	83 ec 0c             	sub    $0xc,%esp
  1039a0:	50                   	push   %eax
  1039a1:	e8 79 d6 ff ff       	call   10101f <fileclose>
  1039a6:	83 c4 10             	add    $0x10,%esp
/u/a/b/abhijith/CS537/p3a/xv6-sp20/kernel/pipe.c:54
  1039a9:	b8 ff ff ff ff       	mov    $0xffffffff,%eax
/u/a/b/abhijith/CS537/p3a/xv6-sp20/kernel/pipe.c:55
  1039ae:	c9                   	leave  
  1039af:	c3                   	ret    

001039b0 <pipeclose>:
pipeclose():
/u/a/b/abhijith/CS537/p3a/xv6-sp20/kernel/pipe.c:59
  1039b0:	55                   	push   %ebp
  1039b1:	89 e5                	mov    %esp,%ebp
  1039b3:	83 ec 08             	sub    $0x8,%esp
/u/a/b/abhijith/CS537/p3a/xv6-sp20/kernel/pipe.c:60
  1039b6:	8b 45 08             	mov    0x8(%ebp),%eax
  1039b9:	83 ec 0c             	sub    $0xc,%esp
  1039bc:	50                   	push   %eax
  1039bd:	e8 24 0e 00 00       	call   1047e6 <acquire>
  1039c2:	83 c4 10             	add    $0x10,%esp
/u/a/b/abhijith/CS537/p3a/xv6-sp20/kernel/pipe.c:61
  1039c5:	83 7d 0c 00          	cmpl   $0x0,0xc(%ebp)
  1039c9:	74 23                	je     1039ee <pipeclose+0x3e>
/u/a/b/abhijith/CS537/p3a/xv6-sp20/kernel/pipe.c:62
  1039cb:	8b 45 08             	mov    0x8(%ebp),%eax
  1039ce:	c7 80 40 02 00 00 00 	movl   $0x0,0x240(%eax)
  1039d5:	00 00 00 
/u/a/b/abhijith/CS537/p3a/xv6-sp20/kernel/pipe.c:63
  1039d8:	8b 45 08             	mov    0x8(%ebp),%eax
  1039db:	05 34 02 00 00       	add    $0x234,%eax
  1039e0:	83 ec 0c             	sub    $0xc,%esp
  1039e3:	50                   	push   %eax
  1039e4:	e8 ef 0b 00 00       	call   1045d8 <wakeup>
  1039e9:	83 c4 10             	add    $0x10,%esp
  1039ec:	eb 21                	jmp    103a0f <pipeclose+0x5f>
/u/a/b/abhijith/CS537/p3a/xv6-sp20/kernel/pipe.c:65
  1039ee:	8b 45 08             	mov    0x8(%ebp),%eax
  1039f1:	c7 80 3c 02 00 00 00 	movl   $0x0,0x23c(%eax)
  1039f8:	00 00 00 
/u/a/b/abhijith/CS537/p3a/xv6-sp20/kernel/pipe.c:66
  1039fb:	8b 45 08             	mov    0x8(%ebp),%eax
  1039fe:	05 38 02 00 00       	add    $0x238,%eax
  103a03:	83 ec 0c             	sub    $0xc,%esp
  103a06:	50                   	push   %eax
  103a07:	e8 cc 0b 00 00       	call   1045d8 <wakeup>
  103a0c:	83 c4 10             	add    $0x10,%esp
/u/a/b/abhijith/CS537/p3a/xv6-sp20/kernel/pipe.c:68
  103a0f:	8b 45 08             	mov    0x8(%ebp),%eax
  103a12:	8b 80 3c 02 00 00    	mov    0x23c(%eax),%eax
  103a18:	85 c0                	test   %eax,%eax
  103a1a:	75 2c                	jne    103a48 <pipeclose+0x98>
/u/a/b/abhijith/CS537/p3a/xv6-sp20/kernel/pipe.c:68 (discriminator 1)
  103a1c:	8b 45 08             	mov    0x8(%ebp),%eax
  103a1f:	8b 80 40 02 00 00    	mov    0x240(%eax),%eax
  103a25:	85 c0                	test   %eax,%eax
  103a27:	75 1f                	jne    103a48 <pipeclose+0x98>
/u/a/b/abhijith/CS537/p3a/xv6-sp20/kernel/pipe.c:69
  103a29:	8b 45 08             	mov    0x8(%ebp),%eax
  103a2c:	83 ec 0c             	sub    $0xc,%esp
  103a2f:	50                   	push   %eax
  103a30:	e8 18 0e 00 00       	call   10484d <release>
  103a35:	83 c4 10             	add    $0x10,%esp
/u/a/b/abhijith/CS537/p3a/xv6-sp20/kernel/pipe.c:70
  103a38:	83 ec 0c             	sub    $0xc,%esp
  103a3b:	ff 75 08             	pushl  0x8(%ebp)
  103a3e:	e8 40 f0 ff ff       	call   102a83 <kfree>
  103a43:	83 c4 10             	add    $0x10,%esp
  103a46:	eb 0f                	jmp    103a57 <pipeclose+0xa7>
/u/a/b/abhijith/CS537/p3a/xv6-sp20/kernel/pipe.c:72
  103a48:	8b 45 08             	mov    0x8(%ebp),%eax
  103a4b:	83 ec 0c             	sub    $0xc,%esp
  103a4e:	50                   	push   %eax
  103a4f:	e8 f9 0d 00 00       	call   10484d <release>
  103a54:	83 c4 10             	add    $0x10,%esp
/u/a/b/abhijith/CS537/p3a/xv6-sp20/kernel/pipe.c:73
  103a57:	90                   	nop
  103a58:	c9                   	leave  
  103a59:	c3                   	ret    

00103a5a <pipewrite>:
pipewrite():
/u/a/b/abhijith/CS537/p3a/xv6-sp20/kernel/pipe.c:77
  103a5a:	55                   	push   %ebp
  103a5b:	89 e5                	mov    %esp,%ebp
  103a5d:	53                   	push   %ebx
  103a5e:	83 ec 14             	sub    $0x14,%esp
/u/a/b/abhijith/CS537/p3a/xv6-sp20/kernel/pipe.c:80
  103a61:	8b 45 08             	mov    0x8(%ebp),%eax
  103a64:	83 ec 0c             	sub    $0xc,%esp
  103a67:	50                   	push   %eax
  103a68:	e8 79 0d 00 00       	call   1047e6 <acquire>
  103a6d:	83 c4 10             	add    $0x10,%esp
/u/a/b/abhijith/CS537/p3a/xv6-sp20/kernel/pipe.c:81
  103a70:	c7 45 f4 00 00 00 00 	movl   $0x0,-0xc(%ebp)
  103a77:	e9 ae 00 00 00       	jmp    103b2a <pipewrite+0xd0>
/u/a/b/abhijith/CS537/p3a/xv6-sp20/kernel/pipe.c:83
  103a7c:	8b 45 08             	mov    0x8(%ebp),%eax
  103a7f:	8b 80 3c 02 00 00    	mov    0x23c(%eax),%eax
  103a85:	85 c0                	test   %eax,%eax
  103a87:	74 0d                	je     103a96 <pipewrite+0x3c>
/u/a/b/abhijith/CS537/p3a/xv6-sp20/kernel/pipe.c:83 (discriminator 1)
  103a89:	65 a1 04 00 00 00    	mov    %gs:0x4,%eax
  103a8f:	8b 40 24             	mov    0x24(%eax),%eax
  103a92:	85 c0                	test   %eax,%eax
  103a94:	74 19                	je     103aaf <pipewrite+0x55>
/u/a/b/abhijith/CS537/p3a/xv6-sp20/kernel/pipe.c:84
  103a96:	8b 45 08             	mov    0x8(%ebp),%eax
  103a99:	83 ec 0c             	sub    $0xc,%esp
  103a9c:	50                   	push   %eax
  103a9d:	e8 ab 0d 00 00       	call   10484d <release>
  103aa2:	83 c4 10             	add    $0x10,%esp
/u/a/b/abhijith/CS537/p3a/xv6-sp20/kernel/pipe.c:85
  103aa5:	b8 ff ff ff ff       	mov    $0xffffffff,%eax
  103aaa:	e9 a9 00 00 00       	jmp    103b58 <pipewrite+0xfe>
/u/a/b/abhijith/CS537/p3a/xv6-sp20/kernel/pipe.c:87
  103aaf:	8b 45 08             	mov    0x8(%ebp),%eax
  103ab2:	05 34 02 00 00       	add    $0x234,%eax
  103ab7:	83 ec 0c             	sub    $0xc,%esp
  103aba:	50                   	push   %eax
  103abb:	e8 18 0b 00 00       	call   1045d8 <wakeup>
  103ac0:	83 c4 10             	add    $0x10,%esp
/u/a/b/abhijith/CS537/p3a/xv6-sp20/kernel/pipe.c:88
  103ac3:	8b 45 08             	mov    0x8(%ebp),%eax
  103ac6:	8b 55 08             	mov    0x8(%ebp),%edx
  103ac9:	81 c2 38 02 00 00    	add    $0x238,%edx
  103acf:	83 ec 08             	sub    $0x8,%esp
  103ad2:	50                   	push   %eax
  103ad3:	52                   	push   %edx
  103ad4:	e8 14 0a 00 00       	call   1044ed <sleep>
  103ad9:	83 c4 10             	add    $0x10,%esp
/u/a/b/abhijith/CS537/p3a/xv6-sp20/kernel/pipe.c:82
  103adc:	8b 45 08             	mov    0x8(%ebp),%eax
  103adf:	8b 90 38 02 00 00    	mov    0x238(%eax),%edx
  103ae5:	8b 45 08             	mov    0x8(%ebp),%eax
  103ae8:	8b 80 34 02 00 00    	mov    0x234(%eax),%eax
  103aee:	05 00 02 00 00       	add    $0x200,%eax
  103af3:	39 c2                	cmp    %eax,%edx
  103af5:	74 85                	je     103a7c <pipewrite+0x22>
/u/a/b/abhijith/CS537/p3a/xv6-sp20/kernel/pipe.c:90 (discriminator 2)
  103af7:	8b 55 f4             	mov    -0xc(%ebp),%edx
  103afa:	8b 45 0c             	mov    0xc(%ebp),%eax
  103afd:	8d 1c 02             	lea    (%edx,%eax,1),%ebx
  103b00:	8b 45 08             	mov    0x8(%ebp),%eax
  103b03:	8b 80 38 02 00 00    	mov    0x238(%eax),%eax
  103b09:	8d 48 01             	lea    0x1(%eax),%ecx
  103b0c:	8b 55 08             	mov    0x8(%ebp),%edx
  103b0f:	89 8a 38 02 00 00    	mov    %ecx,0x238(%edx)
  103b15:	25 ff 01 00 00       	and    $0x1ff,%eax
  103b1a:	89 c1                	mov    %eax,%ecx
  103b1c:	0f b6 13             	movzbl (%ebx),%edx
  103b1f:	8b 45 08             	mov    0x8(%ebp),%eax
  103b22:	88 54 08 34          	mov    %dl,0x34(%eax,%ecx,1)
/u/a/b/abhijith/CS537/p3a/xv6-sp20/kernel/pipe.c:81 (discriminator 2)
  103b26:	83 45 f4 01          	addl   $0x1,-0xc(%ebp)
/u/a/b/abhijith/CS537/p3a/xv6-sp20/kernel/pipe.c:81 (discriminator 1)
  103b2a:	8b 45 f4             	mov    -0xc(%ebp),%eax
  103b2d:	3b 45 10             	cmp    0x10(%ebp),%eax
  103b30:	7c aa                	jl     103adc <pipewrite+0x82>
/u/a/b/abhijith/CS537/p3a/xv6-sp20/kernel/pipe.c:92
  103b32:	8b 45 08             	mov    0x8(%ebp),%eax
  103b35:	05 34 02 00 00       	add    $0x234,%eax
  103b3a:	83 ec 0c             	sub    $0xc,%esp
  103b3d:	50                   	push   %eax
  103b3e:	e8 95 0a 00 00       	call   1045d8 <wakeup>
  103b43:	83 c4 10             	add    $0x10,%esp
/u/a/b/abhijith/CS537/p3a/xv6-sp20/kernel/pipe.c:93
  103b46:	8b 45 08             	mov    0x8(%ebp),%eax
  103b49:	83 ec 0c             	sub    $0xc,%esp
  103b4c:	50                   	push   %eax
  103b4d:	e8 fb 0c 00 00       	call   10484d <release>
  103b52:	83 c4 10             	add    $0x10,%esp
/u/a/b/abhijith/CS537/p3a/xv6-sp20/kernel/pipe.c:94
  103b55:	8b 45 10             	mov    0x10(%ebp),%eax
/u/a/b/abhijith/CS537/p3a/xv6-sp20/kernel/pipe.c:95
  103b58:	8b 5d fc             	mov    -0x4(%ebp),%ebx
  103b5b:	c9                   	leave  
  103b5c:	c3                   	ret    

00103b5d <piperead>:
piperead():
/u/a/b/abhijith/CS537/p3a/xv6-sp20/kernel/pipe.c:99
  103b5d:	55                   	push   %ebp
  103b5e:	89 e5                	mov    %esp,%ebp
  103b60:	83 ec 18             	sub    $0x18,%esp
/u/a/b/abhijith/CS537/p3a/xv6-sp20/kernel/pipe.c:102
  103b63:	8b 45 08             	mov    0x8(%ebp),%eax
  103b66:	83 ec 0c             	sub    $0xc,%esp
  103b69:	50                   	push   %eax
  103b6a:	e8 77 0c 00 00       	call   1047e6 <acquire>
  103b6f:	83 c4 10             	add    $0x10,%esp
/u/a/b/abhijith/CS537/p3a/xv6-sp20/kernel/pipe.c:103
  103b72:	eb 3f                	jmp    103bb3 <piperead+0x56>
/u/a/b/abhijith/CS537/p3a/xv6-sp20/kernel/pipe.c:104
  103b74:	65 a1 04 00 00 00    	mov    %gs:0x4,%eax
  103b7a:	8b 40 24             	mov    0x24(%eax),%eax
  103b7d:	85 c0                	test   %eax,%eax
  103b7f:	74 19                	je     103b9a <piperead+0x3d>
/u/a/b/abhijith/CS537/p3a/xv6-sp20/kernel/pipe.c:105
  103b81:	8b 45 08             	mov    0x8(%ebp),%eax
  103b84:	83 ec 0c             	sub    $0xc,%esp
  103b87:	50                   	push   %eax
  103b88:	e8 c0 0c 00 00       	call   10484d <release>
  103b8d:	83 c4 10             	add    $0x10,%esp
/u/a/b/abhijith/CS537/p3a/xv6-sp20/kernel/pipe.c:106
  103b90:	b8 ff ff ff ff       	mov    $0xffffffff,%eax
  103b95:	e9 be 00 00 00       	jmp    103c58 <piperead+0xfb>
/u/a/b/abhijith/CS537/p3a/xv6-sp20/kernel/pipe.c:108
  103b9a:	8b 45 08             	mov    0x8(%ebp),%eax
  103b9d:	8b 55 08             	mov    0x8(%ebp),%edx
  103ba0:	81 c2 34 02 00 00    	add    $0x234,%edx
  103ba6:	83 ec 08             	sub    $0x8,%esp
  103ba9:	50                   	push   %eax
  103baa:	52                   	push   %edx
  103bab:	e8 3d 09 00 00       	call   1044ed <sleep>
  103bb0:	83 c4 10             	add    $0x10,%esp
/u/a/b/abhijith/CS537/p3a/xv6-sp20/kernel/pipe.c:103
  103bb3:	8b 45 08             	mov    0x8(%ebp),%eax
  103bb6:	8b 90 34 02 00 00    	mov    0x234(%eax),%edx
  103bbc:	8b 45 08             	mov    0x8(%ebp),%eax
  103bbf:	8b 80 38 02 00 00    	mov    0x238(%eax),%eax
  103bc5:	39 c2                	cmp    %eax,%edx
  103bc7:	75 0d                	jne    103bd6 <piperead+0x79>
/u/a/b/abhijith/CS537/p3a/xv6-sp20/kernel/pipe.c:103 (discriminator 1)
  103bc9:	8b 45 08             	mov    0x8(%ebp),%eax
  103bcc:	8b 80 40 02 00 00    	mov    0x240(%eax),%eax
  103bd2:	85 c0                	test   %eax,%eax
  103bd4:	75 9e                	jne    103b74 <piperead+0x17>
/u/a/b/abhijith/CS537/p3a/xv6-sp20/kernel/pipe.c:110
  103bd6:	c7 45 f4 00 00 00 00 	movl   $0x0,-0xc(%ebp)
  103bdd:	eb 48                	jmp    103c27 <piperead+0xca>
/u/a/b/abhijith/CS537/p3a/xv6-sp20/kernel/pipe.c:111
  103bdf:	8b 45 08             	mov    0x8(%ebp),%eax
  103be2:	8b 90 34 02 00 00    	mov    0x234(%eax),%edx
  103be8:	8b 45 08             	mov    0x8(%ebp),%eax
  103beb:	8b 80 38 02 00 00    	mov    0x238(%eax),%eax
  103bf1:	39 c2                	cmp    %eax,%edx
  103bf3:	74 3c                	je     103c31 <piperead+0xd4>
/u/a/b/abhijith/CS537/p3a/xv6-sp20/kernel/pipe.c:113 (discriminator 2)
  103bf5:	8b 45 08             	mov    0x8(%ebp),%eax
  103bf8:	8b 80 34 02 00 00    	mov    0x234(%eax),%eax
  103bfe:	8d 48 01             	lea    0x1(%eax),%ecx
  103c01:	8b 55 08             	mov    0x8(%ebp),%edx
  103c04:	89 8a 34 02 00 00    	mov    %ecx,0x234(%edx)
  103c0a:	25 ff 01 00 00       	and    $0x1ff,%eax
  103c0f:	89 c1                	mov    %eax,%ecx
  103c11:	8b 55 f4             	mov    -0xc(%ebp),%edx
  103c14:	8b 45 0c             	mov    0xc(%ebp),%eax
  103c17:	01 c2                	add    %eax,%edx
  103c19:	8b 45 08             	mov    0x8(%ebp),%eax
  103c1c:	0f b6 44 08 34       	movzbl 0x34(%eax,%ecx,1),%eax
  103c21:	88 02                	mov    %al,(%edx)
/u/a/b/abhijith/CS537/p3a/xv6-sp20/kernel/pipe.c:110 (discriminator 2)
  103c23:	83 45 f4 01          	addl   $0x1,-0xc(%ebp)
/u/a/b/abhijith/CS537/p3a/xv6-sp20/kernel/pipe.c:110 (discriminator 1)
  103c27:	8b 45 f4             	mov    -0xc(%ebp),%eax
  103c2a:	3b 45 10             	cmp    0x10(%ebp),%eax
  103c2d:	7c b0                	jl     103bdf <piperead+0x82>
  103c2f:	eb 01                	jmp    103c32 <piperead+0xd5>
/u/a/b/abhijith/CS537/p3a/xv6-sp20/kernel/pipe.c:112
  103c31:	90                   	nop
/u/a/b/abhijith/CS537/p3a/xv6-sp20/kernel/pipe.c:115
  103c32:	8b 45 08             	mov    0x8(%ebp),%eax
  103c35:	05 38 02 00 00       	add    $0x238,%eax
  103c3a:	83 ec 0c             	sub    $0xc,%esp
  103c3d:	50                   	push   %eax
  103c3e:	e8 95 09 00 00       	call   1045d8 <wakeup>
  103c43:	83 c4 10             	add    $0x10,%esp
/u/a/b/abhijith/CS537/p3a/xv6-sp20/kernel/pipe.c:116
  103c46:	8b 45 08             	mov    0x8(%ebp),%eax
  103c49:	83 ec 0c             	sub    $0xc,%esp
  103c4c:	50                   	push   %eax
  103c4d:	e8 fb 0b 00 00       	call   10484d <release>
  103c52:	83 c4 10             	add    $0x10,%esp
/u/a/b/abhijith/CS537/p3a/xv6-sp20/kernel/pipe.c:117
  103c55:	8b 45 f4             	mov    -0xc(%ebp),%eax
/u/a/b/abhijith/CS537/p3a/xv6-sp20/kernel/pipe.c:118
  103c58:	c9                   	leave  
  103c59:	c3                   	ret    

00103c5a <readeflags>:
readeflags():
/u/a/b/abhijith/CS537/p3a/xv6-sp20/include/x86.h:89
  103c5a:	55                   	push   %ebp
  103c5b:	89 e5                	mov    %esp,%ebp
  103c5d:	83 ec 10             	sub    $0x10,%esp
/u/a/b/abhijith/CS537/p3a/xv6-sp20/include/x86.h:91
  103c60:	9c                   	pushf  
  103c61:	58                   	pop    %eax
  103c62:	89 45 fc             	mov    %eax,-0x4(%ebp)
/u/a/b/abhijith/CS537/p3a/xv6-sp20/include/x86.h:92
  103c65:	8b 45 fc             	mov    -0x4(%ebp),%eax
/u/a/b/abhijith/CS537/p3a/xv6-sp20/include/x86.h:93
  103c68:	c9                   	leave  
  103c69:	c3                   	ret    

00103c6a <sti>:
sti():
/u/a/b/abhijith/CS537/p3a/xv6-sp20/include/x86.h:125
  103c6a:	55                   	push   %ebp
  103c6b:	89 e5                	mov    %esp,%ebp
/u/a/b/abhijith/CS537/p3a/xv6-sp20/include/x86.h:126
  103c6d:	fb                   	sti    
/u/a/b/abhijith/CS537/p3a/xv6-sp20/include/x86.h:127
  103c6e:	90                   	nop
  103c6f:	5d                   	pop    %ebp
  103c70:	c3                   	ret    

00103c71 <pinit>:
pinit():
/u/a/b/abhijith/CS537/p3a/xv6-sp20/kernel/proc.c:24
  103c71:	55                   	push   %ebp
  103c72:	89 e5                	mov    %esp,%ebp
  103c74:	83 ec 08             	sub    $0x8,%esp
/u/a/b/abhijith/CS537/p3a/xv6-sp20/kernel/proc.c:25
  103c77:	83 ec 08             	sub    $0x8,%esp
  103c7a:	68 91 80 10 00       	push   $0x108091
  103c7f:	68 c0 03 11 00       	push   $0x1103c0
  103c84:	e8 3b 0b 00 00       	call   1047c4 <initlock>
  103c89:	83 c4 10             	add    $0x10,%esp
/u/a/b/abhijith/CS537/p3a/xv6-sp20/kernel/proc.c:26
  103c8c:	90                   	nop
  103c8d:	c9                   	leave  
  103c8e:	c3                   	ret    

00103c8f <allocproc>:
allocproc():
/u/a/b/abhijith/CS537/p3a/xv6-sp20/kernel/proc.c:34
  103c8f:	55                   	push   %ebp
  103c90:	89 e5                	mov    %esp,%ebp
  103c92:	83 ec 18             	sub    $0x18,%esp
/u/a/b/abhijith/CS537/p3a/xv6-sp20/kernel/proc.c:38
  103c95:	83 ec 0c             	sub    $0xc,%esp
  103c98:	68 c0 03 11 00       	push   $0x1103c0
  103c9d:	e8 44 0b 00 00       	call   1047e6 <acquire>
  103ca2:	83 c4 10             	add    $0x10,%esp
/u/a/b/abhijith/CS537/p3a/xv6-sp20/kernel/proc.c:39
  103ca5:	c7 45 f4 f4 03 11 00 	movl   $0x1103f4,-0xc(%ebp)
  103cac:	eb 0e                	jmp    103cbc <allocproc+0x2d>
/u/a/b/abhijith/CS537/p3a/xv6-sp20/kernel/proc.c:40
  103cae:	8b 45 f4             	mov    -0xc(%ebp),%eax
  103cb1:	8b 40 0c             	mov    0xc(%eax),%eax
  103cb4:	85 c0                	test   %eax,%eax
  103cb6:	74 27                	je     103cdf <allocproc+0x50>
/u/a/b/abhijith/CS537/p3a/xv6-sp20/kernel/proc.c:39 (discriminator 2)
  103cb8:	83 45 f4 7c          	addl   $0x7c,-0xc(%ebp)
/u/a/b/abhijith/CS537/p3a/xv6-sp20/kernel/proc.c:39 (discriminator 1)
  103cbc:	81 7d f4 f4 22 11 00 	cmpl   $0x1122f4,-0xc(%ebp)
  103cc3:	72 e9                	jb     103cae <allocproc+0x1f>
/u/a/b/abhijith/CS537/p3a/xv6-sp20/kernel/proc.c:42
  103cc5:	83 ec 0c             	sub    $0xc,%esp
  103cc8:	68 c0 03 11 00       	push   $0x1103c0
  103ccd:	e8 7b 0b 00 00       	call   10484d <release>
  103cd2:	83 c4 10             	add    $0x10,%esp
/u/a/b/abhijith/CS537/p3a/xv6-sp20/kernel/proc.c:43
  103cd5:	b8 00 00 00 00       	mov    $0x0,%eax
  103cda:	e9 b4 00 00 00       	jmp    103d93 <allocproc+0x104>
/u/a/b/abhijith/CS537/p3a/xv6-sp20/kernel/proc.c:41
  103cdf:	90                   	nop
/u/a/b/abhijith/CS537/p3a/xv6-sp20/kernel/proc.c:46
  103ce0:	8b 45 f4             	mov    -0xc(%ebp),%eax
  103ce3:	c7 40 0c 01 00 00 00 	movl   $0x1,0xc(%eax)
/u/a/b/abhijith/CS537/p3a/xv6-sp20/kernel/proc.c:47
  103cea:	a1 34 a5 10 00       	mov    0x10a534,%eax
  103cef:	8d 50 01             	lea    0x1(%eax),%edx
  103cf2:	89 15 34 a5 10 00    	mov    %edx,0x10a534
  103cf8:	8b 55 f4             	mov    -0xc(%ebp),%edx
  103cfb:	89 42 10             	mov    %eax,0x10(%edx)
/u/a/b/abhijith/CS537/p3a/xv6-sp20/kernel/proc.c:48
  103cfe:	83 ec 0c             	sub    $0xc,%esp
  103d01:	68 c0 03 11 00       	push   $0x1103c0
  103d06:	e8 42 0b 00 00       	call   10484d <release>
  103d0b:	83 c4 10             	add    $0x10,%esp
/u/a/b/abhijith/CS537/p3a/xv6-sp20/kernel/proc.c:51
  103d0e:	e8 11 ee ff ff       	call   102b24 <kalloc>
  103d13:	89 c2                	mov    %eax,%edx
  103d15:	8b 45 f4             	mov    -0xc(%ebp),%eax
  103d18:	89 50 08             	mov    %edx,0x8(%eax)
  103d1b:	8b 45 f4             	mov    -0xc(%ebp),%eax
  103d1e:	8b 40 08             	mov    0x8(%eax),%eax
  103d21:	85 c0                	test   %eax,%eax
  103d23:	75 11                	jne    103d36 <allocproc+0xa7>
/u/a/b/abhijith/CS537/p3a/xv6-sp20/kernel/proc.c:52
  103d25:	8b 45 f4             	mov    -0xc(%ebp),%eax
  103d28:	c7 40 0c 00 00 00 00 	movl   $0x0,0xc(%eax)
/u/a/b/abhijith/CS537/p3a/xv6-sp20/kernel/proc.c:53
  103d2f:	b8 00 00 00 00       	mov    $0x0,%eax
  103d34:	eb 5d                	jmp    103d93 <allocproc+0x104>
/u/a/b/abhijith/CS537/p3a/xv6-sp20/kernel/proc.c:55
  103d36:	8b 45 f4             	mov    -0xc(%ebp),%eax
  103d39:	8b 40 08             	mov    0x8(%eax),%eax
  103d3c:	05 00 10 00 00       	add    $0x1000,%eax
  103d41:	89 45 f0             	mov    %eax,-0x10(%ebp)
/u/a/b/abhijith/CS537/p3a/xv6-sp20/kernel/proc.c:58
  103d44:	83 6d f0 4c          	subl   $0x4c,-0x10(%ebp)
/u/a/b/abhijith/CS537/p3a/xv6-sp20/kernel/proc.c:59
  103d48:	8b 45 f4             	mov    -0xc(%ebp),%eax
  103d4b:	8b 55 f0             	mov    -0x10(%ebp),%edx
  103d4e:	89 50 18             	mov    %edx,0x18(%eax)
/u/a/b/abhijith/CS537/p3a/xv6-sp20/kernel/proc.c:63
  103d51:	83 6d f0 04          	subl   $0x4,-0x10(%ebp)
/u/a/b/abhijith/CS537/p3a/xv6-sp20/kernel/proc.c:64
  103d55:	ba 96 5e 10 00       	mov    $0x105e96,%edx
  103d5a:	8b 45 f0             	mov    -0x10(%ebp),%eax
  103d5d:	89 10                	mov    %edx,(%eax)
/u/a/b/abhijith/CS537/p3a/xv6-sp20/kernel/proc.c:66
  103d5f:	83 6d f0 14          	subl   $0x14,-0x10(%ebp)
/u/a/b/abhijith/CS537/p3a/xv6-sp20/kernel/proc.c:67
  103d63:	8b 45 f4             	mov    -0xc(%ebp),%eax
  103d66:	8b 55 f0             	mov    -0x10(%ebp),%edx
  103d69:	89 50 1c             	mov    %edx,0x1c(%eax)
/u/a/b/abhijith/CS537/p3a/xv6-sp20/kernel/proc.c:68
  103d6c:	8b 45 f4             	mov    -0xc(%ebp),%eax
  103d6f:	8b 40 1c             	mov    0x1c(%eax),%eax
  103d72:	83 ec 04             	sub    $0x4,%esp
  103d75:	6a 14                	push   $0x14
  103d77:	6a 00                	push   $0x0
  103d79:	50                   	push   %eax
  103d7a:	e8 a4 0c 00 00       	call   104a23 <memset>
  103d7f:	83 c4 10             	add    $0x10,%esp
/u/a/b/abhijith/CS537/p3a/xv6-sp20/kernel/proc.c:69
  103d82:	8b 45 f4             	mov    -0xc(%ebp),%eax
  103d85:	8b 40 1c             	mov    0x1c(%eax),%eax
  103d88:	ba d4 44 10 00       	mov    $0x1044d4,%edx
  103d8d:	89 50 10             	mov    %edx,0x10(%eax)
/u/a/b/abhijith/CS537/p3a/xv6-sp20/kernel/proc.c:71
  103d90:	8b 45 f4             	mov    -0xc(%ebp),%eax
/u/a/b/abhijith/CS537/p3a/xv6-sp20/kernel/proc.c:72
  103d93:	c9                   	leave  
  103d94:	c3                   	ret    

00103d95 <userinit>:
userinit():
/u/a/b/abhijith/CS537/p3a/xv6-sp20/kernel/proc.c:77
  103d95:	55                   	push   %ebp
  103d96:	89 e5                	mov    %esp,%ebp
  103d98:	83 ec 18             	sub    $0x18,%esp
/u/a/b/abhijith/CS537/p3a/xv6-sp20/kernel/proc.c:81
  103d9b:	e8 ef fe ff ff       	call   103c8f <allocproc>
  103da0:	89 45 f4             	mov    %eax,-0xc(%ebp)
/u/a/b/abhijith/CS537/p3a/xv6-sp20/kernel/proc.c:82
  103da3:	83 ec 0c             	sub    $0xc,%esp
  103da6:	68 c0 03 11 00       	push   $0x1103c0
  103dab:	e8 36 0a 00 00       	call   1047e6 <acquire>
  103db0:	83 c4 10             	add    $0x10,%esp
/u/a/b/abhijith/CS537/p3a/xv6-sp20/kernel/proc.c:83
  103db3:	8b 45 f4             	mov    -0xc(%ebp),%eax
  103db6:	a3 70 bb 10 00       	mov    %eax,0x10bb70
/u/a/b/abhijith/CS537/p3a/xv6-sp20/kernel/proc.c:84
  103dbb:	e8 9d 37 00 00       	call   10755d <setupkvm>
  103dc0:	89 c2                	mov    %eax,%edx
  103dc2:	8b 45 f4             	mov    -0xc(%ebp),%eax
  103dc5:	89 50 04             	mov    %edx,0x4(%eax)
  103dc8:	8b 45 f4             	mov    -0xc(%ebp),%eax
  103dcb:	8b 40 04             	mov    0x4(%eax),%eax
  103dce:	85 c0                	test   %eax,%eax
  103dd0:	75 0d                	jne    103ddf <userinit+0x4a>
/u/a/b/abhijith/CS537/p3a/xv6-sp20/kernel/proc.c:85
  103dd2:	83 ec 0c             	sub    $0xc,%esp
  103dd5:	68 98 80 10 00       	push   $0x108098
  103dda:	e8 99 c7 ff ff       	call   100578 <panic>
/u/a/b/abhijith/CS537/p3a/xv6-sp20/kernel/proc.c:86
  103ddf:	ba 2c 00 00 00       	mov    $0x2c,%edx
  103de4:	8b 45 f4             	mov    -0xc(%ebp),%eax
  103de7:	8b 40 04             	mov    0x4(%eax),%eax
  103dea:	83 ec 04             	sub    $0x4,%esp
  103ded:	52                   	push   %edx
  103dee:	68 10 aa 10 00       	push   $0x10aa10
  103df3:	50                   	push   %eax
  103df4:	e8 a3 39 00 00       	call   10779c <inituvm>
  103df9:	83 c4 10             	add    $0x10,%esp
/u/a/b/abhijith/CS537/p3a/xv6-sp20/kernel/proc.c:87
  103dfc:	8b 45 f4             	mov    -0xc(%ebp),%eax
  103dff:	c7 00 00 10 00 00    	movl   $0x1000,(%eax)
/u/a/b/abhijith/CS537/p3a/xv6-sp20/kernel/proc.c:88
  103e05:	8b 45 f4             	mov    -0xc(%ebp),%eax
  103e08:	8b 40 18             	mov    0x18(%eax),%eax
  103e0b:	83 ec 04             	sub    $0x4,%esp
  103e0e:	6a 4c                	push   $0x4c
  103e10:	6a 00                	push   $0x0
  103e12:	50                   	push   %eax
  103e13:	e8 0b 0c 00 00       	call   104a23 <memset>
  103e18:	83 c4 10             	add    $0x10,%esp
/u/a/b/abhijith/CS537/p3a/xv6-sp20/kernel/proc.c:89
  103e1b:	8b 45 f4             	mov    -0xc(%ebp),%eax
  103e1e:	8b 40 18             	mov    0x18(%eax),%eax
  103e21:	66 c7 40 3c 23 00    	movw   $0x23,0x3c(%eax)
/u/a/b/abhijith/CS537/p3a/xv6-sp20/kernel/proc.c:90
  103e27:	8b 45 f4             	mov    -0xc(%ebp),%eax
  103e2a:	8b 40 18             	mov    0x18(%eax),%eax
  103e2d:	66 c7 40 2c 2b 00    	movw   $0x2b,0x2c(%eax)
/u/a/b/abhijith/CS537/p3a/xv6-sp20/kernel/proc.c:91
  103e33:	8b 45 f4             	mov    -0xc(%ebp),%eax
  103e36:	8b 50 18             	mov    0x18(%eax),%edx
  103e39:	8b 45 f4             	mov    -0xc(%ebp),%eax
  103e3c:	8b 40 18             	mov    0x18(%eax),%eax
  103e3f:	0f b7 52 2c          	movzwl 0x2c(%edx),%edx
  103e43:	66 89 50 28          	mov    %dx,0x28(%eax)
/u/a/b/abhijith/CS537/p3a/xv6-sp20/kernel/proc.c:92
  103e47:	8b 45 f4             	mov    -0xc(%ebp),%eax
  103e4a:	8b 50 18             	mov    0x18(%eax),%edx
  103e4d:	8b 45 f4             	mov    -0xc(%ebp),%eax
  103e50:	8b 40 18             	mov    0x18(%eax),%eax
  103e53:	0f b7 52 2c          	movzwl 0x2c(%edx),%edx
  103e57:	66 89 50 48          	mov    %dx,0x48(%eax)
/u/a/b/abhijith/CS537/p3a/xv6-sp20/kernel/proc.c:93
  103e5b:	8b 45 f4             	mov    -0xc(%ebp),%eax
  103e5e:	8b 40 18             	mov    0x18(%eax),%eax
  103e61:	c7 40 40 00 02 00 00 	movl   $0x200,0x40(%eax)
/u/a/b/abhijith/CS537/p3a/xv6-sp20/kernel/proc.c:94
  103e68:	8b 45 f4             	mov    -0xc(%ebp),%eax
  103e6b:	8b 40 18             	mov    0x18(%eax),%eax
  103e6e:	c7 40 44 00 10 00 00 	movl   $0x1000,0x44(%eax)
/u/a/b/abhijith/CS537/p3a/xv6-sp20/kernel/proc.c:95
  103e75:	8b 45 f4             	mov    -0xc(%ebp),%eax
  103e78:	8b 40 18             	mov    0x18(%eax),%eax
  103e7b:	c7 40 38 00 00 00 00 	movl   $0x0,0x38(%eax)
/u/a/b/abhijith/CS537/p3a/xv6-sp20/kernel/proc.c:97
  103e82:	8b 45 f4             	mov    -0xc(%ebp),%eax
  103e85:	83 c0 6c             	add    $0x6c,%eax
  103e88:	83 ec 04             	sub    $0x4,%esp
  103e8b:	6a 10                	push   $0x10
  103e8d:	68 b1 80 10 00       	push   $0x1080b1
  103e92:	50                   	push   %eax
  103e93:	e8 41 0d 00 00       	call   104bd9 <safestrcpy>
  103e98:	83 c4 10             	add    $0x10,%esp
/u/a/b/abhijith/CS537/p3a/xv6-sp20/kernel/proc.c:98
  103e9b:	83 ec 0c             	sub    $0xc,%esp
  103e9e:	68 ba 80 10 00       	push   $0x1080ba
  103ea3:	e8 bd e5 ff ff       	call   102465 <namei>
  103ea8:	83 c4 10             	add    $0x10,%esp
  103eab:	89 c2                	mov    %eax,%edx
  103ead:	8b 45 f4             	mov    -0xc(%ebp),%eax
  103eb0:	89 50 68             	mov    %edx,0x68(%eax)
/u/a/b/abhijith/CS537/p3a/xv6-sp20/kernel/proc.c:100
  103eb3:	8b 45 f4             	mov    -0xc(%ebp),%eax
  103eb6:	c7 40 0c 03 00 00 00 	movl   $0x3,0xc(%eax)
/u/a/b/abhijith/CS537/p3a/xv6-sp20/kernel/proc.c:101
  103ebd:	83 ec 0c             	sub    $0xc,%esp
  103ec0:	68 c0 03 11 00       	push   $0x1103c0
  103ec5:	e8 83 09 00 00       	call   10484d <release>
  103eca:	83 c4 10             	add    $0x10,%esp
/u/a/b/abhijith/CS537/p3a/xv6-sp20/kernel/proc.c:102
  103ecd:	90                   	nop
  103ece:	c9                   	leave  
  103ecf:	c3                   	ret    

00103ed0 <growproc>:
growproc():
/u/a/b/abhijith/CS537/p3a/xv6-sp20/kernel/proc.c:108
  103ed0:	55                   	push   %ebp
  103ed1:	89 e5                	mov    %esp,%ebp
  103ed3:	83 ec 18             	sub    $0x18,%esp
/u/a/b/abhijith/CS537/p3a/xv6-sp20/kernel/proc.c:111
  103ed6:	65 a1 04 00 00 00    	mov    %gs:0x4,%eax
  103edc:	8b 00                	mov    (%eax),%eax
  103ede:	89 45 f4             	mov    %eax,-0xc(%ebp)
/u/a/b/abhijith/CS537/p3a/xv6-sp20/kernel/proc.c:112
  103ee1:	83 7d 08 00          	cmpl   $0x0,0x8(%ebp)
  103ee5:	7e 31                	jle    103f18 <growproc+0x48>
/u/a/b/abhijith/CS537/p3a/xv6-sp20/kernel/proc.c:113
  103ee7:	8b 55 08             	mov    0x8(%ebp),%edx
  103eea:	8b 45 f4             	mov    -0xc(%ebp),%eax
  103eed:	01 c2                	add    %eax,%edx
  103eef:	65 a1 04 00 00 00    	mov    %gs:0x4,%eax
  103ef5:	8b 40 04             	mov    0x4(%eax),%eax
  103ef8:	83 ec 04             	sub    $0x4,%esp
  103efb:	52                   	push   %edx
  103efc:	ff 75 f4             	pushl  -0xc(%ebp)
  103eff:	50                   	push   %eax
  103f00:	e8 c9 39 00 00       	call   1078ce <allocuvm>
  103f05:	83 c4 10             	add    $0x10,%esp
  103f08:	89 45 f4             	mov    %eax,-0xc(%ebp)
  103f0b:	83 7d f4 00          	cmpl   $0x0,-0xc(%ebp)
  103f0f:	75 3e                	jne    103f4f <growproc+0x7f>
/u/a/b/abhijith/CS537/p3a/xv6-sp20/kernel/proc.c:114
  103f11:	b8 ff ff ff ff       	mov    $0xffffffff,%eax
  103f16:	eb 59                	jmp    103f71 <growproc+0xa1>
/u/a/b/abhijith/CS537/p3a/xv6-sp20/kernel/proc.c:115
  103f18:	83 7d 08 00          	cmpl   $0x0,0x8(%ebp)
  103f1c:	79 31                	jns    103f4f <growproc+0x7f>
/u/a/b/abhijith/CS537/p3a/xv6-sp20/kernel/proc.c:116
  103f1e:	8b 55 08             	mov    0x8(%ebp),%edx
  103f21:	8b 45 f4             	mov    -0xc(%ebp),%eax
  103f24:	01 c2                	add    %eax,%edx
  103f26:	65 a1 04 00 00 00    	mov    %gs:0x4,%eax
  103f2c:	8b 40 04             	mov    0x4(%eax),%eax
  103f2f:	83 ec 04             	sub    $0x4,%esp
  103f32:	52                   	push   %edx
  103f33:	ff 75 f4             	pushl  -0xc(%ebp)
  103f36:	50                   	push   %eax
  103f37:	e8 4c 3a 00 00       	call   107988 <deallocuvm>
  103f3c:	83 c4 10             	add    $0x10,%esp
  103f3f:	89 45 f4             	mov    %eax,-0xc(%ebp)
  103f42:	83 7d f4 00          	cmpl   $0x0,-0xc(%ebp)
  103f46:	75 07                	jne    103f4f <growproc+0x7f>
/u/a/b/abhijith/CS537/p3a/xv6-sp20/kernel/proc.c:117
  103f48:	b8 ff ff ff ff       	mov    $0xffffffff,%eax
  103f4d:	eb 22                	jmp    103f71 <growproc+0xa1>
/u/a/b/abhijith/CS537/p3a/xv6-sp20/kernel/proc.c:119
  103f4f:	65 a1 04 00 00 00    	mov    %gs:0x4,%eax
  103f55:	8b 55 f4             	mov    -0xc(%ebp),%edx
  103f58:	89 10                	mov    %edx,(%eax)
/u/a/b/abhijith/CS537/p3a/xv6-sp20/kernel/proc.c:120
  103f5a:	65 a1 04 00 00 00    	mov    %gs:0x4,%eax
  103f60:	83 ec 0c             	sub    $0xc,%esp
  103f63:	50                   	push   %eax
  103f64:	e8 cb 36 00 00       	call   107634 <switchuvm>
  103f69:	83 c4 10             	add    $0x10,%esp
/u/a/b/abhijith/CS537/p3a/xv6-sp20/kernel/proc.c:121
  103f6c:	b8 00 00 00 00       	mov    $0x0,%eax
/u/a/b/abhijith/CS537/p3a/xv6-sp20/kernel/proc.c:122
  103f71:	c9                   	leave  
  103f72:	c3                   	ret    

00103f73 <fork>:
fork():
/u/a/b/abhijith/CS537/p3a/xv6-sp20/kernel/proc.c:129
  103f73:	55                   	push   %ebp
  103f74:	89 e5                	mov    %esp,%ebp
  103f76:	57                   	push   %edi
  103f77:	56                   	push   %esi
  103f78:	53                   	push   %ebx
  103f79:	83 ec 1c             	sub    $0x1c,%esp
/u/a/b/abhijith/CS537/p3a/xv6-sp20/kernel/proc.c:134
  103f7c:	e8 0e fd ff ff       	call   103c8f <allocproc>
  103f81:	89 45 e0             	mov    %eax,-0x20(%ebp)
  103f84:	83 7d e0 00          	cmpl   $0x0,-0x20(%ebp)
  103f88:	75 0a                	jne    103f94 <fork+0x21>
/u/a/b/abhijith/CS537/p3a/xv6-sp20/kernel/proc.c:135
  103f8a:	b8 ff ff ff ff       	mov    $0xffffffff,%eax
  103f8f:	e9 4a 01 00 00       	jmp    1040de <fork+0x16b>
/u/a/b/abhijith/CS537/p3a/xv6-sp20/kernel/proc.c:138
  103f94:	65 a1 04 00 00 00    	mov    %gs:0x4,%eax
  103f9a:	8b 10                	mov    (%eax),%edx
  103f9c:	65 a1 04 00 00 00    	mov    %gs:0x4,%eax
  103fa2:	8b 40 04             	mov    0x4(%eax),%eax
  103fa5:	83 ec 08             	sub    $0x8,%esp
  103fa8:	52                   	push   %edx
  103fa9:	50                   	push   %eax
  103faa:	e8 05 3b 00 00       	call   107ab4 <copyuvm>
  103faf:	83 c4 10             	add    $0x10,%esp
  103fb2:	89 c2                	mov    %eax,%edx
  103fb4:	8b 45 e0             	mov    -0x20(%ebp),%eax
  103fb7:	89 50 04             	mov    %edx,0x4(%eax)
  103fba:	8b 45 e0             	mov    -0x20(%ebp),%eax
  103fbd:	8b 40 04             	mov    0x4(%eax),%eax
  103fc0:	85 c0                	test   %eax,%eax
  103fc2:	75 30                	jne    103ff4 <fork+0x81>
/u/a/b/abhijith/CS537/p3a/xv6-sp20/kernel/proc.c:139
  103fc4:	8b 45 e0             	mov    -0x20(%ebp),%eax
  103fc7:	8b 40 08             	mov    0x8(%eax),%eax
  103fca:	83 ec 0c             	sub    $0xc,%esp
  103fcd:	50                   	push   %eax
  103fce:	e8 b0 ea ff ff       	call   102a83 <kfree>
  103fd3:	83 c4 10             	add    $0x10,%esp
/u/a/b/abhijith/CS537/p3a/xv6-sp20/kernel/proc.c:140
  103fd6:	8b 45 e0             	mov    -0x20(%ebp),%eax
  103fd9:	c7 40 08 00 00 00 00 	movl   $0x0,0x8(%eax)
/u/a/b/abhijith/CS537/p3a/xv6-sp20/kernel/proc.c:141
  103fe0:	8b 45 e0             	mov    -0x20(%ebp),%eax
  103fe3:	c7 40 0c 00 00 00 00 	movl   $0x0,0xc(%eax)
/u/a/b/abhijith/CS537/p3a/xv6-sp20/kernel/proc.c:142
  103fea:	b8 ff ff ff ff       	mov    $0xffffffff,%eax
  103fef:	e9 ea 00 00 00       	jmp    1040de <fork+0x16b>
/u/a/b/abhijith/CS537/p3a/xv6-sp20/kernel/proc.c:144
  103ff4:	65 a1 04 00 00 00    	mov    %gs:0x4,%eax
  103ffa:	8b 10                	mov    (%eax),%edx
  103ffc:	8b 45 e0             	mov    -0x20(%ebp),%eax
  103fff:	89 10                	mov    %edx,(%eax)
/u/a/b/abhijith/CS537/p3a/xv6-sp20/kernel/proc.c:145
  104001:	65 8b 15 04 00 00 00 	mov    %gs:0x4,%edx
  104008:	8b 45 e0             	mov    -0x20(%ebp),%eax
  10400b:	89 50 14             	mov    %edx,0x14(%eax)
/u/a/b/abhijith/CS537/p3a/xv6-sp20/kernel/proc.c:146
  10400e:	65 a1 04 00 00 00    	mov    %gs:0x4,%eax
  104014:	8b 48 18             	mov    0x18(%eax),%ecx
  104017:	8b 45 e0             	mov    -0x20(%ebp),%eax
  10401a:	8b 40 18             	mov    0x18(%eax),%eax
  10401d:	89 c2                	mov    %eax,%edx
  10401f:	89 cb                	mov    %ecx,%ebx
  104021:	b8 13 00 00 00       	mov    $0x13,%eax
  104026:	89 d7                	mov    %edx,%edi
  104028:	89 de                	mov    %ebx,%esi
  10402a:	89 c1                	mov    %eax,%ecx
  10402c:	f3 a5                	rep movsl %ds:(%esi),%es:(%edi)
/u/a/b/abhijith/CS537/p3a/xv6-sp20/kernel/proc.c:149
  10402e:	8b 45 e0             	mov    -0x20(%ebp),%eax
  104031:	8b 40 18             	mov    0x18(%eax),%eax
  104034:	c7 40 1c 00 00 00 00 	movl   $0x0,0x1c(%eax)
/u/a/b/abhijith/CS537/p3a/xv6-sp20/kernel/proc.c:151
  10403b:	c7 45 e4 00 00 00 00 	movl   $0x0,-0x1c(%ebp)
  104042:	eb 43                	jmp    104087 <fork+0x114>
/u/a/b/abhijith/CS537/p3a/xv6-sp20/kernel/proc.c:152
  104044:	65 a1 04 00 00 00    	mov    %gs:0x4,%eax
  10404a:	8b 55 e4             	mov    -0x1c(%ebp),%edx
  10404d:	83 c2 08             	add    $0x8,%edx
  104050:	8b 44 90 08          	mov    0x8(%eax,%edx,4),%eax
  104054:	85 c0                	test   %eax,%eax
  104056:	74 2b                	je     104083 <fork+0x110>
/u/a/b/abhijith/CS537/p3a/xv6-sp20/kernel/proc.c:153
  104058:	65 a1 04 00 00 00    	mov    %gs:0x4,%eax
  10405e:	8b 55 e4             	mov    -0x1c(%ebp),%edx
  104061:	83 c2 08             	add    $0x8,%edx
  104064:	8b 44 90 08          	mov    0x8(%eax,%edx,4),%eax
  104068:	83 ec 0c             	sub    $0xc,%esp
  10406b:	50                   	push   %eax
  10406c:	e8 5d cf ff ff       	call   100fce <filedup>
  104071:	83 c4 10             	add    $0x10,%esp
  104074:	89 c1                	mov    %eax,%ecx
  104076:	8b 45 e0             	mov    -0x20(%ebp),%eax
  104079:	8b 55 e4             	mov    -0x1c(%ebp),%edx
  10407c:	83 c2 08             	add    $0x8,%edx
  10407f:	89 4c 90 08          	mov    %ecx,0x8(%eax,%edx,4)
/u/a/b/abhijith/CS537/p3a/xv6-sp20/kernel/proc.c:151 (discriminator 2)
  104083:	83 45 e4 01          	addl   $0x1,-0x1c(%ebp)
/u/a/b/abhijith/CS537/p3a/xv6-sp20/kernel/proc.c:151 (discriminator 1)
  104087:	83 7d e4 0f          	cmpl   $0xf,-0x1c(%ebp)
  10408b:	7e b7                	jle    104044 <fork+0xd1>
/u/a/b/abhijith/CS537/p3a/xv6-sp20/kernel/proc.c:154
  10408d:	65 a1 04 00 00 00    	mov    %gs:0x4,%eax
  104093:	8b 40 68             	mov    0x68(%eax),%eax
  104096:	83 ec 0c             	sub    $0xc,%esp
  104099:	50                   	push   %eax
  10409a:	e8 76 d7 ff ff       	call   101815 <idup>
  10409f:	83 c4 10             	add    $0x10,%esp
  1040a2:	89 c2                	mov    %eax,%edx
  1040a4:	8b 45 e0             	mov    -0x20(%ebp),%eax
  1040a7:	89 50 68             	mov    %edx,0x68(%eax)
/u/a/b/abhijith/CS537/p3a/xv6-sp20/kernel/proc.c:156
  1040aa:	8b 45 e0             	mov    -0x20(%ebp),%eax
  1040ad:	8b 40 10             	mov    0x10(%eax),%eax
  1040b0:	89 45 dc             	mov    %eax,-0x24(%ebp)
/u/a/b/abhijith/CS537/p3a/xv6-sp20/kernel/proc.c:157
  1040b3:	8b 45 e0             	mov    -0x20(%ebp),%eax
  1040b6:	c7 40 0c 03 00 00 00 	movl   $0x3,0xc(%eax)
/u/a/b/abhijith/CS537/p3a/xv6-sp20/kernel/proc.c:158
  1040bd:	65 a1 04 00 00 00    	mov    %gs:0x4,%eax
  1040c3:	8d 50 6c             	lea    0x6c(%eax),%edx
  1040c6:	8b 45 e0             	mov    -0x20(%ebp),%eax
  1040c9:	83 c0 6c             	add    $0x6c,%eax
  1040cc:	83 ec 04             	sub    $0x4,%esp
  1040cf:	6a 10                	push   $0x10
  1040d1:	52                   	push   %edx
  1040d2:	50                   	push   %eax
  1040d3:	e8 01 0b 00 00       	call   104bd9 <safestrcpy>
  1040d8:	83 c4 10             	add    $0x10,%esp
/u/a/b/abhijith/CS537/p3a/xv6-sp20/kernel/proc.c:159
  1040db:	8b 45 dc             	mov    -0x24(%ebp),%eax
/u/a/b/abhijith/CS537/p3a/xv6-sp20/kernel/proc.c:160
  1040de:	8d 65 f4             	lea    -0xc(%ebp),%esp
  1040e1:	5b                   	pop    %ebx
  1040e2:	5e                   	pop    %esi
  1040e3:	5f                   	pop    %edi
  1040e4:	5d                   	pop    %ebp
  1040e5:	c3                   	ret    

001040e6 <exit>:
exit():
/u/a/b/abhijith/CS537/p3a/xv6-sp20/kernel/proc.c:167
  1040e6:	55                   	push   %ebp
  1040e7:	89 e5                	mov    %esp,%ebp
  1040e9:	83 ec 18             	sub    $0x18,%esp
/u/a/b/abhijith/CS537/p3a/xv6-sp20/kernel/proc.c:171
  1040ec:	65 8b 15 04 00 00 00 	mov    %gs:0x4,%edx
  1040f3:	a1 70 bb 10 00       	mov    0x10bb70,%eax
  1040f8:	39 c2                	cmp    %eax,%edx
  1040fa:	75 0d                	jne    104109 <exit+0x23>
/u/a/b/abhijith/CS537/p3a/xv6-sp20/kernel/proc.c:172
  1040fc:	83 ec 0c             	sub    $0xc,%esp
  1040ff:	68 bc 80 10 00       	push   $0x1080bc
  104104:	e8 6f c4 ff ff       	call   100578 <panic>
/u/a/b/abhijith/CS537/p3a/xv6-sp20/kernel/proc.c:175
  104109:	c7 45 f0 00 00 00 00 	movl   $0x0,-0x10(%ebp)
  104110:	eb 48                	jmp    10415a <exit+0x74>
/u/a/b/abhijith/CS537/p3a/xv6-sp20/kernel/proc.c:176
  104112:	65 a1 04 00 00 00    	mov    %gs:0x4,%eax
  104118:	8b 55 f0             	mov    -0x10(%ebp),%edx
  10411b:	83 c2 08             	add    $0x8,%edx
  10411e:	8b 44 90 08          	mov    0x8(%eax,%edx,4),%eax
  104122:	85 c0                	test   %eax,%eax
  104124:	74 30                	je     104156 <exit+0x70>
/u/a/b/abhijith/CS537/p3a/xv6-sp20/kernel/proc.c:177
  104126:	65 a1 04 00 00 00    	mov    %gs:0x4,%eax
  10412c:	8b 55 f0             	mov    -0x10(%ebp),%edx
  10412f:	83 c2 08             	add    $0x8,%edx
  104132:	8b 44 90 08          	mov    0x8(%eax,%edx,4),%eax
  104136:	83 ec 0c             	sub    $0xc,%esp
  104139:	50                   	push   %eax
  10413a:	e8 e0 ce ff ff       	call   10101f <fileclose>
  10413f:	83 c4 10             	add    $0x10,%esp
/u/a/b/abhijith/CS537/p3a/xv6-sp20/kernel/proc.c:178
  104142:	65 a1 04 00 00 00    	mov    %gs:0x4,%eax
  104148:	8b 55 f0             	mov    -0x10(%ebp),%edx
  10414b:	83 c2 08             	add    $0x8,%edx
  10414e:	c7 44 90 08 00 00 00 	movl   $0x0,0x8(%eax,%edx,4)
  104155:	00 
/u/a/b/abhijith/CS537/p3a/xv6-sp20/kernel/proc.c:175 (discriminator 2)
  104156:	83 45 f0 01          	addl   $0x1,-0x10(%ebp)
/u/a/b/abhijith/CS537/p3a/xv6-sp20/kernel/proc.c:175 (discriminator 1)
  10415a:	83 7d f0 0f          	cmpl   $0xf,-0x10(%ebp)
  10415e:	7e b2                	jle    104112 <exit+0x2c>
/u/a/b/abhijith/CS537/p3a/xv6-sp20/kernel/proc.c:182
  104160:	65 a1 04 00 00 00    	mov    %gs:0x4,%eax
  104166:	8b 40 68             	mov    0x68(%eax),%eax
  104169:	83 ec 0c             	sub    $0xc,%esp
  10416c:	50                   	push   %eax
  10416d:	e8 a7 d8 ff ff       	call   101a19 <iput>
  104172:	83 c4 10             	add    $0x10,%esp
/u/a/b/abhijith/CS537/p3a/xv6-sp20/kernel/proc.c:183
  104175:	65 a1 04 00 00 00    	mov    %gs:0x4,%eax
  10417b:	c7 40 68 00 00 00 00 	movl   $0x0,0x68(%eax)
/u/a/b/abhijith/CS537/p3a/xv6-sp20/kernel/proc.c:185
  104182:	83 ec 0c             	sub    $0xc,%esp
  104185:	68 c0 03 11 00       	push   $0x1103c0
  10418a:	e8 57 06 00 00       	call   1047e6 <acquire>
  10418f:	83 c4 10             	add    $0x10,%esp
/u/a/b/abhijith/CS537/p3a/xv6-sp20/kernel/proc.c:188
  104192:	65 a1 04 00 00 00    	mov    %gs:0x4,%eax
  104198:	8b 40 14             	mov    0x14(%eax),%eax
  10419b:	83 ec 0c             	sub    $0xc,%esp
  10419e:	50                   	push   %eax
  10419f:	e8 f5 03 00 00       	call   104599 <wakeup1>
  1041a4:	83 c4 10             	add    $0x10,%esp
/u/a/b/abhijith/CS537/p3a/xv6-sp20/kernel/proc.c:191
  1041a7:	c7 45 f4 f4 03 11 00 	movl   $0x1103f4,-0xc(%ebp)
  1041ae:	eb 3c                	jmp    1041ec <exit+0x106>
/u/a/b/abhijith/CS537/p3a/xv6-sp20/kernel/proc.c:192
  1041b0:	8b 45 f4             	mov    -0xc(%ebp),%eax
  1041b3:	8b 50 14             	mov    0x14(%eax),%edx
  1041b6:	65 a1 04 00 00 00    	mov    %gs:0x4,%eax
  1041bc:	39 c2                	cmp    %eax,%edx
  1041be:	75 28                	jne    1041e8 <exit+0x102>
/u/a/b/abhijith/CS537/p3a/xv6-sp20/kernel/proc.c:193
  1041c0:	8b 15 70 bb 10 00    	mov    0x10bb70,%edx
  1041c6:	8b 45 f4             	mov    -0xc(%ebp),%eax
  1041c9:	89 50 14             	mov    %edx,0x14(%eax)
/u/a/b/abhijith/CS537/p3a/xv6-sp20/kernel/proc.c:194
  1041cc:	8b 45 f4             	mov    -0xc(%ebp),%eax
  1041cf:	8b 40 0c             	mov    0xc(%eax),%eax
  1041d2:	83 f8 05             	cmp    $0x5,%eax
  1041d5:	75 11                	jne    1041e8 <exit+0x102>
/u/a/b/abhijith/CS537/p3a/xv6-sp20/kernel/proc.c:195
  1041d7:	a1 70 bb 10 00       	mov    0x10bb70,%eax
  1041dc:	83 ec 0c             	sub    $0xc,%esp
  1041df:	50                   	push   %eax
  1041e0:	e8 b4 03 00 00       	call   104599 <wakeup1>
  1041e5:	83 c4 10             	add    $0x10,%esp
/u/a/b/abhijith/CS537/p3a/xv6-sp20/kernel/proc.c:191 (discriminator 2)
  1041e8:	83 45 f4 7c          	addl   $0x7c,-0xc(%ebp)
/u/a/b/abhijith/CS537/p3a/xv6-sp20/kernel/proc.c:191 (discriminator 1)
  1041ec:	81 7d f4 f4 22 11 00 	cmpl   $0x1122f4,-0xc(%ebp)
  1041f3:	72 bb                	jb     1041b0 <exit+0xca>
/u/a/b/abhijith/CS537/p3a/xv6-sp20/kernel/proc.c:200
  1041f5:	65 a1 04 00 00 00    	mov    %gs:0x4,%eax
  1041fb:	c7 40 0c 05 00 00 00 	movl   $0x5,0xc(%eax)
/u/a/b/abhijith/CS537/p3a/xv6-sp20/kernel/proc.c:201
  104202:	e8 d6 01 00 00       	call   1043dd <sched>
/u/a/b/abhijith/CS537/p3a/xv6-sp20/kernel/proc.c:202
  104207:	83 ec 0c             	sub    $0xc,%esp
  10420a:	68 c9 80 10 00       	push   $0x1080c9
  10420f:	e8 64 c3 ff ff       	call   100578 <panic>

00104214 <wait>:
wait():
/u/a/b/abhijith/CS537/p3a/xv6-sp20/kernel/proc.c:209
  104214:	55                   	push   %ebp
  104215:	89 e5                	mov    %esp,%ebp
  104217:	83 ec 18             	sub    $0x18,%esp
/u/a/b/abhijith/CS537/p3a/xv6-sp20/kernel/proc.c:213
  10421a:	83 ec 0c             	sub    $0xc,%esp
  10421d:	68 c0 03 11 00       	push   $0x1103c0
  104222:	e8 bf 05 00 00       	call   1047e6 <acquire>
  104227:	83 c4 10             	add    $0x10,%esp
/u/a/b/abhijith/CS537/p3a/xv6-sp20/kernel/proc.c:216
  10422a:	c7 45 f0 00 00 00 00 	movl   $0x0,-0x10(%ebp)
/u/a/b/abhijith/CS537/p3a/xv6-sp20/kernel/proc.c:217
  104231:	c7 45 f4 f4 03 11 00 	movl   $0x1103f4,-0xc(%ebp)
  104238:	e9 a6 00 00 00       	jmp    1042e3 <wait+0xcf>
/u/a/b/abhijith/CS537/p3a/xv6-sp20/kernel/proc.c:218
  10423d:	8b 45 f4             	mov    -0xc(%ebp),%eax
  104240:	8b 50 14             	mov    0x14(%eax),%edx
  104243:	65 a1 04 00 00 00    	mov    %gs:0x4,%eax
  104249:	39 c2                	cmp    %eax,%edx
  10424b:	0f 85 8d 00 00 00    	jne    1042de <wait+0xca>
/u/a/b/abhijith/CS537/p3a/xv6-sp20/kernel/proc.c:220
  104251:	c7 45 f0 01 00 00 00 	movl   $0x1,-0x10(%ebp)
/u/a/b/abhijith/CS537/p3a/xv6-sp20/kernel/proc.c:221
  104258:	8b 45 f4             	mov    -0xc(%ebp),%eax
  10425b:	8b 40 0c             	mov    0xc(%eax),%eax
  10425e:	83 f8 05             	cmp    $0x5,%eax
  104261:	75 7c                	jne    1042df <wait+0xcb>
/u/a/b/abhijith/CS537/p3a/xv6-sp20/kernel/proc.c:223
  104263:	8b 45 f4             	mov    -0xc(%ebp),%eax
  104266:	8b 40 10             	mov    0x10(%eax),%eax
  104269:	89 45 ec             	mov    %eax,-0x14(%ebp)
/u/a/b/abhijith/CS537/p3a/xv6-sp20/kernel/proc.c:224
  10426c:	8b 45 f4             	mov    -0xc(%ebp),%eax
  10426f:	8b 40 08             	mov    0x8(%eax),%eax
  104272:	83 ec 0c             	sub    $0xc,%esp
  104275:	50                   	push   %eax
  104276:	e8 08 e8 ff ff       	call   102a83 <kfree>
  10427b:	83 c4 10             	add    $0x10,%esp
/u/a/b/abhijith/CS537/p3a/xv6-sp20/kernel/proc.c:225
  10427e:	8b 45 f4             	mov    -0xc(%ebp),%eax
  104281:	c7 40 08 00 00 00 00 	movl   $0x0,0x8(%eax)
/u/a/b/abhijith/CS537/p3a/xv6-sp20/kernel/proc.c:226
  104288:	8b 45 f4             	mov    -0xc(%ebp),%eax
  10428b:	8b 40 04             	mov    0x4(%eax),%eax
  10428e:	83 ec 0c             	sub    $0xc,%esp
  104291:	50                   	push   %eax
  104292:	e8 8e 37 00 00       	call   107a25 <freevm>
  104297:	83 c4 10             	add    $0x10,%esp
/u/a/b/abhijith/CS537/p3a/xv6-sp20/kernel/proc.c:227
  10429a:	8b 45 f4             	mov    -0xc(%ebp),%eax
  10429d:	c7 40 0c 00 00 00 00 	movl   $0x0,0xc(%eax)
/u/a/b/abhijith/CS537/p3a/xv6-sp20/kernel/proc.c:228
  1042a4:	8b 45 f4             	mov    -0xc(%ebp),%eax
  1042a7:	c7 40 10 00 00 00 00 	movl   $0x0,0x10(%eax)
/u/a/b/abhijith/CS537/p3a/xv6-sp20/kernel/proc.c:229
  1042ae:	8b 45 f4             	mov    -0xc(%ebp),%eax
  1042b1:	c7 40 14 00 00 00 00 	movl   $0x0,0x14(%eax)
/u/a/b/abhijith/CS537/p3a/xv6-sp20/kernel/proc.c:230
  1042b8:	8b 45 f4             	mov    -0xc(%ebp),%eax
  1042bb:	c6 40 6c 00          	movb   $0x0,0x6c(%eax)
/u/a/b/abhijith/CS537/p3a/xv6-sp20/kernel/proc.c:231
  1042bf:	8b 45 f4             	mov    -0xc(%ebp),%eax
  1042c2:	c7 40 24 00 00 00 00 	movl   $0x0,0x24(%eax)
/u/a/b/abhijith/CS537/p3a/xv6-sp20/kernel/proc.c:232
  1042c9:	83 ec 0c             	sub    $0xc,%esp
  1042cc:	68 c0 03 11 00       	push   $0x1103c0
  1042d1:	e8 77 05 00 00       	call   10484d <release>
  1042d6:	83 c4 10             	add    $0x10,%esp
/u/a/b/abhijith/CS537/p3a/xv6-sp20/kernel/proc.c:233
  1042d9:	8b 45 ec             	mov    -0x14(%ebp),%eax
  1042dc:	eb 58                	jmp    104336 <wait+0x122>
/u/a/b/abhijith/CS537/p3a/xv6-sp20/kernel/proc.c:219
  1042de:	90                   	nop
/u/a/b/abhijith/CS537/p3a/xv6-sp20/kernel/proc.c:217 (discriminator 2)
  1042df:	83 45 f4 7c          	addl   $0x7c,-0xc(%ebp)
/u/a/b/abhijith/CS537/p3a/xv6-sp20/kernel/proc.c:217 (discriminator 1)
  1042e3:	81 7d f4 f4 22 11 00 	cmpl   $0x1122f4,-0xc(%ebp)
  1042ea:	0f 82 4d ff ff ff    	jb     10423d <wait+0x29>
/u/a/b/abhijith/CS537/p3a/xv6-sp20/kernel/proc.c:238
  1042f0:	83 7d f0 00          	cmpl   $0x0,-0x10(%ebp)
  1042f4:	74 0d                	je     104303 <wait+0xef>
/u/a/b/abhijith/CS537/p3a/xv6-sp20/kernel/proc.c:238 (discriminator 1)
  1042f6:	65 a1 04 00 00 00    	mov    %gs:0x4,%eax
  1042fc:	8b 40 24             	mov    0x24(%eax),%eax
  1042ff:	85 c0                	test   %eax,%eax
  104301:	74 17                	je     10431a <wait+0x106>
/u/a/b/abhijith/CS537/p3a/xv6-sp20/kernel/proc.c:239
  104303:	83 ec 0c             	sub    $0xc,%esp
  104306:	68 c0 03 11 00       	push   $0x1103c0
  10430b:	e8 3d 05 00 00       	call   10484d <release>
  104310:	83 c4 10             	add    $0x10,%esp
/u/a/b/abhijith/CS537/p3a/xv6-sp20/kernel/proc.c:240
  104313:	b8 ff ff ff ff       	mov    $0xffffffff,%eax
  104318:	eb 1c                	jmp    104336 <wait+0x122>
/u/a/b/abhijith/CS537/p3a/xv6-sp20/kernel/proc.c:244
  10431a:	65 a1 04 00 00 00    	mov    %gs:0x4,%eax
  104320:	83 ec 08             	sub    $0x8,%esp
  104323:	68 c0 03 11 00       	push   $0x1103c0
  104328:	50                   	push   %eax
  104329:	e8 bf 01 00 00       	call   1044ed <sleep>
  10432e:	83 c4 10             	add    $0x10,%esp
/u/a/b/abhijith/CS537/p3a/xv6-sp20/kernel/proc.c:216
  104331:	e9 f4 fe ff ff       	jmp    10422a <wait+0x16>
/u/a/b/abhijith/CS537/p3a/xv6-sp20/kernel/proc.c:246
  104336:	c9                   	leave  
  104337:	c3                   	ret    

00104338 <scheduler>:
scheduler():
/u/a/b/abhijith/CS537/p3a/xv6-sp20/kernel/proc.c:257
  104338:	55                   	push   %ebp
  104339:	89 e5                	mov    %esp,%ebp
  10433b:	83 ec 18             	sub    $0x18,%esp
/u/a/b/abhijith/CS537/p3a/xv6-sp20/kernel/proc.c:262
  10433e:	e8 27 f9 ff ff       	call   103c6a <sti>
/u/a/b/abhijith/CS537/p3a/xv6-sp20/kernel/proc.c:265
  104343:	83 ec 0c             	sub    $0xc,%esp
  104346:	68 c0 03 11 00       	push   $0x1103c0
  10434b:	e8 96 04 00 00       	call   1047e6 <acquire>
  104350:	83 c4 10             	add    $0x10,%esp
/u/a/b/abhijith/CS537/p3a/xv6-sp20/kernel/proc.c:266
  104353:	c7 45 f4 f4 03 11 00 	movl   $0x1103f4,-0xc(%ebp)
  10435a:	eb 63                	jmp    1043bf <scheduler+0x87>
/u/a/b/abhijith/CS537/p3a/xv6-sp20/kernel/proc.c:267
  10435c:	8b 45 f4             	mov    -0xc(%ebp),%eax
  10435f:	8b 40 0c             	mov    0xc(%eax),%eax
  104362:	83 f8 03             	cmp    $0x3,%eax
  104365:	75 53                	jne    1043ba <scheduler+0x82>
/u/a/b/abhijith/CS537/p3a/xv6-sp20/kernel/proc.c:273
  104367:	8b 45 f4             	mov    -0xc(%ebp),%eax
  10436a:	65 a3 04 00 00 00    	mov    %eax,%gs:0x4
/u/a/b/abhijith/CS537/p3a/xv6-sp20/kernel/proc.c:274
  104370:	83 ec 0c             	sub    $0xc,%esp
  104373:	ff 75 f4             	pushl  -0xc(%ebp)
  104376:	e8 b9 32 00 00       	call   107634 <switchuvm>
  10437b:	83 c4 10             	add    $0x10,%esp
/u/a/b/abhijith/CS537/p3a/xv6-sp20/kernel/proc.c:275
  10437e:	8b 45 f4             	mov    -0xc(%ebp),%eax
  104381:	c7 40 0c 04 00 00 00 	movl   $0x4,0xc(%eax)
/u/a/b/abhijith/CS537/p3a/xv6-sp20/kernel/proc.c:276
  104388:	65 a1 04 00 00 00    	mov    %gs:0x4,%eax
  10438e:	8b 40 1c             	mov    0x1c(%eax),%eax
  104391:	65 8b 15 00 00 00 00 	mov    %gs:0x0,%edx
  104398:	83 c2 04             	add    $0x4,%edx
  10439b:	83 ec 08             	sub    $0x8,%esp
  10439e:	50                   	push   %eax
  10439f:	52                   	push   %edx
  1043a0:	e8 a5 08 00 00       	call   104c4a <swtch>
  1043a5:	83 c4 10             	add    $0x10,%esp
/u/a/b/abhijith/CS537/p3a/xv6-sp20/kernel/proc.c:277
  1043a8:	e8 73 32 00 00       	call   107620 <switchkvm>
/u/a/b/abhijith/CS537/p3a/xv6-sp20/kernel/proc.c:281
  1043ad:	65 c7 05 04 00 00 00 	movl   $0x0,%gs:0x4
  1043b4:	00 00 00 00 
  1043b8:	eb 01                	jmp    1043bb <scheduler+0x83>
/u/a/b/abhijith/CS537/p3a/xv6-sp20/kernel/proc.c:268
  1043ba:	90                   	nop
/u/a/b/abhijith/CS537/p3a/xv6-sp20/kernel/proc.c:266 (discriminator 2)
  1043bb:	83 45 f4 7c          	addl   $0x7c,-0xc(%ebp)
/u/a/b/abhijith/CS537/p3a/xv6-sp20/kernel/proc.c:266 (discriminator 1)
  1043bf:	81 7d f4 f4 22 11 00 	cmpl   $0x1122f4,-0xc(%ebp)
  1043c6:	72 94                	jb     10435c <scheduler+0x24>
/u/a/b/abhijith/CS537/p3a/xv6-sp20/kernel/proc.c:283
  1043c8:	83 ec 0c             	sub    $0xc,%esp
  1043cb:	68 c0 03 11 00       	push   $0x1103c0
  1043d0:	e8 78 04 00 00       	call   10484d <release>
  1043d5:	83 c4 10             	add    $0x10,%esp
/u/a/b/abhijith/CS537/p3a/xv6-sp20/kernel/proc.c:262
  1043d8:	e9 61 ff ff ff       	jmp    10433e <scheduler+0x6>

001043dd <sched>:
sched():
/u/a/b/abhijith/CS537/p3a/xv6-sp20/kernel/proc.c:292
  1043dd:	55                   	push   %ebp
  1043de:	89 e5                	mov    %esp,%ebp
  1043e0:	83 ec 18             	sub    $0x18,%esp
/u/a/b/abhijith/CS537/p3a/xv6-sp20/kernel/proc.c:295
  1043e3:	83 ec 0c             	sub    $0xc,%esp
  1043e6:	68 c0 03 11 00       	push   $0x1103c0
  1043eb:	e8 29 05 00 00       	call   104919 <holding>
  1043f0:	83 c4 10             	add    $0x10,%esp
  1043f3:	85 c0                	test   %eax,%eax
  1043f5:	75 0d                	jne    104404 <sched+0x27>
/u/a/b/abhijith/CS537/p3a/xv6-sp20/kernel/proc.c:296
  1043f7:	83 ec 0c             	sub    $0xc,%esp
  1043fa:	68 d5 80 10 00       	push   $0x1080d5
  1043ff:	e8 74 c1 ff ff       	call   100578 <panic>
/u/a/b/abhijith/CS537/p3a/xv6-sp20/kernel/proc.c:297
  104404:	65 a1 00 00 00 00    	mov    %gs:0x0,%eax
  10440a:	8b 80 ac 00 00 00    	mov    0xac(%eax),%eax
  104410:	83 f8 01             	cmp    $0x1,%eax
  104413:	74 0d                	je     104422 <sched+0x45>
/u/a/b/abhijith/CS537/p3a/xv6-sp20/kernel/proc.c:298
  104415:	83 ec 0c             	sub    $0xc,%esp
  104418:	68 e7 80 10 00       	push   $0x1080e7
  10441d:	e8 56 c1 ff ff       	call   100578 <panic>
/u/a/b/abhijith/CS537/p3a/xv6-sp20/kernel/proc.c:299
  104422:	65 a1 04 00 00 00    	mov    %gs:0x4,%eax
  104428:	8b 40 0c             	mov    0xc(%eax),%eax
  10442b:	83 f8 04             	cmp    $0x4,%eax
  10442e:	75 0d                	jne    10443d <sched+0x60>
/u/a/b/abhijith/CS537/p3a/xv6-sp20/kernel/proc.c:300
  104430:	83 ec 0c             	sub    $0xc,%esp
  104433:	68 f3 80 10 00       	push   $0x1080f3
  104438:	e8 3b c1 ff ff       	call   100578 <panic>
/u/a/b/abhijith/CS537/p3a/xv6-sp20/kernel/proc.c:301
  10443d:	e8 18 f8 ff ff       	call   103c5a <readeflags>
  104442:	25 00 02 00 00       	and    $0x200,%eax
  104447:	85 c0                	test   %eax,%eax
  104449:	74 0d                	je     104458 <sched+0x7b>
/u/a/b/abhijith/CS537/p3a/xv6-sp20/kernel/proc.c:302
  10444b:	83 ec 0c             	sub    $0xc,%esp
  10444e:	68 01 81 10 00       	push   $0x108101
  104453:	e8 20 c1 ff ff       	call   100578 <panic>
/u/a/b/abhijith/CS537/p3a/xv6-sp20/kernel/proc.c:303
  104458:	65 a1 00 00 00 00    	mov    %gs:0x0,%eax
  10445e:	8b 80 b0 00 00 00    	mov    0xb0(%eax),%eax
  104464:	89 45 f4             	mov    %eax,-0xc(%ebp)
/u/a/b/abhijith/CS537/p3a/xv6-sp20/kernel/proc.c:304
  104467:	65 a1 00 00 00 00    	mov    %gs:0x0,%eax
  10446d:	8b 40 04             	mov    0x4(%eax),%eax
  104470:	65 8b 15 04 00 00 00 	mov    %gs:0x4,%edx
  104477:	83 c2 1c             	add    $0x1c,%edx
  10447a:	83 ec 08             	sub    $0x8,%esp
  10447d:	50                   	push   %eax
  10447e:	52                   	push   %edx
  10447f:	e8 c6 07 00 00       	call   104c4a <swtch>
  104484:	83 c4 10             	add    $0x10,%esp
/u/a/b/abhijith/CS537/p3a/xv6-sp20/kernel/proc.c:305
  104487:	65 a1 00 00 00 00    	mov    %gs:0x0,%eax
  10448d:	8b 55 f4             	mov    -0xc(%ebp),%edx
  104490:	89 90 b0 00 00 00    	mov    %edx,0xb0(%eax)
/u/a/b/abhijith/CS537/p3a/xv6-sp20/kernel/proc.c:306
  104496:	90                   	nop
  104497:	c9                   	leave  
  104498:	c3                   	ret    

00104499 <yield>:
yield():
/u/a/b/abhijith/CS537/p3a/xv6-sp20/kernel/proc.c:311
  104499:	55                   	push   %ebp
  10449a:	89 e5                	mov    %esp,%ebp
  10449c:	83 ec 08             	sub    $0x8,%esp
/u/a/b/abhijith/CS537/p3a/xv6-sp20/kernel/proc.c:312
  10449f:	83 ec 0c             	sub    $0xc,%esp
  1044a2:	68 c0 03 11 00       	push   $0x1103c0
  1044a7:	e8 3a 03 00 00       	call   1047e6 <acquire>
  1044ac:	83 c4 10             	add    $0x10,%esp
/u/a/b/abhijith/CS537/p3a/xv6-sp20/kernel/proc.c:313
  1044af:	65 a1 04 00 00 00    	mov    %gs:0x4,%eax
  1044b5:	c7 40 0c 03 00 00 00 	movl   $0x3,0xc(%eax)
/u/a/b/abhijith/CS537/p3a/xv6-sp20/kernel/proc.c:314
  1044bc:	e8 1c ff ff ff       	call   1043dd <sched>
/u/a/b/abhijith/CS537/p3a/xv6-sp20/kernel/proc.c:315
  1044c1:	83 ec 0c             	sub    $0xc,%esp
  1044c4:	68 c0 03 11 00       	push   $0x1103c0
  1044c9:	e8 7f 03 00 00       	call   10484d <release>
  1044ce:	83 c4 10             	add    $0x10,%esp
/u/a/b/abhijith/CS537/p3a/xv6-sp20/kernel/proc.c:316
  1044d1:	90                   	nop
  1044d2:	c9                   	leave  
  1044d3:	c3                   	ret    

001044d4 <forkret>:
forkret():
/u/a/b/abhijith/CS537/p3a/xv6-sp20/kernel/proc.c:322
  1044d4:	55                   	push   %ebp
  1044d5:	89 e5                	mov    %esp,%ebp
  1044d7:	83 ec 08             	sub    $0x8,%esp
/u/a/b/abhijith/CS537/p3a/xv6-sp20/kernel/proc.c:324
  1044da:	83 ec 0c             	sub    $0xc,%esp
  1044dd:	68 c0 03 11 00       	push   $0x1103c0
  1044e2:	e8 66 03 00 00       	call   10484d <release>
  1044e7:	83 c4 10             	add    $0x10,%esp
/u/a/b/abhijith/CS537/p3a/xv6-sp20/kernel/proc.c:327
  1044ea:	90                   	nop
  1044eb:	c9                   	leave  
  1044ec:	c3                   	ret    

001044ed <sleep>:
sleep():
/u/a/b/abhijith/CS537/p3a/xv6-sp20/kernel/proc.c:333
  1044ed:	55                   	push   %ebp
  1044ee:	89 e5                	mov    %esp,%ebp
  1044f0:	83 ec 08             	sub    $0x8,%esp
/u/a/b/abhijith/CS537/p3a/xv6-sp20/kernel/proc.c:334
  1044f3:	65 a1 04 00 00 00    	mov    %gs:0x4,%eax
  1044f9:	85 c0                	test   %eax,%eax
  1044fb:	75 0d                	jne    10450a <sleep+0x1d>
/u/a/b/abhijith/CS537/p3a/xv6-sp20/kernel/proc.c:335
  1044fd:	83 ec 0c             	sub    $0xc,%esp
  104500:	68 15 81 10 00       	push   $0x108115
  104505:	e8 6e c0 ff ff       	call   100578 <panic>
/u/a/b/abhijith/CS537/p3a/xv6-sp20/kernel/proc.c:337
  10450a:	83 7d 0c 00          	cmpl   $0x0,0xc(%ebp)
  10450e:	75 0d                	jne    10451d <sleep+0x30>
/u/a/b/abhijith/CS537/p3a/xv6-sp20/kernel/proc.c:338
  104510:	83 ec 0c             	sub    $0xc,%esp
  104513:	68 1b 81 10 00       	push   $0x10811b
  104518:	e8 5b c0 ff ff       	call   100578 <panic>
/u/a/b/abhijith/CS537/p3a/xv6-sp20/kernel/proc.c:346
  10451d:	81 7d 0c c0 03 11 00 	cmpl   $0x1103c0,0xc(%ebp)
  104524:	74 1e                	je     104544 <sleep+0x57>
/u/a/b/abhijith/CS537/p3a/xv6-sp20/kernel/proc.c:347
  104526:	83 ec 0c             	sub    $0xc,%esp
  104529:	68 c0 03 11 00       	push   $0x1103c0
  10452e:	e8 b3 02 00 00       	call   1047e6 <acquire>
  104533:	83 c4 10             	add    $0x10,%esp
/u/a/b/abhijith/CS537/p3a/xv6-sp20/kernel/proc.c:348
  104536:	83 ec 0c             	sub    $0xc,%esp
  104539:	ff 75 0c             	pushl  0xc(%ebp)
  10453c:	e8 0c 03 00 00       	call   10484d <release>
  104541:	83 c4 10             	add    $0x10,%esp
/u/a/b/abhijith/CS537/p3a/xv6-sp20/kernel/proc.c:352
  104544:	65 a1 04 00 00 00    	mov    %gs:0x4,%eax
  10454a:	8b 55 08             	mov    0x8(%ebp),%edx
  10454d:	89 50 20             	mov    %edx,0x20(%eax)
/u/a/b/abhijith/CS537/p3a/xv6-sp20/kernel/proc.c:353
  104550:	65 a1 04 00 00 00    	mov    %gs:0x4,%eax
  104556:	c7 40 0c 02 00 00 00 	movl   $0x2,0xc(%eax)
/u/a/b/abhijith/CS537/p3a/xv6-sp20/kernel/proc.c:354
  10455d:	e8 7b fe ff ff       	call   1043dd <sched>
/u/a/b/abhijith/CS537/p3a/xv6-sp20/kernel/proc.c:357
  104562:	65 a1 04 00 00 00    	mov    %gs:0x4,%eax
  104568:	c7 40 20 00 00 00 00 	movl   $0x0,0x20(%eax)
/u/a/b/abhijith/CS537/p3a/xv6-sp20/kernel/proc.c:360
  10456f:	81 7d 0c c0 03 11 00 	cmpl   $0x1103c0,0xc(%ebp)
  104576:	74 1e                	je     104596 <sleep+0xa9>
/u/a/b/abhijith/CS537/p3a/xv6-sp20/kernel/proc.c:361
  104578:	83 ec 0c             	sub    $0xc,%esp
  10457b:	68 c0 03 11 00       	push   $0x1103c0
  104580:	e8 c8 02 00 00       	call   10484d <release>
  104585:	83 c4 10             	add    $0x10,%esp
/u/a/b/abhijith/CS537/p3a/xv6-sp20/kernel/proc.c:362
  104588:	83 ec 0c             	sub    $0xc,%esp
  10458b:	ff 75 0c             	pushl  0xc(%ebp)
  10458e:	e8 53 02 00 00       	call   1047e6 <acquire>
  104593:	83 c4 10             	add    $0x10,%esp
/u/a/b/abhijith/CS537/p3a/xv6-sp20/kernel/proc.c:364
  104596:	90                   	nop
  104597:	c9                   	leave  
  104598:	c3                   	ret    

00104599 <wakeup1>:
wakeup1():
/u/a/b/abhijith/CS537/p3a/xv6-sp20/kernel/proc.c:370
  104599:	55                   	push   %ebp
  10459a:	89 e5                	mov    %esp,%ebp
  10459c:	83 ec 10             	sub    $0x10,%esp
/u/a/b/abhijith/CS537/p3a/xv6-sp20/kernel/proc.c:373
  10459f:	c7 45 fc f4 03 11 00 	movl   $0x1103f4,-0x4(%ebp)
  1045a6:	eb 24                	jmp    1045cc <wakeup1+0x33>
/u/a/b/abhijith/CS537/p3a/xv6-sp20/kernel/proc.c:374
  1045a8:	8b 45 fc             	mov    -0x4(%ebp),%eax
  1045ab:	8b 40 0c             	mov    0xc(%eax),%eax
  1045ae:	83 f8 02             	cmp    $0x2,%eax
  1045b1:	75 15                	jne    1045c8 <wakeup1+0x2f>
/u/a/b/abhijith/CS537/p3a/xv6-sp20/kernel/proc.c:374 (discriminator 1)
  1045b3:	8b 45 fc             	mov    -0x4(%ebp),%eax
  1045b6:	8b 40 20             	mov    0x20(%eax),%eax
  1045b9:	39 45 08             	cmp    %eax,0x8(%ebp)
  1045bc:	75 0a                	jne    1045c8 <wakeup1+0x2f>
/u/a/b/abhijith/CS537/p3a/xv6-sp20/kernel/proc.c:375
  1045be:	8b 45 fc             	mov    -0x4(%ebp),%eax
  1045c1:	c7 40 0c 03 00 00 00 	movl   $0x3,0xc(%eax)
/u/a/b/abhijith/CS537/p3a/xv6-sp20/kernel/proc.c:373 (discriminator 2)
  1045c8:	83 45 fc 7c          	addl   $0x7c,-0x4(%ebp)
/u/a/b/abhijith/CS537/p3a/xv6-sp20/kernel/proc.c:373 (discriminator 1)
  1045cc:	81 7d fc f4 22 11 00 	cmpl   $0x1122f4,-0x4(%ebp)
  1045d3:	72 d3                	jb     1045a8 <wakeup1+0xf>
/u/a/b/abhijith/CS537/p3a/xv6-sp20/kernel/proc.c:376
  1045d5:	90                   	nop
  1045d6:	c9                   	leave  
  1045d7:	c3                   	ret    

001045d8 <wakeup>:
wakeup():
/u/a/b/abhijith/CS537/p3a/xv6-sp20/kernel/proc.c:381
  1045d8:	55                   	push   %ebp
  1045d9:	89 e5                	mov    %esp,%ebp
  1045db:	83 ec 08             	sub    $0x8,%esp
/u/a/b/abhijith/CS537/p3a/xv6-sp20/kernel/proc.c:382
  1045de:	83 ec 0c             	sub    $0xc,%esp
  1045e1:	68 c0 03 11 00       	push   $0x1103c0
  1045e6:	e8 fb 01 00 00       	call   1047e6 <acquire>
  1045eb:	83 c4 10             	add    $0x10,%esp
/u/a/b/abhijith/CS537/p3a/xv6-sp20/kernel/proc.c:383
  1045ee:	83 ec 0c             	sub    $0xc,%esp
  1045f1:	ff 75 08             	pushl  0x8(%ebp)
  1045f4:	e8 a0 ff ff ff       	call   104599 <wakeup1>
  1045f9:	83 c4 10             	add    $0x10,%esp
/u/a/b/abhijith/CS537/p3a/xv6-sp20/kernel/proc.c:384
  1045fc:	83 ec 0c             	sub    $0xc,%esp
  1045ff:	68 c0 03 11 00       	push   $0x1103c0
  104604:	e8 44 02 00 00       	call   10484d <release>
  104609:	83 c4 10             	add    $0x10,%esp
/u/a/b/abhijith/CS537/p3a/xv6-sp20/kernel/proc.c:385
  10460c:	90                   	nop
  10460d:	c9                   	leave  
  10460e:	c3                   	ret    

0010460f <kill>:
kill():
/u/a/b/abhijith/CS537/p3a/xv6-sp20/kernel/proc.c:392
  10460f:	55                   	push   %ebp
  104610:	89 e5                	mov    %esp,%ebp
  104612:	83 ec 18             	sub    $0x18,%esp
/u/a/b/abhijith/CS537/p3a/xv6-sp20/kernel/proc.c:395
  104615:	83 ec 0c             	sub    $0xc,%esp
  104618:	68 c0 03 11 00       	push   $0x1103c0
  10461d:	e8 c4 01 00 00       	call   1047e6 <acquire>
  104622:	83 c4 10             	add    $0x10,%esp
/u/a/b/abhijith/CS537/p3a/xv6-sp20/kernel/proc.c:396
  104625:	c7 45 f4 f4 03 11 00 	movl   $0x1103f4,-0xc(%ebp)
  10462c:	eb 45                	jmp    104673 <kill+0x64>
/u/a/b/abhijith/CS537/p3a/xv6-sp20/kernel/proc.c:397
  10462e:	8b 45 f4             	mov    -0xc(%ebp),%eax
  104631:	8b 40 10             	mov    0x10(%eax),%eax
  104634:	39 45 08             	cmp    %eax,0x8(%ebp)
  104637:	75 36                	jne    10466f <kill+0x60>
/u/a/b/abhijith/CS537/p3a/xv6-sp20/kernel/proc.c:398
  104639:	8b 45 f4             	mov    -0xc(%ebp),%eax
  10463c:	c7 40 24 01 00 00 00 	movl   $0x1,0x24(%eax)
/u/a/b/abhijith/CS537/p3a/xv6-sp20/kernel/proc.c:400
  104643:	8b 45 f4             	mov    -0xc(%ebp),%eax
  104646:	8b 40 0c             	mov    0xc(%eax),%eax
  104649:	83 f8 02             	cmp    $0x2,%eax
  10464c:	75 0a                	jne    104658 <kill+0x49>
/u/a/b/abhijith/CS537/p3a/xv6-sp20/kernel/proc.c:401
  10464e:	8b 45 f4             	mov    -0xc(%ebp),%eax
  104651:	c7 40 0c 03 00 00 00 	movl   $0x3,0xc(%eax)
/u/a/b/abhijith/CS537/p3a/xv6-sp20/kernel/proc.c:402
  104658:	83 ec 0c             	sub    $0xc,%esp
  10465b:	68 c0 03 11 00       	push   $0x1103c0
  104660:	e8 e8 01 00 00       	call   10484d <release>
  104665:	83 c4 10             	add    $0x10,%esp
/u/a/b/abhijith/CS537/p3a/xv6-sp20/kernel/proc.c:403
  104668:	b8 00 00 00 00       	mov    $0x0,%eax
  10466d:	eb 22                	jmp    104691 <kill+0x82>
/u/a/b/abhijith/CS537/p3a/xv6-sp20/kernel/proc.c:396 (discriminator 2)
  10466f:	83 45 f4 7c          	addl   $0x7c,-0xc(%ebp)
/u/a/b/abhijith/CS537/p3a/xv6-sp20/kernel/proc.c:396 (discriminator 1)
  104673:	81 7d f4 f4 22 11 00 	cmpl   $0x1122f4,-0xc(%ebp)
  10467a:	72 b2                	jb     10462e <kill+0x1f>
/u/a/b/abhijith/CS537/p3a/xv6-sp20/kernel/proc.c:406
  10467c:	83 ec 0c             	sub    $0xc,%esp
  10467f:	68 c0 03 11 00       	push   $0x1103c0
  104684:	e8 c4 01 00 00       	call   10484d <release>
  104689:	83 c4 10             	add    $0x10,%esp
/u/a/b/abhijith/CS537/p3a/xv6-sp20/kernel/proc.c:407
  10468c:	b8 ff ff ff ff       	mov    $0xffffffff,%eax
/u/a/b/abhijith/CS537/p3a/xv6-sp20/kernel/proc.c:408
  104691:	c9                   	leave  
  104692:	c3                   	ret    

00104693 <procdump>:
procdump():
/u/a/b/abhijith/CS537/p3a/xv6-sp20/kernel/proc.c:415
  104693:	55                   	push   %ebp
  104694:	89 e5                	mov    %esp,%ebp
  104696:	83 ec 48             	sub    $0x48,%esp
/u/a/b/abhijith/CS537/p3a/xv6-sp20/kernel/proc.c:429
  104699:	c7 45 f0 f4 03 11 00 	movl   $0x1103f4,-0x10(%ebp)
  1046a0:	e9 d7 00 00 00       	jmp    10477c <procdump+0xe9>
/u/a/b/abhijith/CS537/p3a/xv6-sp20/kernel/proc.c:430
  1046a5:	8b 45 f0             	mov    -0x10(%ebp),%eax
  1046a8:	8b 40 0c             	mov    0xc(%eax),%eax
  1046ab:	85 c0                	test   %eax,%eax
  1046ad:	0f 84 c4 00 00 00    	je     104777 <procdump+0xe4>
/u/a/b/abhijith/CS537/p3a/xv6-sp20/kernel/proc.c:432
  1046b3:	8b 45 f0             	mov    -0x10(%ebp),%eax
  1046b6:	8b 40 0c             	mov    0xc(%eax),%eax
  1046b9:	83 f8 05             	cmp    $0x5,%eax
  1046bc:	77 23                	ja     1046e1 <procdump+0x4e>
/u/a/b/abhijith/CS537/p3a/xv6-sp20/kernel/proc.c:432 (discriminator 1)
  1046be:	8b 45 f0             	mov    -0x10(%ebp),%eax
  1046c1:	8b 40 0c             	mov    0xc(%eax),%eax
  1046c4:	8b 04 85 38 a5 10 00 	mov    0x10a538(,%eax,4),%eax
  1046cb:	85 c0                	test   %eax,%eax
  1046cd:	74 12                	je     1046e1 <procdump+0x4e>
/u/a/b/abhijith/CS537/p3a/xv6-sp20/kernel/proc.c:433
  1046cf:	8b 45 f0             	mov    -0x10(%ebp),%eax
  1046d2:	8b 40 0c             	mov    0xc(%eax),%eax
  1046d5:	8b 04 85 38 a5 10 00 	mov    0x10a538(,%eax,4),%eax
  1046dc:	89 45 ec             	mov    %eax,-0x14(%ebp)
  1046df:	eb 07                	jmp    1046e8 <procdump+0x55>
/u/a/b/abhijith/CS537/p3a/xv6-sp20/kernel/proc.c:435
  1046e1:	c7 45 ec 2c 81 10 00 	movl   $0x10812c,-0x14(%ebp)
/u/a/b/abhijith/CS537/p3a/xv6-sp20/kernel/proc.c:436
  1046e8:	8b 45 f0             	mov    -0x10(%ebp),%eax
  1046eb:	8d 50 6c             	lea    0x6c(%eax),%edx
  1046ee:	8b 45 f0             	mov    -0x10(%ebp),%eax
  1046f1:	8b 40 10             	mov    0x10(%eax),%eax
  1046f4:	52                   	push   %edx
  1046f5:	ff 75 ec             	pushl  -0x14(%ebp)
  1046f8:	50                   	push   %eax
  1046f9:	68 30 81 10 00       	push   $0x108130
  1046fe:	e8 e9 bc ff ff       	call   1003ec <cprintf>
  104703:	83 c4 10             	add    $0x10,%esp
/u/a/b/abhijith/CS537/p3a/xv6-sp20/kernel/proc.c:437
  104706:	8b 45 f0             	mov    -0x10(%ebp),%eax
  104709:	8b 40 0c             	mov    0xc(%eax),%eax
  10470c:	83 f8 02             	cmp    $0x2,%eax
  10470f:	75 54                	jne    104765 <procdump+0xd2>
/u/a/b/abhijith/CS537/p3a/xv6-sp20/kernel/proc.c:438
  104711:	8b 45 f0             	mov    -0x10(%ebp),%eax
  104714:	8b 40 1c             	mov    0x1c(%eax),%eax
  104717:	8b 40 0c             	mov    0xc(%eax),%eax
  10471a:	83 c0 08             	add    $0x8,%eax
  10471d:	89 c2                	mov    %eax,%edx
  10471f:	83 ec 08             	sub    $0x8,%esp
  104722:	8d 45 c4             	lea    -0x3c(%ebp),%eax
  104725:	50                   	push   %eax
  104726:	52                   	push   %edx
  104727:	e8 73 01 00 00       	call   10489f <getcallerpcs>
  10472c:	83 c4 10             	add    $0x10,%esp
/u/a/b/abhijith/CS537/p3a/xv6-sp20/kernel/proc.c:439
  10472f:	c7 45 f4 00 00 00 00 	movl   $0x0,-0xc(%ebp)
  104736:	eb 1c                	jmp    104754 <procdump+0xc1>
/u/a/b/abhijith/CS537/p3a/xv6-sp20/kernel/proc.c:440 (discriminator 4)
  104738:	8b 45 f4             	mov    -0xc(%ebp),%eax
  10473b:	8b 44 85 c4          	mov    -0x3c(%ebp,%eax,4),%eax
  10473f:	83 ec 08             	sub    $0x8,%esp
  104742:	50                   	push   %eax
  104743:	68 39 81 10 00       	push   $0x108139
  104748:	e8 9f bc ff ff       	call   1003ec <cprintf>
  10474d:	83 c4 10             	add    $0x10,%esp
/u/a/b/abhijith/CS537/p3a/xv6-sp20/kernel/proc.c:439 (discriminator 4)
  104750:	83 45 f4 01          	addl   $0x1,-0xc(%ebp)
/u/a/b/abhijith/CS537/p3a/xv6-sp20/kernel/proc.c:439 (discriminator 1)
  104754:	83 7d f4 09          	cmpl   $0x9,-0xc(%ebp)
  104758:	7f 0b                	jg     104765 <procdump+0xd2>
/u/a/b/abhijith/CS537/p3a/xv6-sp20/kernel/proc.c:439 (discriminator 3)
  10475a:	8b 45 f4             	mov    -0xc(%ebp),%eax
  10475d:	8b 44 85 c4          	mov    -0x3c(%ebp,%eax,4),%eax
  104761:	85 c0                	test   %eax,%eax
  104763:	75 d3                	jne    104738 <procdump+0xa5>
/u/a/b/abhijith/CS537/p3a/xv6-sp20/kernel/proc.c:442
  104765:	83 ec 0c             	sub    $0xc,%esp
  104768:	68 3d 81 10 00       	push   $0x10813d
  10476d:	e8 7a bc ff ff       	call   1003ec <cprintf>
  104772:	83 c4 10             	add    $0x10,%esp
  104775:	eb 01                	jmp    104778 <procdump+0xe5>
/u/a/b/abhijith/CS537/p3a/xv6-sp20/kernel/proc.c:431
  104777:	90                   	nop
/u/a/b/abhijith/CS537/p3a/xv6-sp20/kernel/proc.c:429 (discriminator 2)
  104778:	83 45 f0 7c          	addl   $0x7c,-0x10(%ebp)
/u/a/b/abhijith/CS537/p3a/xv6-sp20/kernel/proc.c:429 (discriminator 1)
  10477c:	81 7d f0 f4 22 11 00 	cmpl   $0x1122f4,-0x10(%ebp)
  104783:	0f 82 1c ff ff ff    	jb     1046a5 <procdump+0x12>
/u/a/b/abhijith/CS537/p3a/xv6-sp20/kernel/proc.c:444
  104789:	90                   	nop
  10478a:	c9                   	leave  
  10478b:	c3                   	ret    

0010478c <readeflags>:
readeflags():
/u/a/b/abhijith/CS537/p3a/xv6-sp20/include/x86.h:89
  10478c:	55                   	push   %ebp
  10478d:	89 e5                	mov    %esp,%ebp
  10478f:	83 ec 10             	sub    $0x10,%esp
/u/a/b/abhijith/CS537/p3a/xv6-sp20/include/x86.h:91
  104792:	9c                   	pushf  
  104793:	58                   	pop    %eax
  104794:	89 45 fc             	mov    %eax,-0x4(%ebp)
/u/a/b/abhijith/CS537/p3a/xv6-sp20/include/x86.h:92
  104797:	8b 45 fc             	mov    -0x4(%ebp),%eax
/u/a/b/abhijith/CS537/p3a/xv6-sp20/include/x86.h:93
  10479a:	c9                   	leave  
  10479b:	c3                   	ret    

0010479c <cli>:
cli():
/u/a/b/abhijith/CS537/p3a/xv6-sp20/include/x86.h:119
  10479c:	55                   	push   %ebp
  10479d:	89 e5                	mov    %esp,%ebp
/u/a/b/abhijith/CS537/p3a/xv6-sp20/include/x86.h:120
  10479f:	fa                   	cli    
/u/a/b/abhijith/CS537/p3a/xv6-sp20/include/x86.h:121
  1047a0:	90                   	nop
  1047a1:	5d                   	pop    %ebp
  1047a2:	c3                   	ret    

001047a3 <sti>:
sti():
/u/a/b/abhijith/CS537/p3a/xv6-sp20/include/x86.h:125
  1047a3:	55                   	push   %ebp
  1047a4:	89 e5                	mov    %esp,%ebp
/u/a/b/abhijith/CS537/p3a/xv6-sp20/include/x86.h:126
  1047a6:	fb                   	sti    
/u/a/b/abhijith/CS537/p3a/xv6-sp20/include/x86.h:127
  1047a7:	90                   	nop
  1047a8:	5d                   	pop    %ebp
  1047a9:	c3                   	ret    

001047aa <xchg>:
xchg():
/u/a/b/abhijith/CS537/p3a/xv6-sp20/include/x86.h:131
  1047aa:	55                   	push   %ebp
  1047ab:	89 e5                	mov    %esp,%ebp
  1047ad:	83 ec 10             	sub    $0x10,%esp
/u/a/b/abhijith/CS537/p3a/xv6-sp20/include/x86.h:135
  1047b0:	8b 55 08             	mov    0x8(%ebp),%edx
  1047b3:	8b 45 0c             	mov    0xc(%ebp),%eax
  1047b6:	8b 4d 08             	mov    0x8(%ebp),%ecx
  1047b9:	f0 87 02             	lock xchg %eax,(%edx)
  1047bc:	89 45 fc             	mov    %eax,-0x4(%ebp)
/u/a/b/abhijith/CS537/p3a/xv6-sp20/include/x86.h:139
  1047bf:	8b 45 fc             	mov    -0x4(%ebp),%eax
/u/a/b/abhijith/CS537/p3a/xv6-sp20/include/x86.h:140
  1047c2:	c9                   	leave  
  1047c3:	c3                   	ret    

001047c4 <initlock>:
initlock():
/u/a/b/abhijith/CS537/p3a/xv6-sp20/kernel/spinlock.c:13
  1047c4:	55                   	push   %ebp
  1047c5:	89 e5                	mov    %esp,%ebp
/u/a/b/abhijith/CS537/p3a/xv6-sp20/kernel/spinlock.c:14
  1047c7:	8b 45 08             	mov    0x8(%ebp),%eax
  1047ca:	8b 55 0c             	mov    0xc(%ebp),%edx
  1047cd:	89 50 04             	mov    %edx,0x4(%eax)
/u/a/b/abhijith/CS537/p3a/xv6-sp20/kernel/spinlock.c:15
  1047d0:	8b 45 08             	mov    0x8(%ebp),%eax
  1047d3:	c7 00 00 00 00 00    	movl   $0x0,(%eax)
/u/a/b/abhijith/CS537/p3a/xv6-sp20/kernel/spinlock.c:16
  1047d9:	8b 45 08             	mov    0x8(%ebp),%eax
  1047dc:	c7 40 08 00 00 00 00 	movl   $0x0,0x8(%eax)
/u/a/b/abhijith/CS537/p3a/xv6-sp20/kernel/spinlock.c:17
  1047e3:	90                   	nop
  1047e4:	5d                   	pop    %ebp
  1047e5:	c3                   	ret    

001047e6 <acquire>:
acquire():
/u/a/b/abhijith/CS537/p3a/xv6-sp20/kernel/spinlock.c:25
  1047e6:	55                   	push   %ebp
  1047e7:	89 e5                	mov    %esp,%ebp
  1047e9:	83 ec 08             	sub    $0x8,%esp
/u/a/b/abhijith/CS537/p3a/xv6-sp20/kernel/spinlock.c:26
  1047ec:	e8 52 01 00 00       	call   104943 <pushcli>
/u/a/b/abhijith/CS537/p3a/xv6-sp20/kernel/spinlock.c:27
  1047f1:	8b 45 08             	mov    0x8(%ebp),%eax
  1047f4:	83 ec 0c             	sub    $0xc,%esp
  1047f7:	50                   	push   %eax
  1047f8:	e8 1c 01 00 00       	call   104919 <holding>
  1047fd:	83 c4 10             	add    $0x10,%esp
  104800:	85 c0                	test   %eax,%eax
  104802:	74 0d                	je     104811 <acquire+0x2b>
/u/a/b/abhijith/CS537/p3a/xv6-sp20/kernel/spinlock.c:28
  104804:	83 ec 0c             	sub    $0xc,%esp
  104807:	68 69 81 10 00       	push   $0x108169
  10480c:	e8 67 bd ff ff       	call   100578 <panic>
/u/a/b/abhijith/CS537/p3a/xv6-sp20/kernel/spinlock.c:33
  104811:	90                   	nop
/u/a/b/abhijith/CS537/p3a/xv6-sp20/kernel/spinlock.c:33 (discriminator 1)
  104812:	8b 45 08             	mov    0x8(%ebp),%eax
  104815:	83 ec 08             	sub    $0x8,%esp
  104818:	6a 01                	push   $0x1
  10481a:	50                   	push   %eax
  10481b:	e8 8a ff ff ff       	call   1047aa <xchg>
  104820:	83 c4 10             	add    $0x10,%esp
  104823:	85 c0                	test   %eax,%eax
  104825:	75 eb                	jne    104812 <acquire+0x2c>
/u/a/b/abhijith/CS537/p3a/xv6-sp20/kernel/spinlock.c:37
  104827:	8b 45 08             	mov    0x8(%ebp),%eax
  10482a:	65 8b 15 00 00 00 00 	mov    %gs:0x0,%edx
  104831:	89 50 08             	mov    %edx,0x8(%eax)
/u/a/b/abhijith/CS537/p3a/xv6-sp20/kernel/spinlock.c:38
  104834:	8b 45 08             	mov    0x8(%ebp),%eax
  104837:	83 c0 0c             	add    $0xc,%eax
  10483a:	83 ec 08             	sub    $0x8,%esp
  10483d:	50                   	push   %eax
  10483e:	8d 45 08             	lea    0x8(%ebp),%eax
  104841:	50                   	push   %eax
  104842:	e8 58 00 00 00       	call   10489f <getcallerpcs>
  104847:	83 c4 10             	add    $0x10,%esp
/u/a/b/abhijith/CS537/p3a/xv6-sp20/kernel/spinlock.c:39
  10484a:	90                   	nop
  10484b:	c9                   	leave  
  10484c:	c3                   	ret    

0010484d <release>:
release():
/u/a/b/abhijith/CS537/p3a/xv6-sp20/kernel/spinlock.c:44
  10484d:	55                   	push   %ebp
  10484e:	89 e5                	mov    %esp,%ebp
  104850:	83 ec 08             	sub    $0x8,%esp
/u/a/b/abhijith/CS537/p3a/xv6-sp20/kernel/spinlock.c:45
  104853:	83 ec 0c             	sub    $0xc,%esp
  104856:	ff 75 08             	pushl  0x8(%ebp)
  104859:	e8 bb 00 00 00       	call   104919 <holding>
  10485e:	83 c4 10             	add    $0x10,%esp
  104861:	85 c0                	test   %eax,%eax
  104863:	75 0d                	jne    104872 <release+0x25>
/u/a/b/abhijith/CS537/p3a/xv6-sp20/kernel/spinlock.c:46
  104865:	83 ec 0c             	sub    $0xc,%esp
  104868:	68 71 81 10 00       	push   $0x108171
  10486d:	e8 06 bd ff ff       	call   100578 <panic>
/u/a/b/abhijith/CS537/p3a/xv6-sp20/kernel/spinlock.c:48
  104872:	8b 45 08             	mov    0x8(%ebp),%eax
  104875:	c7 40 0c 00 00 00 00 	movl   $0x0,0xc(%eax)
/u/a/b/abhijith/CS537/p3a/xv6-sp20/kernel/spinlock.c:49
  10487c:	8b 45 08             	mov    0x8(%ebp),%eax
  10487f:	c7 40 08 00 00 00 00 	movl   $0x0,0x8(%eax)
/u/a/b/abhijith/CS537/p3a/xv6-sp20/kernel/spinlock.c:60
  104886:	8b 45 08             	mov    0x8(%ebp),%eax
  104889:	83 ec 08             	sub    $0x8,%esp
  10488c:	6a 00                	push   $0x0
  10488e:	50                   	push   %eax
  10488f:	e8 16 ff ff ff       	call   1047aa <xchg>
  104894:	83 c4 10             	add    $0x10,%esp
/u/a/b/abhijith/CS537/p3a/xv6-sp20/kernel/spinlock.c:62
  104897:	e8 ec 00 00 00       	call   104988 <popcli>
/u/a/b/abhijith/CS537/p3a/xv6-sp20/kernel/spinlock.c:63
  10489c:	90                   	nop
  10489d:	c9                   	leave  
  10489e:	c3                   	ret    

0010489f <getcallerpcs>:
getcallerpcs():
/u/a/b/abhijith/CS537/p3a/xv6-sp20/kernel/spinlock.c:68
  10489f:	55                   	push   %ebp
  1048a0:	89 e5                	mov    %esp,%ebp
  1048a2:	83 ec 10             	sub    $0x10,%esp
/u/a/b/abhijith/CS537/p3a/xv6-sp20/kernel/spinlock.c:72
  1048a5:	8b 45 08             	mov    0x8(%ebp),%eax
  1048a8:	83 e8 08             	sub    $0x8,%eax
  1048ab:	89 45 fc             	mov    %eax,-0x4(%ebp)
/u/a/b/abhijith/CS537/p3a/xv6-sp20/kernel/spinlock.c:73
  1048ae:	c7 45 f8 00 00 00 00 	movl   $0x0,-0x8(%ebp)
  1048b5:	eb 38                	jmp    1048ef <getcallerpcs+0x50>
/u/a/b/abhijith/CS537/p3a/xv6-sp20/kernel/spinlock.c:74
  1048b7:	83 7d fc 00          	cmpl   $0x0,-0x4(%ebp)
  1048bb:	74 53                	je     104910 <getcallerpcs+0x71>
/u/a/b/abhijith/CS537/p3a/xv6-sp20/kernel/spinlock.c:74 (discriminator 1)
  1048bd:	81 7d fc ff ff 0f 00 	cmpl   $0xfffff,-0x4(%ebp)
  1048c4:	76 4a                	jbe    104910 <getcallerpcs+0x71>
/u/a/b/abhijith/CS537/p3a/xv6-sp20/kernel/spinlock.c:74 (discriminator 2)
  1048c6:	83 7d fc ff          	cmpl   $0xffffffff,-0x4(%ebp)
  1048ca:	74 44                	je     104910 <getcallerpcs+0x71>
/u/a/b/abhijith/CS537/p3a/xv6-sp20/kernel/spinlock.c:76 (discriminator 2)
  1048cc:	8b 45 f8             	mov    -0x8(%ebp),%eax
  1048cf:	8d 14 85 00 00 00 00 	lea    0x0(,%eax,4),%edx
  1048d6:	8b 45 0c             	mov    0xc(%ebp),%eax
  1048d9:	01 c2                	add    %eax,%edx
  1048db:	8b 45 fc             	mov    -0x4(%ebp),%eax
  1048de:	8b 40 04             	mov    0x4(%eax),%eax
  1048e1:	89 02                	mov    %eax,(%edx)
/u/a/b/abhijith/CS537/p3a/xv6-sp20/kernel/spinlock.c:77 (discriminator 2)
  1048e3:	8b 45 fc             	mov    -0x4(%ebp),%eax
  1048e6:	8b 00                	mov    (%eax),%eax
  1048e8:	89 45 fc             	mov    %eax,-0x4(%ebp)
/u/a/b/abhijith/CS537/p3a/xv6-sp20/kernel/spinlock.c:73 (discriminator 2)
  1048eb:	83 45 f8 01          	addl   $0x1,-0x8(%ebp)
/u/a/b/abhijith/CS537/p3a/xv6-sp20/kernel/spinlock.c:73 (discriminator 1)
  1048ef:	83 7d f8 09          	cmpl   $0x9,-0x8(%ebp)
  1048f3:	7e c2                	jle    1048b7 <getcallerpcs+0x18>
/u/a/b/abhijith/CS537/p3a/xv6-sp20/kernel/spinlock.c:79
  1048f5:	eb 19                	jmp    104910 <getcallerpcs+0x71>
/u/a/b/abhijith/CS537/p3a/xv6-sp20/kernel/spinlock.c:80 (discriminator 2)
  1048f7:	8b 45 f8             	mov    -0x8(%ebp),%eax
  1048fa:	8d 14 85 00 00 00 00 	lea    0x0(,%eax,4),%edx
  104901:	8b 45 0c             	mov    0xc(%ebp),%eax
  104904:	01 d0                	add    %edx,%eax
  104906:	c7 00 00 00 00 00    	movl   $0x0,(%eax)
/u/a/b/abhijith/CS537/p3a/xv6-sp20/kernel/spinlock.c:79 (discriminator 2)
  10490c:	83 45 f8 01          	addl   $0x1,-0x8(%ebp)
/u/a/b/abhijith/CS537/p3a/xv6-sp20/kernel/spinlock.c:79 (discriminator 1)
  104910:	83 7d f8 09          	cmpl   $0x9,-0x8(%ebp)
  104914:	7e e1                	jle    1048f7 <getcallerpcs+0x58>
/u/a/b/abhijith/CS537/p3a/xv6-sp20/kernel/spinlock.c:81
  104916:	90                   	nop
  104917:	c9                   	leave  
  104918:	c3                   	ret    

00104919 <holding>:
holding():
/u/a/b/abhijith/CS537/p3a/xv6-sp20/kernel/spinlock.c:86
  104919:	55                   	push   %ebp
  10491a:	89 e5                	mov    %esp,%ebp
/u/a/b/abhijith/CS537/p3a/xv6-sp20/kernel/spinlock.c:87
  10491c:	8b 45 08             	mov    0x8(%ebp),%eax
  10491f:	8b 00                	mov    (%eax),%eax
  104921:	85 c0                	test   %eax,%eax
  104923:	74 17                	je     10493c <holding+0x23>
/u/a/b/abhijith/CS537/p3a/xv6-sp20/kernel/spinlock.c:87 (discriminator 1)
  104925:	8b 45 08             	mov    0x8(%ebp),%eax
  104928:	8b 50 08             	mov    0x8(%eax),%edx
  10492b:	65 a1 00 00 00 00    	mov    %gs:0x0,%eax
  104931:	39 c2                	cmp    %eax,%edx
  104933:	75 07                	jne    10493c <holding+0x23>
/u/a/b/abhijith/CS537/p3a/xv6-sp20/kernel/spinlock.c:87 (discriminator 3)
  104935:	b8 01 00 00 00       	mov    $0x1,%eax
  10493a:	eb 05                	jmp    104941 <holding+0x28>
/u/a/b/abhijith/CS537/p3a/xv6-sp20/kernel/spinlock.c:87 (discriminator 4)
  10493c:	b8 00 00 00 00       	mov    $0x0,%eax
/u/a/b/abhijith/CS537/p3a/xv6-sp20/kernel/spinlock.c:88 (discriminator 7)
  104941:	5d                   	pop    %ebp
  104942:	c3                   	ret    

00104943 <pushcli>:
pushcli():
/u/a/b/abhijith/CS537/p3a/xv6-sp20/kernel/spinlock.c:97
  104943:	55                   	push   %ebp
  104944:	89 e5                	mov    %esp,%ebp
  104946:	83 ec 10             	sub    $0x10,%esp
/u/a/b/abhijith/CS537/p3a/xv6-sp20/kernel/spinlock.c:100
  104949:	e8 3e fe ff ff       	call   10478c <readeflags>
  10494e:	89 45 fc             	mov    %eax,-0x4(%ebp)
/u/a/b/abhijith/CS537/p3a/xv6-sp20/kernel/spinlock.c:101
  104951:	e8 46 fe ff ff       	call   10479c <cli>
/u/a/b/abhijith/CS537/p3a/xv6-sp20/kernel/spinlock.c:102
  104956:	65 8b 15 00 00 00 00 	mov    %gs:0x0,%edx
  10495d:	8b 82 ac 00 00 00    	mov    0xac(%edx),%eax
  104963:	8d 48 01             	lea    0x1(%eax),%ecx
  104966:	89 8a ac 00 00 00    	mov    %ecx,0xac(%edx)
  10496c:	85 c0                	test   %eax,%eax
  10496e:	75 15                	jne    104985 <pushcli+0x42>
/u/a/b/abhijith/CS537/p3a/xv6-sp20/kernel/spinlock.c:103
  104970:	65 a1 00 00 00 00    	mov    %gs:0x0,%eax
  104976:	8b 55 fc             	mov    -0x4(%ebp),%edx
  104979:	81 e2 00 02 00 00    	and    $0x200,%edx
  10497f:	89 90 b0 00 00 00    	mov    %edx,0xb0(%eax)
/u/a/b/abhijith/CS537/p3a/xv6-sp20/kernel/spinlock.c:104
  104985:	90                   	nop
  104986:	c9                   	leave  
  104987:	c3                   	ret    

00104988 <popcli>:
popcli():
/u/a/b/abhijith/CS537/p3a/xv6-sp20/kernel/spinlock.c:108
  104988:	55                   	push   %ebp
  104989:	89 e5                	mov    %esp,%ebp
  10498b:	83 ec 08             	sub    $0x8,%esp
/u/a/b/abhijith/CS537/p3a/xv6-sp20/kernel/spinlock.c:109
  10498e:	e8 f9 fd ff ff       	call   10478c <readeflags>
  104993:	25 00 02 00 00       	and    $0x200,%eax
  104998:	85 c0                	test   %eax,%eax
  10499a:	74 0d                	je     1049a9 <popcli+0x21>
/u/a/b/abhijith/CS537/p3a/xv6-sp20/kernel/spinlock.c:110
  10499c:	83 ec 0c             	sub    $0xc,%esp
  10499f:	68 79 81 10 00       	push   $0x108179
  1049a4:	e8 cf bb ff ff       	call   100578 <panic>
/u/a/b/abhijith/CS537/p3a/xv6-sp20/kernel/spinlock.c:111
  1049a9:	65 a1 00 00 00 00    	mov    %gs:0x0,%eax
  1049af:	8b 90 ac 00 00 00    	mov    0xac(%eax),%edx
  1049b5:	83 ea 01             	sub    $0x1,%edx
  1049b8:	89 90 ac 00 00 00    	mov    %edx,0xac(%eax)
  1049be:	8b 80 ac 00 00 00    	mov    0xac(%eax),%eax
  1049c4:	85 c0                	test   %eax,%eax
  1049c6:	79 0d                	jns    1049d5 <popcli+0x4d>
/u/a/b/abhijith/CS537/p3a/xv6-sp20/kernel/spinlock.c:112
  1049c8:	83 ec 0c             	sub    $0xc,%esp
  1049cb:	68 90 81 10 00       	push   $0x108190
  1049d0:	e8 a3 bb ff ff       	call   100578 <panic>
/u/a/b/abhijith/CS537/p3a/xv6-sp20/kernel/spinlock.c:113
  1049d5:	65 a1 00 00 00 00    	mov    %gs:0x0,%eax
  1049db:	8b 80 ac 00 00 00    	mov    0xac(%eax),%eax
  1049e1:	85 c0                	test   %eax,%eax
  1049e3:	75 15                	jne    1049fa <popcli+0x72>
/u/a/b/abhijith/CS537/p3a/xv6-sp20/kernel/spinlock.c:113 (discriminator 1)
  1049e5:	65 a1 00 00 00 00    	mov    %gs:0x0,%eax
  1049eb:	8b 80 b0 00 00 00    	mov    0xb0(%eax),%eax
  1049f1:	85 c0                	test   %eax,%eax
  1049f3:	74 05                	je     1049fa <popcli+0x72>
/u/a/b/abhijith/CS537/p3a/xv6-sp20/kernel/spinlock.c:114
  1049f5:	e8 a9 fd ff ff       	call   1047a3 <sti>
/u/a/b/abhijith/CS537/p3a/xv6-sp20/kernel/spinlock.c:115
  1049fa:	90                   	nop
  1049fb:	c9                   	leave  
  1049fc:	c3                   	ret    

001049fd <stosb>:
stosb():
/u/a/b/abhijith/CS537/p3a/xv6-sp20/include/x86.h:46
  1049fd:	55                   	push   %ebp
  1049fe:	89 e5                	mov    %esp,%ebp
  104a00:	57                   	push   %edi
  104a01:	53                   	push   %ebx
/u/a/b/abhijith/CS537/p3a/xv6-sp20/include/x86.h:47
  104a02:	8b 4d 08             	mov    0x8(%ebp),%ecx
  104a05:	8b 55 10             	mov    0x10(%ebp),%edx
  104a08:	8b 45 0c             	mov    0xc(%ebp),%eax
  104a0b:	89 cb                	mov    %ecx,%ebx
  104a0d:	89 df                	mov    %ebx,%edi
  104a0f:	89 d1                	mov    %edx,%ecx
  104a11:	fc                   	cld    
  104a12:	f3 aa                	rep stos %al,%es:(%edi)
  104a14:	89 ca                	mov    %ecx,%edx
  104a16:	89 fb                	mov    %edi,%ebx
  104a18:	89 5d 08             	mov    %ebx,0x8(%ebp)
  104a1b:	89 55 10             	mov    %edx,0x10(%ebp)
/u/a/b/abhijith/CS537/p3a/xv6-sp20/include/x86.h:51
  104a1e:	90                   	nop
  104a1f:	5b                   	pop    %ebx
  104a20:	5f                   	pop    %edi
  104a21:	5d                   	pop    %ebp
  104a22:	c3                   	ret    

00104a23 <memset>:
memset():
/u/a/b/abhijith/CS537/p3a/xv6-sp20/kernel/string.c:6
  104a23:	55                   	push   %ebp
  104a24:	89 e5                	mov    %esp,%ebp
/u/a/b/abhijith/CS537/p3a/xv6-sp20/kernel/string.c:7
  104a26:	8b 45 10             	mov    0x10(%ebp),%eax
  104a29:	50                   	push   %eax
  104a2a:	ff 75 0c             	pushl  0xc(%ebp)
  104a2d:	ff 75 08             	pushl  0x8(%ebp)
  104a30:	e8 c8 ff ff ff       	call   1049fd <stosb>
  104a35:	83 c4 0c             	add    $0xc,%esp
/u/a/b/abhijith/CS537/p3a/xv6-sp20/kernel/string.c:8
  104a38:	8b 45 08             	mov    0x8(%ebp),%eax
/u/a/b/abhijith/CS537/p3a/xv6-sp20/kernel/string.c:9
  104a3b:	c9                   	leave  
  104a3c:	c3                   	ret    

00104a3d <memcmp>:
memcmp():
/u/a/b/abhijith/CS537/p3a/xv6-sp20/kernel/string.c:13
  104a3d:	55                   	push   %ebp
  104a3e:	89 e5                	mov    %esp,%ebp
  104a40:	83 ec 10             	sub    $0x10,%esp
/u/a/b/abhijith/CS537/p3a/xv6-sp20/kernel/string.c:16
  104a43:	8b 45 08             	mov    0x8(%ebp),%eax
  104a46:	89 45 fc             	mov    %eax,-0x4(%ebp)
/u/a/b/abhijith/CS537/p3a/xv6-sp20/kernel/string.c:17
  104a49:	8b 45 0c             	mov    0xc(%ebp),%eax
  104a4c:	89 45 f8             	mov    %eax,-0x8(%ebp)
/u/a/b/abhijith/CS537/p3a/xv6-sp20/kernel/string.c:18
  104a4f:	eb 30                	jmp    104a81 <memcmp+0x44>
/u/a/b/abhijith/CS537/p3a/xv6-sp20/kernel/string.c:19
  104a51:	8b 45 fc             	mov    -0x4(%ebp),%eax
  104a54:	0f b6 10             	movzbl (%eax),%edx
  104a57:	8b 45 f8             	mov    -0x8(%ebp),%eax
  104a5a:	0f b6 00             	movzbl (%eax),%eax
  104a5d:	38 c2                	cmp    %al,%dl
  104a5f:	74 18                	je     104a79 <memcmp+0x3c>
/u/a/b/abhijith/CS537/p3a/xv6-sp20/kernel/string.c:20
  104a61:	8b 45 fc             	mov    -0x4(%ebp),%eax
  104a64:	0f b6 00             	movzbl (%eax),%eax
  104a67:	0f b6 d0             	movzbl %al,%edx
  104a6a:	8b 45 f8             	mov    -0x8(%ebp),%eax
  104a6d:	0f b6 00             	movzbl (%eax),%eax
  104a70:	0f b6 c0             	movzbl %al,%eax
  104a73:	29 c2                	sub    %eax,%edx
  104a75:	89 d0                	mov    %edx,%eax
  104a77:	eb 1a                	jmp    104a93 <memcmp+0x56>
/u/a/b/abhijith/CS537/p3a/xv6-sp20/kernel/string.c:21
  104a79:	83 45 fc 01          	addl   $0x1,-0x4(%ebp)
  104a7d:	83 45 f8 01          	addl   $0x1,-0x8(%ebp)
/u/a/b/abhijith/CS537/p3a/xv6-sp20/kernel/string.c:18
  104a81:	8b 45 10             	mov    0x10(%ebp),%eax
  104a84:	8d 50 ff             	lea    -0x1(%eax),%edx
  104a87:	89 55 10             	mov    %edx,0x10(%ebp)
  104a8a:	85 c0                	test   %eax,%eax
  104a8c:	75 c3                	jne    104a51 <memcmp+0x14>
/u/a/b/abhijith/CS537/p3a/xv6-sp20/kernel/string.c:24
  104a8e:	b8 00 00 00 00       	mov    $0x0,%eax
/u/a/b/abhijith/CS537/p3a/xv6-sp20/kernel/string.c:25
  104a93:	c9                   	leave  
  104a94:	c3                   	ret    

00104a95 <memmove>:
memmove():
/u/a/b/abhijith/CS537/p3a/xv6-sp20/kernel/string.c:29
  104a95:	55                   	push   %ebp
  104a96:	89 e5                	mov    %esp,%ebp
  104a98:	83 ec 10             	sub    $0x10,%esp
/u/a/b/abhijith/CS537/p3a/xv6-sp20/kernel/string.c:33
  104a9b:	8b 45 0c             	mov    0xc(%ebp),%eax
  104a9e:	89 45 fc             	mov    %eax,-0x4(%ebp)
/u/a/b/abhijith/CS537/p3a/xv6-sp20/kernel/string.c:34
  104aa1:	8b 45 08             	mov    0x8(%ebp),%eax
  104aa4:	89 45 f8             	mov    %eax,-0x8(%ebp)
/u/a/b/abhijith/CS537/p3a/xv6-sp20/kernel/string.c:35
  104aa7:	8b 45 fc             	mov    -0x4(%ebp),%eax
  104aaa:	3b 45 f8             	cmp    -0x8(%ebp),%eax
  104aad:	73 54                	jae    104b03 <memmove+0x6e>
/u/a/b/abhijith/CS537/p3a/xv6-sp20/kernel/string.c:35 (discriminator 1)
  104aaf:	8b 55 fc             	mov    -0x4(%ebp),%edx
  104ab2:	8b 45 10             	mov    0x10(%ebp),%eax
  104ab5:	01 d0                	add    %edx,%eax
  104ab7:	39 45 f8             	cmp    %eax,-0x8(%ebp)
  104aba:	73 47                	jae    104b03 <memmove+0x6e>
/u/a/b/abhijith/CS537/p3a/xv6-sp20/kernel/string.c:36
  104abc:	8b 45 10             	mov    0x10(%ebp),%eax
  104abf:	01 45 fc             	add    %eax,-0x4(%ebp)
/u/a/b/abhijith/CS537/p3a/xv6-sp20/kernel/string.c:37
  104ac2:	8b 45 10             	mov    0x10(%ebp),%eax
  104ac5:	01 45 f8             	add    %eax,-0x8(%ebp)
/u/a/b/abhijith/CS537/p3a/xv6-sp20/kernel/string.c:38
  104ac8:	eb 13                	jmp    104add <memmove+0x48>
/u/a/b/abhijith/CS537/p3a/xv6-sp20/kernel/string.c:39
  104aca:	83 6d fc 01          	subl   $0x1,-0x4(%ebp)
  104ace:	83 6d f8 01          	subl   $0x1,-0x8(%ebp)
  104ad2:	8b 45 fc             	mov    -0x4(%ebp),%eax
  104ad5:	0f b6 10             	movzbl (%eax),%edx
  104ad8:	8b 45 f8             	mov    -0x8(%ebp),%eax
  104adb:	88 10                	mov    %dl,(%eax)
/u/a/b/abhijith/CS537/p3a/xv6-sp20/kernel/string.c:38
  104add:	8b 45 10             	mov    0x10(%ebp),%eax
  104ae0:	8d 50 ff             	lea    -0x1(%eax),%edx
  104ae3:	89 55 10             	mov    %edx,0x10(%ebp)
  104ae6:	85 c0                	test   %eax,%eax
  104ae8:	75 e0                	jne    104aca <memmove+0x35>
/u/a/b/abhijith/CS537/p3a/xv6-sp20/kernel/string.c:35
  104aea:	eb 24                	jmp    104b10 <memmove+0x7b>
/u/a/b/abhijith/CS537/p3a/xv6-sp20/kernel/string.c:42
  104aec:	8b 55 fc             	mov    -0x4(%ebp),%edx
  104aef:	8d 42 01             	lea    0x1(%edx),%eax
  104af2:	89 45 fc             	mov    %eax,-0x4(%ebp)
  104af5:	8b 45 f8             	mov    -0x8(%ebp),%eax
  104af8:	8d 48 01             	lea    0x1(%eax),%ecx
  104afb:	89 4d f8             	mov    %ecx,-0x8(%ebp)
  104afe:	0f b6 12             	movzbl (%edx),%edx
  104b01:	88 10                	mov    %dl,(%eax)
/u/a/b/abhijith/CS537/p3a/xv6-sp20/kernel/string.c:41
  104b03:	8b 45 10             	mov    0x10(%ebp),%eax
  104b06:	8d 50 ff             	lea    -0x1(%eax),%edx
  104b09:	89 55 10             	mov    %edx,0x10(%ebp)
  104b0c:	85 c0                	test   %eax,%eax
  104b0e:	75 dc                	jne    104aec <memmove+0x57>
/u/a/b/abhijith/CS537/p3a/xv6-sp20/kernel/string.c:44
  104b10:	8b 45 08             	mov    0x8(%ebp),%eax
/u/a/b/abhijith/CS537/p3a/xv6-sp20/kernel/string.c:45
  104b13:	c9                   	leave  
  104b14:	c3                   	ret    

00104b15 <memcpy>:
memcpy():
/u/a/b/abhijith/CS537/p3a/xv6-sp20/kernel/string.c:50
  104b15:	55                   	push   %ebp
  104b16:	89 e5                	mov    %esp,%ebp
/u/a/b/abhijith/CS537/p3a/xv6-sp20/kernel/string.c:51
  104b18:	ff 75 10             	pushl  0x10(%ebp)
  104b1b:	ff 75 0c             	pushl  0xc(%ebp)
  104b1e:	ff 75 08             	pushl  0x8(%ebp)
  104b21:	e8 6f ff ff ff       	call   104a95 <memmove>
  104b26:	83 c4 0c             	add    $0xc,%esp
/u/a/b/abhijith/CS537/p3a/xv6-sp20/kernel/string.c:52
  104b29:	c9                   	leave  
  104b2a:	c3                   	ret    

00104b2b <strncmp>:
strncmp():
/u/a/b/abhijith/CS537/p3a/xv6-sp20/kernel/string.c:56
  104b2b:	55                   	push   %ebp
  104b2c:	89 e5                	mov    %esp,%ebp
/u/a/b/abhijith/CS537/p3a/xv6-sp20/kernel/string.c:57
  104b2e:	eb 0c                	jmp    104b3c <strncmp+0x11>
/u/a/b/abhijith/CS537/p3a/xv6-sp20/kernel/string.c:58
  104b30:	83 6d 10 01          	subl   $0x1,0x10(%ebp)
  104b34:	83 45 08 01          	addl   $0x1,0x8(%ebp)
  104b38:	83 45 0c 01          	addl   $0x1,0xc(%ebp)
/u/a/b/abhijith/CS537/p3a/xv6-sp20/kernel/string.c:57
  104b3c:	83 7d 10 00          	cmpl   $0x0,0x10(%ebp)
  104b40:	74 1a                	je     104b5c <strncmp+0x31>
/u/a/b/abhijith/CS537/p3a/xv6-sp20/kernel/string.c:57 (discriminator 1)
  104b42:	8b 45 08             	mov    0x8(%ebp),%eax
  104b45:	0f b6 00             	movzbl (%eax),%eax
  104b48:	84 c0                	test   %al,%al
  104b4a:	74 10                	je     104b5c <strncmp+0x31>
/u/a/b/abhijith/CS537/p3a/xv6-sp20/kernel/string.c:57 (discriminator 2)
  104b4c:	8b 45 08             	mov    0x8(%ebp),%eax
  104b4f:	0f b6 10             	movzbl (%eax),%edx
  104b52:	8b 45 0c             	mov    0xc(%ebp),%eax
  104b55:	0f b6 00             	movzbl (%eax),%eax
  104b58:	38 c2                	cmp    %al,%dl
  104b5a:	74 d4                	je     104b30 <strncmp+0x5>
/u/a/b/abhijith/CS537/p3a/xv6-sp20/kernel/string.c:59
  104b5c:	83 7d 10 00          	cmpl   $0x0,0x10(%ebp)
  104b60:	75 07                	jne    104b69 <strncmp+0x3e>
/u/a/b/abhijith/CS537/p3a/xv6-sp20/kernel/string.c:60
  104b62:	b8 00 00 00 00       	mov    $0x0,%eax
  104b67:	eb 16                	jmp    104b7f <strncmp+0x54>
/u/a/b/abhijith/CS537/p3a/xv6-sp20/kernel/string.c:61
  104b69:	8b 45 08             	mov    0x8(%ebp),%eax
  104b6c:	0f b6 00             	movzbl (%eax),%eax
  104b6f:	0f b6 d0             	movzbl %al,%edx
  104b72:	8b 45 0c             	mov    0xc(%ebp),%eax
  104b75:	0f b6 00             	movzbl (%eax),%eax
  104b78:	0f b6 c0             	movzbl %al,%eax
  104b7b:	29 c2                	sub    %eax,%edx
  104b7d:	89 d0                	mov    %edx,%eax
/u/a/b/abhijith/CS537/p3a/xv6-sp20/kernel/string.c:62
  104b7f:	5d                   	pop    %ebp
  104b80:	c3                   	ret    

00104b81 <strncpy>:
strncpy():
/u/a/b/abhijith/CS537/p3a/xv6-sp20/kernel/string.c:66
  104b81:	55                   	push   %ebp
  104b82:	89 e5                	mov    %esp,%ebp
  104b84:	83 ec 10             	sub    $0x10,%esp
/u/a/b/abhijith/CS537/p3a/xv6-sp20/kernel/string.c:69
  104b87:	8b 45 08             	mov    0x8(%ebp),%eax
  104b8a:	89 45 fc             	mov    %eax,-0x4(%ebp)
/u/a/b/abhijith/CS537/p3a/xv6-sp20/kernel/string.c:70
  104b8d:	90                   	nop
/u/a/b/abhijith/CS537/p3a/xv6-sp20/kernel/string.c:70 (discriminator 2)
  104b8e:	8b 45 10             	mov    0x10(%ebp),%eax
  104b91:	8d 50 ff             	lea    -0x1(%eax),%edx
  104b94:	89 55 10             	mov    %edx,0x10(%ebp)
  104b97:	85 c0                	test   %eax,%eax
  104b99:	7e 2c                	jle    104bc7 <strncpy+0x46>
/u/a/b/abhijith/CS537/p3a/xv6-sp20/kernel/string.c:70 (discriminator 1)
  104b9b:	8b 55 0c             	mov    0xc(%ebp),%edx
  104b9e:	8d 42 01             	lea    0x1(%edx),%eax
  104ba1:	89 45 0c             	mov    %eax,0xc(%ebp)
  104ba4:	8b 45 08             	mov    0x8(%ebp),%eax
  104ba7:	8d 48 01             	lea    0x1(%eax),%ecx
  104baa:	89 4d 08             	mov    %ecx,0x8(%ebp)
  104bad:	0f b6 12             	movzbl (%edx),%edx
  104bb0:	88 10                	mov    %dl,(%eax)
  104bb2:	0f b6 00             	movzbl (%eax),%eax
  104bb5:	84 c0                	test   %al,%al
  104bb7:	75 d5                	jne    104b8e <strncpy+0xd>
/u/a/b/abhijith/CS537/p3a/xv6-sp20/kernel/string.c:72
  104bb9:	eb 0c                	jmp    104bc7 <strncpy+0x46>
/u/a/b/abhijith/CS537/p3a/xv6-sp20/kernel/string.c:73
  104bbb:	8b 45 08             	mov    0x8(%ebp),%eax
  104bbe:	8d 50 01             	lea    0x1(%eax),%edx
  104bc1:	89 55 08             	mov    %edx,0x8(%ebp)
  104bc4:	c6 00 00             	movb   $0x0,(%eax)
/u/a/b/abhijith/CS537/p3a/xv6-sp20/kernel/string.c:72
  104bc7:	8b 45 10             	mov    0x10(%ebp),%eax
  104bca:	8d 50 ff             	lea    -0x1(%eax),%edx
  104bcd:	89 55 10             	mov    %edx,0x10(%ebp)
  104bd0:	85 c0                	test   %eax,%eax
  104bd2:	7f e7                	jg     104bbb <strncpy+0x3a>
/u/a/b/abhijith/CS537/p3a/xv6-sp20/kernel/string.c:74
  104bd4:	8b 45 fc             	mov    -0x4(%ebp),%eax
/u/a/b/abhijith/CS537/p3a/xv6-sp20/kernel/string.c:75
  104bd7:	c9                   	leave  
  104bd8:	c3                   	ret    

00104bd9 <safestrcpy>:
safestrcpy():
/u/a/b/abhijith/CS537/p3a/xv6-sp20/kernel/string.c:80
  104bd9:	55                   	push   %ebp
  104bda:	89 e5                	mov    %esp,%ebp
  104bdc:	83 ec 10             	sub    $0x10,%esp
/u/a/b/abhijith/CS537/p3a/xv6-sp20/kernel/string.c:83
  104bdf:	8b 45 08             	mov    0x8(%ebp),%eax
  104be2:	89 45 fc             	mov    %eax,-0x4(%ebp)
/u/a/b/abhijith/CS537/p3a/xv6-sp20/kernel/string.c:84
  104be5:	83 7d 10 00          	cmpl   $0x0,0x10(%ebp)
  104be9:	7f 05                	jg     104bf0 <safestrcpy+0x17>
/u/a/b/abhijith/CS537/p3a/xv6-sp20/kernel/string.c:85
  104beb:	8b 45 fc             	mov    -0x4(%ebp),%eax
  104bee:	eb 31                	jmp    104c21 <safestrcpy+0x48>
/u/a/b/abhijith/CS537/p3a/xv6-sp20/kernel/string.c:86 (discriminator 2)
  104bf0:	83 6d 10 01          	subl   $0x1,0x10(%ebp)
  104bf4:	83 7d 10 00          	cmpl   $0x0,0x10(%ebp)
  104bf8:	7e 1e                	jle    104c18 <safestrcpy+0x3f>
/u/a/b/abhijith/CS537/p3a/xv6-sp20/kernel/string.c:86 (discriminator 1)
  104bfa:	8b 55 0c             	mov    0xc(%ebp),%edx
  104bfd:	8d 42 01             	lea    0x1(%edx),%eax
  104c00:	89 45 0c             	mov    %eax,0xc(%ebp)
  104c03:	8b 45 08             	mov    0x8(%ebp),%eax
  104c06:	8d 48 01             	lea    0x1(%eax),%ecx
  104c09:	89 4d 08             	mov    %ecx,0x8(%ebp)
  104c0c:	0f b6 12             	movzbl (%edx),%edx
  104c0f:	88 10                	mov    %dl,(%eax)
  104c11:	0f b6 00             	movzbl (%eax),%eax
  104c14:	84 c0                	test   %al,%al
  104c16:	75 d8                	jne    104bf0 <safestrcpy+0x17>
/u/a/b/abhijith/CS537/p3a/xv6-sp20/kernel/string.c:88
  104c18:	8b 45 08             	mov    0x8(%ebp),%eax
  104c1b:	c6 00 00             	movb   $0x0,(%eax)
/u/a/b/abhijith/CS537/p3a/xv6-sp20/kernel/string.c:89
  104c1e:	8b 45 fc             	mov    -0x4(%ebp),%eax
/u/a/b/abhijith/CS537/p3a/xv6-sp20/kernel/string.c:90
  104c21:	c9                   	leave  
  104c22:	c3                   	ret    

00104c23 <strlen>:
strlen():
/u/a/b/abhijith/CS537/p3a/xv6-sp20/kernel/string.c:94
  104c23:	55                   	push   %ebp
  104c24:	89 e5                	mov    %esp,%ebp
  104c26:	83 ec 10             	sub    $0x10,%esp
/u/a/b/abhijith/CS537/p3a/xv6-sp20/kernel/string.c:97
  104c29:	c7 45 fc 00 00 00 00 	movl   $0x0,-0x4(%ebp)
  104c30:	eb 04                	jmp    104c36 <strlen+0x13>
/u/a/b/abhijith/CS537/p3a/xv6-sp20/kernel/string.c:97 (discriminator 3)
  104c32:	83 45 fc 01          	addl   $0x1,-0x4(%ebp)
/u/a/b/abhijith/CS537/p3a/xv6-sp20/kernel/string.c:97 (discriminator 1)
  104c36:	8b 55 fc             	mov    -0x4(%ebp),%edx
  104c39:	8b 45 08             	mov    0x8(%ebp),%eax
  104c3c:	01 d0                	add    %edx,%eax
  104c3e:	0f b6 00             	movzbl (%eax),%eax
  104c41:	84 c0                	test   %al,%al
  104c43:	75 ed                	jne    104c32 <strlen+0xf>
/u/a/b/abhijith/CS537/p3a/xv6-sp20/kernel/string.c:99
  104c45:	8b 45 fc             	mov    -0x4(%ebp),%eax
/u/a/b/abhijith/CS537/p3a/xv6-sp20/kernel/string.c:100
  104c48:	c9                   	leave  
  104c49:	c3                   	ret    

00104c4a <swtch>:
swtch():
/u/a/b/abhijith/CS537/p3a/xv6-sp20/kernel/swtch.S:10
  104c4a:	8b 44 24 04          	mov    0x4(%esp),%eax
/u/a/b/abhijith/CS537/p3a/xv6-sp20/kernel/swtch.S:11
  104c4e:	8b 54 24 08          	mov    0x8(%esp),%edx
/u/a/b/abhijith/CS537/p3a/xv6-sp20/kernel/swtch.S:14
  104c52:	55                   	push   %ebp
/u/a/b/abhijith/CS537/p3a/xv6-sp20/kernel/swtch.S:15
  104c53:	53                   	push   %ebx
/u/a/b/abhijith/CS537/p3a/xv6-sp20/kernel/swtch.S:16
  104c54:	56                   	push   %esi
/u/a/b/abhijith/CS537/p3a/xv6-sp20/kernel/swtch.S:17
  104c55:	57                   	push   %edi
/u/a/b/abhijith/CS537/p3a/xv6-sp20/kernel/swtch.S:20
  104c56:	89 20                	mov    %esp,(%eax)
/u/a/b/abhijith/CS537/p3a/xv6-sp20/kernel/swtch.S:21
  104c58:	89 d4                	mov    %edx,%esp
/u/a/b/abhijith/CS537/p3a/xv6-sp20/kernel/swtch.S:24
  104c5a:	5f                   	pop    %edi
/u/a/b/abhijith/CS537/p3a/xv6-sp20/kernel/swtch.S:25
  104c5b:	5e                   	pop    %esi
/u/a/b/abhijith/CS537/p3a/xv6-sp20/kernel/swtch.S:26
  104c5c:	5b                   	pop    %ebx
/u/a/b/abhijith/CS537/p3a/xv6-sp20/kernel/swtch.S:27
  104c5d:	5d                   	pop    %ebp
/u/a/b/abhijith/CS537/p3a/xv6-sp20/kernel/swtch.S:28
  104c5e:	c3                   	ret    

00104c5f <fetchint>:
fetchint():
/u/a/b/abhijith/CS537/p3a/xv6-sp20/kernel/syscall.c:19
  104c5f:	55                   	push   %ebp
  104c60:	89 e5                	mov    %esp,%ebp
/u/a/b/abhijith/CS537/p3a/xv6-sp20/kernel/syscall.c:20
  104c62:	8b 45 08             	mov    0x8(%ebp),%eax
  104c65:	8b 00                	mov    (%eax),%eax
  104c67:	39 45 0c             	cmp    %eax,0xc(%ebp)
  104c6a:	73 0f                	jae    104c7b <fetchint+0x1c>
/u/a/b/abhijith/CS537/p3a/xv6-sp20/kernel/syscall.c:20 (discriminator 1)
  104c6c:	8b 45 0c             	mov    0xc(%ebp),%eax
  104c6f:	8d 50 04             	lea    0x4(%eax),%edx
  104c72:	8b 45 08             	mov    0x8(%ebp),%eax
  104c75:	8b 00                	mov    (%eax),%eax
  104c77:	39 c2                	cmp    %eax,%edx
  104c79:	76 07                	jbe    104c82 <fetchint+0x23>
/u/a/b/abhijith/CS537/p3a/xv6-sp20/kernel/syscall.c:21
  104c7b:	b8 ff ff ff ff       	mov    $0xffffffff,%eax
  104c80:	eb 0f                	jmp    104c91 <fetchint+0x32>
/u/a/b/abhijith/CS537/p3a/xv6-sp20/kernel/syscall.c:22
  104c82:	8b 45 0c             	mov    0xc(%ebp),%eax
  104c85:	8b 10                	mov    (%eax),%edx
  104c87:	8b 45 10             	mov    0x10(%ebp),%eax
  104c8a:	89 10                	mov    %edx,(%eax)
/u/a/b/abhijith/CS537/p3a/xv6-sp20/kernel/syscall.c:23
  104c8c:	b8 00 00 00 00       	mov    $0x0,%eax
/u/a/b/abhijith/CS537/p3a/xv6-sp20/kernel/syscall.c:24
  104c91:	5d                   	pop    %ebp
  104c92:	c3                   	ret    

00104c93 <fetchstr>:
fetchstr():
/u/a/b/abhijith/CS537/p3a/xv6-sp20/kernel/syscall.c:31
  104c93:	55                   	push   %ebp
  104c94:	89 e5                	mov    %esp,%ebp
  104c96:	83 ec 10             	sub    $0x10,%esp
/u/a/b/abhijith/CS537/p3a/xv6-sp20/kernel/syscall.c:34
  104c99:	8b 45 08             	mov    0x8(%ebp),%eax
  104c9c:	8b 00                	mov    (%eax),%eax
  104c9e:	39 45 0c             	cmp    %eax,0xc(%ebp)
  104ca1:	72 07                	jb     104caa <fetchstr+0x17>
/u/a/b/abhijith/CS537/p3a/xv6-sp20/kernel/syscall.c:35
  104ca3:	b8 ff ff ff ff       	mov    $0xffffffff,%eax
  104ca8:	eb 43                	jmp    104ced <fetchstr+0x5a>
/u/a/b/abhijith/CS537/p3a/xv6-sp20/kernel/syscall.c:36
  104caa:	8b 55 0c             	mov    0xc(%ebp),%edx
  104cad:	8b 45 10             	mov    0x10(%ebp),%eax
  104cb0:	89 10                	mov    %edx,(%eax)
/u/a/b/abhijith/CS537/p3a/xv6-sp20/kernel/syscall.c:37
  104cb2:	8b 45 08             	mov    0x8(%ebp),%eax
  104cb5:	8b 00                	mov    (%eax),%eax
  104cb7:	89 45 f8             	mov    %eax,-0x8(%ebp)
/u/a/b/abhijith/CS537/p3a/xv6-sp20/kernel/syscall.c:38
  104cba:	8b 45 10             	mov    0x10(%ebp),%eax
  104cbd:	8b 00                	mov    (%eax),%eax
  104cbf:	89 45 fc             	mov    %eax,-0x4(%ebp)
  104cc2:	eb 1c                	jmp    104ce0 <fetchstr+0x4d>
/u/a/b/abhijith/CS537/p3a/xv6-sp20/kernel/syscall.c:39
  104cc4:	8b 45 fc             	mov    -0x4(%ebp),%eax
  104cc7:	0f b6 00             	movzbl (%eax),%eax
  104cca:	84 c0                	test   %al,%al
  104ccc:	75 0e                	jne    104cdc <fetchstr+0x49>
/u/a/b/abhijith/CS537/p3a/xv6-sp20/kernel/syscall.c:40
  104cce:	8b 55 fc             	mov    -0x4(%ebp),%edx
  104cd1:	8b 45 10             	mov    0x10(%ebp),%eax
  104cd4:	8b 00                	mov    (%eax),%eax
  104cd6:	29 c2                	sub    %eax,%edx
  104cd8:	89 d0                	mov    %edx,%eax
  104cda:	eb 11                	jmp    104ced <fetchstr+0x5a>
/u/a/b/abhijith/CS537/p3a/xv6-sp20/kernel/syscall.c:38 (discriminator 2)
  104cdc:	83 45 fc 01          	addl   $0x1,-0x4(%ebp)
/u/a/b/abhijith/CS537/p3a/xv6-sp20/kernel/syscall.c:38 (discriminator 1)
  104ce0:	8b 45 fc             	mov    -0x4(%ebp),%eax
  104ce3:	3b 45 f8             	cmp    -0x8(%ebp),%eax
  104ce6:	72 dc                	jb     104cc4 <fetchstr+0x31>
/u/a/b/abhijith/CS537/p3a/xv6-sp20/kernel/syscall.c:41
  104ce8:	b8 ff ff ff ff       	mov    $0xffffffff,%eax
/u/a/b/abhijith/CS537/p3a/xv6-sp20/kernel/syscall.c:42
  104ced:	c9                   	leave  
  104cee:	c3                   	ret    

00104cef <argint>:
argint():
/u/a/b/abhijith/CS537/p3a/xv6-sp20/kernel/syscall.c:47
  104cef:	55                   	push   %ebp
  104cf0:	89 e5                	mov    %esp,%ebp
/u/a/b/abhijith/CS537/p3a/xv6-sp20/kernel/syscall.c:48
  104cf2:	65 a1 04 00 00 00    	mov    %gs:0x4,%eax
  104cf8:	8b 40 18             	mov    0x18(%eax),%eax
  104cfb:	8b 40 44             	mov    0x44(%eax),%eax
  104cfe:	8b 55 08             	mov    0x8(%ebp),%edx
  104d01:	c1 e2 02             	shl    $0x2,%edx
  104d04:	01 d0                	add    %edx,%eax
  104d06:	8d 50 04             	lea    0x4(%eax),%edx
  104d09:	65 a1 04 00 00 00    	mov    %gs:0x4,%eax
  104d0f:	ff 75 0c             	pushl  0xc(%ebp)
  104d12:	52                   	push   %edx
  104d13:	50                   	push   %eax
  104d14:	e8 46 ff ff ff       	call   104c5f <fetchint>
  104d19:	83 c4 0c             	add    $0xc,%esp
/u/a/b/abhijith/CS537/p3a/xv6-sp20/kernel/syscall.c:49
  104d1c:	c9                   	leave  
  104d1d:	c3                   	ret    

00104d1e <argptr>:
argptr():
/u/a/b/abhijith/CS537/p3a/xv6-sp20/kernel/syscall.c:56
  104d1e:	55                   	push   %ebp
  104d1f:	89 e5                	mov    %esp,%ebp
  104d21:	83 ec 10             	sub    $0x10,%esp
/u/a/b/abhijith/CS537/p3a/xv6-sp20/kernel/syscall.c:59
  104d24:	8d 45 fc             	lea    -0x4(%ebp),%eax
  104d27:	50                   	push   %eax
  104d28:	ff 75 08             	pushl  0x8(%ebp)
  104d2b:	e8 bf ff ff ff       	call   104cef <argint>
  104d30:	83 c4 08             	add    $0x8,%esp
  104d33:	85 c0                	test   %eax,%eax
  104d35:	79 07                	jns    104d3e <argptr+0x20>
/u/a/b/abhijith/CS537/p3a/xv6-sp20/kernel/syscall.c:60
  104d37:	b8 ff ff ff ff       	mov    $0xffffffff,%eax
  104d3c:	eb 3b                	jmp    104d79 <argptr+0x5b>
/u/a/b/abhijith/CS537/p3a/xv6-sp20/kernel/syscall.c:61
  104d3e:	65 a1 04 00 00 00    	mov    %gs:0x4,%eax
  104d44:	8b 00                	mov    (%eax),%eax
  104d46:	8b 55 fc             	mov    -0x4(%ebp),%edx
  104d49:	39 d0                	cmp    %edx,%eax
  104d4b:	76 16                	jbe    104d63 <argptr+0x45>
/u/a/b/abhijith/CS537/p3a/xv6-sp20/kernel/syscall.c:61 (discriminator 1)
  104d4d:	8b 45 fc             	mov    -0x4(%ebp),%eax
  104d50:	89 c2                	mov    %eax,%edx
  104d52:	8b 45 10             	mov    0x10(%ebp),%eax
  104d55:	01 c2                	add    %eax,%edx
  104d57:	65 a1 04 00 00 00    	mov    %gs:0x4,%eax
  104d5d:	8b 00                	mov    (%eax),%eax
  104d5f:	39 c2                	cmp    %eax,%edx
  104d61:	76 07                	jbe    104d6a <argptr+0x4c>
/u/a/b/abhijith/CS537/p3a/xv6-sp20/kernel/syscall.c:62
  104d63:	b8 ff ff ff ff       	mov    $0xffffffff,%eax
  104d68:	eb 0f                	jmp    104d79 <argptr+0x5b>
/u/a/b/abhijith/CS537/p3a/xv6-sp20/kernel/syscall.c:63
  104d6a:	8b 45 fc             	mov    -0x4(%ebp),%eax
  104d6d:	89 c2                	mov    %eax,%edx
  104d6f:	8b 45 0c             	mov    0xc(%ebp),%eax
  104d72:	89 10                	mov    %edx,(%eax)
/u/a/b/abhijith/CS537/p3a/xv6-sp20/kernel/syscall.c:64
  104d74:	b8 00 00 00 00       	mov    $0x0,%eax
/u/a/b/abhijith/CS537/p3a/xv6-sp20/kernel/syscall.c:65 (discriminator 1)
  104d79:	c9                   	leave  
  104d7a:	c3                   	ret    

00104d7b <argstr>:
argstr():
/u/a/b/abhijith/CS537/p3a/xv6-sp20/kernel/syscall.c:73
  104d7b:	55                   	push   %ebp
  104d7c:	89 e5                	mov    %esp,%ebp
  104d7e:	83 ec 10             	sub    $0x10,%esp
/u/a/b/abhijith/CS537/p3a/xv6-sp20/kernel/syscall.c:75
  104d81:	8d 45 fc             	lea    -0x4(%ebp),%eax
  104d84:	50                   	push   %eax
  104d85:	ff 75 08             	pushl  0x8(%ebp)
  104d88:	e8 62 ff ff ff       	call   104cef <argint>
  104d8d:	83 c4 08             	add    $0x8,%esp
  104d90:	85 c0                	test   %eax,%eax
  104d92:	79 07                	jns    104d9b <argstr+0x20>
/u/a/b/abhijith/CS537/p3a/xv6-sp20/kernel/syscall.c:76
  104d94:	b8 ff ff ff ff       	mov    $0xffffffff,%eax
  104d99:	eb 18                	jmp    104db3 <argstr+0x38>
/u/a/b/abhijith/CS537/p3a/xv6-sp20/kernel/syscall.c:77
  104d9b:	8b 45 fc             	mov    -0x4(%ebp),%eax
  104d9e:	89 c2                	mov    %eax,%edx
  104da0:	65 a1 04 00 00 00    	mov    %gs:0x4,%eax
  104da6:	ff 75 0c             	pushl  0xc(%ebp)
  104da9:	52                   	push   %edx
  104daa:	50                   	push   %eax
  104dab:	e8 e3 fe ff ff       	call   104c93 <fetchstr>
  104db0:	83 c4 0c             	add    $0xc,%esp
/u/a/b/abhijith/CS537/p3a/xv6-sp20/kernel/syscall.c:78 (discriminator 1)
  104db3:	c9                   	leave  
  104db4:	c3                   	ret    

00104db5 <syscall>:
syscall():
/u/a/b/abhijith/CS537/p3a/xv6-sp20/kernel/syscall.c:115
  104db5:	55                   	push   %ebp
  104db6:	89 e5                	mov    %esp,%ebp
  104db8:	83 ec 18             	sub    $0x18,%esp
/u/a/b/abhijith/CS537/p3a/xv6-sp20/kernel/syscall.c:118
  104dbb:	65 a1 04 00 00 00    	mov    %gs:0x4,%eax
  104dc1:	8b 40 18             	mov    0x18(%eax),%eax
  104dc4:	8b 40 1c             	mov    0x1c(%eax),%eax
  104dc7:	89 45 f4             	mov    %eax,-0xc(%ebp)
/u/a/b/abhijith/CS537/p3a/xv6-sp20/kernel/syscall.c:119
  104dca:	83 7d f4 00          	cmpl   $0x0,-0xc(%ebp)
  104dce:	7e 32                	jle    104e02 <syscall+0x4d>
/u/a/b/abhijith/CS537/p3a/xv6-sp20/kernel/syscall.c:119 (discriminator 1)
  104dd0:	8b 45 f4             	mov    -0xc(%ebp),%eax
  104dd3:	83 f8 18             	cmp    $0x18,%eax
  104dd6:	77 2a                	ja     104e02 <syscall+0x4d>
/u/a/b/abhijith/CS537/p3a/xv6-sp20/kernel/syscall.c:119 (discriminator 2)
  104dd8:	8b 45 f4             	mov    -0xc(%ebp),%eax
  104ddb:	8b 04 85 60 a5 10 00 	mov    0x10a560(,%eax,4),%eax
  104de2:	85 c0                	test   %eax,%eax
  104de4:	74 1c                	je     104e02 <syscall+0x4d>
/u/a/b/abhijith/CS537/p3a/xv6-sp20/kernel/syscall.c:120
  104de6:	8b 45 f4             	mov    -0xc(%ebp),%eax
  104de9:	8b 04 85 60 a5 10 00 	mov    0x10a560(,%eax,4),%eax
  104df0:	ff d0                	call   *%eax
  104df2:	89 c2                	mov    %eax,%edx
  104df4:	65 a1 04 00 00 00    	mov    %gs:0x4,%eax
  104dfa:	8b 40 18             	mov    0x18(%eax),%eax
  104dfd:	89 50 1c             	mov    %edx,0x1c(%eax)
  104e00:	eb 34                	jmp    104e36 <syscall+0x81>
/u/a/b/abhijith/CS537/p3a/xv6-sp20/kernel/syscall.c:123
  104e02:	65 a1 04 00 00 00    	mov    %gs:0x4,%eax
  104e08:	8d 50 6c             	lea    0x6c(%eax),%edx
  104e0b:	65 a1 04 00 00 00    	mov    %gs:0x4,%eax
/u/a/b/abhijith/CS537/p3a/xv6-sp20/kernel/syscall.c:122
  104e11:	8b 40 10             	mov    0x10(%eax),%eax
  104e14:	ff 75 f4             	pushl  -0xc(%ebp)
  104e17:	52                   	push   %edx
  104e18:	50                   	push   %eax
  104e19:	68 97 81 10 00       	push   $0x108197
  104e1e:	e8 c9 b5 ff ff       	call   1003ec <cprintf>
  104e23:	83 c4 10             	add    $0x10,%esp
/u/a/b/abhijith/CS537/p3a/xv6-sp20/kernel/syscall.c:124
  104e26:	65 a1 04 00 00 00    	mov    %gs:0x4,%eax
  104e2c:	8b 40 18             	mov    0x18(%eax),%eax
  104e2f:	c7 40 1c ff ff ff ff 	movl   $0xffffffff,0x1c(%eax)
/u/a/b/abhijith/CS537/p3a/xv6-sp20/kernel/syscall.c:126
  104e36:	90                   	nop
  104e37:	c9                   	leave  
  104e38:	c3                   	ret    

00104e39 <argfd>:
argfd():
/u/a/b/abhijith/CS537/p3a/xv6-sp20/kernel/sysfile.c:16
  104e39:	55                   	push   %ebp
  104e3a:	89 e5                	mov    %esp,%ebp
  104e3c:	83 ec 18             	sub    $0x18,%esp
/u/a/b/abhijith/CS537/p3a/xv6-sp20/kernel/sysfile.c:20
  104e3f:	83 ec 08             	sub    $0x8,%esp
  104e42:	8d 45 f0             	lea    -0x10(%ebp),%eax
  104e45:	50                   	push   %eax
  104e46:	ff 75 08             	pushl  0x8(%ebp)
  104e49:	e8 a1 fe ff ff       	call   104cef <argint>
  104e4e:	83 c4 10             	add    $0x10,%esp
  104e51:	85 c0                	test   %eax,%eax
  104e53:	79 07                	jns    104e5c <argfd+0x23>
/u/a/b/abhijith/CS537/p3a/xv6-sp20/kernel/sysfile.c:21
  104e55:	b8 ff ff ff ff       	mov    $0xffffffff,%eax
  104e5a:	eb 50                	jmp    104eac <argfd+0x73>
/u/a/b/abhijith/CS537/p3a/xv6-sp20/kernel/sysfile.c:22
  104e5c:	8b 45 f0             	mov    -0x10(%ebp),%eax
  104e5f:	85 c0                	test   %eax,%eax
  104e61:	78 21                	js     104e84 <argfd+0x4b>
/u/a/b/abhijith/CS537/p3a/xv6-sp20/kernel/sysfile.c:22 (discriminator 1)
  104e63:	8b 45 f0             	mov    -0x10(%ebp),%eax
  104e66:	83 f8 0f             	cmp    $0xf,%eax
  104e69:	7f 19                	jg     104e84 <argfd+0x4b>
/u/a/b/abhijith/CS537/p3a/xv6-sp20/kernel/sysfile.c:22 (discriminator 2)
  104e6b:	65 a1 04 00 00 00    	mov    %gs:0x4,%eax
  104e71:	8b 55 f0             	mov    -0x10(%ebp),%edx
  104e74:	83 c2 08             	add    $0x8,%edx
  104e77:	8b 44 90 08          	mov    0x8(%eax,%edx,4),%eax
  104e7b:	89 45 f4             	mov    %eax,-0xc(%ebp)
  104e7e:	83 7d f4 00          	cmpl   $0x0,-0xc(%ebp)
  104e82:	75 07                	jne    104e8b <argfd+0x52>
/u/a/b/abhijith/CS537/p3a/xv6-sp20/kernel/sysfile.c:23
  104e84:	b8 ff ff ff ff       	mov    $0xffffffff,%eax
  104e89:	eb 21                	jmp    104eac <argfd+0x73>
/u/a/b/abhijith/CS537/p3a/xv6-sp20/kernel/sysfile.c:24
  104e8b:	83 7d 0c 00          	cmpl   $0x0,0xc(%ebp)
  104e8f:	74 08                	je     104e99 <argfd+0x60>
/u/a/b/abhijith/CS537/p3a/xv6-sp20/kernel/sysfile.c:25
  104e91:	8b 55 f0             	mov    -0x10(%ebp),%edx
  104e94:	8b 45 0c             	mov    0xc(%ebp),%eax
  104e97:	89 10                	mov    %edx,(%eax)
/u/a/b/abhijith/CS537/p3a/xv6-sp20/kernel/sysfile.c:26
  104e99:	83 7d 10 00          	cmpl   $0x0,0x10(%ebp)
  104e9d:	74 08                	je     104ea7 <argfd+0x6e>
/u/a/b/abhijith/CS537/p3a/xv6-sp20/kernel/sysfile.c:27
  104e9f:	8b 45 10             	mov    0x10(%ebp),%eax
  104ea2:	8b 55 f4             	mov    -0xc(%ebp),%edx
  104ea5:	89 10                	mov    %edx,(%eax)
/u/a/b/abhijith/CS537/p3a/xv6-sp20/kernel/sysfile.c:28
  104ea7:	b8 00 00 00 00       	mov    $0x0,%eax
/u/a/b/abhijith/CS537/p3a/xv6-sp20/kernel/sysfile.c:29 (discriminator 1)
  104eac:	c9                   	leave  
  104ead:	c3                   	ret    

00104eae <fdalloc>:
fdalloc():
/u/a/b/abhijith/CS537/p3a/xv6-sp20/kernel/sysfile.c:35
  104eae:	55                   	push   %ebp
  104eaf:	89 e5                	mov    %esp,%ebp
  104eb1:	83 ec 10             	sub    $0x10,%esp
/u/a/b/abhijith/CS537/p3a/xv6-sp20/kernel/sysfile.c:38
  104eb4:	c7 45 fc 00 00 00 00 	movl   $0x0,-0x4(%ebp)
  104ebb:	eb 30                	jmp    104eed <fdalloc+0x3f>
/u/a/b/abhijith/CS537/p3a/xv6-sp20/kernel/sysfile.c:39
  104ebd:	65 a1 04 00 00 00    	mov    %gs:0x4,%eax
  104ec3:	8b 55 fc             	mov    -0x4(%ebp),%edx
  104ec6:	83 c2 08             	add    $0x8,%edx
  104ec9:	8b 44 90 08          	mov    0x8(%eax,%edx,4),%eax
  104ecd:	85 c0                	test   %eax,%eax
  104ecf:	75 18                	jne    104ee9 <fdalloc+0x3b>
/u/a/b/abhijith/CS537/p3a/xv6-sp20/kernel/sysfile.c:40
  104ed1:	65 a1 04 00 00 00    	mov    %gs:0x4,%eax
  104ed7:	8b 55 fc             	mov    -0x4(%ebp),%edx
  104eda:	8d 4a 08             	lea    0x8(%edx),%ecx
  104edd:	8b 55 08             	mov    0x8(%ebp),%edx
  104ee0:	89 54 88 08          	mov    %edx,0x8(%eax,%ecx,4)
/u/a/b/abhijith/CS537/p3a/xv6-sp20/kernel/sysfile.c:41
  104ee4:	8b 45 fc             	mov    -0x4(%ebp),%eax
  104ee7:	eb 0f                	jmp    104ef8 <fdalloc+0x4a>
/u/a/b/abhijith/CS537/p3a/xv6-sp20/kernel/sysfile.c:38 (discriminator 2)
  104ee9:	83 45 fc 01          	addl   $0x1,-0x4(%ebp)
/u/a/b/abhijith/CS537/p3a/xv6-sp20/kernel/sysfile.c:38 (discriminator 1)
  104eed:	83 7d fc 0f          	cmpl   $0xf,-0x4(%ebp)
  104ef1:	7e ca                	jle    104ebd <fdalloc+0xf>
/u/a/b/abhijith/CS537/p3a/xv6-sp20/kernel/sysfile.c:44
  104ef3:	b8 ff ff ff ff       	mov    $0xffffffff,%eax
/u/a/b/abhijith/CS537/p3a/xv6-sp20/kernel/sysfile.c:45
  104ef8:	c9                   	leave  
  104ef9:	c3                   	ret    

00104efa <sys_dup>:
sys_dup():
/u/a/b/abhijith/CS537/p3a/xv6-sp20/kernel/sysfile.c:49
  104efa:	55                   	push   %ebp
  104efb:	89 e5                	mov    %esp,%ebp
  104efd:	83 ec 18             	sub    $0x18,%esp
/u/a/b/abhijith/CS537/p3a/xv6-sp20/kernel/sysfile.c:53
  104f00:	83 ec 04             	sub    $0x4,%esp
  104f03:	8d 45 f0             	lea    -0x10(%ebp),%eax
  104f06:	50                   	push   %eax
  104f07:	6a 00                	push   $0x0
  104f09:	6a 00                	push   $0x0
  104f0b:	e8 29 ff ff ff       	call   104e39 <argfd>
  104f10:	83 c4 10             	add    $0x10,%esp
  104f13:	85 c0                	test   %eax,%eax
  104f15:	79 07                	jns    104f1e <sys_dup+0x24>
/u/a/b/abhijith/CS537/p3a/xv6-sp20/kernel/sysfile.c:54
  104f17:	b8 ff ff ff ff       	mov    $0xffffffff,%eax
  104f1c:	eb 31                	jmp    104f4f <sys_dup+0x55>
/u/a/b/abhijith/CS537/p3a/xv6-sp20/kernel/sysfile.c:55
  104f1e:	8b 45 f0             	mov    -0x10(%ebp),%eax
  104f21:	83 ec 0c             	sub    $0xc,%esp
  104f24:	50                   	push   %eax
  104f25:	e8 84 ff ff ff       	call   104eae <fdalloc>
  104f2a:	83 c4 10             	add    $0x10,%esp
  104f2d:	89 45 f4             	mov    %eax,-0xc(%ebp)
  104f30:	83 7d f4 00          	cmpl   $0x0,-0xc(%ebp)
  104f34:	79 07                	jns    104f3d <sys_dup+0x43>
/u/a/b/abhijith/CS537/p3a/xv6-sp20/kernel/sysfile.c:56
  104f36:	b8 ff ff ff ff       	mov    $0xffffffff,%eax
  104f3b:	eb 12                	jmp    104f4f <sys_dup+0x55>
/u/a/b/abhijith/CS537/p3a/xv6-sp20/kernel/sysfile.c:57
  104f3d:	8b 45 f0             	mov    -0x10(%ebp),%eax
  104f40:	83 ec 0c             	sub    $0xc,%esp
  104f43:	50                   	push   %eax
  104f44:	e8 85 c0 ff ff       	call   100fce <filedup>
  104f49:	83 c4 10             	add    $0x10,%esp
/u/a/b/abhijith/CS537/p3a/xv6-sp20/kernel/sysfile.c:58
  104f4c:	8b 45 f4             	mov    -0xc(%ebp),%eax
/u/a/b/abhijith/CS537/p3a/xv6-sp20/kernel/sysfile.c:59 (discriminator 1)
  104f4f:	c9                   	leave  
  104f50:	c3                   	ret    

00104f51 <sys_read>:
sys_read():
/u/a/b/abhijith/CS537/p3a/xv6-sp20/kernel/sysfile.c:63
  104f51:	55                   	push   %ebp
  104f52:	89 e5                	mov    %esp,%ebp
  104f54:	83 ec 18             	sub    $0x18,%esp
/u/a/b/abhijith/CS537/p3a/xv6-sp20/kernel/sysfile.c:68
  104f57:	83 ec 04             	sub    $0x4,%esp
  104f5a:	8d 45 f4             	lea    -0xc(%ebp),%eax
  104f5d:	50                   	push   %eax
  104f5e:	6a 00                	push   $0x0
  104f60:	6a 00                	push   $0x0
  104f62:	e8 d2 fe ff ff       	call   104e39 <argfd>
  104f67:	83 c4 10             	add    $0x10,%esp
  104f6a:	85 c0                	test   %eax,%eax
  104f6c:	78 2e                	js     104f9c <sys_read+0x4b>
/u/a/b/abhijith/CS537/p3a/xv6-sp20/kernel/sysfile.c:68 (discriminator 1)
  104f6e:	83 ec 08             	sub    $0x8,%esp
  104f71:	8d 45 f0             	lea    -0x10(%ebp),%eax
  104f74:	50                   	push   %eax
  104f75:	6a 02                	push   $0x2
  104f77:	e8 73 fd ff ff       	call   104cef <argint>
  104f7c:	83 c4 10             	add    $0x10,%esp
  104f7f:	85 c0                	test   %eax,%eax
  104f81:	78 19                	js     104f9c <sys_read+0x4b>
/u/a/b/abhijith/CS537/p3a/xv6-sp20/kernel/sysfile.c:68 (discriminator 2)
  104f83:	8b 45 f0             	mov    -0x10(%ebp),%eax
  104f86:	83 ec 04             	sub    $0x4,%esp
  104f89:	50                   	push   %eax
  104f8a:	8d 45 ec             	lea    -0x14(%ebp),%eax
  104f8d:	50                   	push   %eax
  104f8e:	6a 01                	push   $0x1
  104f90:	e8 89 fd ff ff       	call   104d1e <argptr>
  104f95:	83 c4 10             	add    $0x10,%esp
  104f98:	85 c0                	test   %eax,%eax
  104f9a:	79 07                	jns    104fa3 <sys_read+0x52>
/u/a/b/abhijith/CS537/p3a/xv6-sp20/kernel/sysfile.c:69
  104f9c:	b8 ff ff ff ff       	mov    $0xffffffff,%eax
  104fa1:	eb 17                	jmp    104fba <sys_read+0x69>
/u/a/b/abhijith/CS537/p3a/xv6-sp20/kernel/sysfile.c:70
  104fa3:	8b 4d f0             	mov    -0x10(%ebp),%ecx
  104fa6:	8b 55 ec             	mov    -0x14(%ebp),%edx
  104fa9:	8b 45 f4             	mov    -0xc(%ebp),%eax
  104fac:	83 ec 04             	sub    $0x4,%esp
  104faf:	51                   	push   %ecx
  104fb0:	52                   	push   %edx
  104fb1:	50                   	push   %eax
  104fb2:	e8 9d c1 ff ff       	call   101154 <fileread>
  104fb7:	83 c4 10             	add    $0x10,%esp
/u/a/b/abhijith/CS537/p3a/xv6-sp20/kernel/sysfile.c:71 (discriminator 1)
  104fba:	c9                   	leave  
  104fbb:	c3                   	ret    

00104fbc <sys_write>:
sys_write():
/u/a/b/abhijith/CS537/p3a/xv6-sp20/kernel/sysfile.c:75
  104fbc:	55                   	push   %ebp
  104fbd:	89 e5                	mov    %esp,%ebp
  104fbf:	83 ec 18             	sub    $0x18,%esp
/u/a/b/abhijith/CS537/p3a/xv6-sp20/kernel/sysfile.c:80
  104fc2:	83 ec 04             	sub    $0x4,%esp
  104fc5:	8d 45 f4             	lea    -0xc(%ebp),%eax
  104fc8:	50                   	push   %eax
  104fc9:	6a 00                	push   $0x0
  104fcb:	6a 00                	push   $0x0
  104fcd:	e8 67 fe ff ff       	call   104e39 <argfd>
  104fd2:	83 c4 10             	add    $0x10,%esp
  104fd5:	85 c0                	test   %eax,%eax
  104fd7:	78 2e                	js     105007 <sys_write+0x4b>
/u/a/b/abhijith/CS537/p3a/xv6-sp20/kernel/sysfile.c:80 (discriminator 1)
  104fd9:	83 ec 08             	sub    $0x8,%esp
  104fdc:	8d 45 f0             	lea    -0x10(%ebp),%eax
  104fdf:	50                   	push   %eax
  104fe0:	6a 02                	push   $0x2
  104fe2:	e8 08 fd ff ff       	call   104cef <argint>
  104fe7:	83 c4 10             	add    $0x10,%esp
  104fea:	85 c0                	test   %eax,%eax
  104fec:	78 19                	js     105007 <sys_write+0x4b>
/u/a/b/abhijith/CS537/p3a/xv6-sp20/kernel/sysfile.c:80 (discriminator 2)
  104fee:	8b 45 f0             	mov    -0x10(%ebp),%eax
  104ff1:	83 ec 04             	sub    $0x4,%esp
  104ff4:	50                   	push   %eax
  104ff5:	8d 45 ec             	lea    -0x14(%ebp),%eax
  104ff8:	50                   	push   %eax
  104ff9:	6a 01                	push   $0x1
  104ffb:	e8 1e fd ff ff       	call   104d1e <argptr>
  105000:	83 c4 10             	add    $0x10,%esp
  105003:	85 c0                	test   %eax,%eax
  105005:	79 07                	jns    10500e <sys_write+0x52>
/u/a/b/abhijith/CS537/p3a/xv6-sp20/kernel/sysfile.c:81
  105007:	b8 ff ff ff ff       	mov    $0xffffffff,%eax
  10500c:	eb 17                	jmp    105025 <sys_write+0x69>
/u/a/b/abhijith/CS537/p3a/xv6-sp20/kernel/sysfile.c:82
  10500e:	8b 4d f0             	mov    -0x10(%ebp),%ecx
  105011:	8b 55 ec             	mov    -0x14(%ebp),%edx
  105014:	8b 45 f4             	mov    -0xc(%ebp),%eax
  105017:	83 ec 04             	sub    $0x4,%esp
  10501a:	51                   	push   %ecx
  10501b:	52                   	push   %edx
  10501c:	50                   	push   %eax
  10501d:	e8 ea c1 ff ff       	call   10120c <filewrite>
  105022:	83 c4 10             	add    $0x10,%esp
/u/a/b/abhijith/CS537/p3a/xv6-sp20/kernel/sysfile.c:83 (discriminator 1)
  105025:	c9                   	leave  
  105026:	c3                   	ret    

00105027 <sys_close>:
sys_close():
/u/a/b/abhijith/CS537/p3a/xv6-sp20/kernel/sysfile.c:87
  105027:	55                   	push   %ebp
  105028:	89 e5                	mov    %esp,%ebp
  10502a:	83 ec 18             	sub    $0x18,%esp
/u/a/b/abhijith/CS537/p3a/xv6-sp20/kernel/sysfile.c:91
  10502d:	83 ec 04             	sub    $0x4,%esp
  105030:	8d 45 f0             	lea    -0x10(%ebp),%eax
  105033:	50                   	push   %eax
  105034:	8d 45 f4             	lea    -0xc(%ebp),%eax
  105037:	50                   	push   %eax
  105038:	6a 00                	push   $0x0
  10503a:	e8 fa fd ff ff       	call   104e39 <argfd>
  10503f:	83 c4 10             	add    $0x10,%esp
  105042:	85 c0                	test   %eax,%eax
  105044:	79 07                	jns    10504d <sys_close+0x26>
/u/a/b/abhijith/CS537/p3a/xv6-sp20/kernel/sysfile.c:92
  105046:	b8 ff ff ff ff       	mov    $0xffffffff,%eax
  10504b:	eb 28                	jmp    105075 <sys_close+0x4e>
/u/a/b/abhijith/CS537/p3a/xv6-sp20/kernel/sysfile.c:93
  10504d:	65 a1 04 00 00 00    	mov    %gs:0x4,%eax
  105053:	8b 55 f4             	mov    -0xc(%ebp),%edx
  105056:	83 c2 08             	add    $0x8,%edx
  105059:	c7 44 90 08 00 00 00 	movl   $0x0,0x8(%eax,%edx,4)
  105060:	00 
/u/a/b/abhijith/CS537/p3a/xv6-sp20/kernel/sysfile.c:94
  105061:	8b 45 f0             	mov    -0x10(%ebp),%eax
  105064:	83 ec 0c             	sub    $0xc,%esp
  105067:	50                   	push   %eax
  105068:	e8 b2 bf ff ff       	call   10101f <fileclose>
  10506d:	83 c4 10             	add    $0x10,%esp
/u/a/b/abhijith/CS537/p3a/xv6-sp20/kernel/sysfile.c:95
  105070:	b8 00 00 00 00       	mov    $0x0,%eax
/u/a/b/abhijith/CS537/p3a/xv6-sp20/kernel/sysfile.c:96 (discriminator 1)
  105075:	c9                   	leave  
  105076:	c3                   	ret    

00105077 <sys_fstat>:
sys_fstat():
/u/a/b/abhijith/CS537/p3a/xv6-sp20/kernel/sysfile.c:100
  105077:	55                   	push   %ebp
  105078:	89 e5                	mov    %esp,%ebp
  10507a:	83 ec 18             	sub    $0x18,%esp
/u/a/b/abhijith/CS537/p3a/xv6-sp20/kernel/sysfile.c:104
  10507d:	83 ec 04             	sub    $0x4,%esp
  105080:	8d 45 f4             	lea    -0xc(%ebp),%eax
  105083:	50                   	push   %eax
  105084:	6a 00                	push   $0x0
  105086:	6a 00                	push   $0x0
  105088:	e8 ac fd ff ff       	call   104e39 <argfd>
  10508d:	83 c4 10             	add    $0x10,%esp
  105090:	85 c0                	test   %eax,%eax
  105092:	78 17                	js     1050ab <sys_fstat+0x34>
/u/a/b/abhijith/CS537/p3a/xv6-sp20/kernel/sysfile.c:104 (discriminator 1)
  105094:	83 ec 04             	sub    $0x4,%esp
  105097:	6a 14                	push   $0x14
  105099:	8d 45 f0             	lea    -0x10(%ebp),%eax
  10509c:	50                   	push   %eax
  10509d:	6a 01                	push   $0x1
  10509f:	e8 7a fc ff ff       	call   104d1e <argptr>
  1050a4:	83 c4 10             	add    $0x10,%esp
  1050a7:	85 c0                	test   %eax,%eax
  1050a9:	79 07                	jns    1050b2 <sys_fstat+0x3b>
/u/a/b/abhijith/CS537/p3a/xv6-sp20/kernel/sysfile.c:105
  1050ab:	b8 ff ff ff ff       	mov    $0xffffffff,%eax
  1050b0:	eb 13                	jmp    1050c5 <sys_fstat+0x4e>
/u/a/b/abhijith/CS537/p3a/xv6-sp20/kernel/sysfile.c:106
  1050b2:	8b 55 f0             	mov    -0x10(%ebp),%edx
  1050b5:	8b 45 f4             	mov    -0xc(%ebp),%eax
  1050b8:	83 ec 08             	sub    $0x8,%esp
  1050bb:	52                   	push   %edx
  1050bc:	50                   	push   %eax
  1050bd:	e8 3b c0 ff ff       	call   1010fd <filestat>
  1050c2:	83 c4 10             	add    $0x10,%esp
/u/a/b/abhijith/CS537/p3a/xv6-sp20/kernel/sysfile.c:107 (discriminator 1)
  1050c5:	c9                   	leave  
  1050c6:	c3                   	ret    

001050c7 <sys_link>:
sys_link():
/u/a/b/abhijith/CS537/p3a/xv6-sp20/kernel/sysfile.c:112
  1050c7:	55                   	push   %ebp
  1050c8:	89 e5                	mov    %esp,%ebp
  1050ca:	83 ec 28             	sub    $0x28,%esp
/u/a/b/abhijith/CS537/p3a/xv6-sp20/kernel/sysfile.c:116
  1050cd:	83 ec 08             	sub    $0x8,%esp
  1050d0:	8d 45 d8             	lea    -0x28(%ebp),%eax
  1050d3:	50                   	push   %eax
  1050d4:	6a 00                	push   $0x0
  1050d6:	e8 a0 fc ff ff       	call   104d7b <argstr>
  1050db:	83 c4 10             	add    $0x10,%esp
  1050de:	85 c0                	test   %eax,%eax
  1050e0:	78 15                	js     1050f7 <sys_link+0x30>
/u/a/b/abhijith/CS537/p3a/xv6-sp20/kernel/sysfile.c:116 (discriminator 1)
  1050e2:	83 ec 08             	sub    $0x8,%esp
  1050e5:	8d 45 dc             	lea    -0x24(%ebp),%eax
  1050e8:	50                   	push   %eax
  1050e9:	6a 01                	push   $0x1
  1050eb:	e8 8b fc ff ff       	call   104d7b <argstr>
  1050f0:	83 c4 10             	add    $0x10,%esp
  1050f3:	85 c0                	test   %eax,%eax
  1050f5:	79 0a                	jns    105101 <sys_link+0x3a>
/u/a/b/abhijith/CS537/p3a/xv6-sp20/kernel/sysfile.c:117
  1050f7:	b8 ff ff ff ff       	mov    $0xffffffff,%eax
  1050fc:	e9 4f 01 00 00       	jmp    105250 <sys_link+0x189>
/u/a/b/abhijith/CS537/p3a/xv6-sp20/kernel/sysfile.c:118
  105101:	8b 45 d8             	mov    -0x28(%ebp),%eax
  105104:	83 ec 0c             	sub    $0xc,%esp
  105107:	50                   	push   %eax
  105108:	e8 58 d3 ff ff       	call   102465 <namei>
  10510d:	83 c4 10             	add    $0x10,%esp
  105110:	89 45 f4             	mov    %eax,-0xc(%ebp)
  105113:	83 7d f4 00          	cmpl   $0x0,-0xc(%ebp)
  105117:	75 0a                	jne    105123 <sys_link+0x5c>
/u/a/b/abhijith/CS537/p3a/xv6-sp20/kernel/sysfile.c:119
  105119:	b8 ff ff ff ff       	mov    $0xffffffff,%eax
  10511e:	e9 2d 01 00 00       	jmp    105250 <sys_link+0x189>
/u/a/b/abhijith/CS537/p3a/xv6-sp20/kernel/sysfile.c:120
  105123:	83 ec 0c             	sub    $0xc,%esp
  105126:	ff 75 f4             	pushl  -0xc(%ebp)
  105129:	e8 21 c7 ff ff       	call   10184f <ilock>
  10512e:	83 c4 10             	add    $0x10,%esp
/u/a/b/abhijith/CS537/p3a/xv6-sp20/kernel/sysfile.c:121
  105131:	8b 45 f4             	mov    -0xc(%ebp),%eax
  105134:	0f b7 40 10          	movzwl 0x10(%eax),%eax
  105138:	66 83 f8 01          	cmp    $0x1,%ax
  10513c:	75 18                	jne    105156 <sys_link+0x8f>
/u/a/b/abhijith/CS537/p3a/xv6-sp20/kernel/sysfile.c:122
  10513e:	83 ec 0c             	sub    $0xc,%esp
  105141:	ff 75 f4             	pushl  -0xc(%ebp)
  105144:	e8 c0 c9 ff ff       	call   101b09 <iunlockput>
  105149:	83 c4 10             	add    $0x10,%esp
/u/a/b/abhijith/CS537/p3a/xv6-sp20/kernel/sysfile.c:123
  10514c:	b8 ff ff ff ff       	mov    $0xffffffff,%eax
  105151:	e9 fa 00 00 00       	jmp    105250 <sys_link+0x189>
/u/a/b/abhijith/CS537/p3a/xv6-sp20/kernel/sysfile.c:125
  105156:	8b 45 f4             	mov    -0xc(%ebp),%eax
  105159:	0f b7 40 16          	movzwl 0x16(%eax),%eax
  10515d:	83 c0 01             	add    $0x1,%eax
  105160:	89 c2                	mov    %eax,%edx
  105162:	8b 45 f4             	mov    -0xc(%ebp),%eax
  105165:	66 89 50 16          	mov    %dx,0x16(%eax)
/u/a/b/abhijith/CS537/p3a/xv6-sp20/kernel/sysfile.c:126
  105169:	83 ec 0c             	sub    $0xc,%esp
  10516c:	ff 75 f4             	pushl  -0xc(%ebp)
  10516f:	e8 07 c5 ff ff       	call   10167b <iupdate>
  105174:	83 c4 10             	add    $0x10,%esp
/u/a/b/abhijith/CS537/p3a/xv6-sp20/kernel/sysfile.c:127
  105177:	83 ec 0c             	sub    $0xc,%esp
  10517a:	ff 75 f4             	pushl  -0xc(%ebp)
  10517d:	e8 25 c8 ff ff       	call   1019a7 <iunlock>
  105182:	83 c4 10             	add    $0x10,%esp
/u/a/b/abhijith/CS537/p3a/xv6-sp20/kernel/sysfile.c:129
  105185:	8b 45 dc             	mov    -0x24(%ebp),%eax
  105188:	83 ec 08             	sub    $0x8,%esp
  10518b:	8d 55 e2             	lea    -0x1e(%ebp),%edx
  10518e:	52                   	push   %edx
  10518f:	50                   	push   %eax
  105190:	e8 ec d2 ff ff       	call   102481 <nameiparent>
  105195:	83 c4 10             	add    $0x10,%esp
  105198:	89 45 f0             	mov    %eax,-0x10(%ebp)
  10519b:	83 7d f0 00          	cmpl   $0x0,-0x10(%ebp)
  10519f:	74 6c                	je     10520d <sys_link+0x146>
/u/a/b/abhijith/CS537/p3a/xv6-sp20/kernel/sysfile.c:131
  1051a1:	83 ec 0c             	sub    $0xc,%esp
  1051a4:	ff 75 f0             	pushl  -0x10(%ebp)
  1051a7:	e8 a3 c6 ff ff       	call   10184f <ilock>
  1051ac:	83 c4 10             	add    $0x10,%esp
/u/a/b/abhijith/CS537/p3a/xv6-sp20/kernel/sysfile.c:132
  1051af:	8b 45 f0             	mov    -0x10(%ebp),%eax
  1051b2:	8b 10                	mov    (%eax),%edx
  1051b4:	8b 45 f4             	mov    -0xc(%ebp),%eax
  1051b7:	8b 00                	mov    (%eax),%eax
  1051b9:	39 c2                	cmp    %eax,%edx
  1051bb:	75 1d                	jne    1051da <sys_link+0x113>
/u/a/b/abhijith/CS537/p3a/xv6-sp20/kernel/sysfile.c:132 (discriminator 1)
  1051bd:	8b 45 f4             	mov    -0xc(%ebp),%eax
  1051c0:	8b 40 04             	mov    0x4(%eax),%eax
  1051c3:	83 ec 04             	sub    $0x4,%esp
  1051c6:	50                   	push   %eax
  1051c7:	8d 45 e2             	lea    -0x1e(%ebp),%eax
  1051ca:	50                   	push   %eax
  1051cb:	ff 75 f0             	pushl  -0x10(%ebp)
  1051ce:	e8 f6 cf ff ff       	call   1021c9 <dirlink>
  1051d3:	83 c4 10             	add    $0x10,%esp
  1051d6:	85 c0                	test   %eax,%eax
  1051d8:	79 10                	jns    1051ea <sys_link+0x123>
/u/a/b/abhijith/CS537/p3a/xv6-sp20/kernel/sysfile.c:133
  1051da:	83 ec 0c             	sub    $0xc,%esp
  1051dd:	ff 75 f0             	pushl  -0x10(%ebp)
  1051e0:	e8 24 c9 ff ff       	call   101b09 <iunlockput>
  1051e5:	83 c4 10             	add    $0x10,%esp
/u/a/b/abhijith/CS537/p3a/xv6-sp20/kernel/sysfile.c:134
  1051e8:	eb 24                	jmp    10520e <sys_link+0x147>
/u/a/b/abhijith/CS537/p3a/xv6-sp20/kernel/sysfile.c:136
  1051ea:	83 ec 0c             	sub    $0xc,%esp
  1051ed:	ff 75 f0             	pushl  -0x10(%ebp)
  1051f0:	e8 14 c9 ff ff       	call   101b09 <iunlockput>
  1051f5:	83 c4 10             	add    $0x10,%esp
/u/a/b/abhijith/CS537/p3a/xv6-sp20/kernel/sysfile.c:137
  1051f8:	83 ec 0c             	sub    $0xc,%esp
  1051fb:	ff 75 f4             	pushl  -0xc(%ebp)
  1051fe:	e8 16 c8 ff ff       	call   101a19 <iput>
  105203:	83 c4 10             	add    $0x10,%esp
/u/a/b/abhijith/CS537/p3a/xv6-sp20/kernel/sysfile.c:138
  105206:	b8 00 00 00 00       	mov    $0x0,%eax
  10520b:	eb 43                	jmp    105250 <sys_link+0x189>
/u/a/b/abhijith/CS537/p3a/xv6-sp20/kernel/sysfile.c:130
  10520d:	90                   	nop
/u/a/b/abhijith/CS537/p3a/xv6-sp20/kernel/sysfile.c:141
  10520e:	83 ec 0c             	sub    $0xc,%esp
  105211:	ff 75 f4             	pushl  -0xc(%ebp)
  105214:	e8 36 c6 ff ff       	call   10184f <ilock>
  105219:	83 c4 10             	add    $0x10,%esp
/u/a/b/abhijith/CS537/p3a/xv6-sp20/kernel/sysfile.c:142
  10521c:	8b 45 f4             	mov    -0xc(%ebp),%eax
  10521f:	0f b7 40 16          	movzwl 0x16(%eax),%eax
  105223:	83 e8 01             	sub    $0x1,%eax
  105226:	89 c2                	mov    %eax,%edx
  105228:	8b 45 f4             	mov    -0xc(%ebp),%eax
  10522b:	66 89 50 16          	mov    %dx,0x16(%eax)
/u/a/b/abhijith/CS537/p3a/xv6-sp20/kernel/sysfile.c:143
  10522f:	83 ec 0c             	sub    $0xc,%esp
  105232:	ff 75 f4             	pushl  -0xc(%ebp)
  105235:	e8 41 c4 ff ff       	call   10167b <iupdate>
  10523a:	83 c4 10             	add    $0x10,%esp
/u/a/b/abhijith/CS537/p3a/xv6-sp20/kernel/sysfile.c:144
  10523d:	83 ec 0c             	sub    $0xc,%esp
  105240:	ff 75 f4             	pushl  -0xc(%ebp)
  105243:	e8 c1 c8 ff ff       	call   101b09 <iunlockput>
  105248:	83 c4 10             	add    $0x10,%esp
/u/a/b/abhijith/CS537/p3a/xv6-sp20/kernel/sysfile.c:145
  10524b:	b8 ff ff ff ff       	mov    $0xffffffff,%eax
/u/a/b/abhijith/CS537/p3a/xv6-sp20/kernel/sysfile.c:146 (discriminator 1)
  105250:	c9                   	leave  
  105251:	c3                   	ret    

00105252 <isdirempty>:
isdirempty():
/u/a/b/abhijith/CS537/p3a/xv6-sp20/kernel/sysfile.c:151
  105252:	55                   	push   %ebp
  105253:	89 e5                	mov    %esp,%ebp
  105255:	83 ec 28             	sub    $0x28,%esp
/u/a/b/abhijith/CS537/p3a/xv6-sp20/kernel/sysfile.c:155
  105258:	c7 45 f4 20 00 00 00 	movl   $0x20,-0xc(%ebp)
  10525f:	eb 40                	jmp    1052a1 <isdirempty+0x4f>
/u/a/b/abhijith/CS537/p3a/xv6-sp20/kernel/sysfile.c:156
  105261:	8b 45 f4             	mov    -0xc(%ebp),%eax
  105264:	6a 10                	push   $0x10
  105266:	50                   	push   %eax
  105267:	8d 45 e4             	lea    -0x1c(%ebp),%eax
  10526a:	50                   	push   %eax
  10526b:	ff 75 08             	pushl  0x8(%ebp)
  10526e:	e8 3f cb ff ff       	call   101db2 <readi>
  105273:	83 c4 10             	add    $0x10,%esp
  105276:	83 f8 10             	cmp    $0x10,%eax
  105279:	74 0d                	je     105288 <isdirempty+0x36>
/u/a/b/abhijith/CS537/p3a/xv6-sp20/kernel/sysfile.c:157
  10527b:	83 ec 0c             	sub    $0xc,%esp
  10527e:	68 b3 81 10 00       	push   $0x1081b3
  105283:	e8 f0 b2 ff ff       	call   100578 <panic>
/u/a/b/abhijith/CS537/p3a/xv6-sp20/kernel/sysfile.c:158
  105288:	0f b7 45 e4          	movzwl -0x1c(%ebp),%eax
  10528c:	66 85 c0             	test   %ax,%ax
  10528f:	74 07                	je     105298 <isdirempty+0x46>
/u/a/b/abhijith/CS537/p3a/xv6-sp20/kernel/sysfile.c:159
  105291:	b8 00 00 00 00       	mov    $0x0,%eax
  105296:	eb 1b                	jmp    1052b3 <isdirempty+0x61>
/u/a/b/abhijith/CS537/p3a/xv6-sp20/kernel/sysfile.c:155 (discriminator 2)
  105298:	8b 45 f4             	mov    -0xc(%ebp),%eax
  10529b:	83 c0 10             	add    $0x10,%eax
  10529e:	89 45 f4             	mov    %eax,-0xc(%ebp)
/u/a/b/abhijith/CS537/p3a/xv6-sp20/kernel/sysfile.c:155 (discriminator 1)
  1052a1:	8b 45 08             	mov    0x8(%ebp),%eax
  1052a4:	8b 50 18             	mov    0x18(%eax),%edx
  1052a7:	8b 45 f4             	mov    -0xc(%ebp),%eax
  1052aa:	39 c2                	cmp    %eax,%edx
  1052ac:	77 b3                	ja     105261 <isdirempty+0xf>
/u/a/b/abhijith/CS537/p3a/xv6-sp20/kernel/sysfile.c:161
  1052ae:	b8 01 00 00 00       	mov    $0x1,%eax
/u/a/b/abhijith/CS537/p3a/xv6-sp20/kernel/sysfile.c:162 (discriminator 1)
  1052b3:	c9                   	leave  
  1052b4:	c3                   	ret    

001052b5 <sys_unlink>:
sys_unlink():
/u/a/b/abhijith/CS537/p3a/xv6-sp20/kernel/sysfile.c:166
  1052b5:	55                   	push   %ebp
  1052b6:	89 e5                	mov    %esp,%ebp
  1052b8:	83 ec 38             	sub    $0x38,%esp
/u/a/b/abhijith/CS537/p3a/xv6-sp20/kernel/sysfile.c:172
  1052bb:	83 ec 08             	sub    $0x8,%esp
  1052be:	8d 45 cc             	lea    -0x34(%ebp),%eax
  1052c1:	50                   	push   %eax
  1052c2:	6a 00                	push   $0x0
  1052c4:	e8 b2 fa ff ff       	call   104d7b <argstr>
  1052c9:	83 c4 10             	add    $0x10,%esp
  1052cc:	85 c0                	test   %eax,%eax
  1052ce:	79 0a                	jns    1052da <sys_unlink+0x25>
/u/a/b/abhijith/CS537/p3a/xv6-sp20/kernel/sysfile.c:173
  1052d0:	b8 ff ff ff ff       	mov    $0xffffffff,%eax
  1052d5:	e9 c9 01 00 00       	jmp    1054a3 <sys_unlink+0x1ee>
/u/a/b/abhijith/CS537/p3a/xv6-sp20/kernel/sysfile.c:174
  1052da:	8b 45 cc             	mov    -0x34(%ebp),%eax
  1052dd:	83 ec 08             	sub    $0x8,%esp
  1052e0:	8d 55 d2             	lea    -0x2e(%ebp),%edx
  1052e3:	52                   	push   %edx
  1052e4:	50                   	push   %eax
  1052e5:	e8 97 d1 ff ff       	call   102481 <nameiparent>
  1052ea:	83 c4 10             	add    $0x10,%esp
  1052ed:	89 45 f4             	mov    %eax,-0xc(%ebp)
  1052f0:	83 7d f4 00          	cmpl   $0x0,-0xc(%ebp)
  1052f4:	75 0a                	jne    105300 <sys_unlink+0x4b>
/u/a/b/abhijith/CS537/p3a/xv6-sp20/kernel/sysfile.c:175
  1052f6:	b8 ff ff ff ff       	mov    $0xffffffff,%eax
  1052fb:	e9 a3 01 00 00       	jmp    1054a3 <sys_unlink+0x1ee>
/u/a/b/abhijith/CS537/p3a/xv6-sp20/kernel/sysfile.c:176
  105300:	83 ec 0c             	sub    $0xc,%esp
  105303:	ff 75 f4             	pushl  -0xc(%ebp)
  105306:	e8 44 c5 ff ff       	call   10184f <ilock>
  10530b:	83 c4 10             	add    $0x10,%esp
/u/a/b/abhijith/CS537/p3a/xv6-sp20/kernel/sysfile.c:179
  10530e:	83 ec 08             	sub    $0x8,%esp
  105311:	68 c5 81 10 00       	push   $0x1081c5
  105316:	8d 45 d2             	lea    -0x2e(%ebp),%eax
  105319:	50                   	push   %eax
  10531a:	e8 73 cd ff ff       	call   102092 <namecmp>
  10531f:	83 c4 10             	add    $0x10,%esp
  105322:	85 c0                	test   %eax,%eax
  105324:	74 18                	je     10533e <sys_unlink+0x89>
/u/a/b/abhijith/CS537/p3a/xv6-sp20/kernel/sysfile.c:179 (discriminator 1)
  105326:	83 ec 08             	sub    $0x8,%esp
  105329:	68 c7 81 10 00       	push   $0x1081c7
  10532e:	8d 45 d2             	lea    -0x2e(%ebp),%eax
  105331:	50                   	push   %eax
  105332:	e8 5b cd ff ff       	call   102092 <namecmp>
  105337:	83 c4 10             	add    $0x10,%esp
  10533a:	85 c0                	test   %eax,%eax
  10533c:	75 18                	jne    105356 <sys_unlink+0xa1>
/u/a/b/abhijith/CS537/p3a/xv6-sp20/kernel/sysfile.c:180
  10533e:	83 ec 0c             	sub    $0xc,%esp
  105341:	ff 75 f4             	pushl  -0xc(%ebp)
  105344:	e8 c0 c7 ff ff       	call   101b09 <iunlockput>
  105349:	83 c4 10             	add    $0x10,%esp
/u/a/b/abhijith/CS537/p3a/xv6-sp20/kernel/sysfile.c:181
  10534c:	b8 ff ff ff ff       	mov    $0xffffffff,%eax
  105351:	e9 4d 01 00 00       	jmp    1054a3 <sys_unlink+0x1ee>
/u/a/b/abhijith/CS537/p3a/xv6-sp20/kernel/sysfile.c:184
  105356:	83 ec 04             	sub    $0x4,%esp
  105359:	8d 45 c8             	lea    -0x38(%ebp),%eax
  10535c:	50                   	push   %eax
  10535d:	8d 45 d2             	lea    -0x2e(%ebp),%eax
  105360:	50                   	push   %eax
  105361:	ff 75 f4             	pushl  -0xc(%ebp)
  105364:	e8 44 cd ff ff       	call   1020ad <dirlookup>
  105369:	83 c4 10             	add    $0x10,%esp
  10536c:	89 45 f0             	mov    %eax,-0x10(%ebp)
  10536f:	83 7d f0 00          	cmpl   $0x0,-0x10(%ebp)
  105373:	75 18                	jne    10538d <sys_unlink+0xd8>
/u/a/b/abhijith/CS537/p3a/xv6-sp20/kernel/sysfile.c:185
  105375:	83 ec 0c             	sub    $0xc,%esp
  105378:	ff 75 f4             	pushl  -0xc(%ebp)
  10537b:	e8 89 c7 ff ff       	call   101b09 <iunlockput>
  105380:	83 c4 10             	add    $0x10,%esp
/u/a/b/abhijith/CS537/p3a/xv6-sp20/kernel/sysfile.c:186
  105383:	b8 ff ff ff ff       	mov    $0xffffffff,%eax
  105388:	e9 16 01 00 00       	jmp    1054a3 <sys_unlink+0x1ee>
/u/a/b/abhijith/CS537/p3a/xv6-sp20/kernel/sysfile.c:188
  10538d:	83 ec 0c             	sub    $0xc,%esp
  105390:	ff 75 f0             	pushl  -0x10(%ebp)
  105393:	e8 b7 c4 ff ff       	call   10184f <ilock>
  105398:	83 c4 10             	add    $0x10,%esp
/u/a/b/abhijith/CS537/p3a/xv6-sp20/kernel/sysfile.c:190
  10539b:	8b 45 f0             	mov    -0x10(%ebp),%eax
  10539e:	0f b7 40 16          	movzwl 0x16(%eax),%eax
  1053a2:	66 85 c0             	test   %ax,%ax
  1053a5:	7f 0d                	jg     1053b4 <sys_unlink+0xff>
/u/a/b/abhijith/CS537/p3a/xv6-sp20/kernel/sysfile.c:191
  1053a7:	83 ec 0c             	sub    $0xc,%esp
  1053aa:	68 ca 81 10 00       	push   $0x1081ca
  1053af:	e8 c4 b1 ff ff       	call   100578 <panic>
/u/a/b/abhijith/CS537/p3a/xv6-sp20/kernel/sysfile.c:192
  1053b4:	8b 45 f0             	mov    -0x10(%ebp),%eax
  1053b7:	0f b7 40 10          	movzwl 0x10(%eax),%eax
  1053bb:	66 83 f8 01          	cmp    $0x1,%ax
  1053bf:	75 38                	jne    1053f9 <sys_unlink+0x144>
/u/a/b/abhijith/CS537/p3a/xv6-sp20/kernel/sysfile.c:192 (discriminator 1)
  1053c1:	83 ec 0c             	sub    $0xc,%esp
  1053c4:	ff 75 f0             	pushl  -0x10(%ebp)
  1053c7:	e8 86 fe ff ff       	call   105252 <isdirempty>
  1053cc:	83 c4 10             	add    $0x10,%esp
  1053cf:	85 c0                	test   %eax,%eax
  1053d1:	75 26                	jne    1053f9 <sys_unlink+0x144>
/u/a/b/abhijith/CS537/p3a/xv6-sp20/kernel/sysfile.c:193
  1053d3:	83 ec 0c             	sub    $0xc,%esp
  1053d6:	ff 75 f0             	pushl  -0x10(%ebp)
  1053d9:	e8 2b c7 ff ff       	call   101b09 <iunlockput>
  1053de:	83 c4 10             	add    $0x10,%esp
/u/a/b/abhijith/CS537/p3a/xv6-sp20/kernel/sysfile.c:194
  1053e1:	83 ec 0c             	sub    $0xc,%esp
  1053e4:	ff 75 f4             	pushl  -0xc(%ebp)
  1053e7:	e8 1d c7 ff ff       	call   101b09 <iunlockput>
  1053ec:	83 c4 10             	add    $0x10,%esp
/u/a/b/abhijith/CS537/p3a/xv6-sp20/kernel/sysfile.c:195
  1053ef:	b8 ff ff ff ff       	mov    $0xffffffff,%eax
  1053f4:	e9 aa 00 00 00       	jmp    1054a3 <sys_unlink+0x1ee>
/u/a/b/abhijith/CS537/p3a/xv6-sp20/kernel/sysfile.c:198
  1053f9:	83 ec 04             	sub    $0x4,%esp
  1053fc:	6a 10                	push   $0x10
  1053fe:	6a 00                	push   $0x0
  105400:	8d 45 e0             	lea    -0x20(%ebp),%eax
  105403:	50                   	push   %eax
  105404:	e8 1a f6 ff ff       	call   104a23 <memset>
  105409:	83 c4 10             	add    $0x10,%esp
/u/a/b/abhijith/CS537/p3a/xv6-sp20/kernel/sysfile.c:199
  10540c:	8b 45 c8             	mov    -0x38(%ebp),%eax
  10540f:	6a 10                	push   $0x10
  105411:	50                   	push   %eax
  105412:	8d 45 e0             	lea    -0x20(%ebp),%eax
  105415:	50                   	push   %eax
  105416:	ff 75 f4             	pushl  -0xc(%ebp)
  105419:	e8 eb ca ff ff       	call   101f09 <writei>
  10541e:	83 c4 10             	add    $0x10,%esp
  105421:	83 f8 10             	cmp    $0x10,%eax
  105424:	74 0d                	je     105433 <sys_unlink+0x17e>
/u/a/b/abhijith/CS537/p3a/xv6-sp20/kernel/sysfile.c:200
  105426:	83 ec 0c             	sub    $0xc,%esp
  105429:	68 dc 81 10 00       	push   $0x1081dc
  10542e:	e8 45 b1 ff ff       	call   100578 <panic>
/u/a/b/abhijith/CS537/p3a/xv6-sp20/kernel/sysfile.c:201
  105433:	8b 45 f0             	mov    -0x10(%ebp),%eax
  105436:	0f b7 40 10          	movzwl 0x10(%eax),%eax
  10543a:	66 83 f8 01          	cmp    $0x1,%ax
  10543e:	75 21                	jne    105461 <sys_unlink+0x1ac>
/u/a/b/abhijith/CS537/p3a/xv6-sp20/kernel/sysfile.c:202
  105440:	8b 45 f4             	mov    -0xc(%ebp),%eax
  105443:	0f b7 40 16          	movzwl 0x16(%eax),%eax
  105447:	83 e8 01             	sub    $0x1,%eax
  10544a:	89 c2                	mov    %eax,%edx
  10544c:	8b 45 f4             	mov    -0xc(%ebp),%eax
  10544f:	66 89 50 16          	mov    %dx,0x16(%eax)
/u/a/b/abhijith/CS537/p3a/xv6-sp20/kernel/sysfile.c:203
  105453:	83 ec 0c             	sub    $0xc,%esp
  105456:	ff 75 f4             	pushl  -0xc(%ebp)
  105459:	e8 1d c2 ff ff       	call   10167b <iupdate>
  10545e:	83 c4 10             	add    $0x10,%esp
/u/a/b/abhijith/CS537/p3a/xv6-sp20/kernel/sysfile.c:205
  105461:	83 ec 0c             	sub    $0xc,%esp
  105464:	ff 75 f4             	pushl  -0xc(%ebp)
  105467:	e8 9d c6 ff ff       	call   101b09 <iunlockput>
  10546c:	83 c4 10             	add    $0x10,%esp
/u/a/b/abhijith/CS537/p3a/xv6-sp20/kernel/sysfile.c:207
  10546f:	8b 45 f0             	mov    -0x10(%ebp),%eax
  105472:	0f b7 40 16          	movzwl 0x16(%eax),%eax
  105476:	83 e8 01             	sub    $0x1,%eax
  105479:	89 c2                	mov    %eax,%edx
  10547b:	8b 45 f0             	mov    -0x10(%ebp),%eax
  10547e:	66 89 50 16          	mov    %dx,0x16(%eax)
/u/a/b/abhijith/CS537/p3a/xv6-sp20/kernel/sysfile.c:208
  105482:	83 ec 0c             	sub    $0xc,%esp
  105485:	ff 75 f0             	pushl  -0x10(%ebp)
  105488:	e8 ee c1 ff ff       	call   10167b <iupdate>
  10548d:	83 c4 10             	add    $0x10,%esp
/u/a/b/abhijith/CS537/p3a/xv6-sp20/kernel/sysfile.c:209
  105490:	83 ec 0c             	sub    $0xc,%esp
  105493:	ff 75 f0             	pushl  -0x10(%ebp)
  105496:	e8 6e c6 ff ff       	call   101b09 <iunlockput>
  10549b:	83 c4 10             	add    $0x10,%esp
/u/a/b/abhijith/CS537/p3a/xv6-sp20/kernel/sysfile.c:210
  10549e:	b8 00 00 00 00       	mov    $0x0,%eax
/u/a/b/abhijith/CS537/p3a/xv6-sp20/kernel/sysfile.c:211 (discriminator 1)
  1054a3:	c9                   	leave  
  1054a4:	c3                   	ret    

001054a5 <create>:
create():
/u/a/b/abhijith/CS537/p3a/xv6-sp20/kernel/sysfile.c:215
  1054a5:	55                   	push   %ebp
  1054a6:	89 e5                	mov    %esp,%ebp
  1054a8:	83 ec 38             	sub    $0x38,%esp
  1054ab:	8b 4d 0c             	mov    0xc(%ebp),%ecx
  1054ae:	8b 55 10             	mov    0x10(%ebp),%edx
  1054b1:	8b 45 14             	mov    0x14(%ebp),%eax
  1054b4:	66 89 4d d4          	mov    %cx,-0x2c(%ebp)
  1054b8:	66 89 55 d0          	mov    %dx,-0x30(%ebp)
  1054bc:	66 89 45 cc          	mov    %ax,-0x34(%ebp)
/u/a/b/abhijith/CS537/p3a/xv6-sp20/kernel/sysfile.c:220
  1054c0:	83 ec 08             	sub    $0x8,%esp
  1054c3:	8d 45 de             	lea    -0x22(%ebp),%eax
  1054c6:	50                   	push   %eax
  1054c7:	ff 75 08             	pushl  0x8(%ebp)
  1054ca:	e8 b2 cf ff ff       	call   102481 <nameiparent>
  1054cf:	83 c4 10             	add    $0x10,%esp
  1054d2:	89 45 f4             	mov    %eax,-0xc(%ebp)
  1054d5:	83 7d f4 00          	cmpl   $0x0,-0xc(%ebp)
  1054d9:	75 0a                	jne    1054e5 <create+0x40>
/u/a/b/abhijith/CS537/p3a/xv6-sp20/kernel/sysfile.c:221
  1054db:	b8 00 00 00 00       	mov    $0x0,%eax
  1054e0:	e9 90 01 00 00       	jmp    105675 <create+0x1d0>
/u/a/b/abhijith/CS537/p3a/xv6-sp20/kernel/sysfile.c:222
  1054e5:	83 ec 0c             	sub    $0xc,%esp
  1054e8:	ff 75 f4             	pushl  -0xc(%ebp)
  1054eb:	e8 5f c3 ff ff       	call   10184f <ilock>
  1054f0:	83 c4 10             	add    $0x10,%esp
/u/a/b/abhijith/CS537/p3a/xv6-sp20/kernel/sysfile.c:224
  1054f3:	83 ec 04             	sub    $0x4,%esp
  1054f6:	8d 45 ec             	lea    -0x14(%ebp),%eax
  1054f9:	50                   	push   %eax
  1054fa:	8d 45 de             	lea    -0x22(%ebp),%eax
  1054fd:	50                   	push   %eax
  1054fe:	ff 75 f4             	pushl  -0xc(%ebp)
  105501:	e8 a7 cb ff ff       	call   1020ad <dirlookup>
  105506:	83 c4 10             	add    $0x10,%esp
  105509:	89 45 f0             	mov    %eax,-0x10(%ebp)
  10550c:	83 7d f0 00          	cmpl   $0x0,-0x10(%ebp)
  105510:	74 50                	je     105562 <create+0xbd>
/u/a/b/abhijith/CS537/p3a/xv6-sp20/kernel/sysfile.c:225
  105512:	83 ec 0c             	sub    $0xc,%esp
  105515:	ff 75 f4             	pushl  -0xc(%ebp)
  105518:	e8 ec c5 ff ff       	call   101b09 <iunlockput>
  10551d:	83 c4 10             	add    $0x10,%esp
/u/a/b/abhijith/CS537/p3a/xv6-sp20/kernel/sysfile.c:226
  105520:	83 ec 0c             	sub    $0xc,%esp
  105523:	ff 75 f0             	pushl  -0x10(%ebp)
  105526:	e8 24 c3 ff ff       	call   10184f <ilock>
  10552b:	83 c4 10             	add    $0x10,%esp
/u/a/b/abhijith/CS537/p3a/xv6-sp20/kernel/sysfile.c:227
  10552e:	66 83 7d d4 02       	cmpw   $0x2,-0x2c(%ebp)
  105533:	75 15                	jne    10554a <create+0xa5>
/u/a/b/abhijith/CS537/p3a/xv6-sp20/kernel/sysfile.c:227 (discriminator 1)
  105535:	8b 45 f0             	mov    -0x10(%ebp),%eax
  105538:	0f b7 40 10          	movzwl 0x10(%eax),%eax
  10553c:	66 83 f8 02          	cmp    $0x2,%ax
  105540:	75 08                	jne    10554a <create+0xa5>
/u/a/b/abhijith/CS537/p3a/xv6-sp20/kernel/sysfile.c:228
  105542:	8b 45 f0             	mov    -0x10(%ebp),%eax
  105545:	e9 2b 01 00 00       	jmp    105675 <create+0x1d0>
/u/a/b/abhijith/CS537/p3a/xv6-sp20/kernel/sysfile.c:229
  10554a:	83 ec 0c             	sub    $0xc,%esp
  10554d:	ff 75 f0             	pushl  -0x10(%ebp)
  105550:	e8 b4 c5 ff ff       	call   101b09 <iunlockput>
  105555:	83 c4 10             	add    $0x10,%esp
/u/a/b/abhijith/CS537/p3a/xv6-sp20/kernel/sysfile.c:230
  105558:	b8 00 00 00 00       	mov    $0x0,%eax
  10555d:	e9 13 01 00 00       	jmp    105675 <create+0x1d0>
/u/a/b/abhijith/CS537/p3a/xv6-sp20/kernel/sysfile.c:233
  105562:	0f bf 55 d4          	movswl -0x2c(%ebp),%edx
  105566:	8b 45 f4             	mov    -0xc(%ebp),%eax
  105569:	8b 00                	mov    (%eax),%eax
  10556b:	83 ec 08             	sub    $0x8,%esp
  10556e:	52                   	push   %edx
  10556f:	50                   	push   %eax
  105570:	e8 25 c0 ff ff       	call   10159a <ialloc>
  105575:	83 c4 10             	add    $0x10,%esp
  105578:	89 45 f0             	mov    %eax,-0x10(%ebp)
  10557b:	83 7d f0 00          	cmpl   $0x0,-0x10(%ebp)
  10557f:	75 0d                	jne    10558e <create+0xe9>
/u/a/b/abhijith/CS537/p3a/xv6-sp20/kernel/sysfile.c:234
  105581:	83 ec 0c             	sub    $0xc,%esp
  105584:	68 eb 81 10 00       	push   $0x1081eb
  105589:	e8 ea af ff ff       	call   100578 <panic>
/u/a/b/abhijith/CS537/p3a/xv6-sp20/kernel/sysfile.c:236
  10558e:	83 ec 0c             	sub    $0xc,%esp
  105591:	ff 75 f0             	pushl  -0x10(%ebp)
  105594:	e8 b6 c2 ff ff       	call   10184f <ilock>
  105599:	83 c4 10             	add    $0x10,%esp
/u/a/b/abhijith/CS537/p3a/xv6-sp20/kernel/sysfile.c:237
  10559c:	8b 45 f0             	mov    -0x10(%ebp),%eax
  10559f:	0f b7 55 d0          	movzwl -0x30(%ebp),%edx
  1055a3:	66 89 50 12          	mov    %dx,0x12(%eax)
/u/a/b/abhijith/CS537/p3a/xv6-sp20/kernel/sysfile.c:238
  1055a7:	8b 45 f0             	mov    -0x10(%ebp),%eax
  1055aa:	0f b7 55 cc          	movzwl -0x34(%ebp),%edx
  1055ae:	66 89 50 14          	mov    %dx,0x14(%eax)
/u/a/b/abhijith/CS537/p3a/xv6-sp20/kernel/sysfile.c:239
  1055b2:	8b 45 f0             	mov    -0x10(%ebp),%eax
  1055b5:	66 c7 40 16 01 00    	movw   $0x1,0x16(%eax)
/u/a/b/abhijith/CS537/p3a/xv6-sp20/kernel/sysfile.c:240
  1055bb:	83 ec 0c             	sub    $0xc,%esp
  1055be:	ff 75 f0             	pushl  -0x10(%ebp)
  1055c1:	e8 b5 c0 ff ff       	call   10167b <iupdate>
  1055c6:	83 c4 10             	add    $0x10,%esp
/u/a/b/abhijith/CS537/p3a/xv6-sp20/kernel/sysfile.c:242
  1055c9:	66 83 7d d4 01       	cmpw   $0x1,-0x2c(%ebp)
  1055ce:	75 6a                	jne    10563a <create+0x195>
/u/a/b/abhijith/CS537/p3a/xv6-sp20/kernel/sysfile.c:243
  1055d0:	8b 45 f4             	mov    -0xc(%ebp),%eax
  1055d3:	0f b7 40 16          	movzwl 0x16(%eax),%eax
  1055d7:	83 c0 01             	add    $0x1,%eax
  1055da:	89 c2                	mov    %eax,%edx
  1055dc:	8b 45 f4             	mov    -0xc(%ebp),%eax
  1055df:	66 89 50 16          	mov    %dx,0x16(%eax)
/u/a/b/abhijith/CS537/p3a/xv6-sp20/kernel/sysfile.c:244
  1055e3:	83 ec 0c             	sub    $0xc,%esp
  1055e6:	ff 75 f4             	pushl  -0xc(%ebp)
  1055e9:	e8 8d c0 ff ff       	call   10167b <iupdate>
  1055ee:	83 c4 10             	add    $0x10,%esp
/u/a/b/abhijith/CS537/p3a/xv6-sp20/kernel/sysfile.c:246
  1055f1:	8b 45 f0             	mov    -0x10(%ebp),%eax
  1055f4:	8b 40 04             	mov    0x4(%eax),%eax
  1055f7:	83 ec 04             	sub    $0x4,%esp
  1055fa:	50                   	push   %eax
  1055fb:	68 c5 81 10 00       	push   $0x1081c5
  105600:	ff 75 f0             	pushl  -0x10(%ebp)
  105603:	e8 c1 cb ff ff       	call   1021c9 <dirlink>
  105608:	83 c4 10             	add    $0x10,%esp
  10560b:	85 c0                	test   %eax,%eax
  10560d:	78 1e                	js     10562d <create+0x188>
/u/a/b/abhijith/CS537/p3a/xv6-sp20/kernel/sysfile.c:246 (discriminator 1)
  10560f:	8b 45 f4             	mov    -0xc(%ebp),%eax
  105612:	8b 40 04             	mov    0x4(%eax),%eax
  105615:	83 ec 04             	sub    $0x4,%esp
  105618:	50                   	push   %eax
  105619:	68 c7 81 10 00       	push   $0x1081c7
  10561e:	ff 75 f0             	pushl  -0x10(%ebp)
  105621:	e8 a3 cb ff ff       	call   1021c9 <dirlink>
  105626:	83 c4 10             	add    $0x10,%esp
  105629:	85 c0                	test   %eax,%eax
  10562b:	79 0d                	jns    10563a <create+0x195>
/u/a/b/abhijith/CS537/p3a/xv6-sp20/kernel/sysfile.c:247
  10562d:	83 ec 0c             	sub    $0xc,%esp
  105630:	68 fa 81 10 00       	push   $0x1081fa
  105635:	e8 3e af ff ff       	call   100578 <panic>
/u/a/b/abhijith/CS537/p3a/xv6-sp20/kernel/sysfile.c:250
  10563a:	8b 45 f0             	mov    -0x10(%ebp),%eax
  10563d:	8b 40 04             	mov    0x4(%eax),%eax
  105640:	83 ec 04             	sub    $0x4,%esp
  105643:	50                   	push   %eax
  105644:	8d 45 de             	lea    -0x22(%ebp),%eax
  105647:	50                   	push   %eax
  105648:	ff 75 f4             	pushl  -0xc(%ebp)
  10564b:	e8 79 cb ff ff       	call   1021c9 <dirlink>
  105650:	83 c4 10             	add    $0x10,%esp
  105653:	85 c0                	test   %eax,%eax
  105655:	79 0d                	jns    105664 <create+0x1bf>
/u/a/b/abhijith/CS537/p3a/xv6-sp20/kernel/sysfile.c:251
  105657:	83 ec 0c             	sub    $0xc,%esp
  10565a:	68 06 82 10 00       	push   $0x108206
  10565f:	e8 14 af ff ff       	call   100578 <panic>
/u/a/b/abhijith/CS537/p3a/xv6-sp20/kernel/sysfile.c:253
  105664:	83 ec 0c             	sub    $0xc,%esp
  105667:	ff 75 f4             	pushl  -0xc(%ebp)
  10566a:	e8 9a c4 ff ff       	call   101b09 <iunlockput>
  10566f:	83 c4 10             	add    $0x10,%esp
/u/a/b/abhijith/CS537/p3a/xv6-sp20/kernel/sysfile.c:254
  105672:	8b 45 f0             	mov    -0x10(%ebp),%eax
/u/a/b/abhijith/CS537/p3a/xv6-sp20/kernel/sysfile.c:255 (discriminator 1)
  105675:	c9                   	leave  
  105676:	c3                   	ret    

00105677 <sys_open>:
sys_open():
/u/a/b/abhijith/CS537/p3a/xv6-sp20/kernel/sysfile.c:259
  105677:	55                   	push   %ebp
  105678:	89 e5                	mov    %esp,%ebp
  10567a:	83 ec 28             	sub    $0x28,%esp
/u/a/b/abhijith/CS537/p3a/xv6-sp20/kernel/sysfile.c:265
  10567d:	83 ec 08             	sub    $0x8,%esp
  105680:	8d 45 e8             	lea    -0x18(%ebp),%eax
  105683:	50                   	push   %eax
  105684:	6a 00                	push   $0x0
  105686:	e8 f0 f6 ff ff       	call   104d7b <argstr>
  10568b:	83 c4 10             	add    $0x10,%esp
  10568e:	85 c0                	test   %eax,%eax
  105690:	78 15                	js     1056a7 <sys_open+0x30>
/u/a/b/abhijith/CS537/p3a/xv6-sp20/kernel/sysfile.c:265 (discriminator 1)
  105692:	83 ec 08             	sub    $0x8,%esp
  105695:	8d 45 e4             	lea    -0x1c(%ebp),%eax
  105698:	50                   	push   %eax
  105699:	6a 01                	push   $0x1
  10569b:	e8 4f f6 ff ff       	call   104cef <argint>
  1056a0:	83 c4 10             	add    $0x10,%esp
  1056a3:	85 c0                	test   %eax,%eax
  1056a5:	79 0a                	jns    1056b1 <sys_open+0x3a>
/u/a/b/abhijith/CS537/p3a/xv6-sp20/kernel/sysfile.c:266
  1056a7:	b8 ff ff ff ff       	mov    $0xffffffff,%eax
  1056ac:	e9 43 01 00 00       	jmp    1057f4 <sys_open+0x17d>
/u/a/b/abhijith/CS537/p3a/xv6-sp20/kernel/sysfile.c:267
  1056b1:	8b 45 e4             	mov    -0x1c(%ebp),%eax
  1056b4:	25 00 02 00 00       	and    $0x200,%eax
  1056b9:	85 c0                	test   %eax,%eax
  1056bb:	74 25                	je     1056e2 <sys_open+0x6b>
/u/a/b/abhijith/CS537/p3a/xv6-sp20/kernel/sysfile.c:268
  1056bd:	8b 45 e8             	mov    -0x18(%ebp),%eax
  1056c0:	6a 00                	push   $0x0
  1056c2:	6a 00                	push   $0x0
  1056c4:	6a 02                	push   $0x2
  1056c6:	50                   	push   %eax
  1056c7:	e8 d9 fd ff ff       	call   1054a5 <create>
  1056cc:	83 c4 10             	add    $0x10,%esp
  1056cf:	89 45 f4             	mov    %eax,-0xc(%ebp)
  1056d2:	83 7d f4 00          	cmpl   $0x0,-0xc(%ebp)
  1056d6:	75 66                	jne    10573e <sys_open+0xc7>
/u/a/b/abhijith/CS537/p3a/xv6-sp20/kernel/sysfile.c:269
  1056d8:	b8 ff ff ff ff       	mov    $0xffffffff,%eax
  1056dd:	e9 12 01 00 00       	jmp    1057f4 <sys_open+0x17d>
/u/a/b/abhijith/CS537/p3a/xv6-sp20/kernel/sysfile.c:271
  1056e2:	8b 45 e8             	mov    -0x18(%ebp),%eax
  1056e5:	83 ec 0c             	sub    $0xc,%esp
  1056e8:	50                   	push   %eax
  1056e9:	e8 77 cd ff ff       	call   102465 <namei>
  1056ee:	83 c4 10             	add    $0x10,%esp
  1056f1:	89 45 f4             	mov    %eax,-0xc(%ebp)
  1056f4:	83 7d f4 00          	cmpl   $0x0,-0xc(%ebp)
  1056f8:	75 0a                	jne    105704 <sys_open+0x8d>
/u/a/b/abhijith/CS537/p3a/xv6-sp20/kernel/sysfile.c:272
  1056fa:	b8 ff ff ff ff       	mov    $0xffffffff,%eax
  1056ff:	e9 f0 00 00 00       	jmp    1057f4 <sys_open+0x17d>
/u/a/b/abhijith/CS537/p3a/xv6-sp20/kernel/sysfile.c:273
  105704:	83 ec 0c             	sub    $0xc,%esp
  105707:	ff 75 f4             	pushl  -0xc(%ebp)
  10570a:	e8 40 c1 ff ff       	call   10184f <ilock>
  10570f:	83 c4 10             	add    $0x10,%esp
/u/a/b/abhijith/CS537/p3a/xv6-sp20/kernel/sysfile.c:274
  105712:	8b 45 f4             	mov    -0xc(%ebp),%eax
  105715:	0f b7 40 10          	movzwl 0x10(%eax),%eax
  105719:	66 83 f8 01          	cmp    $0x1,%ax
  10571d:	75 1f                	jne    10573e <sys_open+0xc7>
/u/a/b/abhijith/CS537/p3a/xv6-sp20/kernel/sysfile.c:274 (discriminator 1)
  10571f:	8b 45 e4             	mov    -0x1c(%ebp),%eax
  105722:	85 c0                	test   %eax,%eax
  105724:	74 18                	je     10573e <sys_open+0xc7>
/u/a/b/abhijith/CS537/p3a/xv6-sp20/kernel/sysfile.c:275
  105726:	83 ec 0c             	sub    $0xc,%esp
  105729:	ff 75 f4             	pushl  -0xc(%ebp)
  10572c:	e8 d8 c3 ff ff       	call   101b09 <iunlockput>
  105731:	83 c4 10             	add    $0x10,%esp
/u/a/b/abhijith/CS537/p3a/xv6-sp20/kernel/sysfile.c:276
  105734:	b8 ff ff ff ff       	mov    $0xffffffff,%eax
  105739:	e9 b6 00 00 00       	jmp    1057f4 <sys_open+0x17d>
/u/a/b/abhijith/CS537/p3a/xv6-sp20/kernel/sysfile.c:280
  10573e:	e8 1e b8 ff ff       	call   100f61 <filealloc>
  105743:	89 45 f0             	mov    %eax,-0x10(%ebp)
  105746:	83 7d f0 00          	cmpl   $0x0,-0x10(%ebp)
  10574a:	74 17                	je     105763 <sys_open+0xec>
/u/a/b/abhijith/CS537/p3a/xv6-sp20/kernel/sysfile.c:280 (discriminator 1)
  10574c:	83 ec 0c             	sub    $0xc,%esp
  10574f:	ff 75 f0             	pushl  -0x10(%ebp)
  105752:	e8 57 f7 ff ff       	call   104eae <fdalloc>
  105757:	83 c4 10             	add    $0x10,%esp
  10575a:	89 45 ec             	mov    %eax,-0x14(%ebp)
  10575d:	83 7d ec 00          	cmpl   $0x0,-0x14(%ebp)
  105761:	79 29                	jns    10578c <sys_open+0x115>
/u/a/b/abhijith/CS537/p3a/xv6-sp20/kernel/sysfile.c:281
  105763:	83 7d f0 00          	cmpl   $0x0,-0x10(%ebp)
  105767:	74 0e                	je     105777 <sys_open+0x100>
/u/a/b/abhijith/CS537/p3a/xv6-sp20/kernel/sysfile.c:282
  105769:	83 ec 0c             	sub    $0xc,%esp
  10576c:	ff 75 f0             	pushl  -0x10(%ebp)
  10576f:	e8 ab b8 ff ff       	call   10101f <fileclose>
  105774:	83 c4 10             	add    $0x10,%esp
/u/a/b/abhijith/CS537/p3a/xv6-sp20/kernel/sysfile.c:283
  105777:	83 ec 0c             	sub    $0xc,%esp
  10577a:	ff 75 f4             	pushl  -0xc(%ebp)
  10577d:	e8 87 c3 ff ff       	call   101b09 <iunlockput>
  105782:	83 c4 10             	add    $0x10,%esp
/u/a/b/abhijith/CS537/p3a/xv6-sp20/kernel/sysfile.c:284
  105785:	b8 ff ff ff ff       	mov    $0xffffffff,%eax
  10578a:	eb 68                	jmp    1057f4 <sys_open+0x17d>
/u/a/b/abhijith/CS537/p3a/xv6-sp20/kernel/sysfile.c:286
  10578c:	83 ec 0c             	sub    $0xc,%esp
  10578f:	ff 75 f4             	pushl  -0xc(%ebp)
  105792:	e8 10 c2 ff ff       	call   1019a7 <iunlock>
  105797:	83 c4 10             	add    $0x10,%esp
/u/a/b/abhijith/CS537/p3a/xv6-sp20/kernel/sysfile.c:288
  10579a:	8b 45 f0             	mov    -0x10(%ebp),%eax
  10579d:	c7 00 02 00 00 00    	movl   $0x2,(%eax)
/u/a/b/abhijith/CS537/p3a/xv6-sp20/kernel/sysfile.c:289
  1057a3:	8b 45 f0             	mov    -0x10(%ebp),%eax
  1057a6:	8b 55 f4             	mov    -0xc(%ebp),%edx
  1057a9:	89 50 10             	mov    %edx,0x10(%eax)
/u/a/b/abhijith/CS537/p3a/xv6-sp20/kernel/sysfile.c:290
  1057ac:	8b 45 f0             	mov    -0x10(%ebp),%eax
  1057af:	c7 40 14 00 00 00 00 	movl   $0x0,0x14(%eax)
/u/a/b/abhijith/CS537/p3a/xv6-sp20/kernel/sysfile.c:291
  1057b6:	8b 45 e4             	mov    -0x1c(%ebp),%eax
  1057b9:	83 e0 01             	and    $0x1,%eax
  1057bc:	85 c0                	test   %eax,%eax
  1057be:	0f 94 c0             	sete   %al
  1057c1:	89 c2                	mov    %eax,%edx
  1057c3:	8b 45 f0             	mov    -0x10(%ebp),%eax
  1057c6:	88 50 08             	mov    %dl,0x8(%eax)
/u/a/b/abhijith/CS537/p3a/xv6-sp20/kernel/sysfile.c:292
  1057c9:	8b 45 e4             	mov    -0x1c(%ebp),%eax
  1057cc:	83 e0 01             	and    $0x1,%eax
  1057cf:	85 c0                	test   %eax,%eax
  1057d1:	75 0a                	jne    1057dd <sys_open+0x166>
/u/a/b/abhijith/CS537/p3a/xv6-sp20/kernel/sysfile.c:292 (discriminator 2)
  1057d3:	8b 45 e4             	mov    -0x1c(%ebp),%eax
  1057d6:	83 e0 02             	and    $0x2,%eax
  1057d9:	85 c0                	test   %eax,%eax
  1057db:	74 07                	je     1057e4 <sys_open+0x16d>
/u/a/b/abhijith/CS537/p3a/xv6-sp20/kernel/sysfile.c:292 (discriminator 3)
  1057dd:	b8 01 00 00 00       	mov    $0x1,%eax
  1057e2:	eb 05                	jmp    1057e9 <sys_open+0x172>
/u/a/b/abhijith/CS537/p3a/xv6-sp20/kernel/sysfile.c:292 (discriminator 4)
  1057e4:	b8 00 00 00 00       	mov    $0x0,%eax
/u/a/b/abhijith/CS537/p3a/xv6-sp20/kernel/sysfile.c:292 (discriminator 6)
  1057e9:	89 c2                	mov    %eax,%edx
  1057eb:	8b 45 f0             	mov    -0x10(%ebp),%eax
  1057ee:	88 50 09             	mov    %dl,0x9(%eax)
/u/a/b/abhijith/CS537/p3a/xv6-sp20/kernel/sysfile.c:293 (discriminator 6)
  1057f1:	8b 45 ec             	mov    -0x14(%ebp),%eax
/u/a/b/abhijith/CS537/p3a/xv6-sp20/kernel/sysfile.c:294 (discriminator 1)
  1057f4:	c9                   	leave  
  1057f5:	c3                   	ret    

001057f6 <sys_mkdir>:
sys_mkdir():
/u/a/b/abhijith/CS537/p3a/xv6-sp20/kernel/sysfile.c:298
  1057f6:	55                   	push   %ebp
  1057f7:	89 e5                	mov    %esp,%ebp
  1057f9:	83 ec 18             	sub    $0x18,%esp
/u/a/b/abhijith/CS537/p3a/xv6-sp20/kernel/sysfile.c:302
  1057fc:	83 ec 08             	sub    $0x8,%esp
  1057ff:	8d 45 f0             	lea    -0x10(%ebp),%eax
  105802:	50                   	push   %eax
  105803:	6a 00                	push   $0x0
  105805:	e8 71 f5 ff ff       	call   104d7b <argstr>
  10580a:	83 c4 10             	add    $0x10,%esp
  10580d:	85 c0                	test   %eax,%eax
  10580f:	78 1b                	js     10582c <sys_mkdir+0x36>
/u/a/b/abhijith/CS537/p3a/xv6-sp20/kernel/sysfile.c:302 (discriminator 1)
  105811:	8b 45 f0             	mov    -0x10(%ebp),%eax
  105814:	6a 00                	push   $0x0
  105816:	6a 00                	push   $0x0
  105818:	6a 01                	push   $0x1
  10581a:	50                   	push   %eax
  10581b:	e8 85 fc ff ff       	call   1054a5 <create>
  105820:	83 c4 10             	add    $0x10,%esp
  105823:	89 45 f4             	mov    %eax,-0xc(%ebp)
  105826:	83 7d f4 00          	cmpl   $0x0,-0xc(%ebp)
  10582a:	75 07                	jne    105833 <sys_mkdir+0x3d>
/u/a/b/abhijith/CS537/p3a/xv6-sp20/kernel/sysfile.c:303
  10582c:	b8 ff ff ff ff       	mov    $0xffffffff,%eax
  105831:	eb 13                	jmp    105846 <sys_mkdir+0x50>
/u/a/b/abhijith/CS537/p3a/xv6-sp20/kernel/sysfile.c:304
  105833:	83 ec 0c             	sub    $0xc,%esp
  105836:	ff 75 f4             	pushl  -0xc(%ebp)
  105839:	e8 cb c2 ff ff       	call   101b09 <iunlockput>
  10583e:	83 c4 10             	add    $0x10,%esp
/u/a/b/abhijith/CS537/p3a/xv6-sp20/kernel/sysfile.c:305
  105841:	b8 00 00 00 00       	mov    $0x0,%eax
/u/a/b/abhijith/CS537/p3a/xv6-sp20/kernel/sysfile.c:306 (discriminator 1)
  105846:	c9                   	leave  
  105847:	c3                   	ret    

00105848 <sys_mknod>:
sys_mknod():
/u/a/b/abhijith/CS537/p3a/xv6-sp20/kernel/sysfile.c:310
  105848:	55                   	push   %ebp
  105849:	89 e5                	mov    %esp,%ebp
  10584b:	83 ec 28             	sub    $0x28,%esp
/u/a/b/abhijith/CS537/p3a/xv6-sp20/kernel/sysfile.c:316
  10584e:	83 ec 08             	sub    $0x8,%esp
  105851:	8d 45 ec             	lea    -0x14(%ebp),%eax
  105854:	50                   	push   %eax
  105855:	6a 00                	push   $0x0
  105857:	e8 1f f5 ff ff       	call   104d7b <argstr>
  10585c:	83 c4 10             	add    $0x10,%esp
  10585f:	89 45 f4             	mov    %eax,-0xc(%ebp)
  105862:	83 7d f4 00          	cmpl   $0x0,-0xc(%ebp)
  105866:	78 4f                	js     1058b7 <sys_mknod+0x6f>
/u/a/b/abhijith/CS537/p3a/xv6-sp20/kernel/sysfile.c:317 (discriminator 1)
  105868:	83 ec 08             	sub    $0x8,%esp
  10586b:	8d 45 e8             	lea    -0x18(%ebp),%eax
  10586e:	50                   	push   %eax
  10586f:	6a 01                	push   $0x1
  105871:	e8 79 f4 ff ff       	call   104cef <argint>
  105876:	83 c4 10             	add    $0x10,%esp
/u/a/b/abhijith/CS537/p3a/xv6-sp20/kernel/sysfile.c:316 (discriminator 1)
  105879:	85 c0                	test   %eax,%eax
  10587b:	78 3a                	js     1058b7 <sys_mknod+0x6f>
/u/a/b/abhijith/CS537/p3a/xv6-sp20/kernel/sysfile.c:318
  10587d:	83 ec 08             	sub    $0x8,%esp
  105880:	8d 45 e4             	lea    -0x1c(%ebp),%eax
  105883:	50                   	push   %eax
  105884:	6a 02                	push   $0x2
  105886:	e8 64 f4 ff ff       	call   104cef <argint>
  10588b:	83 c4 10             	add    $0x10,%esp
/u/a/b/abhijith/CS537/p3a/xv6-sp20/kernel/sysfile.c:317
  10588e:	85 c0                	test   %eax,%eax
  105890:	78 25                	js     1058b7 <sys_mknod+0x6f>
/u/a/b/abhijith/CS537/p3a/xv6-sp20/kernel/sysfile.c:319
  105892:	8b 45 e4             	mov    -0x1c(%ebp),%eax
  105895:	0f bf c8             	movswl %ax,%ecx
  105898:	8b 45 e8             	mov    -0x18(%ebp),%eax
  10589b:	0f bf d0             	movswl %ax,%edx
  10589e:	8b 45 ec             	mov    -0x14(%ebp),%eax
/u/a/b/abhijith/CS537/p3a/xv6-sp20/kernel/sysfile.c:318
  1058a1:	51                   	push   %ecx
  1058a2:	52                   	push   %edx
  1058a3:	6a 03                	push   $0x3
  1058a5:	50                   	push   %eax
  1058a6:	e8 fa fb ff ff       	call   1054a5 <create>
  1058ab:	83 c4 10             	add    $0x10,%esp
  1058ae:	89 45 f0             	mov    %eax,-0x10(%ebp)
  1058b1:	83 7d f0 00          	cmpl   $0x0,-0x10(%ebp)
  1058b5:	75 07                	jne    1058be <sys_mknod+0x76>
/u/a/b/abhijith/CS537/p3a/xv6-sp20/kernel/sysfile.c:320
  1058b7:	b8 ff ff ff ff       	mov    $0xffffffff,%eax
  1058bc:	eb 13                	jmp    1058d1 <sys_mknod+0x89>
/u/a/b/abhijith/CS537/p3a/xv6-sp20/kernel/sysfile.c:321
  1058be:	83 ec 0c             	sub    $0xc,%esp
  1058c1:	ff 75 f0             	pushl  -0x10(%ebp)
  1058c4:	e8 40 c2 ff ff       	call   101b09 <iunlockput>
  1058c9:	83 c4 10             	add    $0x10,%esp
/u/a/b/abhijith/CS537/p3a/xv6-sp20/kernel/sysfile.c:322
  1058cc:	b8 00 00 00 00       	mov    $0x0,%eax
/u/a/b/abhijith/CS537/p3a/xv6-sp20/kernel/sysfile.c:323 (discriminator 1)
  1058d1:	c9                   	leave  
  1058d2:	c3                   	ret    

001058d3 <sys_chdir>:
sys_chdir():
/u/a/b/abhijith/CS537/p3a/xv6-sp20/kernel/sysfile.c:327
  1058d3:	55                   	push   %ebp
  1058d4:	89 e5                	mov    %esp,%ebp
  1058d6:	83 ec 18             	sub    $0x18,%esp
/u/a/b/abhijith/CS537/p3a/xv6-sp20/kernel/sysfile.c:331
  1058d9:	83 ec 08             	sub    $0x8,%esp
  1058dc:	8d 45 f0             	lea    -0x10(%ebp),%eax
  1058df:	50                   	push   %eax
  1058e0:	6a 00                	push   $0x0
  1058e2:	e8 94 f4 ff ff       	call   104d7b <argstr>
  1058e7:	83 c4 10             	add    $0x10,%esp
  1058ea:	85 c0                	test   %eax,%eax
  1058ec:	78 18                	js     105906 <sys_chdir+0x33>
/u/a/b/abhijith/CS537/p3a/xv6-sp20/kernel/sysfile.c:331 (discriminator 1)
  1058ee:	8b 45 f0             	mov    -0x10(%ebp),%eax
  1058f1:	83 ec 0c             	sub    $0xc,%esp
  1058f4:	50                   	push   %eax
  1058f5:	e8 6b cb ff ff       	call   102465 <namei>
  1058fa:	83 c4 10             	add    $0x10,%esp
  1058fd:	89 45 f4             	mov    %eax,-0xc(%ebp)
  105900:	83 7d f4 00          	cmpl   $0x0,-0xc(%ebp)
  105904:	75 07                	jne    10590d <sys_chdir+0x3a>
/u/a/b/abhijith/CS537/p3a/xv6-sp20/kernel/sysfile.c:332
  105906:	b8 ff ff ff ff       	mov    $0xffffffff,%eax
  10590b:	eb 64                	jmp    105971 <sys_chdir+0x9e>
/u/a/b/abhijith/CS537/p3a/xv6-sp20/kernel/sysfile.c:333
  10590d:	83 ec 0c             	sub    $0xc,%esp
  105910:	ff 75 f4             	pushl  -0xc(%ebp)
  105913:	e8 37 bf ff ff       	call   10184f <ilock>
  105918:	83 c4 10             	add    $0x10,%esp
/u/a/b/abhijith/CS537/p3a/xv6-sp20/kernel/sysfile.c:334
  10591b:	8b 45 f4             	mov    -0xc(%ebp),%eax
  10591e:	0f b7 40 10          	movzwl 0x10(%eax),%eax
  105922:	66 83 f8 01          	cmp    $0x1,%ax
  105926:	74 15                	je     10593d <sys_chdir+0x6a>
/u/a/b/abhijith/CS537/p3a/xv6-sp20/kernel/sysfile.c:335
  105928:	83 ec 0c             	sub    $0xc,%esp
  10592b:	ff 75 f4             	pushl  -0xc(%ebp)
  10592e:	e8 d6 c1 ff ff       	call   101b09 <iunlockput>
  105933:	83 c4 10             	add    $0x10,%esp
/u/a/b/abhijith/CS537/p3a/xv6-sp20/kernel/sysfile.c:336
  105936:	b8 ff ff ff ff       	mov    $0xffffffff,%eax
  10593b:	eb 34                	jmp    105971 <sys_chdir+0x9e>
/u/a/b/abhijith/CS537/p3a/xv6-sp20/kernel/sysfile.c:338
  10593d:	83 ec 0c             	sub    $0xc,%esp
  105940:	ff 75 f4             	pushl  -0xc(%ebp)
  105943:	e8 5f c0 ff ff       	call   1019a7 <iunlock>
  105948:	83 c4 10             	add    $0x10,%esp
/u/a/b/abhijith/CS537/p3a/xv6-sp20/kernel/sysfile.c:339
  10594b:	65 a1 04 00 00 00    	mov    %gs:0x4,%eax
  105951:	8b 40 68             	mov    0x68(%eax),%eax
  105954:	83 ec 0c             	sub    $0xc,%esp
  105957:	50                   	push   %eax
  105958:	e8 bc c0 ff ff       	call   101a19 <iput>
  10595d:	83 c4 10             	add    $0x10,%esp
/u/a/b/abhijith/CS537/p3a/xv6-sp20/kernel/sysfile.c:340
  105960:	65 a1 04 00 00 00    	mov    %gs:0x4,%eax
  105966:	8b 55 f4             	mov    -0xc(%ebp),%edx
  105969:	89 50 68             	mov    %edx,0x68(%eax)
/u/a/b/abhijith/CS537/p3a/xv6-sp20/kernel/sysfile.c:341
  10596c:	b8 00 00 00 00       	mov    $0x0,%eax
/u/a/b/abhijith/CS537/p3a/xv6-sp20/kernel/sysfile.c:342 (discriminator 1)
  105971:	c9                   	leave  
  105972:	c3                   	ret    

00105973 <sys_exec>:
sys_exec():
/u/a/b/abhijith/CS537/p3a/xv6-sp20/kernel/sysfile.c:346
  105973:	55                   	push   %ebp
  105974:	89 e5                	mov    %esp,%ebp
  105976:	81 ec 98 00 00 00    	sub    $0x98,%esp
/u/a/b/abhijith/CS537/p3a/xv6-sp20/kernel/sysfile.c:351
  10597c:	83 ec 08             	sub    $0x8,%esp
  10597f:	8d 45 f0             	lea    -0x10(%ebp),%eax
  105982:	50                   	push   %eax
  105983:	6a 00                	push   $0x0
  105985:	e8 f1 f3 ff ff       	call   104d7b <argstr>
  10598a:	83 c4 10             	add    $0x10,%esp
  10598d:	85 c0                	test   %eax,%eax
  10598f:	78 18                	js     1059a9 <sys_exec+0x36>
/u/a/b/abhijith/CS537/p3a/xv6-sp20/kernel/sysfile.c:351 (discriminator 1)
  105991:	83 ec 08             	sub    $0x8,%esp
  105994:	8d 85 6c ff ff ff    	lea    -0x94(%ebp),%eax
  10599a:	50                   	push   %eax
  10599b:	6a 01                	push   $0x1
  10599d:	e8 4d f3 ff ff       	call   104cef <argint>
  1059a2:	83 c4 10             	add    $0x10,%esp
  1059a5:	85 c0                	test   %eax,%eax
  1059a7:	79 0a                	jns    1059b3 <sys_exec+0x40>
/u/a/b/abhijith/CS537/p3a/xv6-sp20/kernel/sysfile.c:352
  1059a9:	b8 ff ff ff ff       	mov    $0xffffffff,%eax
  1059ae:	e9 d6 00 00 00       	jmp    105a89 <sys_exec+0x116>
/u/a/b/abhijith/CS537/p3a/xv6-sp20/kernel/sysfile.c:354
  1059b3:	83 ec 04             	sub    $0x4,%esp
  1059b6:	68 80 00 00 00       	push   $0x80
  1059bb:	6a 00                	push   $0x0
  1059bd:	8d 85 70 ff ff ff    	lea    -0x90(%ebp),%eax
  1059c3:	50                   	push   %eax
  1059c4:	e8 5a f0 ff ff       	call   104a23 <memset>
  1059c9:	83 c4 10             	add    $0x10,%esp
/u/a/b/abhijith/CS537/p3a/xv6-sp20/kernel/sysfile.c:355
  1059cc:	c7 45 f4 00 00 00 00 	movl   $0x0,-0xc(%ebp)
/u/a/b/abhijith/CS537/p3a/xv6-sp20/kernel/sysfile.c:356
  1059d3:	8b 45 f4             	mov    -0xc(%ebp),%eax
  1059d6:	83 f8 1f             	cmp    $0x1f,%eax
  1059d9:	76 0a                	jbe    1059e5 <sys_exec+0x72>
/u/a/b/abhijith/CS537/p3a/xv6-sp20/kernel/sysfile.c:357
  1059db:	b8 ff ff ff ff       	mov    $0xffffffff,%eax
  1059e0:	e9 a4 00 00 00       	jmp    105a89 <sys_exec+0x116>
/u/a/b/abhijith/CS537/p3a/xv6-sp20/kernel/sysfile.c:358
  1059e5:	8b 45 f4             	mov    -0xc(%ebp),%eax
  1059e8:	c1 e0 02             	shl    $0x2,%eax
  1059eb:	89 c2                	mov    %eax,%edx
  1059ed:	8b 85 6c ff ff ff    	mov    -0x94(%ebp),%eax
  1059f3:	8d 0c 02             	lea    (%edx,%eax,1),%ecx
  1059f6:	65 a1 04 00 00 00    	mov    %gs:0x4,%eax
  1059fc:	83 ec 04             	sub    $0x4,%esp
  1059ff:	8d 95 68 ff ff ff    	lea    -0x98(%ebp),%edx
  105a05:	52                   	push   %edx
  105a06:	51                   	push   %ecx
  105a07:	50                   	push   %eax
  105a08:	e8 52 f2 ff ff       	call   104c5f <fetchint>
  105a0d:	83 c4 10             	add    $0x10,%esp
  105a10:	85 c0                	test   %eax,%eax
  105a12:	79 07                	jns    105a1b <sys_exec+0xa8>
/u/a/b/abhijith/CS537/p3a/xv6-sp20/kernel/sysfile.c:359
  105a14:	b8 ff ff ff ff       	mov    $0xffffffff,%eax
  105a19:	eb 6e                	jmp    105a89 <sys_exec+0x116>
/u/a/b/abhijith/CS537/p3a/xv6-sp20/kernel/sysfile.c:360
  105a1b:	8b 85 68 ff ff ff    	mov    -0x98(%ebp),%eax
  105a21:	85 c0                	test   %eax,%eax
  105a23:	75 27                	jne    105a4c <sys_exec+0xd9>
/u/a/b/abhijith/CS537/p3a/xv6-sp20/kernel/sysfile.c:361
  105a25:	8b 45 f4             	mov    -0xc(%ebp),%eax
  105a28:	c7 84 85 70 ff ff ff 	movl   $0x0,-0x90(%ebp,%eax,4)
  105a2f:	00 00 00 00 
/u/a/b/abhijith/CS537/p3a/xv6-sp20/kernel/sysfile.c:362
  105a33:	90                   	nop
/u/a/b/abhijith/CS537/p3a/xv6-sp20/kernel/sysfile.c:367
  105a34:	8b 45 f0             	mov    -0x10(%ebp),%eax
  105a37:	83 ec 08             	sub    $0x8,%esp
  105a3a:	8d 95 70 ff ff ff    	lea    -0x90(%ebp),%edx
  105a40:	52                   	push   %edx
  105a41:	50                   	push   %eax
  105a42:	e8 29 b1 ff ff       	call   100b70 <exec>
  105a47:	83 c4 10             	add    $0x10,%esp
  105a4a:	eb 3d                	jmp    105a89 <sys_exec+0x116>
/u/a/b/abhijith/CS537/p3a/xv6-sp20/kernel/sysfile.c:364
  105a4c:	8d 85 70 ff ff ff    	lea    -0x90(%ebp),%eax
  105a52:	8b 55 f4             	mov    -0xc(%ebp),%edx
  105a55:	c1 e2 02             	shl    $0x2,%edx
  105a58:	8d 0c 10             	lea    (%eax,%edx,1),%ecx
  105a5b:	8b 95 68 ff ff ff    	mov    -0x98(%ebp),%edx
  105a61:	65 a1 04 00 00 00    	mov    %gs:0x4,%eax
  105a67:	83 ec 04             	sub    $0x4,%esp
  105a6a:	51                   	push   %ecx
  105a6b:	52                   	push   %edx
  105a6c:	50                   	push   %eax
  105a6d:	e8 21 f2 ff ff       	call   104c93 <fetchstr>
  105a72:	83 c4 10             	add    $0x10,%esp
  105a75:	85 c0                	test   %eax,%eax
  105a77:	79 07                	jns    105a80 <sys_exec+0x10d>
/u/a/b/abhijith/CS537/p3a/xv6-sp20/kernel/sysfile.c:365
  105a79:	b8 ff ff ff ff       	mov    $0xffffffff,%eax
  105a7e:	eb 09                	jmp    105a89 <sys_exec+0x116>
/u/a/b/abhijith/CS537/p3a/xv6-sp20/kernel/sysfile.c:355
  105a80:	83 45 f4 01          	addl   $0x1,-0xc(%ebp)
/u/a/b/abhijith/CS537/p3a/xv6-sp20/kernel/sysfile.c:356
  105a84:	e9 4a ff ff ff       	jmp    1059d3 <sys_exec+0x60>
/u/a/b/abhijith/CS537/p3a/xv6-sp20/kernel/sysfile.c:368 (discriminator 1)
  105a89:	c9                   	leave  
  105a8a:	c3                   	ret    

00105a8b <sys_mprotect>:
sys_mprotect():
/u/a/b/abhijith/CS537/p3a/xv6-sp20/kernel/sysfile.c:371
  105a8b:	55                   	push   %ebp
  105a8c:	89 e5                	mov    %esp,%ebp
  105a8e:	83 ec 18             	sub    $0x18,%esp
/u/a/b/abhijith/CS537/p3a/xv6-sp20/kernel/sysfile.c:375
  105a91:	83 ec 04             	sub    $0x4,%esp
  105a94:	6a 04                	push   $0x4
  105a96:	8d 45 f4             	lea    -0xc(%ebp),%eax
  105a99:	50                   	push   %eax
  105a9a:	6a 00                	push   $0x0
  105a9c:	e8 7d f2 ff ff       	call   104d1e <argptr>
  105aa1:	83 c4 10             	add    $0x10,%esp
  105aa4:	85 c0                	test   %eax,%eax
  105aa6:	75 15                	jne    105abd <sys_mprotect+0x32>
/u/a/b/abhijith/CS537/p3a/xv6-sp20/kernel/sysfile.c:375 (discriminator 1)
  105aa8:	83 ec 08             	sub    $0x8,%esp
  105aab:	8d 45 f0             	lea    -0x10(%ebp),%eax
  105aae:	50                   	push   %eax
  105aaf:	6a 01                	push   $0x1
  105ab1:	e8 39 f2 ff ff       	call   104cef <argint>
  105ab6:	83 c4 10             	add    $0x10,%esp
  105ab9:	85 c0                	test   %eax,%eax
  105abb:	74 07                	je     105ac4 <sys_mprotect+0x39>
/u/a/b/abhijith/CS537/p3a/xv6-sp20/kernel/sysfile.c:377
  105abd:	b8 ff ff ff ff       	mov    $0xffffffff,%eax
  105ac2:	eb 36                	jmp    105afa <sys_mprotect+0x6f>
/u/a/b/abhijith/CS537/p3a/xv6-sp20/kernel/sysfile.c:380
  105ac4:	8b 45 f4             	mov    -0xc(%ebp),%eax
  105ac7:	25 ff 0f 00 00       	and    $0xfff,%eax
  105acc:	85 c0                	test   %eax,%eax
  105ace:	75 07                	jne    105ad7 <sys_mprotect+0x4c>
/u/a/b/abhijith/CS537/p3a/xv6-sp20/kernel/sysfile.c:380 (discriminator 1)
  105ad0:	8b 45 f0             	mov    -0x10(%ebp),%eax
  105ad3:	85 c0                	test   %eax,%eax
  105ad5:	79 07                	jns    105ade <sys_mprotect+0x53>
/u/a/b/abhijith/CS537/p3a/xv6-sp20/kernel/sysfile.c:381
  105ad7:	b8 ff ff ff ff       	mov    $0xffffffff,%eax
  105adc:	eb 1c                	jmp    105afa <sys_mprotect+0x6f>
/u/a/b/abhijith/CS537/p3a/xv6-sp20/kernel/sysfile.c:383
  105ade:	8b 4d f0             	mov    -0x10(%ebp),%ecx
  105ae1:	8b 55 f4             	mov    -0xc(%ebp),%edx
  105ae4:	65 a1 04 00 00 00    	mov    %gs:0x4,%eax
  105aea:	8b 40 04             	mov    0x4(%eax),%eax
  105aed:	6a 00                	push   $0x0
  105aef:	51                   	push   %ecx
  105af0:	52                   	push   %edx
  105af1:	50                   	push   %eax
  105af2:	e8 d7 21 00 00       	call   107cce <vm_set_clear_readonly>
  105af7:	83 c4 10             	add    $0x10,%esp
/u/a/b/abhijith/CS537/p3a/xv6-sp20/kernel/sysfile.c:385 (discriminator 1)
  105afa:	c9                   	leave  
  105afb:	c3                   	ret    

00105afc <sys_munprotect>:
sys_munprotect():
/u/a/b/abhijith/CS537/p3a/xv6-sp20/kernel/sysfile.c:388
  105afc:	55                   	push   %ebp
  105afd:	89 e5                	mov    %esp,%ebp
  105aff:	83 ec 18             	sub    $0x18,%esp
/u/a/b/abhijith/CS537/p3a/xv6-sp20/kernel/sysfile.c:392
  105b02:	83 ec 04             	sub    $0x4,%esp
  105b05:	6a 04                	push   $0x4
  105b07:	8d 45 f4             	lea    -0xc(%ebp),%eax
  105b0a:	50                   	push   %eax
  105b0b:	6a 00                	push   $0x0
  105b0d:	e8 0c f2 ff ff       	call   104d1e <argptr>
  105b12:	83 c4 10             	add    $0x10,%esp
  105b15:	85 c0                	test   %eax,%eax
  105b17:	75 15                	jne    105b2e <sys_munprotect+0x32>
/u/a/b/abhijith/CS537/p3a/xv6-sp20/kernel/sysfile.c:392 (discriminator 1)
  105b19:	83 ec 08             	sub    $0x8,%esp
  105b1c:	8d 45 f0             	lea    -0x10(%ebp),%eax
  105b1f:	50                   	push   %eax
  105b20:	6a 01                	push   $0x1
  105b22:	e8 c8 f1 ff ff       	call   104cef <argint>
  105b27:	83 c4 10             	add    $0x10,%esp
  105b2a:	85 c0                	test   %eax,%eax
  105b2c:	74 07                	je     105b35 <sys_munprotect+0x39>
/u/a/b/abhijith/CS537/p3a/xv6-sp20/kernel/sysfile.c:394
  105b2e:	b8 ff ff ff ff       	mov    $0xffffffff,%eax
  105b33:	eb 36                	jmp    105b6b <sys_munprotect+0x6f>
/u/a/b/abhijith/CS537/p3a/xv6-sp20/kernel/sysfile.c:397
  105b35:	8b 45 f4             	mov    -0xc(%ebp),%eax
  105b38:	25 ff 0f 00 00       	and    $0xfff,%eax
  105b3d:	85 c0                	test   %eax,%eax
  105b3f:	75 07                	jne    105b48 <sys_munprotect+0x4c>
/u/a/b/abhijith/CS537/p3a/xv6-sp20/kernel/sysfile.c:397 (discriminator 1)
  105b41:	8b 45 f0             	mov    -0x10(%ebp),%eax
  105b44:	85 c0                	test   %eax,%eax
  105b46:	79 07                	jns    105b4f <sys_munprotect+0x53>
/u/a/b/abhijith/CS537/p3a/xv6-sp20/kernel/sysfile.c:398
  105b48:	b8 ff ff ff ff       	mov    $0xffffffff,%eax
  105b4d:	eb 1c                	jmp    105b6b <sys_munprotect+0x6f>
/u/a/b/abhijith/CS537/p3a/xv6-sp20/kernel/sysfile.c:400
  105b4f:	8b 4d f0             	mov    -0x10(%ebp),%ecx
  105b52:	8b 55 f4             	mov    -0xc(%ebp),%edx
  105b55:	65 a1 04 00 00 00    	mov    %gs:0x4,%eax
  105b5b:	8b 40 04             	mov    0x4(%eax),%eax
  105b5e:	6a 01                	push   $0x1
  105b60:	51                   	push   %ecx
  105b61:	52                   	push   %edx
  105b62:	50                   	push   %eax
  105b63:	e8 66 21 00 00       	call   107cce <vm_set_clear_readonly>
  105b68:	83 c4 10             	add    $0x10,%esp
/u/a/b/abhijith/CS537/p3a/xv6-sp20/kernel/sysfile.c:401 (discriminator 1)
  105b6b:	c9                   	leave  
  105b6c:	c3                   	ret    

00105b6d <sys_dump_allocated>:
sys_dump_allocated():
/u/a/b/abhijith/CS537/p3a/xv6-sp20/kernel/sysfile.c:404
  105b6d:	55                   	push   %ebp
  105b6e:	89 e5                	mov    %esp,%ebp
  105b70:	83 ec 18             	sub    $0x18,%esp
/u/a/b/abhijith/CS537/p3a/xv6-sp20/kernel/sysfile.c:409
  105b73:	83 ec 04             	sub    $0x4,%esp
  105b76:	6a 04                	push   $0x4
  105b78:	8d 45 f4             	lea    -0xc(%ebp),%eax
  105b7b:	50                   	push   %eax
  105b7c:	6a 00                	push   $0x0
  105b7e:	e8 9b f1 ff ff       	call   104d1e <argptr>
  105b83:	83 c4 10             	add    $0x10,%esp
  105b86:	85 c0                	test   %eax,%eax
  105b88:	75 15                	jne    105b9f <sys_dump_allocated+0x32>
/u/a/b/abhijith/CS537/p3a/xv6-sp20/kernel/sysfile.c:409 (discriminator 1)
  105b8a:	83 ec 08             	sub    $0x8,%esp
  105b8d:	8d 45 f0             	lea    -0x10(%ebp),%eax
  105b90:	50                   	push   %eax
  105b91:	6a 01                	push   $0x1
  105b93:	e8 57 f1 ff ff       	call   104cef <argint>
  105b98:	83 c4 10             	add    $0x10,%esp
  105b9b:	85 c0                	test   %eax,%eax
  105b9d:	74 07                	je     105ba6 <sys_dump_allocated+0x39>
/u/a/b/abhijith/CS537/p3a/xv6-sp20/kernel/sysfile.c:411
  105b9f:	b8 ff ff ff ff       	mov    $0xffffffff,%eax
  105ba4:	eb 13                	jmp    105bb9 <sys_dump_allocated+0x4c>
/u/a/b/abhijith/CS537/p3a/xv6-sp20/kernel/sysfile.c:415
  105ba6:	8b 55 f0             	mov    -0x10(%ebp),%edx
  105ba9:	8b 45 f4             	mov    -0xc(%ebp),%eax
  105bac:	83 ec 08             	sub    $0x8,%esp
  105baf:	52                   	push   %edx
  105bb0:	50                   	push   %eax
  105bb1:	e8 2b d0 ff ff       	call   102be1 <kalloc_dump_allocated>
  105bb6:	83 c4 10             	add    $0x10,%esp
/u/a/b/abhijith/CS537/p3a/xv6-sp20/kernel/sysfile.c:418 (discriminator 1)
  105bb9:	c9                   	leave  
  105bba:	c3                   	ret    

00105bbb <sys_pipe>:
sys_pipe():
/u/a/b/abhijith/CS537/p3a/xv6-sp20/kernel/sysfile.c:422
  105bbb:	55                   	push   %ebp
  105bbc:	89 e5                	mov    %esp,%ebp
  105bbe:	83 ec 28             	sub    $0x28,%esp
/u/a/b/abhijith/CS537/p3a/xv6-sp20/kernel/sysfile.c:427
  105bc1:	83 ec 04             	sub    $0x4,%esp
  105bc4:	6a 08                	push   $0x8
  105bc6:	8d 45 ec             	lea    -0x14(%ebp),%eax
  105bc9:	50                   	push   %eax
  105bca:	6a 00                	push   $0x0
  105bcc:	e8 4d f1 ff ff       	call   104d1e <argptr>
  105bd1:	83 c4 10             	add    $0x10,%esp
  105bd4:	85 c0                	test   %eax,%eax
  105bd6:	79 0a                	jns    105be2 <sys_pipe+0x27>
/u/a/b/abhijith/CS537/p3a/xv6-sp20/kernel/sysfile.c:428
  105bd8:	b8 ff ff ff ff       	mov    $0xffffffff,%eax
  105bdd:	e9 af 00 00 00       	jmp    105c91 <sys_pipe+0xd6>
/u/a/b/abhijith/CS537/p3a/xv6-sp20/kernel/sysfile.c:429
  105be2:	83 ec 08             	sub    $0x8,%esp
  105be5:	8d 45 e4             	lea    -0x1c(%ebp),%eax
  105be8:	50                   	push   %eax
  105be9:	8d 45 e8             	lea    -0x18(%ebp),%eax
  105bec:	50                   	push   %eax
  105bed:	e8 68 dc ff ff       	call   10385a <pipealloc>
  105bf2:	83 c4 10             	add    $0x10,%esp
  105bf5:	85 c0                	test   %eax,%eax
  105bf7:	79 0a                	jns    105c03 <sys_pipe+0x48>
/u/a/b/abhijith/CS537/p3a/xv6-sp20/kernel/sysfile.c:430
  105bf9:	b8 ff ff ff ff       	mov    $0xffffffff,%eax
  105bfe:	e9 8e 00 00 00       	jmp    105c91 <sys_pipe+0xd6>
/u/a/b/abhijith/CS537/p3a/xv6-sp20/kernel/sysfile.c:431
  105c03:	c7 45 f4 ff ff ff ff 	movl   $0xffffffff,-0xc(%ebp)
/u/a/b/abhijith/CS537/p3a/xv6-sp20/kernel/sysfile.c:432
  105c0a:	8b 45 e8             	mov    -0x18(%ebp),%eax
  105c0d:	83 ec 0c             	sub    $0xc,%esp
  105c10:	50                   	push   %eax
  105c11:	e8 98 f2 ff ff       	call   104eae <fdalloc>
  105c16:	83 c4 10             	add    $0x10,%esp
  105c19:	89 45 f4             	mov    %eax,-0xc(%ebp)
  105c1c:	83 7d f4 00          	cmpl   $0x0,-0xc(%ebp)
  105c20:	78 18                	js     105c3a <sys_pipe+0x7f>
/u/a/b/abhijith/CS537/p3a/xv6-sp20/kernel/sysfile.c:432 (discriminator 1)
  105c22:	8b 45 e4             	mov    -0x1c(%ebp),%eax
  105c25:	83 ec 0c             	sub    $0xc,%esp
  105c28:	50                   	push   %eax
  105c29:	e8 80 f2 ff ff       	call   104eae <fdalloc>
  105c2e:	83 c4 10             	add    $0x10,%esp
  105c31:	89 45 f0             	mov    %eax,-0x10(%ebp)
  105c34:	83 7d f0 00          	cmpl   $0x0,-0x10(%ebp)
  105c38:	79 3f                	jns    105c79 <sys_pipe+0xbe>
/u/a/b/abhijith/CS537/p3a/xv6-sp20/kernel/sysfile.c:433
  105c3a:	83 7d f4 00          	cmpl   $0x0,-0xc(%ebp)
  105c3e:	78 14                	js     105c54 <sys_pipe+0x99>
/u/a/b/abhijith/CS537/p3a/xv6-sp20/kernel/sysfile.c:434
  105c40:	65 a1 04 00 00 00    	mov    %gs:0x4,%eax
  105c46:	8b 55 f4             	mov    -0xc(%ebp),%edx
  105c49:	83 c2 08             	add    $0x8,%edx
  105c4c:	c7 44 90 08 00 00 00 	movl   $0x0,0x8(%eax,%edx,4)
  105c53:	00 
/u/a/b/abhijith/CS537/p3a/xv6-sp20/kernel/sysfile.c:435
  105c54:	8b 45 e8             	mov    -0x18(%ebp),%eax
  105c57:	83 ec 0c             	sub    $0xc,%esp
  105c5a:	50                   	push   %eax
  105c5b:	e8 bf b3 ff ff       	call   10101f <fileclose>
  105c60:	83 c4 10             	add    $0x10,%esp
/u/a/b/abhijith/CS537/p3a/xv6-sp20/kernel/sysfile.c:436
  105c63:	8b 45 e4             	mov    -0x1c(%ebp),%eax
  105c66:	83 ec 0c             	sub    $0xc,%esp
  105c69:	50                   	push   %eax
  105c6a:	e8 b0 b3 ff ff       	call   10101f <fileclose>
  105c6f:	83 c4 10             	add    $0x10,%esp
/u/a/b/abhijith/CS537/p3a/xv6-sp20/kernel/sysfile.c:437
  105c72:	b8 ff ff ff ff       	mov    $0xffffffff,%eax
  105c77:	eb 18                	jmp    105c91 <sys_pipe+0xd6>
/u/a/b/abhijith/CS537/p3a/xv6-sp20/kernel/sysfile.c:439
  105c79:	8b 45 ec             	mov    -0x14(%ebp),%eax
  105c7c:	8b 55 f4             	mov    -0xc(%ebp),%edx
  105c7f:	89 10                	mov    %edx,(%eax)
/u/a/b/abhijith/CS537/p3a/xv6-sp20/kernel/sysfile.c:440
  105c81:	8b 45 ec             	mov    -0x14(%ebp),%eax
  105c84:	8d 50 04             	lea    0x4(%eax),%edx
  105c87:	8b 45 f0             	mov    -0x10(%ebp),%eax
  105c8a:	89 02                	mov    %eax,(%edx)
/u/a/b/abhijith/CS537/p3a/xv6-sp20/kernel/sysfile.c:441
  105c8c:	b8 00 00 00 00       	mov    $0x0,%eax
/u/a/b/abhijith/CS537/p3a/xv6-sp20/kernel/sysfile.c:442 (discriminator 1)
  105c91:	c9                   	leave  
  105c92:	c3                   	ret    

00105c93 <sys_fork>:
sys_fork():
/u/a/b/abhijith/CS537/p3a/xv6-sp20/kernel/sysproc.c:11
  105c93:	55                   	push   %ebp
  105c94:	89 e5                	mov    %esp,%ebp
  105c96:	83 ec 08             	sub    $0x8,%esp
/u/a/b/abhijith/CS537/p3a/xv6-sp20/kernel/sysproc.c:12
  105c99:	e8 d5 e2 ff ff       	call   103f73 <fork>
/u/a/b/abhijith/CS537/p3a/xv6-sp20/kernel/sysproc.c:13
  105c9e:	c9                   	leave  
  105c9f:	c3                   	ret    

00105ca0 <sys_exit>:
sys_exit():
/u/a/b/abhijith/CS537/p3a/xv6-sp20/kernel/sysproc.c:17
  105ca0:	55                   	push   %ebp
  105ca1:	89 e5                	mov    %esp,%ebp
  105ca3:	83 ec 08             	sub    $0x8,%esp
/u/a/b/abhijith/CS537/p3a/xv6-sp20/kernel/sysproc.c:18
  105ca6:	e8 3b e4 ff ff       	call   1040e6 <exit>
/u/a/b/abhijith/CS537/p3a/xv6-sp20/kernel/sysproc.c:19
  105cab:	b8 00 00 00 00       	mov    $0x0,%eax
/u/a/b/abhijith/CS537/p3a/xv6-sp20/kernel/sysproc.c:20
  105cb0:	c9                   	leave  
  105cb1:	c3                   	ret    

00105cb2 <sys_wait>:
sys_wait():
/u/a/b/abhijith/CS537/p3a/xv6-sp20/kernel/sysproc.c:24
  105cb2:	55                   	push   %ebp
  105cb3:	89 e5                	mov    %esp,%ebp
  105cb5:	83 ec 08             	sub    $0x8,%esp
/u/a/b/abhijith/CS537/p3a/xv6-sp20/kernel/sysproc.c:25
  105cb8:	e8 57 e5 ff ff       	call   104214 <wait>
/u/a/b/abhijith/CS537/p3a/xv6-sp20/kernel/sysproc.c:26
  105cbd:	c9                   	leave  
  105cbe:	c3                   	ret    

00105cbf <sys_kill>:
sys_kill():
/u/a/b/abhijith/CS537/p3a/xv6-sp20/kernel/sysproc.c:30
  105cbf:	55                   	push   %ebp
  105cc0:	89 e5                	mov    %esp,%ebp
  105cc2:	83 ec 18             	sub    $0x18,%esp
/u/a/b/abhijith/CS537/p3a/xv6-sp20/kernel/sysproc.c:33
  105cc5:	83 ec 08             	sub    $0x8,%esp
  105cc8:	8d 45 f4             	lea    -0xc(%ebp),%eax
  105ccb:	50                   	push   %eax
  105ccc:	6a 00                	push   $0x0
  105cce:	e8 1c f0 ff ff       	call   104cef <argint>
  105cd3:	83 c4 10             	add    $0x10,%esp
  105cd6:	85 c0                	test   %eax,%eax
  105cd8:	79 07                	jns    105ce1 <sys_kill+0x22>
/u/a/b/abhijith/CS537/p3a/xv6-sp20/kernel/sysproc.c:34
  105cda:	b8 ff ff ff ff       	mov    $0xffffffff,%eax
  105cdf:	eb 0f                	jmp    105cf0 <sys_kill+0x31>
/u/a/b/abhijith/CS537/p3a/xv6-sp20/kernel/sysproc.c:35
  105ce1:	8b 45 f4             	mov    -0xc(%ebp),%eax
  105ce4:	83 ec 0c             	sub    $0xc,%esp
  105ce7:	50                   	push   %eax
  105ce8:	e8 22 e9 ff ff       	call   10460f <kill>
  105ced:	83 c4 10             	add    $0x10,%esp
/u/a/b/abhijith/CS537/p3a/xv6-sp20/kernel/sysproc.c:36 (discriminator 1)
  105cf0:	c9                   	leave  
  105cf1:	c3                   	ret    

00105cf2 <sys_getpid>:
sys_getpid():
/u/a/b/abhijith/CS537/p3a/xv6-sp20/kernel/sysproc.c:40
  105cf2:	55                   	push   %ebp
  105cf3:	89 e5                	mov    %esp,%ebp
/u/a/b/abhijith/CS537/p3a/xv6-sp20/kernel/sysproc.c:41
  105cf5:	65 a1 04 00 00 00    	mov    %gs:0x4,%eax
  105cfb:	8b 40 10             	mov    0x10(%eax),%eax
/u/a/b/abhijith/CS537/p3a/xv6-sp20/kernel/sysproc.c:42
  105cfe:	5d                   	pop    %ebp
  105cff:	c3                   	ret    

00105d00 <sys_sbrk>:
sys_sbrk():
/u/a/b/abhijith/CS537/p3a/xv6-sp20/kernel/sysproc.c:46
  105d00:	55                   	push   %ebp
  105d01:	89 e5                	mov    %esp,%ebp
  105d03:	83 ec 18             	sub    $0x18,%esp
/u/a/b/abhijith/CS537/p3a/xv6-sp20/kernel/sysproc.c:50
  105d06:	83 ec 08             	sub    $0x8,%esp
  105d09:	8d 45 f0             	lea    -0x10(%ebp),%eax
  105d0c:	50                   	push   %eax
  105d0d:	6a 00                	push   $0x0
  105d0f:	e8 db ef ff ff       	call   104cef <argint>
  105d14:	83 c4 10             	add    $0x10,%esp
  105d17:	85 c0                	test   %eax,%eax
  105d19:	79 07                	jns    105d22 <sys_sbrk+0x22>
/u/a/b/abhijith/CS537/p3a/xv6-sp20/kernel/sysproc.c:51
  105d1b:	b8 ff ff ff ff       	mov    $0xffffffff,%eax
  105d20:	eb 28                	jmp    105d4a <sys_sbrk+0x4a>
/u/a/b/abhijith/CS537/p3a/xv6-sp20/kernel/sysproc.c:52
  105d22:	65 a1 04 00 00 00    	mov    %gs:0x4,%eax
  105d28:	8b 00                	mov    (%eax),%eax
  105d2a:	89 45 f4             	mov    %eax,-0xc(%ebp)
/u/a/b/abhijith/CS537/p3a/xv6-sp20/kernel/sysproc.c:53
  105d2d:	8b 45 f0             	mov    -0x10(%ebp),%eax
  105d30:	83 ec 0c             	sub    $0xc,%esp
  105d33:	50                   	push   %eax
  105d34:	e8 97 e1 ff ff       	call   103ed0 <growproc>
  105d39:	83 c4 10             	add    $0x10,%esp
  105d3c:	85 c0                	test   %eax,%eax
  105d3e:	79 07                	jns    105d47 <sys_sbrk+0x47>
/u/a/b/abhijith/CS537/p3a/xv6-sp20/kernel/sysproc.c:54
  105d40:	b8 ff ff ff ff       	mov    $0xffffffff,%eax
  105d45:	eb 03                	jmp    105d4a <sys_sbrk+0x4a>
/u/a/b/abhijith/CS537/p3a/xv6-sp20/kernel/sysproc.c:55
  105d47:	8b 45 f4             	mov    -0xc(%ebp),%eax
/u/a/b/abhijith/CS537/p3a/xv6-sp20/kernel/sysproc.c:56 (discriminator 1)
  105d4a:	c9                   	leave  
  105d4b:	c3                   	ret    

00105d4c <sys_sleep>:
sys_sleep():
/u/a/b/abhijith/CS537/p3a/xv6-sp20/kernel/sysproc.c:60
  105d4c:	55                   	push   %ebp
  105d4d:	89 e5                	mov    %esp,%ebp
  105d4f:	83 ec 18             	sub    $0x18,%esp
/u/a/b/abhijith/CS537/p3a/xv6-sp20/kernel/sysproc.c:64
  105d52:	83 ec 08             	sub    $0x8,%esp
  105d55:	8d 45 f0             	lea    -0x10(%ebp),%eax
  105d58:	50                   	push   %eax
  105d59:	6a 00                	push   $0x0
  105d5b:	e8 8f ef ff ff       	call   104cef <argint>
  105d60:	83 c4 10             	add    $0x10,%esp
  105d63:	85 c0                	test   %eax,%eax
  105d65:	79 07                	jns    105d6e <sys_sleep+0x22>
/u/a/b/abhijith/CS537/p3a/xv6-sp20/kernel/sysproc.c:65
  105d67:	b8 ff ff ff ff       	mov    $0xffffffff,%eax
  105d6c:	eb 77                	jmp    105de5 <sys_sleep+0x99>
/u/a/b/abhijith/CS537/p3a/xv6-sp20/kernel/sysproc.c:66
  105d6e:	83 ec 0c             	sub    $0xc,%esp
  105d71:	68 00 23 11 00       	push   $0x112300
  105d76:	e8 6b ea ff ff       	call   1047e6 <acquire>
  105d7b:	83 c4 10             	add    $0x10,%esp
/u/a/b/abhijith/CS537/p3a/xv6-sp20/kernel/sysproc.c:67
  105d7e:	a1 40 2b 11 00       	mov    0x112b40,%eax
  105d83:	89 45 f4             	mov    %eax,-0xc(%ebp)
/u/a/b/abhijith/CS537/p3a/xv6-sp20/kernel/sysproc.c:68
  105d86:	eb 39                	jmp    105dc1 <sys_sleep+0x75>
/u/a/b/abhijith/CS537/p3a/xv6-sp20/kernel/sysproc.c:69
  105d88:	65 a1 04 00 00 00    	mov    %gs:0x4,%eax
  105d8e:	8b 40 24             	mov    0x24(%eax),%eax
  105d91:	85 c0                	test   %eax,%eax
  105d93:	74 17                	je     105dac <sys_sleep+0x60>
/u/a/b/abhijith/CS537/p3a/xv6-sp20/kernel/sysproc.c:70
  105d95:	83 ec 0c             	sub    $0xc,%esp
  105d98:	68 00 23 11 00       	push   $0x112300
  105d9d:	e8 ab ea ff ff       	call   10484d <release>
  105da2:	83 c4 10             	add    $0x10,%esp
/u/a/b/abhijith/CS537/p3a/xv6-sp20/kernel/sysproc.c:71
  105da5:	b8 ff ff ff ff       	mov    $0xffffffff,%eax
  105daa:	eb 39                	jmp    105de5 <sys_sleep+0x99>
/u/a/b/abhijith/CS537/p3a/xv6-sp20/kernel/sysproc.c:73
  105dac:	83 ec 08             	sub    $0x8,%esp
  105daf:	68 00 23 11 00       	push   $0x112300
  105db4:	68 40 2b 11 00       	push   $0x112b40
  105db9:	e8 2f e7 ff ff       	call   1044ed <sleep>
  105dbe:	83 c4 10             	add    $0x10,%esp
/u/a/b/abhijith/CS537/p3a/xv6-sp20/kernel/sysproc.c:68
  105dc1:	a1 40 2b 11 00       	mov    0x112b40,%eax
  105dc6:	2b 45 f4             	sub    -0xc(%ebp),%eax
  105dc9:	8b 55 f0             	mov    -0x10(%ebp),%edx
  105dcc:	39 d0                	cmp    %edx,%eax
  105dce:	72 b8                	jb     105d88 <sys_sleep+0x3c>
/u/a/b/abhijith/CS537/p3a/xv6-sp20/kernel/sysproc.c:75
  105dd0:	83 ec 0c             	sub    $0xc,%esp
  105dd3:	68 00 23 11 00       	push   $0x112300
  105dd8:	e8 70 ea ff ff       	call   10484d <release>
  105ddd:	83 c4 10             	add    $0x10,%esp
/u/a/b/abhijith/CS537/p3a/xv6-sp20/kernel/sysproc.c:76
  105de0:	b8 00 00 00 00       	mov    $0x0,%eax
/u/a/b/abhijith/CS537/p3a/xv6-sp20/kernel/sysproc.c:77 (discriminator 1)
  105de5:	c9                   	leave  
  105de6:	c3                   	ret    

00105de7 <sys_uptime>:
sys_uptime():
/u/a/b/abhijith/CS537/p3a/xv6-sp20/kernel/sysproc.c:83
  105de7:	55                   	push   %ebp
  105de8:	89 e5                	mov    %esp,%ebp
  105dea:	83 ec 18             	sub    $0x18,%esp
/u/a/b/abhijith/CS537/p3a/xv6-sp20/kernel/sysproc.c:86
  105ded:	83 ec 0c             	sub    $0xc,%esp
  105df0:	68 00 23 11 00       	push   $0x112300
  105df5:	e8 ec e9 ff ff       	call   1047e6 <acquire>
  105dfa:	83 c4 10             	add    $0x10,%esp
/u/a/b/abhijith/CS537/p3a/xv6-sp20/kernel/sysproc.c:87
  105dfd:	a1 40 2b 11 00       	mov    0x112b40,%eax
  105e02:	89 45 f4             	mov    %eax,-0xc(%ebp)
/u/a/b/abhijith/CS537/p3a/xv6-sp20/kernel/sysproc.c:88
  105e05:	83 ec 0c             	sub    $0xc,%esp
  105e08:	68 00 23 11 00       	push   $0x112300
  105e0d:	e8 3b ea ff ff       	call   10484d <release>
  105e12:	83 c4 10             	add    $0x10,%esp
/u/a/b/abhijith/CS537/p3a/xv6-sp20/kernel/sysproc.c:89
  105e15:	8b 45 f4             	mov    -0xc(%ebp),%eax
/u/a/b/abhijith/CS537/p3a/xv6-sp20/kernel/sysproc.c:90
  105e18:	c9                   	leave  
  105e19:	c3                   	ret    

00105e1a <outb>:
outb():
/u/a/b/abhijith/CS537/p3a/xv6-sp20/include/x86.h:25
  105e1a:	55                   	push   %ebp
  105e1b:	89 e5                	mov    %esp,%ebp
  105e1d:	83 ec 08             	sub    $0x8,%esp
  105e20:	8b 55 08             	mov    0x8(%ebp),%edx
  105e23:	8b 45 0c             	mov    0xc(%ebp),%eax
  105e26:	66 89 55 fc          	mov    %dx,-0x4(%ebp)
  105e2a:	88 45 f8             	mov    %al,-0x8(%ebp)
/u/a/b/abhijith/CS537/p3a/xv6-sp20/include/x86.h:26
  105e2d:	0f b6 45 f8          	movzbl -0x8(%ebp),%eax
  105e31:	0f b7 55 fc          	movzwl -0x4(%ebp),%edx
  105e35:	ee                   	out    %al,(%dx)
/u/a/b/abhijith/CS537/p3a/xv6-sp20/include/x86.h:27
  105e36:	90                   	nop
  105e37:	c9                   	leave  
  105e38:	c3                   	ret    

00105e39 <timerinit>:
timerinit():
/u/a/b/abhijith/CS537/p3a/xv6-sp20/kernel/timer.c:26
  105e39:	55                   	push   %ebp
  105e3a:	89 e5                	mov    %esp,%ebp
  105e3c:	83 ec 08             	sub    $0x8,%esp
/u/a/b/abhijith/CS537/p3a/xv6-sp20/kernel/timer.c:28
  105e3f:	6a 34                	push   $0x34
  105e41:	6a 43                	push   $0x43
  105e43:	e8 d2 ff ff ff       	call   105e1a <outb>
  105e48:	83 c4 08             	add    $0x8,%esp
/u/a/b/abhijith/CS537/p3a/xv6-sp20/kernel/timer.c:29
  105e4b:	68 9c 00 00 00       	push   $0x9c
  105e50:	6a 40                	push   $0x40
  105e52:	e8 c3 ff ff ff       	call   105e1a <outb>
  105e57:	83 c4 08             	add    $0x8,%esp
/u/a/b/abhijith/CS537/p3a/xv6-sp20/kernel/timer.c:30
  105e5a:	6a 2e                	push   $0x2e
  105e5c:	6a 40                	push   $0x40
  105e5e:	e8 b7 ff ff ff       	call   105e1a <outb>
  105e63:	83 c4 08             	add    $0x8,%esp
/u/a/b/abhijith/CS537/p3a/xv6-sp20/kernel/timer.c:31
  105e66:	83 ec 0c             	sub    $0xc,%esp
  105e69:	6a 00                	push   $0x0
  105e6b:	e8 d4 d8 ff ff       	call   103744 <picenable>
  105e70:	83 c4 10             	add    $0x10,%esp
/u/a/b/abhijith/CS537/p3a/xv6-sp20/kernel/timer.c:32
  105e73:	90                   	nop
  105e74:	c9                   	leave  
  105e75:	c3                   	ret    

00105e76 <alltraps>:
alltraps():
/u/a/b/abhijith/CS537/p3a/xv6-sp20/kernel/trapasm.S:9
  105e76:	1e                   	push   %ds
/u/a/b/abhijith/CS537/p3a/xv6-sp20/kernel/trapasm.S:10
  105e77:	06                   	push   %es
/u/a/b/abhijith/CS537/p3a/xv6-sp20/kernel/trapasm.S:11
  105e78:	0f a0                	push   %fs
/u/a/b/abhijith/CS537/p3a/xv6-sp20/kernel/trapasm.S:12
  105e7a:	0f a8                	push   %gs
/u/a/b/abhijith/CS537/p3a/xv6-sp20/kernel/trapasm.S:13
  105e7c:	60                   	pusha  
/u/a/b/abhijith/CS537/p3a/xv6-sp20/kernel/trapasm.S:16
  105e7d:	66 b8 10 00          	mov    $0x10,%ax
/u/a/b/abhijith/CS537/p3a/xv6-sp20/kernel/trapasm.S:17
  105e81:	8e d8                	mov    %eax,%ds
/u/a/b/abhijith/CS537/p3a/xv6-sp20/kernel/trapasm.S:18
  105e83:	8e c0                	mov    %eax,%es
/u/a/b/abhijith/CS537/p3a/xv6-sp20/kernel/trapasm.S:19
  105e85:	66 b8 18 00          	mov    $0x18,%ax
/u/a/b/abhijith/CS537/p3a/xv6-sp20/kernel/trapasm.S:20
  105e89:	8e e0                	mov    %eax,%fs
/u/a/b/abhijith/CS537/p3a/xv6-sp20/kernel/trapasm.S:21
  105e8b:	8e e8                	mov    %eax,%gs
/u/a/b/abhijith/CS537/p3a/xv6-sp20/kernel/trapasm.S:24
  105e8d:	54                   	push   %esp
/u/a/b/abhijith/CS537/p3a/xv6-sp20/kernel/trapasm.S:25
  105e8e:	e8 d7 01 00 00       	call   10606a <trap>
/u/a/b/abhijith/CS537/p3a/xv6-sp20/kernel/trapasm.S:26
  105e93:	83 c4 04             	add    $0x4,%esp

00105e96 <trapret>:
trapret():
/u/a/b/abhijith/CS537/p3a/xv6-sp20/kernel/trapasm.S:31
  105e96:	61                   	popa   
/u/a/b/abhijith/CS537/p3a/xv6-sp20/kernel/trapasm.S:32
  105e97:	0f a9                	pop    %gs
/u/a/b/abhijith/CS537/p3a/xv6-sp20/kernel/trapasm.S:33
  105e99:	0f a1                	pop    %fs
/u/a/b/abhijith/CS537/p3a/xv6-sp20/kernel/trapasm.S:34
  105e9b:	07                   	pop    %es
/u/a/b/abhijith/CS537/p3a/xv6-sp20/kernel/trapasm.S:35
  105e9c:	1f                   	pop    %ds
/u/a/b/abhijith/CS537/p3a/xv6-sp20/kernel/trapasm.S:36
  105e9d:	83 c4 08             	add    $0x8,%esp
/u/a/b/abhijith/CS537/p3a/xv6-sp20/kernel/trapasm.S:37
  105ea0:	cf                   	iret   

00105ea1 <lidt>:
lidt():
/u/a/b/abhijith/CS537/p3a/xv6-sp20/include/x86.h:71
  105ea1:	55                   	push   %ebp
  105ea2:	89 e5                	mov    %esp,%ebp
  105ea4:	83 ec 10             	sub    $0x10,%esp
/u/a/b/abhijith/CS537/p3a/xv6-sp20/include/x86.h:74
  105ea7:	8b 45 0c             	mov    0xc(%ebp),%eax
  105eaa:	83 e8 01             	sub    $0x1,%eax
  105ead:	66 89 45 fa          	mov    %ax,-0x6(%ebp)
/u/a/b/abhijith/CS537/p3a/xv6-sp20/include/x86.h:75
  105eb1:	8b 45 08             	mov    0x8(%ebp),%eax
  105eb4:	66 89 45 fc          	mov    %ax,-0x4(%ebp)
/u/a/b/abhijith/CS537/p3a/xv6-sp20/include/x86.h:76
  105eb8:	8b 45 08             	mov    0x8(%ebp),%eax
  105ebb:	c1 e8 10             	shr    $0x10,%eax
  105ebe:	66 89 45 fe          	mov    %ax,-0x2(%ebp)
/u/a/b/abhijith/CS537/p3a/xv6-sp20/include/x86.h:78
  105ec2:	8d 45 fa             	lea    -0x6(%ebp),%eax
  105ec5:	0f 01 18             	lidtl  (%eax)
/u/a/b/abhijith/CS537/p3a/xv6-sp20/include/x86.h:79
  105ec8:	90                   	nop
  105ec9:	c9                   	leave  
  105eca:	c3                   	ret    

00105ecb <rcr2>:
rcr2():
/u/a/b/abhijith/CS537/p3a/xv6-sp20/include/x86.h:158
  105ecb:	55                   	push   %ebp
  105ecc:	89 e5                	mov    %esp,%ebp
  105ece:	83 ec 10             	sub    $0x10,%esp
/u/a/b/abhijith/CS537/p3a/xv6-sp20/include/x86.h:160
  105ed1:	0f 20 d0             	mov    %cr2,%eax
  105ed4:	89 45 fc             	mov    %eax,-0x4(%ebp)
/u/a/b/abhijith/CS537/p3a/xv6-sp20/include/x86.h:161
  105ed7:	8b 45 fc             	mov    -0x4(%ebp),%eax
/u/a/b/abhijith/CS537/p3a/xv6-sp20/include/x86.h:162
  105eda:	c9                   	leave  
  105edb:	c3                   	ret    

00105edc <tvinit>:
tvinit():
/u/a/b/abhijith/CS537/p3a/xv6-sp20/kernel/trap.c:18
  105edc:	55                   	push   %ebp
  105edd:	89 e5                	mov    %esp,%ebp
  105edf:	83 ec 18             	sub    $0x18,%esp
/u/a/b/abhijith/CS537/p3a/xv6-sp20/kernel/trap.c:21
  105ee2:	c7 45 f4 00 00 00 00 	movl   $0x0,-0xc(%ebp)
  105ee9:	e9 c3 00 00 00       	jmp    105fb1 <tvinit+0xd5>
/u/a/b/abhijith/CS537/p3a/xv6-sp20/kernel/trap.c:22 (discriminator 3)
  105eee:	8b 45 f4             	mov    -0xc(%ebp),%eax
  105ef1:	8b 04 85 c4 a5 10 00 	mov    0x10a5c4(,%eax,4),%eax
  105ef8:	89 c2                	mov    %eax,%edx
  105efa:	8b 45 f4             	mov    -0xc(%ebp),%eax
  105efd:	66 89 14 c5 40 23 11 	mov    %dx,0x112340(,%eax,8)
  105f04:	00 
  105f05:	8b 45 f4             	mov    -0xc(%ebp),%eax
  105f08:	66 c7 04 c5 42 23 11 	movw   $0x8,0x112342(,%eax,8)
  105f0f:	00 08 00 
  105f12:	8b 45 f4             	mov    -0xc(%ebp),%eax
  105f15:	0f b6 14 c5 44 23 11 	movzbl 0x112344(,%eax,8),%edx
  105f1c:	00 
  105f1d:	83 e2 e0             	and    $0xffffffe0,%edx
  105f20:	88 14 c5 44 23 11 00 	mov    %dl,0x112344(,%eax,8)
  105f27:	8b 45 f4             	mov    -0xc(%ebp),%eax
  105f2a:	0f b6 14 c5 44 23 11 	movzbl 0x112344(,%eax,8),%edx
  105f31:	00 
  105f32:	83 e2 1f             	and    $0x1f,%edx
  105f35:	88 14 c5 44 23 11 00 	mov    %dl,0x112344(,%eax,8)
  105f3c:	8b 45 f4             	mov    -0xc(%ebp),%eax
  105f3f:	0f b6 14 c5 45 23 11 	movzbl 0x112345(,%eax,8),%edx
  105f46:	00 
  105f47:	83 e2 f0             	and    $0xfffffff0,%edx
  105f4a:	83 ca 0e             	or     $0xe,%edx
  105f4d:	88 14 c5 45 23 11 00 	mov    %dl,0x112345(,%eax,8)
  105f54:	8b 45 f4             	mov    -0xc(%ebp),%eax
  105f57:	0f b6 14 c5 45 23 11 	movzbl 0x112345(,%eax,8),%edx
  105f5e:	00 
  105f5f:	83 e2 ef             	and    $0xffffffef,%edx
  105f62:	88 14 c5 45 23 11 00 	mov    %dl,0x112345(,%eax,8)
  105f69:	8b 45 f4             	mov    -0xc(%ebp),%eax
  105f6c:	0f b6 14 c5 45 23 11 	movzbl 0x112345(,%eax,8),%edx
  105f73:	00 
  105f74:	83 e2 9f             	and    $0xffffff9f,%edx
  105f77:	88 14 c5 45 23 11 00 	mov    %dl,0x112345(,%eax,8)
  105f7e:	8b 45 f4             	mov    -0xc(%ebp),%eax
  105f81:	0f b6 14 c5 45 23 11 	movzbl 0x112345(,%eax,8),%edx
  105f88:	00 
  105f89:	83 ca 80             	or     $0xffffff80,%edx
  105f8c:	88 14 c5 45 23 11 00 	mov    %dl,0x112345(,%eax,8)
  105f93:	8b 45 f4             	mov    -0xc(%ebp),%eax
  105f96:	8b 04 85 c4 a5 10 00 	mov    0x10a5c4(,%eax,4),%eax
  105f9d:	c1 e8 10             	shr    $0x10,%eax
  105fa0:	89 c2                	mov    %eax,%edx
  105fa2:	8b 45 f4             	mov    -0xc(%ebp),%eax
  105fa5:	66 89 14 c5 46 23 11 	mov    %dx,0x112346(,%eax,8)
  105fac:	00 
/u/a/b/abhijith/CS537/p3a/xv6-sp20/kernel/trap.c:21 (discriminator 3)
  105fad:	83 45 f4 01          	addl   $0x1,-0xc(%ebp)
/u/a/b/abhijith/CS537/p3a/xv6-sp20/kernel/trap.c:21 (discriminator 1)
  105fb1:	81 7d f4 ff 00 00 00 	cmpl   $0xff,-0xc(%ebp)
  105fb8:	0f 8e 30 ff ff ff    	jle    105eee <tvinit+0x12>
/u/a/b/abhijith/CS537/p3a/xv6-sp20/kernel/trap.c:23
  105fbe:	a1 c4 a6 10 00       	mov    0x10a6c4,%eax
  105fc3:	66 a3 40 25 11 00    	mov    %ax,0x112540
  105fc9:	66 c7 05 42 25 11 00 	movw   $0x8,0x112542
  105fd0:	08 00 
  105fd2:	0f b6 05 44 25 11 00 	movzbl 0x112544,%eax
  105fd9:	83 e0 e0             	and    $0xffffffe0,%eax
  105fdc:	a2 44 25 11 00       	mov    %al,0x112544
  105fe1:	0f b6 05 44 25 11 00 	movzbl 0x112544,%eax
  105fe8:	83 e0 1f             	and    $0x1f,%eax
  105feb:	a2 44 25 11 00       	mov    %al,0x112544
  105ff0:	0f b6 05 45 25 11 00 	movzbl 0x112545,%eax
  105ff7:	83 c8 0f             	or     $0xf,%eax
  105ffa:	a2 45 25 11 00       	mov    %al,0x112545
  105fff:	0f b6 05 45 25 11 00 	movzbl 0x112545,%eax
  106006:	83 e0 ef             	and    $0xffffffef,%eax
  106009:	a2 45 25 11 00       	mov    %al,0x112545
  10600e:	0f b6 05 45 25 11 00 	movzbl 0x112545,%eax
  106015:	83 c8 60             	or     $0x60,%eax
  106018:	a2 45 25 11 00       	mov    %al,0x112545
  10601d:	0f b6 05 45 25 11 00 	movzbl 0x112545,%eax
  106024:	83 c8 80             	or     $0xffffff80,%eax
  106027:	a2 45 25 11 00       	mov    %al,0x112545
  10602c:	a1 c4 a6 10 00       	mov    0x10a6c4,%eax
  106031:	c1 e8 10             	shr    $0x10,%eax
  106034:	66 a3 46 25 11 00    	mov    %ax,0x112546
/u/a/b/abhijith/CS537/p3a/xv6-sp20/kernel/trap.c:25
  10603a:	83 ec 08             	sub    $0x8,%esp
  10603d:	68 18 82 10 00       	push   $0x108218
  106042:	68 00 23 11 00       	push   $0x112300
  106047:	e8 78 e7 ff ff       	call   1047c4 <initlock>
  10604c:	83 c4 10             	add    $0x10,%esp
/u/a/b/abhijith/CS537/p3a/xv6-sp20/kernel/trap.c:26
  10604f:	90                   	nop
  106050:	c9                   	leave  
  106051:	c3                   	ret    

00106052 <idtinit>:
idtinit():
/u/a/b/abhijith/CS537/p3a/xv6-sp20/kernel/trap.c:30
  106052:	55                   	push   %ebp
  106053:	89 e5                	mov    %esp,%ebp
/u/a/b/abhijith/CS537/p3a/xv6-sp20/kernel/trap.c:31
  106055:	68 00 08 00 00       	push   $0x800
  10605a:	68 40 23 11 00       	push   $0x112340
  10605f:	e8 3d fe ff ff       	call   105ea1 <lidt>
  106064:	83 c4 08             	add    $0x8,%esp
/u/a/b/abhijith/CS537/p3a/xv6-sp20/kernel/trap.c:32
  106067:	90                   	nop
  106068:	c9                   	leave  
  106069:	c3                   	ret    

0010606a <trap>:
trap():
/u/a/b/abhijith/CS537/p3a/xv6-sp20/kernel/trap.c:36
  10606a:	55                   	push   %ebp
  10606b:	89 e5                	mov    %esp,%ebp
  10606d:	57                   	push   %edi
  10606e:	56                   	push   %esi
  10606f:	53                   	push   %ebx
  106070:	83 ec 1c             	sub    $0x1c,%esp
/u/a/b/abhijith/CS537/p3a/xv6-sp20/kernel/trap.c:37
  106073:	8b 45 08             	mov    0x8(%ebp),%eax
  106076:	8b 40 30             	mov    0x30(%eax),%eax
  106079:	83 f8 40             	cmp    $0x40,%eax
  10607c:	75 3e                	jne    1060bc <trap+0x52>
/u/a/b/abhijith/CS537/p3a/xv6-sp20/kernel/trap.c:38
  10607e:	65 a1 04 00 00 00    	mov    %gs:0x4,%eax
  106084:	8b 40 24             	mov    0x24(%eax),%eax
  106087:	85 c0                	test   %eax,%eax
  106089:	74 05                	je     106090 <trap+0x26>
/u/a/b/abhijith/CS537/p3a/xv6-sp20/kernel/trap.c:39
  10608b:	e8 56 e0 ff ff       	call   1040e6 <exit>
/u/a/b/abhijith/CS537/p3a/xv6-sp20/kernel/trap.c:40
  106090:	65 a1 04 00 00 00    	mov    %gs:0x4,%eax
  106096:	8b 55 08             	mov    0x8(%ebp),%edx
  106099:	89 50 18             	mov    %edx,0x18(%eax)
/u/a/b/abhijith/CS537/p3a/xv6-sp20/kernel/trap.c:41
  10609c:	e8 14 ed ff ff       	call   104db5 <syscall>
/u/a/b/abhijith/CS537/p3a/xv6-sp20/kernel/trap.c:42
  1060a1:	65 a1 04 00 00 00    	mov    %gs:0x4,%eax
  1060a7:	8b 40 24             	mov    0x24(%eax),%eax
  1060aa:	85 c0                	test   %eax,%eax
  1060ac:	0f 84 1b 02 00 00    	je     1062cd <trap+0x263>
/u/a/b/abhijith/CS537/p3a/xv6-sp20/kernel/trap.c:43
  1060b2:	e8 2f e0 ff ff       	call   1040e6 <exit>
/u/a/b/abhijith/CS537/p3a/xv6-sp20/kernel/trap.c:44
  1060b7:	e9 11 02 00 00       	jmp    1062cd <trap+0x263>
/u/a/b/abhijith/CS537/p3a/xv6-sp20/kernel/trap.c:47
  1060bc:	8b 45 08             	mov    0x8(%ebp),%eax
  1060bf:	8b 40 30             	mov    0x30(%eax),%eax
  1060c2:	83 e8 20             	sub    $0x20,%eax
  1060c5:	83 f8 1f             	cmp    $0x1f,%eax
  1060c8:	0f 87 c0 00 00 00    	ja     10618e <trap+0x124>
  1060ce:	8b 04 85 c0 82 10 00 	mov    0x1082c0(,%eax,4),%eax
  1060d5:	ff e0                	jmp    *%eax
/u/a/b/abhijith/CS537/p3a/xv6-sp20/kernel/trap.c:49
  1060d7:	65 a1 00 00 00 00    	mov    %gs:0x0,%eax
  1060dd:	0f b6 00             	movzbl (%eax),%eax
  1060e0:	84 c0                	test   %al,%al
  1060e2:	75 3d                	jne    106121 <trap+0xb7>
/u/a/b/abhijith/CS537/p3a/xv6-sp20/kernel/trap.c:50
  1060e4:	83 ec 0c             	sub    $0xc,%esp
  1060e7:	68 00 23 11 00       	push   $0x112300
  1060ec:	e8 f5 e6 ff ff       	call   1047e6 <acquire>
  1060f1:	83 c4 10             	add    $0x10,%esp
/u/a/b/abhijith/CS537/p3a/xv6-sp20/kernel/trap.c:51
  1060f4:	a1 40 2b 11 00       	mov    0x112b40,%eax
  1060f9:	83 c0 01             	add    $0x1,%eax
  1060fc:	a3 40 2b 11 00       	mov    %eax,0x112b40
/u/a/b/abhijith/CS537/p3a/xv6-sp20/kernel/trap.c:52
  106101:	83 ec 0c             	sub    $0xc,%esp
  106104:	68 40 2b 11 00       	push   $0x112b40
  106109:	e8 ca e4 ff ff       	call   1045d8 <wakeup>
  10610e:	83 c4 10             	add    $0x10,%esp
/u/a/b/abhijith/CS537/p3a/xv6-sp20/kernel/trap.c:53
  106111:	83 ec 0c             	sub    $0xc,%esp
  106114:	68 00 23 11 00       	push   $0x112300
  106119:	e8 2f e7 ff ff       	call   10484d <release>
  10611e:	83 c4 10             	add    $0x10,%esp
/u/a/b/abhijith/CS537/p3a/xv6-sp20/kernel/trap.c:55
  106121:	e8 58 ce ff ff       	call   102f7e <lapiceoi>
/u/a/b/abhijith/CS537/p3a/xv6-sp20/kernel/trap.c:56
  106126:	e9 1c 01 00 00       	jmp    106247 <trap+0x1dd>
/u/a/b/abhijith/CS537/p3a/xv6-sp20/kernel/trap.c:58
  10612b:	e8 09 c6 ff ff       	call   102739 <ideintr>
/u/a/b/abhijith/CS537/p3a/xv6-sp20/kernel/trap.c:59
  106130:	e8 49 ce ff ff       	call   102f7e <lapiceoi>
/u/a/b/abhijith/CS537/p3a/xv6-sp20/kernel/trap.c:60
  106135:	e9 0d 01 00 00       	jmp    106247 <trap+0x1dd>
/u/a/b/abhijith/CS537/p3a/xv6-sp20/kernel/trap.c:65
  10613a:	e8 18 cc ff ff       	call   102d57 <kbdintr>
/u/a/b/abhijith/CS537/p3a/xv6-sp20/kernel/trap.c:66
  10613f:	e8 3a ce ff ff       	call   102f7e <lapiceoi>
/u/a/b/abhijith/CS537/p3a/xv6-sp20/kernel/trap.c:67
  106144:	e9 fe 00 00 00       	jmp    106247 <trap+0x1dd>
/u/a/b/abhijith/CS537/p3a/xv6-sp20/kernel/trap.c:69
  106149:	e8 60 03 00 00       	call   1064ae <uartintr>
/u/a/b/abhijith/CS537/p3a/xv6-sp20/kernel/trap.c:70
  10614e:	e8 2b ce ff ff       	call   102f7e <lapiceoi>
/u/a/b/abhijith/CS537/p3a/xv6-sp20/kernel/trap.c:71
  106153:	e9 ef 00 00 00       	jmp    106247 <trap+0x1dd>
/u/a/b/abhijith/CS537/p3a/xv6-sp20/kernel/trap.c:74
  106158:	8b 45 08             	mov    0x8(%ebp),%eax
  10615b:	8b 48 38             	mov    0x38(%eax),%ecx
/u/a/b/abhijith/CS537/p3a/xv6-sp20/kernel/trap.c:75
  10615e:	8b 45 08             	mov    0x8(%ebp),%eax
  106161:	0f b7 40 3c          	movzwl 0x3c(%eax),%eax
/u/a/b/abhijith/CS537/p3a/xv6-sp20/kernel/trap.c:74
  106165:	0f b7 d0             	movzwl %ax,%edx
/u/a/b/abhijith/CS537/p3a/xv6-sp20/kernel/trap.c:75
  106168:	65 a1 00 00 00 00    	mov    %gs:0x0,%eax
  10616e:	0f b6 00             	movzbl (%eax),%eax
/u/a/b/abhijith/CS537/p3a/xv6-sp20/kernel/trap.c:74
  106171:	0f b6 c0             	movzbl %al,%eax
  106174:	51                   	push   %ecx
  106175:	52                   	push   %edx
  106176:	50                   	push   %eax
  106177:	68 20 82 10 00       	push   $0x108220
  10617c:	e8 6b a2 ff ff       	call   1003ec <cprintf>
  106181:	83 c4 10             	add    $0x10,%esp
/u/a/b/abhijith/CS537/p3a/xv6-sp20/kernel/trap.c:76
  106184:	e8 f5 cd ff ff       	call   102f7e <lapiceoi>
/u/a/b/abhijith/CS537/p3a/xv6-sp20/kernel/trap.c:77
  106189:	e9 b9 00 00 00       	jmp    106247 <trap+0x1dd>
/u/a/b/abhijith/CS537/p3a/xv6-sp20/kernel/trap.c:80
  10618e:	65 a1 04 00 00 00    	mov    %gs:0x4,%eax
  106194:	85 c0                	test   %eax,%eax
  106196:	74 11                	je     1061a9 <trap+0x13f>
/u/a/b/abhijith/CS537/p3a/xv6-sp20/kernel/trap.c:80 (discriminator 1)
  106198:	8b 45 08             	mov    0x8(%ebp),%eax
  10619b:	0f b7 40 3c          	movzwl 0x3c(%eax),%eax
  10619f:	0f b7 c0             	movzwl %ax,%eax
  1061a2:	83 e0 03             	and    $0x3,%eax
  1061a5:	85 c0                	test   %eax,%eax
  1061a7:	75 40                	jne    1061e9 <trap+0x17f>
/u/a/b/abhijith/CS537/p3a/xv6-sp20/kernel/trap.c:82
  1061a9:	e8 1d fd ff ff       	call   105ecb <rcr2>
  1061ae:	89 c3                	mov    %eax,%ebx
  1061b0:	8b 45 08             	mov    0x8(%ebp),%eax
  1061b3:	8b 48 38             	mov    0x38(%eax),%ecx
/u/a/b/abhijith/CS537/p3a/xv6-sp20/kernel/trap.c:83
  1061b6:	65 a1 00 00 00 00    	mov    %gs:0x0,%eax
  1061bc:	0f b6 00             	movzbl (%eax),%eax
/u/a/b/abhijith/CS537/p3a/xv6-sp20/kernel/trap.c:82
  1061bf:	0f b6 d0             	movzbl %al,%edx
  1061c2:	8b 45 08             	mov    0x8(%ebp),%eax
  1061c5:	8b 40 30             	mov    0x30(%eax),%eax
  1061c8:	83 ec 0c             	sub    $0xc,%esp
  1061cb:	53                   	push   %ebx
  1061cc:	51                   	push   %ecx
  1061cd:	52                   	push   %edx
  1061ce:	50                   	push   %eax
  1061cf:	68 44 82 10 00       	push   $0x108244
  1061d4:	e8 13 a2 ff ff       	call   1003ec <cprintf>
  1061d9:	83 c4 20             	add    $0x20,%esp
/u/a/b/abhijith/CS537/p3a/xv6-sp20/kernel/trap.c:84
  1061dc:	83 ec 0c             	sub    $0xc,%esp
  1061df:	68 76 82 10 00       	push   $0x108276
  1061e4:	e8 8f a3 ff ff       	call   100578 <panic>
/u/a/b/abhijith/CS537/p3a/xv6-sp20/kernel/trap.c:87
  1061e9:	e8 dd fc ff ff       	call   105ecb <rcr2>
  1061ee:	89 45 e4             	mov    %eax,-0x1c(%ebp)
  1061f1:	8b 45 08             	mov    0x8(%ebp),%eax
  1061f4:	8b 70 38             	mov    0x38(%eax),%esi
/u/a/b/abhijith/CS537/p3a/xv6-sp20/kernel/trap.c:89
  1061f7:	65 a1 00 00 00 00    	mov    %gs:0x0,%eax
  1061fd:	0f b6 00             	movzbl (%eax),%eax
/u/a/b/abhijith/CS537/p3a/xv6-sp20/kernel/trap.c:87
  106200:	0f b6 d8             	movzbl %al,%ebx
  106203:	8b 45 08             	mov    0x8(%ebp),%eax
  106206:	8b 48 34             	mov    0x34(%eax),%ecx
  106209:	8b 45 08             	mov    0x8(%ebp),%eax
  10620c:	8b 50 30             	mov    0x30(%eax),%edx
/u/a/b/abhijith/CS537/p3a/xv6-sp20/kernel/trap.c:89
  10620f:	65 a1 04 00 00 00    	mov    %gs:0x4,%eax
  106215:	8d 78 6c             	lea    0x6c(%eax),%edi
  106218:	65 a1 04 00 00 00    	mov    %gs:0x4,%eax
/u/a/b/abhijith/CS537/p3a/xv6-sp20/kernel/trap.c:87
  10621e:	8b 40 10             	mov    0x10(%eax),%eax
  106221:	ff 75 e4             	pushl  -0x1c(%ebp)
  106224:	56                   	push   %esi
  106225:	53                   	push   %ebx
  106226:	51                   	push   %ecx
  106227:	52                   	push   %edx
  106228:	57                   	push   %edi
  106229:	50                   	push   %eax
  10622a:	68 7c 82 10 00       	push   $0x10827c
  10622f:	e8 b8 a1 ff ff       	call   1003ec <cprintf>
  106234:	83 c4 20             	add    $0x20,%esp
/u/a/b/abhijith/CS537/p3a/xv6-sp20/kernel/trap.c:91
  106237:	65 a1 04 00 00 00    	mov    %gs:0x4,%eax
  10623d:	c7 40 24 01 00 00 00 	movl   $0x1,0x24(%eax)
  106244:	eb 01                	jmp    106247 <trap+0x1dd>
/u/a/b/abhijith/CS537/p3a/xv6-sp20/kernel/trap.c:63
  106246:	90                   	nop
/u/a/b/abhijith/CS537/p3a/xv6-sp20/kernel/trap.c:97
  106247:	65 a1 04 00 00 00    	mov    %gs:0x4,%eax
  10624d:	85 c0                	test   %eax,%eax
  10624f:	74 24                	je     106275 <trap+0x20b>
/u/a/b/abhijith/CS537/p3a/xv6-sp20/kernel/trap.c:97 (discriminator 1)
  106251:	65 a1 04 00 00 00    	mov    %gs:0x4,%eax
  106257:	8b 40 24             	mov    0x24(%eax),%eax
  10625a:	85 c0                	test   %eax,%eax
  10625c:	74 17                	je     106275 <trap+0x20b>
/u/a/b/abhijith/CS537/p3a/xv6-sp20/kernel/trap.c:97 (discriminator 2)
  10625e:	8b 45 08             	mov    0x8(%ebp),%eax
  106261:	0f b7 40 3c          	movzwl 0x3c(%eax),%eax
  106265:	0f b7 c0             	movzwl %ax,%eax
  106268:	83 e0 03             	and    $0x3,%eax
  10626b:	83 f8 03             	cmp    $0x3,%eax
  10626e:	75 05                	jne    106275 <trap+0x20b>
/u/a/b/abhijith/CS537/p3a/xv6-sp20/kernel/trap.c:98
  106270:	e8 71 de ff ff       	call   1040e6 <exit>
/u/a/b/abhijith/CS537/p3a/xv6-sp20/kernel/trap.c:102
  106275:	65 a1 04 00 00 00    	mov    %gs:0x4,%eax
  10627b:	85 c0                	test   %eax,%eax
  10627d:	74 1e                	je     10629d <trap+0x233>
/u/a/b/abhijith/CS537/p3a/xv6-sp20/kernel/trap.c:102 (discriminator 1)
  10627f:	65 a1 04 00 00 00    	mov    %gs:0x4,%eax
  106285:	8b 40 0c             	mov    0xc(%eax),%eax
  106288:	83 f8 04             	cmp    $0x4,%eax
  10628b:	75 10                	jne    10629d <trap+0x233>
/u/a/b/abhijith/CS537/p3a/xv6-sp20/kernel/trap.c:102 (discriminator 2)
  10628d:	8b 45 08             	mov    0x8(%ebp),%eax
  106290:	8b 40 30             	mov    0x30(%eax),%eax
  106293:	83 f8 20             	cmp    $0x20,%eax
  106296:	75 05                	jne    10629d <trap+0x233>
/u/a/b/abhijith/CS537/p3a/xv6-sp20/kernel/trap.c:103
  106298:	e8 fc e1 ff ff       	call   104499 <yield>
/u/a/b/abhijith/CS537/p3a/xv6-sp20/kernel/trap.c:106
  10629d:	65 a1 04 00 00 00    	mov    %gs:0x4,%eax
  1062a3:	85 c0                	test   %eax,%eax
  1062a5:	74 27                	je     1062ce <trap+0x264>
/u/a/b/abhijith/CS537/p3a/xv6-sp20/kernel/trap.c:106 (discriminator 1)
  1062a7:	65 a1 04 00 00 00    	mov    %gs:0x4,%eax
  1062ad:	8b 40 24             	mov    0x24(%eax),%eax
  1062b0:	85 c0                	test   %eax,%eax
  1062b2:	74 1a                	je     1062ce <trap+0x264>
/u/a/b/abhijith/CS537/p3a/xv6-sp20/kernel/trap.c:106 (discriminator 2)
  1062b4:	8b 45 08             	mov    0x8(%ebp),%eax
  1062b7:	0f b7 40 3c          	movzwl 0x3c(%eax),%eax
  1062bb:	0f b7 c0             	movzwl %ax,%eax
  1062be:	83 e0 03             	and    $0x3,%eax
  1062c1:	83 f8 03             	cmp    $0x3,%eax
  1062c4:	75 08                	jne    1062ce <trap+0x264>
/u/a/b/abhijith/CS537/p3a/xv6-sp20/kernel/trap.c:107
  1062c6:	e8 1b de ff ff       	call   1040e6 <exit>
  1062cb:	eb 01                	jmp    1062ce <trap+0x264>
/u/a/b/abhijith/CS537/p3a/xv6-sp20/kernel/trap.c:44
  1062cd:	90                   	nop
/u/a/b/abhijith/CS537/p3a/xv6-sp20/kernel/trap.c:108
  1062ce:	8d 65 f4             	lea    -0xc(%ebp),%esp
  1062d1:	5b                   	pop    %ebx
  1062d2:	5e                   	pop    %esi
  1062d3:	5f                   	pop    %edi
  1062d4:	5d                   	pop    %ebp
  1062d5:	c3                   	ret    

001062d6 <inb>:
inb():
/u/a/b/abhijith/CS537/p3a/xv6-sp20/include/x86.h:7
  1062d6:	55                   	push   %ebp
  1062d7:	89 e5                	mov    %esp,%ebp
  1062d9:	83 ec 14             	sub    $0x14,%esp
  1062dc:	8b 45 08             	mov    0x8(%ebp),%eax
  1062df:	66 89 45 ec          	mov    %ax,-0x14(%ebp)
/u/a/b/abhijith/CS537/p3a/xv6-sp20/include/x86.h:10
  1062e3:	0f b7 45 ec          	movzwl -0x14(%ebp),%eax
  1062e7:	89 c2                	mov    %eax,%edx
  1062e9:	ec                   	in     (%dx),%al
  1062ea:	88 45 ff             	mov    %al,-0x1(%ebp)
/u/a/b/abhijith/CS537/p3a/xv6-sp20/include/x86.h:11
  1062ed:	0f b6 45 ff          	movzbl -0x1(%ebp),%eax
/u/a/b/abhijith/CS537/p3a/xv6-sp20/include/x86.h:12
  1062f1:	c9                   	leave  
  1062f2:	c3                   	ret    

001062f3 <outb>:
outb():
/u/a/b/abhijith/CS537/p3a/xv6-sp20/include/x86.h:25
  1062f3:	55                   	push   %ebp
  1062f4:	89 e5                	mov    %esp,%ebp
  1062f6:	83 ec 08             	sub    $0x8,%esp
  1062f9:	8b 55 08             	mov    0x8(%ebp),%edx
  1062fc:	8b 45 0c             	mov    0xc(%ebp),%eax
  1062ff:	66 89 55 fc          	mov    %dx,-0x4(%ebp)
  106303:	88 45 f8             	mov    %al,-0x8(%ebp)
/u/a/b/abhijith/CS537/p3a/xv6-sp20/include/x86.h:26
  106306:	0f b6 45 f8          	movzbl -0x8(%ebp),%eax
  10630a:	0f b7 55 fc          	movzwl -0x4(%ebp),%edx
  10630e:	ee                   	out    %al,(%dx)
/u/a/b/abhijith/CS537/p3a/xv6-sp20/include/x86.h:27
  10630f:	90                   	nop
  106310:	c9                   	leave  
  106311:	c3                   	ret    

00106312 <uartinit>:
uartinit():
/u/a/b/abhijith/CS537/p3a/xv6-sp20/kernel/uart.c:20
  106312:	55                   	push   %ebp
  106313:	89 e5                	mov    %esp,%ebp
  106315:	83 ec 18             	sub    $0x18,%esp
/u/a/b/abhijith/CS537/p3a/xv6-sp20/kernel/uart.c:24
  106318:	6a 00                	push   $0x0
  10631a:	68 fa 03 00 00       	push   $0x3fa
  10631f:	e8 cf ff ff ff       	call   1062f3 <outb>
  106324:	83 c4 08             	add    $0x8,%esp
/u/a/b/abhijith/CS537/p3a/xv6-sp20/kernel/uart.c:27
  106327:	68 80 00 00 00       	push   $0x80
  10632c:	68 fb 03 00 00       	push   $0x3fb
  106331:	e8 bd ff ff ff       	call   1062f3 <outb>
  106336:	83 c4 08             	add    $0x8,%esp
/u/a/b/abhijith/CS537/p3a/xv6-sp20/kernel/uart.c:28
  106339:	6a 0c                	push   $0xc
  10633b:	68 f8 03 00 00       	push   $0x3f8
  106340:	e8 ae ff ff ff       	call   1062f3 <outb>
  106345:	83 c4 08             	add    $0x8,%esp
/u/a/b/abhijith/CS537/p3a/xv6-sp20/kernel/uart.c:29
  106348:	6a 00                	push   $0x0
  10634a:	68 f9 03 00 00       	push   $0x3f9
  10634f:	e8 9f ff ff ff       	call   1062f3 <outb>
  106354:	83 c4 08             	add    $0x8,%esp
/u/a/b/abhijith/CS537/p3a/xv6-sp20/kernel/uart.c:30
  106357:	6a 03                	push   $0x3
  106359:	68 fb 03 00 00       	push   $0x3fb
  10635e:	e8 90 ff ff ff       	call   1062f3 <outb>
  106363:	83 c4 08             	add    $0x8,%esp
/u/a/b/abhijith/CS537/p3a/xv6-sp20/kernel/uart.c:31
  106366:	6a 00                	push   $0x0
  106368:	68 fc 03 00 00       	push   $0x3fc
  10636d:	e8 81 ff ff ff       	call   1062f3 <outb>
  106372:	83 c4 08             	add    $0x8,%esp
/u/a/b/abhijith/CS537/p3a/xv6-sp20/kernel/uart.c:32
  106375:	6a 01                	push   $0x1
  106377:	68 f9 03 00 00       	push   $0x3f9
  10637c:	e8 72 ff ff ff       	call   1062f3 <outb>
  106381:	83 c4 08             	add    $0x8,%esp
/u/a/b/abhijith/CS537/p3a/xv6-sp20/kernel/uart.c:35
  106384:	68 fd 03 00 00       	push   $0x3fd
  106389:	e8 48 ff ff ff       	call   1062d6 <inb>
  10638e:	83 c4 04             	add    $0x4,%esp
  106391:	3c ff                	cmp    $0xff,%al
  106393:	74 6e                	je     106403 <uartinit+0xf1>
/u/a/b/abhijith/CS537/p3a/xv6-sp20/kernel/uart.c:37
  106395:	c7 05 74 bb 10 00 01 	movl   $0x1,0x10bb74
  10639c:	00 00 00 
/u/a/b/abhijith/CS537/p3a/xv6-sp20/kernel/uart.c:41
  10639f:	68 fa 03 00 00       	push   $0x3fa
  1063a4:	e8 2d ff ff ff       	call   1062d6 <inb>
  1063a9:	83 c4 04             	add    $0x4,%esp
/u/a/b/abhijith/CS537/p3a/xv6-sp20/kernel/uart.c:42
  1063ac:	68 f8 03 00 00       	push   $0x3f8
  1063b1:	e8 20 ff ff ff       	call   1062d6 <inb>
  1063b6:	83 c4 04             	add    $0x4,%esp
/u/a/b/abhijith/CS537/p3a/xv6-sp20/kernel/uart.c:43
  1063b9:	83 ec 0c             	sub    $0xc,%esp
  1063bc:	6a 04                	push   $0x4
  1063be:	e8 81 d3 ff ff       	call   103744 <picenable>
  1063c3:	83 c4 10             	add    $0x10,%esp
/u/a/b/abhijith/CS537/p3a/xv6-sp20/kernel/uart.c:44
  1063c6:	83 ec 08             	sub    $0x8,%esp
  1063c9:	6a 00                	push   $0x0
  1063cb:	6a 04                	push   $0x4
  1063cd:	e8 09 c6 ff ff       	call   1029db <ioapicenable>
  1063d2:	83 c4 10             	add    $0x10,%esp
/u/a/b/abhijith/CS537/p3a/xv6-sp20/kernel/uart.c:47
  1063d5:	c7 45 f4 40 83 10 00 	movl   $0x108340,-0xc(%ebp)
  1063dc:	eb 19                	jmp    1063f7 <uartinit+0xe5>
/u/a/b/abhijith/CS537/p3a/xv6-sp20/kernel/uart.c:48 (discriminator 3)
  1063de:	8b 45 f4             	mov    -0xc(%ebp),%eax
  1063e1:	0f b6 00             	movzbl (%eax),%eax
  1063e4:	0f be c0             	movsbl %al,%eax
  1063e7:	83 ec 0c             	sub    $0xc,%esp
  1063ea:	50                   	push   %eax
  1063eb:	e8 16 00 00 00       	call   106406 <uartputc>
  1063f0:	83 c4 10             	add    $0x10,%esp
/u/a/b/abhijith/CS537/p3a/xv6-sp20/kernel/uart.c:47 (discriminator 3)
  1063f3:	83 45 f4 01          	addl   $0x1,-0xc(%ebp)
/u/a/b/abhijith/CS537/p3a/xv6-sp20/kernel/uart.c:47 (discriminator 1)
  1063f7:	8b 45 f4             	mov    -0xc(%ebp),%eax
  1063fa:	0f b6 00             	movzbl (%eax),%eax
  1063fd:	84 c0                	test   %al,%al
  1063ff:	75 dd                	jne    1063de <uartinit+0xcc>
  106401:	eb 01                	jmp    106404 <uartinit+0xf2>
/u/a/b/abhijith/CS537/p3a/xv6-sp20/kernel/uart.c:36
  106403:	90                   	nop
/u/a/b/abhijith/CS537/p3a/xv6-sp20/kernel/uart.c:49
  106404:	c9                   	leave  
  106405:	c3                   	ret    

00106406 <uartputc>:
uartputc():
/u/a/b/abhijith/CS537/p3a/xv6-sp20/kernel/uart.c:53
  106406:	55                   	push   %ebp
  106407:	89 e5                	mov    %esp,%ebp
  106409:	83 ec 18             	sub    $0x18,%esp
/u/a/b/abhijith/CS537/p3a/xv6-sp20/kernel/uart.c:56
  10640c:	a1 74 bb 10 00       	mov    0x10bb74,%eax
  106411:	85 c0                	test   %eax,%eax
  106413:	74 53                	je     106468 <uartputc+0x62>
/u/a/b/abhijith/CS537/p3a/xv6-sp20/kernel/uart.c:58
  106415:	c7 45 f4 00 00 00 00 	movl   $0x0,-0xc(%ebp)
  10641c:	eb 11                	jmp    10642f <uartputc+0x29>
/u/a/b/abhijith/CS537/p3a/xv6-sp20/kernel/uart.c:59 (discriminator 4)
  10641e:	83 ec 0c             	sub    $0xc,%esp
  106421:	6a 0a                	push   $0xa
  106423:	e8 71 cb ff ff       	call   102f99 <microdelay>
  106428:	83 c4 10             	add    $0x10,%esp
/u/a/b/abhijith/CS537/p3a/xv6-sp20/kernel/uart.c:58 (discriminator 4)
  10642b:	83 45 f4 01          	addl   $0x1,-0xc(%ebp)
/u/a/b/abhijith/CS537/p3a/xv6-sp20/kernel/uart.c:58 (discriminator 1)
  10642f:	83 7d f4 7f          	cmpl   $0x7f,-0xc(%ebp)
  106433:	7f 1a                	jg     10644f <uartputc+0x49>
/u/a/b/abhijith/CS537/p3a/xv6-sp20/kernel/uart.c:58 (discriminator 3)
  106435:	83 ec 0c             	sub    $0xc,%esp
  106438:	68 fd 03 00 00       	push   $0x3fd
  10643d:	e8 94 fe ff ff       	call   1062d6 <inb>
  106442:	83 c4 10             	add    $0x10,%esp
  106445:	0f b6 c0             	movzbl %al,%eax
  106448:	83 e0 20             	and    $0x20,%eax
  10644b:	85 c0                	test   %eax,%eax
  10644d:	74 cf                	je     10641e <uartputc+0x18>
/u/a/b/abhijith/CS537/p3a/xv6-sp20/kernel/uart.c:60
  10644f:	8b 45 08             	mov    0x8(%ebp),%eax
  106452:	0f b6 c0             	movzbl %al,%eax
  106455:	83 ec 08             	sub    $0x8,%esp
  106458:	50                   	push   %eax
  106459:	68 f8 03 00 00       	push   $0x3f8
  10645e:	e8 90 fe ff ff       	call   1062f3 <outb>
  106463:	83 c4 10             	add    $0x10,%esp
  106466:	eb 01                	jmp    106469 <uartputc+0x63>
/u/a/b/abhijith/CS537/p3a/xv6-sp20/kernel/uart.c:57
  106468:	90                   	nop
/u/a/b/abhijith/CS537/p3a/xv6-sp20/kernel/uart.c:61
  106469:	c9                   	leave  
  10646a:	c3                   	ret    

0010646b <uartgetc>:
uartgetc():
/u/a/b/abhijith/CS537/p3a/xv6-sp20/kernel/uart.c:65
  10646b:	55                   	push   %ebp
  10646c:	89 e5                	mov    %esp,%ebp
/u/a/b/abhijith/CS537/p3a/xv6-sp20/kernel/uart.c:66
  10646e:	a1 74 bb 10 00       	mov    0x10bb74,%eax
  106473:	85 c0                	test   %eax,%eax
  106475:	75 07                	jne    10647e <uartgetc+0x13>
/u/a/b/abhijith/CS537/p3a/xv6-sp20/kernel/uart.c:67
  106477:	b8 ff ff ff ff       	mov    $0xffffffff,%eax
  10647c:	eb 2e                	jmp    1064ac <uartgetc+0x41>
/u/a/b/abhijith/CS537/p3a/xv6-sp20/kernel/uart.c:68
  10647e:	68 fd 03 00 00       	push   $0x3fd
  106483:	e8 4e fe ff ff       	call   1062d6 <inb>
  106488:	83 c4 04             	add    $0x4,%esp
  10648b:	0f b6 c0             	movzbl %al,%eax
  10648e:	83 e0 01             	and    $0x1,%eax
  106491:	85 c0                	test   %eax,%eax
  106493:	75 07                	jne    10649c <uartgetc+0x31>
/u/a/b/abhijith/CS537/p3a/xv6-sp20/kernel/uart.c:69
  106495:	b8 ff ff ff ff       	mov    $0xffffffff,%eax
  10649a:	eb 10                	jmp    1064ac <uartgetc+0x41>
/u/a/b/abhijith/CS537/p3a/xv6-sp20/kernel/uart.c:70
  10649c:	68 f8 03 00 00       	push   $0x3f8
  1064a1:	e8 30 fe ff ff       	call   1062d6 <inb>
  1064a6:	83 c4 04             	add    $0x4,%esp
  1064a9:	0f b6 c0             	movzbl %al,%eax
/u/a/b/abhijith/CS537/p3a/xv6-sp20/kernel/uart.c:71
  1064ac:	c9                   	leave  
  1064ad:	c3                   	ret    

001064ae <uartintr>:
uartintr():
/u/a/b/abhijith/CS537/p3a/xv6-sp20/kernel/uart.c:75
  1064ae:	55                   	push   %ebp
  1064af:	89 e5                	mov    %esp,%ebp
  1064b1:	83 ec 08             	sub    $0x8,%esp
/u/a/b/abhijith/CS537/p3a/xv6-sp20/kernel/uart.c:76
  1064b4:	83 ec 0c             	sub    $0xc,%esp
  1064b7:	68 6b 64 10 00       	push   $0x10646b
  1064bc:	e8 36 a3 ff ff       	call   1007f7 <consoleintr>
  1064c1:	83 c4 10             	add    $0x10,%esp
/u/a/b/abhijith/CS537/p3a/xv6-sp20/kernel/uart.c:77
  1064c4:	90                   	nop
  1064c5:	c9                   	leave  
  1064c6:	c3                   	ret    

001064c7 <vector0>:
vector0():
/u/a/b/abhijith/CS537/p3a/xv6-sp20/kernel/vectors.S:6
  1064c7:	6a 00                	push   $0x0
/u/a/b/abhijith/CS537/p3a/xv6-sp20/kernel/vectors.S:7
  1064c9:	6a 00                	push   $0x0
/u/a/b/abhijith/CS537/p3a/xv6-sp20/kernel/vectors.S:8
  1064cb:	e9 a6 f9 ff ff       	jmp    105e76 <alltraps>

001064d0 <vector1>:
vector1():
/u/a/b/abhijith/CS537/p3a/xv6-sp20/kernel/vectors.S:11
  1064d0:	6a 00                	push   $0x0
/u/a/b/abhijith/CS537/p3a/xv6-sp20/kernel/vectors.S:12
  1064d2:	6a 01                	push   $0x1
/u/a/b/abhijith/CS537/p3a/xv6-sp20/kernel/vectors.S:13
  1064d4:	e9 9d f9 ff ff       	jmp    105e76 <alltraps>

001064d9 <vector2>:
vector2():
/u/a/b/abhijith/CS537/p3a/xv6-sp20/kernel/vectors.S:16
  1064d9:	6a 00                	push   $0x0
/u/a/b/abhijith/CS537/p3a/xv6-sp20/kernel/vectors.S:17
  1064db:	6a 02                	push   $0x2
/u/a/b/abhijith/CS537/p3a/xv6-sp20/kernel/vectors.S:18
  1064dd:	e9 94 f9 ff ff       	jmp    105e76 <alltraps>

001064e2 <vector3>:
vector3():
/u/a/b/abhijith/CS537/p3a/xv6-sp20/kernel/vectors.S:21
  1064e2:	6a 00                	push   $0x0
/u/a/b/abhijith/CS537/p3a/xv6-sp20/kernel/vectors.S:22
  1064e4:	6a 03                	push   $0x3
/u/a/b/abhijith/CS537/p3a/xv6-sp20/kernel/vectors.S:23
  1064e6:	e9 8b f9 ff ff       	jmp    105e76 <alltraps>

001064eb <vector4>:
vector4():
/u/a/b/abhijith/CS537/p3a/xv6-sp20/kernel/vectors.S:26
  1064eb:	6a 00                	push   $0x0
/u/a/b/abhijith/CS537/p3a/xv6-sp20/kernel/vectors.S:27
  1064ed:	6a 04                	push   $0x4
/u/a/b/abhijith/CS537/p3a/xv6-sp20/kernel/vectors.S:28
  1064ef:	e9 82 f9 ff ff       	jmp    105e76 <alltraps>

001064f4 <vector5>:
vector5():
/u/a/b/abhijith/CS537/p3a/xv6-sp20/kernel/vectors.S:31
  1064f4:	6a 00                	push   $0x0
/u/a/b/abhijith/CS537/p3a/xv6-sp20/kernel/vectors.S:32
  1064f6:	6a 05                	push   $0x5
/u/a/b/abhijith/CS537/p3a/xv6-sp20/kernel/vectors.S:33
  1064f8:	e9 79 f9 ff ff       	jmp    105e76 <alltraps>

001064fd <vector6>:
vector6():
/u/a/b/abhijith/CS537/p3a/xv6-sp20/kernel/vectors.S:36
  1064fd:	6a 00                	push   $0x0
/u/a/b/abhijith/CS537/p3a/xv6-sp20/kernel/vectors.S:37
  1064ff:	6a 06                	push   $0x6
/u/a/b/abhijith/CS537/p3a/xv6-sp20/kernel/vectors.S:38
  106501:	e9 70 f9 ff ff       	jmp    105e76 <alltraps>

00106506 <vector7>:
vector7():
/u/a/b/abhijith/CS537/p3a/xv6-sp20/kernel/vectors.S:41
  106506:	6a 00                	push   $0x0
/u/a/b/abhijith/CS537/p3a/xv6-sp20/kernel/vectors.S:42
  106508:	6a 07                	push   $0x7
/u/a/b/abhijith/CS537/p3a/xv6-sp20/kernel/vectors.S:43
  10650a:	e9 67 f9 ff ff       	jmp    105e76 <alltraps>

0010650f <vector8>:
vector8():
/u/a/b/abhijith/CS537/p3a/xv6-sp20/kernel/vectors.S:46
  10650f:	6a 08                	push   $0x8
/u/a/b/abhijith/CS537/p3a/xv6-sp20/kernel/vectors.S:47
  106511:	e9 60 f9 ff ff       	jmp    105e76 <alltraps>

00106516 <vector9>:
vector9():
/u/a/b/abhijith/CS537/p3a/xv6-sp20/kernel/vectors.S:50
  106516:	6a 00                	push   $0x0
/u/a/b/abhijith/CS537/p3a/xv6-sp20/kernel/vectors.S:51
  106518:	6a 09                	push   $0x9
/u/a/b/abhijith/CS537/p3a/xv6-sp20/kernel/vectors.S:52
  10651a:	e9 57 f9 ff ff       	jmp    105e76 <alltraps>

0010651f <vector10>:
vector10():
/u/a/b/abhijith/CS537/p3a/xv6-sp20/kernel/vectors.S:55
  10651f:	6a 0a                	push   $0xa
/u/a/b/abhijith/CS537/p3a/xv6-sp20/kernel/vectors.S:56
  106521:	e9 50 f9 ff ff       	jmp    105e76 <alltraps>

00106526 <vector11>:
vector11():
/u/a/b/abhijith/CS537/p3a/xv6-sp20/kernel/vectors.S:59
  106526:	6a 0b                	push   $0xb
/u/a/b/abhijith/CS537/p3a/xv6-sp20/kernel/vectors.S:60
  106528:	e9 49 f9 ff ff       	jmp    105e76 <alltraps>

0010652d <vector12>:
vector12():
/u/a/b/abhijith/CS537/p3a/xv6-sp20/kernel/vectors.S:63
  10652d:	6a 0c                	push   $0xc
/u/a/b/abhijith/CS537/p3a/xv6-sp20/kernel/vectors.S:64
  10652f:	e9 42 f9 ff ff       	jmp    105e76 <alltraps>

00106534 <vector13>:
vector13():
/u/a/b/abhijith/CS537/p3a/xv6-sp20/kernel/vectors.S:67
  106534:	6a 0d                	push   $0xd
/u/a/b/abhijith/CS537/p3a/xv6-sp20/kernel/vectors.S:68
  106536:	e9 3b f9 ff ff       	jmp    105e76 <alltraps>

0010653b <vector14>:
vector14():
/u/a/b/abhijith/CS537/p3a/xv6-sp20/kernel/vectors.S:71
  10653b:	6a 0e                	push   $0xe
/u/a/b/abhijith/CS537/p3a/xv6-sp20/kernel/vectors.S:72
  10653d:	e9 34 f9 ff ff       	jmp    105e76 <alltraps>

00106542 <vector15>:
vector15():
/u/a/b/abhijith/CS537/p3a/xv6-sp20/kernel/vectors.S:75
  106542:	6a 00                	push   $0x0
/u/a/b/abhijith/CS537/p3a/xv6-sp20/kernel/vectors.S:76
  106544:	6a 0f                	push   $0xf
/u/a/b/abhijith/CS537/p3a/xv6-sp20/kernel/vectors.S:77
  106546:	e9 2b f9 ff ff       	jmp    105e76 <alltraps>

0010654b <vector16>:
vector16():
/u/a/b/abhijith/CS537/p3a/xv6-sp20/kernel/vectors.S:80
  10654b:	6a 00                	push   $0x0
/u/a/b/abhijith/CS537/p3a/xv6-sp20/kernel/vectors.S:81
  10654d:	6a 10                	push   $0x10
/u/a/b/abhijith/CS537/p3a/xv6-sp20/kernel/vectors.S:82
  10654f:	e9 22 f9 ff ff       	jmp    105e76 <alltraps>

00106554 <vector17>:
vector17():
/u/a/b/abhijith/CS537/p3a/xv6-sp20/kernel/vectors.S:85
  106554:	6a 11                	push   $0x11
/u/a/b/abhijith/CS537/p3a/xv6-sp20/kernel/vectors.S:86
  106556:	e9 1b f9 ff ff       	jmp    105e76 <alltraps>

0010655b <vector18>:
vector18():
/u/a/b/abhijith/CS537/p3a/xv6-sp20/kernel/vectors.S:89
  10655b:	6a 00                	push   $0x0
/u/a/b/abhijith/CS537/p3a/xv6-sp20/kernel/vectors.S:90
  10655d:	6a 12                	push   $0x12
/u/a/b/abhijith/CS537/p3a/xv6-sp20/kernel/vectors.S:91
  10655f:	e9 12 f9 ff ff       	jmp    105e76 <alltraps>

00106564 <vector19>:
vector19():
/u/a/b/abhijith/CS537/p3a/xv6-sp20/kernel/vectors.S:94
  106564:	6a 00                	push   $0x0
/u/a/b/abhijith/CS537/p3a/xv6-sp20/kernel/vectors.S:95
  106566:	6a 13                	push   $0x13
/u/a/b/abhijith/CS537/p3a/xv6-sp20/kernel/vectors.S:96
  106568:	e9 09 f9 ff ff       	jmp    105e76 <alltraps>

0010656d <vector20>:
vector20():
/u/a/b/abhijith/CS537/p3a/xv6-sp20/kernel/vectors.S:99
  10656d:	6a 00                	push   $0x0
/u/a/b/abhijith/CS537/p3a/xv6-sp20/kernel/vectors.S:100
  10656f:	6a 14                	push   $0x14
/u/a/b/abhijith/CS537/p3a/xv6-sp20/kernel/vectors.S:101
  106571:	e9 00 f9 ff ff       	jmp    105e76 <alltraps>

00106576 <vector21>:
vector21():
/u/a/b/abhijith/CS537/p3a/xv6-sp20/kernel/vectors.S:104
  106576:	6a 00                	push   $0x0
/u/a/b/abhijith/CS537/p3a/xv6-sp20/kernel/vectors.S:105
  106578:	6a 15                	push   $0x15
/u/a/b/abhijith/CS537/p3a/xv6-sp20/kernel/vectors.S:106
  10657a:	e9 f7 f8 ff ff       	jmp    105e76 <alltraps>

0010657f <vector22>:
vector22():
/u/a/b/abhijith/CS537/p3a/xv6-sp20/kernel/vectors.S:109
  10657f:	6a 00                	push   $0x0
/u/a/b/abhijith/CS537/p3a/xv6-sp20/kernel/vectors.S:110
  106581:	6a 16                	push   $0x16
/u/a/b/abhijith/CS537/p3a/xv6-sp20/kernel/vectors.S:111
  106583:	e9 ee f8 ff ff       	jmp    105e76 <alltraps>

00106588 <vector23>:
vector23():
/u/a/b/abhijith/CS537/p3a/xv6-sp20/kernel/vectors.S:114
  106588:	6a 00                	push   $0x0
/u/a/b/abhijith/CS537/p3a/xv6-sp20/kernel/vectors.S:115
  10658a:	6a 17                	push   $0x17
/u/a/b/abhijith/CS537/p3a/xv6-sp20/kernel/vectors.S:116
  10658c:	e9 e5 f8 ff ff       	jmp    105e76 <alltraps>

00106591 <vector24>:
vector24():
/u/a/b/abhijith/CS537/p3a/xv6-sp20/kernel/vectors.S:119
  106591:	6a 00                	push   $0x0
/u/a/b/abhijith/CS537/p3a/xv6-sp20/kernel/vectors.S:120
  106593:	6a 18                	push   $0x18
/u/a/b/abhijith/CS537/p3a/xv6-sp20/kernel/vectors.S:121
  106595:	e9 dc f8 ff ff       	jmp    105e76 <alltraps>

0010659a <vector25>:
vector25():
/u/a/b/abhijith/CS537/p3a/xv6-sp20/kernel/vectors.S:124
  10659a:	6a 00                	push   $0x0
/u/a/b/abhijith/CS537/p3a/xv6-sp20/kernel/vectors.S:125
  10659c:	6a 19                	push   $0x19
/u/a/b/abhijith/CS537/p3a/xv6-sp20/kernel/vectors.S:126
  10659e:	e9 d3 f8 ff ff       	jmp    105e76 <alltraps>

001065a3 <vector26>:
vector26():
/u/a/b/abhijith/CS537/p3a/xv6-sp20/kernel/vectors.S:129
  1065a3:	6a 00                	push   $0x0
/u/a/b/abhijith/CS537/p3a/xv6-sp20/kernel/vectors.S:130
  1065a5:	6a 1a                	push   $0x1a
/u/a/b/abhijith/CS537/p3a/xv6-sp20/kernel/vectors.S:131
  1065a7:	e9 ca f8 ff ff       	jmp    105e76 <alltraps>

001065ac <vector27>:
vector27():
/u/a/b/abhijith/CS537/p3a/xv6-sp20/kernel/vectors.S:134
  1065ac:	6a 00                	push   $0x0
/u/a/b/abhijith/CS537/p3a/xv6-sp20/kernel/vectors.S:135
  1065ae:	6a 1b                	push   $0x1b
/u/a/b/abhijith/CS537/p3a/xv6-sp20/kernel/vectors.S:136
  1065b0:	e9 c1 f8 ff ff       	jmp    105e76 <alltraps>

001065b5 <vector28>:
vector28():
/u/a/b/abhijith/CS537/p3a/xv6-sp20/kernel/vectors.S:139
  1065b5:	6a 00                	push   $0x0
/u/a/b/abhijith/CS537/p3a/xv6-sp20/kernel/vectors.S:140
  1065b7:	6a 1c                	push   $0x1c
/u/a/b/abhijith/CS537/p3a/xv6-sp20/kernel/vectors.S:141
  1065b9:	e9 b8 f8 ff ff       	jmp    105e76 <alltraps>

001065be <vector29>:
vector29():
/u/a/b/abhijith/CS537/p3a/xv6-sp20/kernel/vectors.S:144
  1065be:	6a 00                	push   $0x0
/u/a/b/abhijith/CS537/p3a/xv6-sp20/kernel/vectors.S:145
  1065c0:	6a 1d                	push   $0x1d
/u/a/b/abhijith/CS537/p3a/xv6-sp20/kernel/vectors.S:146
  1065c2:	e9 af f8 ff ff       	jmp    105e76 <alltraps>

001065c7 <vector30>:
vector30():
/u/a/b/abhijith/CS537/p3a/xv6-sp20/kernel/vectors.S:149
  1065c7:	6a 00                	push   $0x0
/u/a/b/abhijith/CS537/p3a/xv6-sp20/kernel/vectors.S:150
  1065c9:	6a 1e                	push   $0x1e
/u/a/b/abhijith/CS537/p3a/xv6-sp20/kernel/vectors.S:151
  1065cb:	e9 a6 f8 ff ff       	jmp    105e76 <alltraps>

001065d0 <vector31>:
vector31():
/u/a/b/abhijith/CS537/p3a/xv6-sp20/kernel/vectors.S:154
  1065d0:	6a 00                	push   $0x0
/u/a/b/abhijith/CS537/p3a/xv6-sp20/kernel/vectors.S:155
  1065d2:	6a 1f                	push   $0x1f
/u/a/b/abhijith/CS537/p3a/xv6-sp20/kernel/vectors.S:156
  1065d4:	e9 9d f8 ff ff       	jmp    105e76 <alltraps>

001065d9 <vector32>:
vector32():
/u/a/b/abhijith/CS537/p3a/xv6-sp20/kernel/vectors.S:159
  1065d9:	6a 00                	push   $0x0
/u/a/b/abhijith/CS537/p3a/xv6-sp20/kernel/vectors.S:160
  1065db:	6a 20                	push   $0x20
/u/a/b/abhijith/CS537/p3a/xv6-sp20/kernel/vectors.S:161
  1065dd:	e9 94 f8 ff ff       	jmp    105e76 <alltraps>

001065e2 <vector33>:
vector33():
/u/a/b/abhijith/CS537/p3a/xv6-sp20/kernel/vectors.S:164
  1065e2:	6a 00                	push   $0x0
/u/a/b/abhijith/CS537/p3a/xv6-sp20/kernel/vectors.S:165
  1065e4:	6a 21                	push   $0x21
/u/a/b/abhijith/CS537/p3a/xv6-sp20/kernel/vectors.S:166
  1065e6:	e9 8b f8 ff ff       	jmp    105e76 <alltraps>

001065eb <vector34>:
vector34():
/u/a/b/abhijith/CS537/p3a/xv6-sp20/kernel/vectors.S:169
  1065eb:	6a 00                	push   $0x0
/u/a/b/abhijith/CS537/p3a/xv6-sp20/kernel/vectors.S:170
  1065ed:	6a 22                	push   $0x22
/u/a/b/abhijith/CS537/p3a/xv6-sp20/kernel/vectors.S:171
  1065ef:	e9 82 f8 ff ff       	jmp    105e76 <alltraps>

001065f4 <vector35>:
vector35():
/u/a/b/abhijith/CS537/p3a/xv6-sp20/kernel/vectors.S:174
  1065f4:	6a 00                	push   $0x0
/u/a/b/abhijith/CS537/p3a/xv6-sp20/kernel/vectors.S:175
  1065f6:	6a 23                	push   $0x23
/u/a/b/abhijith/CS537/p3a/xv6-sp20/kernel/vectors.S:176
  1065f8:	e9 79 f8 ff ff       	jmp    105e76 <alltraps>

001065fd <vector36>:
vector36():
/u/a/b/abhijith/CS537/p3a/xv6-sp20/kernel/vectors.S:179
  1065fd:	6a 00                	push   $0x0
/u/a/b/abhijith/CS537/p3a/xv6-sp20/kernel/vectors.S:180
  1065ff:	6a 24                	push   $0x24
/u/a/b/abhijith/CS537/p3a/xv6-sp20/kernel/vectors.S:181
  106601:	e9 70 f8 ff ff       	jmp    105e76 <alltraps>

00106606 <vector37>:
vector37():
/u/a/b/abhijith/CS537/p3a/xv6-sp20/kernel/vectors.S:184
  106606:	6a 00                	push   $0x0
/u/a/b/abhijith/CS537/p3a/xv6-sp20/kernel/vectors.S:185
  106608:	6a 25                	push   $0x25
/u/a/b/abhijith/CS537/p3a/xv6-sp20/kernel/vectors.S:186
  10660a:	e9 67 f8 ff ff       	jmp    105e76 <alltraps>

0010660f <vector38>:
vector38():
/u/a/b/abhijith/CS537/p3a/xv6-sp20/kernel/vectors.S:189
  10660f:	6a 00                	push   $0x0
/u/a/b/abhijith/CS537/p3a/xv6-sp20/kernel/vectors.S:190
  106611:	6a 26                	push   $0x26
/u/a/b/abhijith/CS537/p3a/xv6-sp20/kernel/vectors.S:191
  106613:	e9 5e f8 ff ff       	jmp    105e76 <alltraps>

00106618 <vector39>:
vector39():
/u/a/b/abhijith/CS537/p3a/xv6-sp20/kernel/vectors.S:194
  106618:	6a 00                	push   $0x0
/u/a/b/abhijith/CS537/p3a/xv6-sp20/kernel/vectors.S:195
  10661a:	6a 27                	push   $0x27
/u/a/b/abhijith/CS537/p3a/xv6-sp20/kernel/vectors.S:196
  10661c:	e9 55 f8 ff ff       	jmp    105e76 <alltraps>

00106621 <vector40>:
vector40():
/u/a/b/abhijith/CS537/p3a/xv6-sp20/kernel/vectors.S:199
  106621:	6a 00                	push   $0x0
/u/a/b/abhijith/CS537/p3a/xv6-sp20/kernel/vectors.S:200
  106623:	6a 28                	push   $0x28
/u/a/b/abhijith/CS537/p3a/xv6-sp20/kernel/vectors.S:201
  106625:	e9 4c f8 ff ff       	jmp    105e76 <alltraps>

0010662a <vector41>:
vector41():
/u/a/b/abhijith/CS537/p3a/xv6-sp20/kernel/vectors.S:204
  10662a:	6a 00                	push   $0x0
/u/a/b/abhijith/CS537/p3a/xv6-sp20/kernel/vectors.S:205
  10662c:	6a 29                	push   $0x29
/u/a/b/abhijith/CS537/p3a/xv6-sp20/kernel/vectors.S:206
  10662e:	e9 43 f8 ff ff       	jmp    105e76 <alltraps>

00106633 <vector42>:
vector42():
/u/a/b/abhijith/CS537/p3a/xv6-sp20/kernel/vectors.S:209
  106633:	6a 00                	push   $0x0
/u/a/b/abhijith/CS537/p3a/xv6-sp20/kernel/vectors.S:210
  106635:	6a 2a                	push   $0x2a
/u/a/b/abhijith/CS537/p3a/xv6-sp20/kernel/vectors.S:211
  106637:	e9 3a f8 ff ff       	jmp    105e76 <alltraps>

0010663c <vector43>:
vector43():
/u/a/b/abhijith/CS537/p3a/xv6-sp20/kernel/vectors.S:214
  10663c:	6a 00                	push   $0x0
/u/a/b/abhijith/CS537/p3a/xv6-sp20/kernel/vectors.S:215
  10663e:	6a 2b                	push   $0x2b
/u/a/b/abhijith/CS537/p3a/xv6-sp20/kernel/vectors.S:216
  106640:	e9 31 f8 ff ff       	jmp    105e76 <alltraps>

00106645 <vector44>:
vector44():
/u/a/b/abhijith/CS537/p3a/xv6-sp20/kernel/vectors.S:219
  106645:	6a 00                	push   $0x0
/u/a/b/abhijith/CS537/p3a/xv6-sp20/kernel/vectors.S:220
  106647:	6a 2c                	push   $0x2c
/u/a/b/abhijith/CS537/p3a/xv6-sp20/kernel/vectors.S:221
  106649:	e9 28 f8 ff ff       	jmp    105e76 <alltraps>

0010664e <vector45>:
vector45():
/u/a/b/abhijith/CS537/p3a/xv6-sp20/kernel/vectors.S:224
  10664e:	6a 00                	push   $0x0
/u/a/b/abhijith/CS537/p3a/xv6-sp20/kernel/vectors.S:225
  106650:	6a 2d                	push   $0x2d
/u/a/b/abhijith/CS537/p3a/xv6-sp20/kernel/vectors.S:226
  106652:	e9 1f f8 ff ff       	jmp    105e76 <alltraps>

00106657 <vector46>:
vector46():
/u/a/b/abhijith/CS537/p3a/xv6-sp20/kernel/vectors.S:229
  106657:	6a 00                	push   $0x0
/u/a/b/abhijith/CS537/p3a/xv6-sp20/kernel/vectors.S:230
  106659:	6a 2e                	push   $0x2e
/u/a/b/abhijith/CS537/p3a/xv6-sp20/kernel/vectors.S:231
  10665b:	e9 16 f8 ff ff       	jmp    105e76 <alltraps>

00106660 <vector47>:
vector47():
/u/a/b/abhijith/CS537/p3a/xv6-sp20/kernel/vectors.S:234
  106660:	6a 00                	push   $0x0
/u/a/b/abhijith/CS537/p3a/xv6-sp20/kernel/vectors.S:235
  106662:	6a 2f                	push   $0x2f
/u/a/b/abhijith/CS537/p3a/xv6-sp20/kernel/vectors.S:236
  106664:	e9 0d f8 ff ff       	jmp    105e76 <alltraps>

00106669 <vector48>:
vector48():
/u/a/b/abhijith/CS537/p3a/xv6-sp20/kernel/vectors.S:239
  106669:	6a 00                	push   $0x0
/u/a/b/abhijith/CS537/p3a/xv6-sp20/kernel/vectors.S:240
  10666b:	6a 30                	push   $0x30
/u/a/b/abhijith/CS537/p3a/xv6-sp20/kernel/vectors.S:241
  10666d:	e9 04 f8 ff ff       	jmp    105e76 <alltraps>

00106672 <vector49>:
vector49():
/u/a/b/abhijith/CS537/p3a/xv6-sp20/kernel/vectors.S:244
  106672:	6a 00                	push   $0x0
/u/a/b/abhijith/CS537/p3a/xv6-sp20/kernel/vectors.S:245
  106674:	6a 31                	push   $0x31
/u/a/b/abhijith/CS537/p3a/xv6-sp20/kernel/vectors.S:246
  106676:	e9 fb f7 ff ff       	jmp    105e76 <alltraps>

0010667b <vector50>:
vector50():
/u/a/b/abhijith/CS537/p3a/xv6-sp20/kernel/vectors.S:249
  10667b:	6a 00                	push   $0x0
/u/a/b/abhijith/CS537/p3a/xv6-sp20/kernel/vectors.S:250
  10667d:	6a 32                	push   $0x32
/u/a/b/abhijith/CS537/p3a/xv6-sp20/kernel/vectors.S:251
  10667f:	e9 f2 f7 ff ff       	jmp    105e76 <alltraps>

00106684 <vector51>:
vector51():
/u/a/b/abhijith/CS537/p3a/xv6-sp20/kernel/vectors.S:254
  106684:	6a 00                	push   $0x0
/u/a/b/abhijith/CS537/p3a/xv6-sp20/kernel/vectors.S:255
  106686:	6a 33                	push   $0x33
/u/a/b/abhijith/CS537/p3a/xv6-sp20/kernel/vectors.S:256
  106688:	e9 e9 f7 ff ff       	jmp    105e76 <alltraps>

0010668d <vector52>:
vector52():
/u/a/b/abhijith/CS537/p3a/xv6-sp20/kernel/vectors.S:259
  10668d:	6a 00                	push   $0x0
/u/a/b/abhijith/CS537/p3a/xv6-sp20/kernel/vectors.S:260
  10668f:	6a 34                	push   $0x34
/u/a/b/abhijith/CS537/p3a/xv6-sp20/kernel/vectors.S:261
  106691:	e9 e0 f7 ff ff       	jmp    105e76 <alltraps>

00106696 <vector53>:
vector53():
/u/a/b/abhijith/CS537/p3a/xv6-sp20/kernel/vectors.S:264
  106696:	6a 00                	push   $0x0
/u/a/b/abhijith/CS537/p3a/xv6-sp20/kernel/vectors.S:265
  106698:	6a 35                	push   $0x35
/u/a/b/abhijith/CS537/p3a/xv6-sp20/kernel/vectors.S:266
  10669a:	e9 d7 f7 ff ff       	jmp    105e76 <alltraps>

0010669f <vector54>:
vector54():
/u/a/b/abhijith/CS537/p3a/xv6-sp20/kernel/vectors.S:269
  10669f:	6a 00                	push   $0x0
/u/a/b/abhijith/CS537/p3a/xv6-sp20/kernel/vectors.S:270
  1066a1:	6a 36                	push   $0x36
/u/a/b/abhijith/CS537/p3a/xv6-sp20/kernel/vectors.S:271
  1066a3:	e9 ce f7 ff ff       	jmp    105e76 <alltraps>

001066a8 <vector55>:
vector55():
/u/a/b/abhijith/CS537/p3a/xv6-sp20/kernel/vectors.S:274
  1066a8:	6a 00                	push   $0x0
/u/a/b/abhijith/CS537/p3a/xv6-sp20/kernel/vectors.S:275
  1066aa:	6a 37                	push   $0x37
/u/a/b/abhijith/CS537/p3a/xv6-sp20/kernel/vectors.S:276
  1066ac:	e9 c5 f7 ff ff       	jmp    105e76 <alltraps>

001066b1 <vector56>:
vector56():
/u/a/b/abhijith/CS537/p3a/xv6-sp20/kernel/vectors.S:279
  1066b1:	6a 00                	push   $0x0
/u/a/b/abhijith/CS537/p3a/xv6-sp20/kernel/vectors.S:280
  1066b3:	6a 38                	push   $0x38
/u/a/b/abhijith/CS537/p3a/xv6-sp20/kernel/vectors.S:281
  1066b5:	e9 bc f7 ff ff       	jmp    105e76 <alltraps>

001066ba <vector57>:
vector57():
/u/a/b/abhijith/CS537/p3a/xv6-sp20/kernel/vectors.S:284
  1066ba:	6a 00                	push   $0x0
/u/a/b/abhijith/CS537/p3a/xv6-sp20/kernel/vectors.S:285
  1066bc:	6a 39                	push   $0x39
/u/a/b/abhijith/CS537/p3a/xv6-sp20/kernel/vectors.S:286
  1066be:	e9 b3 f7 ff ff       	jmp    105e76 <alltraps>

001066c3 <vector58>:
vector58():
/u/a/b/abhijith/CS537/p3a/xv6-sp20/kernel/vectors.S:289
  1066c3:	6a 00                	push   $0x0
/u/a/b/abhijith/CS537/p3a/xv6-sp20/kernel/vectors.S:290
  1066c5:	6a 3a                	push   $0x3a
/u/a/b/abhijith/CS537/p3a/xv6-sp20/kernel/vectors.S:291
  1066c7:	e9 aa f7 ff ff       	jmp    105e76 <alltraps>

001066cc <vector59>:
vector59():
/u/a/b/abhijith/CS537/p3a/xv6-sp20/kernel/vectors.S:294
  1066cc:	6a 00                	push   $0x0
/u/a/b/abhijith/CS537/p3a/xv6-sp20/kernel/vectors.S:295
  1066ce:	6a 3b                	push   $0x3b
/u/a/b/abhijith/CS537/p3a/xv6-sp20/kernel/vectors.S:296
  1066d0:	e9 a1 f7 ff ff       	jmp    105e76 <alltraps>

001066d5 <vector60>:
vector60():
/u/a/b/abhijith/CS537/p3a/xv6-sp20/kernel/vectors.S:299
  1066d5:	6a 00                	push   $0x0
/u/a/b/abhijith/CS537/p3a/xv6-sp20/kernel/vectors.S:300
  1066d7:	6a 3c                	push   $0x3c
/u/a/b/abhijith/CS537/p3a/xv6-sp20/kernel/vectors.S:301
  1066d9:	e9 98 f7 ff ff       	jmp    105e76 <alltraps>

001066de <vector61>:
vector61():
/u/a/b/abhijith/CS537/p3a/xv6-sp20/kernel/vectors.S:304
  1066de:	6a 00                	push   $0x0
/u/a/b/abhijith/CS537/p3a/xv6-sp20/kernel/vectors.S:305
  1066e0:	6a 3d                	push   $0x3d
/u/a/b/abhijith/CS537/p3a/xv6-sp20/kernel/vectors.S:306
  1066e2:	e9 8f f7 ff ff       	jmp    105e76 <alltraps>

001066e7 <vector62>:
vector62():
/u/a/b/abhijith/CS537/p3a/xv6-sp20/kernel/vectors.S:309
  1066e7:	6a 00                	push   $0x0
/u/a/b/abhijith/CS537/p3a/xv6-sp20/kernel/vectors.S:310
  1066e9:	6a 3e                	push   $0x3e
/u/a/b/abhijith/CS537/p3a/xv6-sp20/kernel/vectors.S:311
  1066eb:	e9 86 f7 ff ff       	jmp    105e76 <alltraps>

001066f0 <vector63>:
vector63():
/u/a/b/abhijith/CS537/p3a/xv6-sp20/kernel/vectors.S:314
  1066f0:	6a 00                	push   $0x0
/u/a/b/abhijith/CS537/p3a/xv6-sp20/kernel/vectors.S:315
  1066f2:	6a 3f                	push   $0x3f
/u/a/b/abhijith/CS537/p3a/xv6-sp20/kernel/vectors.S:316
  1066f4:	e9 7d f7 ff ff       	jmp    105e76 <alltraps>

001066f9 <vector64>:
vector64():
/u/a/b/abhijith/CS537/p3a/xv6-sp20/kernel/vectors.S:319
  1066f9:	6a 00                	push   $0x0
/u/a/b/abhijith/CS537/p3a/xv6-sp20/kernel/vectors.S:320
  1066fb:	6a 40                	push   $0x40
/u/a/b/abhijith/CS537/p3a/xv6-sp20/kernel/vectors.S:321
  1066fd:	e9 74 f7 ff ff       	jmp    105e76 <alltraps>

00106702 <vector65>:
vector65():
/u/a/b/abhijith/CS537/p3a/xv6-sp20/kernel/vectors.S:324
  106702:	6a 00                	push   $0x0
/u/a/b/abhijith/CS537/p3a/xv6-sp20/kernel/vectors.S:325
  106704:	6a 41                	push   $0x41
/u/a/b/abhijith/CS537/p3a/xv6-sp20/kernel/vectors.S:326
  106706:	e9 6b f7 ff ff       	jmp    105e76 <alltraps>

0010670b <vector66>:
vector66():
/u/a/b/abhijith/CS537/p3a/xv6-sp20/kernel/vectors.S:329
  10670b:	6a 00                	push   $0x0
/u/a/b/abhijith/CS537/p3a/xv6-sp20/kernel/vectors.S:330
  10670d:	6a 42                	push   $0x42
/u/a/b/abhijith/CS537/p3a/xv6-sp20/kernel/vectors.S:331
  10670f:	e9 62 f7 ff ff       	jmp    105e76 <alltraps>

00106714 <vector67>:
vector67():
/u/a/b/abhijith/CS537/p3a/xv6-sp20/kernel/vectors.S:334
  106714:	6a 00                	push   $0x0
/u/a/b/abhijith/CS537/p3a/xv6-sp20/kernel/vectors.S:335
  106716:	6a 43                	push   $0x43
/u/a/b/abhijith/CS537/p3a/xv6-sp20/kernel/vectors.S:336
  106718:	e9 59 f7 ff ff       	jmp    105e76 <alltraps>

0010671d <vector68>:
vector68():
/u/a/b/abhijith/CS537/p3a/xv6-sp20/kernel/vectors.S:339
  10671d:	6a 00                	push   $0x0
/u/a/b/abhijith/CS537/p3a/xv6-sp20/kernel/vectors.S:340
  10671f:	6a 44                	push   $0x44
/u/a/b/abhijith/CS537/p3a/xv6-sp20/kernel/vectors.S:341
  106721:	e9 50 f7 ff ff       	jmp    105e76 <alltraps>

00106726 <vector69>:
vector69():
/u/a/b/abhijith/CS537/p3a/xv6-sp20/kernel/vectors.S:344
  106726:	6a 00                	push   $0x0
/u/a/b/abhijith/CS537/p3a/xv6-sp20/kernel/vectors.S:345
  106728:	6a 45                	push   $0x45
/u/a/b/abhijith/CS537/p3a/xv6-sp20/kernel/vectors.S:346
  10672a:	e9 47 f7 ff ff       	jmp    105e76 <alltraps>

0010672f <vector70>:
vector70():
/u/a/b/abhijith/CS537/p3a/xv6-sp20/kernel/vectors.S:349
  10672f:	6a 00                	push   $0x0
/u/a/b/abhijith/CS537/p3a/xv6-sp20/kernel/vectors.S:350
  106731:	6a 46                	push   $0x46
/u/a/b/abhijith/CS537/p3a/xv6-sp20/kernel/vectors.S:351
  106733:	e9 3e f7 ff ff       	jmp    105e76 <alltraps>

00106738 <vector71>:
vector71():
/u/a/b/abhijith/CS537/p3a/xv6-sp20/kernel/vectors.S:354
  106738:	6a 00                	push   $0x0
/u/a/b/abhijith/CS537/p3a/xv6-sp20/kernel/vectors.S:355
  10673a:	6a 47                	push   $0x47
/u/a/b/abhijith/CS537/p3a/xv6-sp20/kernel/vectors.S:356
  10673c:	e9 35 f7 ff ff       	jmp    105e76 <alltraps>

00106741 <vector72>:
vector72():
/u/a/b/abhijith/CS537/p3a/xv6-sp20/kernel/vectors.S:359
  106741:	6a 00                	push   $0x0
/u/a/b/abhijith/CS537/p3a/xv6-sp20/kernel/vectors.S:360
  106743:	6a 48                	push   $0x48
/u/a/b/abhijith/CS537/p3a/xv6-sp20/kernel/vectors.S:361
  106745:	e9 2c f7 ff ff       	jmp    105e76 <alltraps>

0010674a <vector73>:
vector73():
/u/a/b/abhijith/CS537/p3a/xv6-sp20/kernel/vectors.S:364
  10674a:	6a 00                	push   $0x0
/u/a/b/abhijith/CS537/p3a/xv6-sp20/kernel/vectors.S:365
  10674c:	6a 49                	push   $0x49
/u/a/b/abhijith/CS537/p3a/xv6-sp20/kernel/vectors.S:366
  10674e:	e9 23 f7 ff ff       	jmp    105e76 <alltraps>

00106753 <vector74>:
vector74():
/u/a/b/abhijith/CS537/p3a/xv6-sp20/kernel/vectors.S:369
  106753:	6a 00                	push   $0x0
/u/a/b/abhijith/CS537/p3a/xv6-sp20/kernel/vectors.S:370
  106755:	6a 4a                	push   $0x4a
/u/a/b/abhijith/CS537/p3a/xv6-sp20/kernel/vectors.S:371
  106757:	e9 1a f7 ff ff       	jmp    105e76 <alltraps>

0010675c <vector75>:
vector75():
/u/a/b/abhijith/CS537/p3a/xv6-sp20/kernel/vectors.S:374
  10675c:	6a 00                	push   $0x0
/u/a/b/abhijith/CS537/p3a/xv6-sp20/kernel/vectors.S:375
  10675e:	6a 4b                	push   $0x4b
/u/a/b/abhijith/CS537/p3a/xv6-sp20/kernel/vectors.S:376
  106760:	e9 11 f7 ff ff       	jmp    105e76 <alltraps>

00106765 <vector76>:
vector76():
/u/a/b/abhijith/CS537/p3a/xv6-sp20/kernel/vectors.S:379
  106765:	6a 00                	push   $0x0
/u/a/b/abhijith/CS537/p3a/xv6-sp20/kernel/vectors.S:380
  106767:	6a 4c                	push   $0x4c
/u/a/b/abhijith/CS537/p3a/xv6-sp20/kernel/vectors.S:381
  106769:	e9 08 f7 ff ff       	jmp    105e76 <alltraps>

0010676e <vector77>:
vector77():
/u/a/b/abhijith/CS537/p3a/xv6-sp20/kernel/vectors.S:384
  10676e:	6a 00                	push   $0x0
/u/a/b/abhijith/CS537/p3a/xv6-sp20/kernel/vectors.S:385
  106770:	6a 4d                	push   $0x4d
/u/a/b/abhijith/CS537/p3a/xv6-sp20/kernel/vectors.S:386
  106772:	e9 ff f6 ff ff       	jmp    105e76 <alltraps>

00106777 <vector78>:
vector78():
/u/a/b/abhijith/CS537/p3a/xv6-sp20/kernel/vectors.S:389
  106777:	6a 00                	push   $0x0
/u/a/b/abhijith/CS537/p3a/xv6-sp20/kernel/vectors.S:390
  106779:	6a 4e                	push   $0x4e
/u/a/b/abhijith/CS537/p3a/xv6-sp20/kernel/vectors.S:391
  10677b:	e9 f6 f6 ff ff       	jmp    105e76 <alltraps>

00106780 <vector79>:
vector79():
/u/a/b/abhijith/CS537/p3a/xv6-sp20/kernel/vectors.S:394
  106780:	6a 00                	push   $0x0
/u/a/b/abhijith/CS537/p3a/xv6-sp20/kernel/vectors.S:395
  106782:	6a 4f                	push   $0x4f
/u/a/b/abhijith/CS537/p3a/xv6-sp20/kernel/vectors.S:396
  106784:	e9 ed f6 ff ff       	jmp    105e76 <alltraps>

00106789 <vector80>:
vector80():
/u/a/b/abhijith/CS537/p3a/xv6-sp20/kernel/vectors.S:399
  106789:	6a 00                	push   $0x0
/u/a/b/abhijith/CS537/p3a/xv6-sp20/kernel/vectors.S:400
  10678b:	6a 50                	push   $0x50
/u/a/b/abhijith/CS537/p3a/xv6-sp20/kernel/vectors.S:401
  10678d:	e9 e4 f6 ff ff       	jmp    105e76 <alltraps>

00106792 <vector81>:
vector81():
/u/a/b/abhijith/CS537/p3a/xv6-sp20/kernel/vectors.S:404
  106792:	6a 00                	push   $0x0
/u/a/b/abhijith/CS537/p3a/xv6-sp20/kernel/vectors.S:405
  106794:	6a 51                	push   $0x51
/u/a/b/abhijith/CS537/p3a/xv6-sp20/kernel/vectors.S:406
  106796:	e9 db f6 ff ff       	jmp    105e76 <alltraps>

0010679b <vector82>:
vector82():
/u/a/b/abhijith/CS537/p3a/xv6-sp20/kernel/vectors.S:409
  10679b:	6a 00                	push   $0x0
/u/a/b/abhijith/CS537/p3a/xv6-sp20/kernel/vectors.S:410
  10679d:	6a 52                	push   $0x52
/u/a/b/abhijith/CS537/p3a/xv6-sp20/kernel/vectors.S:411
  10679f:	e9 d2 f6 ff ff       	jmp    105e76 <alltraps>

001067a4 <vector83>:
vector83():
/u/a/b/abhijith/CS537/p3a/xv6-sp20/kernel/vectors.S:414
  1067a4:	6a 00                	push   $0x0
/u/a/b/abhijith/CS537/p3a/xv6-sp20/kernel/vectors.S:415
  1067a6:	6a 53                	push   $0x53
/u/a/b/abhijith/CS537/p3a/xv6-sp20/kernel/vectors.S:416
  1067a8:	e9 c9 f6 ff ff       	jmp    105e76 <alltraps>

001067ad <vector84>:
vector84():
/u/a/b/abhijith/CS537/p3a/xv6-sp20/kernel/vectors.S:419
  1067ad:	6a 00                	push   $0x0
/u/a/b/abhijith/CS537/p3a/xv6-sp20/kernel/vectors.S:420
  1067af:	6a 54                	push   $0x54
/u/a/b/abhijith/CS537/p3a/xv6-sp20/kernel/vectors.S:421
  1067b1:	e9 c0 f6 ff ff       	jmp    105e76 <alltraps>

001067b6 <vector85>:
vector85():
/u/a/b/abhijith/CS537/p3a/xv6-sp20/kernel/vectors.S:424
  1067b6:	6a 00                	push   $0x0
/u/a/b/abhijith/CS537/p3a/xv6-sp20/kernel/vectors.S:425
  1067b8:	6a 55                	push   $0x55
/u/a/b/abhijith/CS537/p3a/xv6-sp20/kernel/vectors.S:426
  1067ba:	e9 b7 f6 ff ff       	jmp    105e76 <alltraps>

001067bf <vector86>:
vector86():
/u/a/b/abhijith/CS537/p3a/xv6-sp20/kernel/vectors.S:429
  1067bf:	6a 00                	push   $0x0
/u/a/b/abhijith/CS537/p3a/xv6-sp20/kernel/vectors.S:430
  1067c1:	6a 56                	push   $0x56
/u/a/b/abhijith/CS537/p3a/xv6-sp20/kernel/vectors.S:431
  1067c3:	e9 ae f6 ff ff       	jmp    105e76 <alltraps>

001067c8 <vector87>:
vector87():
/u/a/b/abhijith/CS537/p3a/xv6-sp20/kernel/vectors.S:434
  1067c8:	6a 00                	push   $0x0
/u/a/b/abhijith/CS537/p3a/xv6-sp20/kernel/vectors.S:435
  1067ca:	6a 57                	push   $0x57
/u/a/b/abhijith/CS537/p3a/xv6-sp20/kernel/vectors.S:436
  1067cc:	e9 a5 f6 ff ff       	jmp    105e76 <alltraps>

001067d1 <vector88>:
vector88():
/u/a/b/abhijith/CS537/p3a/xv6-sp20/kernel/vectors.S:439
  1067d1:	6a 00                	push   $0x0
/u/a/b/abhijith/CS537/p3a/xv6-sp20/kernel/vectors.S:440
  1067d3:	6a 58                	push   $0x58
/u/a/b/abhijith/CS537/p3a/xv6-sp20/kernel/vectors.S:441
  1067d5:	e9 9c f6 ff ff       	jmp    105e76 <alltraps>

001067da <vector89>:
vector89():
/u/a/b/abhijith/CS537/p3a/xv6-sp20/kernel/vectors.S:444
  1067da:	6a 00                	push   $0x0
/u/a/b/abhijith/CS537/p3a/xv6-sp20/kernel/vectors.S:445
  1067dc:	6a 59                	push   $0x59
/u/a/b/abhijith/CS537/p3a/xv6-sp20/kernel/vectors.S:446
  1067de:	e9 93 f6 ff ff       	jmp    105e76 <alltraps>

001067e3 <vector90>:
vector90():
/u/a/b/abhijith/CS537/p3a/xv6-sp20/kernel/vectors.S:449
  1067e3:	6a 00                	push   $0x0
/u/a/b/abhijith/CS537/p3a/xv6-sp20/kernel/vectors.S:450
  1067e5:	6a 5a                	push   $0x5a
/u/a/b/abhijith/CS537/p3a/xv6-sp20/kernel/vectors.S:451
  1067e7:	e9 8a f6 ff ff       	jmp    105e76 <alltraps>

001067ec <vector91>:
vector91():
/u/a/b/abhijith/CS537/p3a/xv6-sp20/kernel/vectors.S:454
  1067ec:	6a 00                	push   $0x0
/u/a/b/abhijith/CS537/p3a/xv6-sp20/kernel/vectors.S:455
  1067ee:	6a 5b                	push   $0x5b
/u/a/b/abhijith/CS537/p3a/xv6-sp20/kernel/vectors.S:456
  1067f0:	e9 81 f6 ff ff       	jmp    105e76 <alltraps>

001067f5 <vector92>:
vector92():
/u/a/b/abhijith/CS537/p3a/xv6-sp20/kernel/vectors.S:459
  1067f5:	6a 00                	push   $0x0
/u/a/b/abhijith/CS537/p3a/xv6-sp20/kernel/vectors.S:460
  1067f7:	6a 5c                	push   $0x5c
/u/a/b/abhijith/CS537/p3a/xv6-sp20/kernel/vectors.S:461
  1067f9:	e9 78 f6 ff ff       	jmp    105e76 <alltraps>

001067fe <vector93>:
vector93():
/u/a/b/abhijith/CS537/p3a/xv6-sp20/kernel/vectors.S:464
  1067fe:	6a 00                	push   $0x0
/u/a/b/abhijith/CS537/p3a/xv6-sp20/kernel/vectors.S:465
  106800:	6a 5d                	push   $0x5d
/u/a/b/abhijith/CS537/p3a/xv6-sp20/kernel/vectors.S:466
  106802:	e9 6f f6 ff ff       	jmp    105e76 <alltraps>

00106807 <vector94>:
vector94():
/u/a/b/abhijith/CS537/p3a/xv6-sp20/kernel/vectors.S:469
  106807:	6a 00                	push   $0x0
/u/a/b/abhijith/CS537/p3a/xv6-sp20/kernel/vectors.S:470
  106809:	6a 5e                	push   $0x5e
/u/a/b/abhijith/CS537/p3a/xv6-sp20/kernel/vectors.S:471
  10680b:	e9 66 f6 ff ff       	jmp    105e76 <alltraps>

00106810 <vector95>:
vector95():
/u/a/b/abhijith/CS537/p3a/xv6-sp20/kernel/vectors.S:474
  106810:	6a 00                	push   $0x0
/u/a/b/abhijith/CS537/p3a/xv6-sp20/kernel/vectors.S:475
  106812:	6a 5f                	push   $0x5f
/u/a/b/abhijith/CS537/p3a/xv6-sp20/kernel/vectors.S:476
  106814:	e9 5d f6 ff ff       	jmp    105e76 <alltraps>

00106819 <vector96>:
vector96():
/u/a/b/abhijith/CS537/p3a/xv6-sp20/kernel/vectors.S:479
  106819:	6a 00                	push   $0x0
/u/a/b/abhijith/CS537/p3a/xv6-sp20/kernel/vectors.S:480
  10681b:	6a 60                	push   $0x60
/u/a/b/abhijith/CS537/p3a/xv6-sp20/kernel/vectors.S:481
  10681d:	e9 54 f6 ff ff       	jmp    105e76 <alltraps>

00106822 <vector97>:
vector97():
/u/a/b/abhijith/CS537/p3a/xv6-sp20/kernel/vectors.S:484
  106822:	6a 00                	push   $0x0
/u/a/b/abhijith/CS537/p3a/xv6-sp20/kernel/vectors.S:485
  106824:	6a 61                	push   $0x61
/u/a/b/abhijith/CS537/p3a/xv6-sp20/kernel/vectors.S:486
  106826:	e9 4b f6 ff ff       	jmp    105e76 <alltraps>

0010682b <vector98>:
vector98():
/u/a/b/abhijith/CS537/p3a/xv6-sp20/kernel/vectors.S:489
  10682b:	6a 00                	push   $0x0
/u/a/b/abhijith/CS537/p3a/xv6-sp20/kernel/vectors.S:490
  10682d:	6a 62                	push   $0x62
/u/a/b/abhijith/CS537/p3a/xv6-sp20/kernel/vectors.S:491
  10682f:	e9 42 f6 ff ff       	jmp    105e76 <alltraps>

00106834 <vector99>:
vector99():
/u/a/b/abhijith/CS537/p3a/xv6-sp20/kernel/vectors.S:494
  106834:	6a 00                	push   $0x0
/u/a/b/abhijith/CS537/p3a/xv6-sp20/kernel/vectors.S:495
  106836:	6a 63                	push   $0x63
/u/a/b/abhijith/CS537/p3a/xv6-sp20/kernel/vectors.S:496
  106838:	e9 39 f6 ff ff       	jmp    105e76 <alltraps>

0010683d <vector100>:
vector100():
/u/a/b/abhijith/CS537/p3a/xv6-sp20/kernel/vectors.S:499
  10683d:	6a 00                	push   $0x0
/u/a/b/abhijith/CS537/p3a/xv6-sp20/kernel/vectors.S:500
  10683f:	6a 64                	push   $0x64
/u/a/b/abhijith/CS537/p3a/xv6-sp20/kernel/vectors.S:501
  106841:	e9 30 f6 ff ff       	jmp    105e76 <alltraps>

00106846 <vector101>:
vector101():
/u/a/b/abhijith/CS537/p3a/xv6-sp20/kernel/vectors.S:504
  106846:	6a 00                	push   $0x0
/u/a/b/abhijith/CS537/p3a/xv6-sp20/kernel/vectors.S:505
  106848:	6a 65                	push   $0x65
/u/a/b/abhijith/CS537/p3a/xv6-sp20/kernel/vectors.S:506
  10684a:	e9 27 f6 ff ff       	jmp    105e76 <alltraps>

0010684f <vector102>:
vector102():
/u/a/b/abhijith/CS537/p3a/xv6-sp20/kernel/vectors.S:509
  10684f:	6a 00                	push   $0x0
/u/a/b/abhijith/CS537/p3a/xv6-sp20/kernel/vectors.S:510
  106851:	6a 66                	push   $0x66
/u/a/b/abhijith/CS537/p3a/xv6-sp20/kernel/vectors.S:511
  106853:	e9 1e f6 ff ff       	jmp    105e76 <alltraps>

00106858 <vector103>:
vector103():
/u/a/b/abhijith/CS537/p3a/xv6-sp20/kernel/vectors.S:514
  106858:	6a 00                	push   $0x0
/u/a/b/abhijith/CS537/p3a/xv6-sp20/kernel/vectors.S:515
  10685a:	6a 67                	push   $0x67
/u/a/b/abhijith/CS537/p3a/xv6-sp20/kernel/vectors.S:516
  10685c:	e9 15 f6 ff ff       	jmp    105e76 <alltraps>

00106861 <vector104>:
vector104():
/u/a/b/abhijith/CS537/p3a/xv6-sp20/kernel/vectors.S:519
  106861:	6a 00                	push   $0x0
/u/a/b/abhijith/CS537/p3a/xv6-sp20/kernel/vectors.S:520
  106863:	6a 68                	push   $0x68
/u/a/b/abhijith/CS537/p3a/xv6-sp20/kernel/vectors.S:521
  106865:	e9 0c f6 ff ff       	jmp    105e76 <alltraps>

0010686a <vector105>:
vector105():
/u/a/b/abhijith/CS537/p3a/xv6-sp20/kernel/vectors.S:524
  10686a:	6a 00                	push   $0x0
/u/a/b/abhijith/CS537/p3a/xv6-sp20/kernel/vectors.S:525
  10686c:	6a 69                	push   $0x69
/u/a/b/abhijith/CS537/p3a/xv6-sp20/kernel/vectors.S:526
  10686e:	e9 03 f6 ff ff       	jmp    105e76 <alltraps>

00106873 <vector106>:
vector106():
/u/a/b/abhijith/CS537/p3a/xv6-sp20/kernel/vectors.S:529
  106873:	6a 00                	push   $0x0
/u/a/b/abhijith/CS537/p3a/xv6-sp20/kernel/vectors.S:530
  106875:	6a 6a                	push   $0x6a
/u/a/b/abhijith/CS537/p3a/xv6-sp20/kernel/vectors.S:531
  106877:	e9 fa f5 ff ff       	jmp    105e76 <alltraps>

0010687c <vector107>:
vector107():
/u/a/b/abhijith/CS537/p3a/xv6-sp20/kernel/vectors.S:534
  10687c:	6a 00                	push   $0x0
/u/a/b/abhijith/CS537/p3a/xv6-sp20/kernel/vectors.S:535
  10687e:	6a 6b                	push   $0x6b
/u/a/b/abhijith/CS537/p3a/xv6-sp20/kernel/vectors.S:536
  106880:	e9 f1 f5 ff ff       	jmp    105e76 <alltraps>

00106885 <vector108>:
vector108():
/u/a/b/abhijith/CS537/p3a/xv6-sp20/kernel/vectors.S:539
  106885:	6a 00                	push   $0x0
/u/a/b/abhijith/CS537/p3a/xv6-sp20/kernel/vectors.S:540
  106887:	6a 6c                	push   $0x6c
/u/a/b/abhijith/CS537/p3a/xv6-sp20/kernel/vectors.S:541
  106889:	e9 e8 f5 ff ff       	jmp    105e76 <alltraps>

0010688e <vector109>:
vector109():
/u/a/b/abhijith/CS537/p3a/xv6-sp20/kernel/vectors.S:544
  10688e:	6a 00                	push   $0x0
/u/a/b/abhijith/CS537/p3a/xv6-sp20/kernel/vectors.S:545
  106890:	6a 6d                	push   $0x6d
/u/a/b/abhijith/CS537/p3a/xv6-sp20/kernel/vectors.S:546
  106892:	e9 df f5 ff ff       	jmp    105e76 <alltraps>

00106897 <vector110>:
vector110():
/u/a/b/abhijith/CS537/p3a/xv6-sp20/kernel/vectors.S:549
  106897:	6a 00                	push   $0x0
/u/a/b/abhijith/CS537/p3a/xv6-sp20/kernel/vectors.S:550
  106899:	6a 6e                	push   $0x6e
/u/a/b/abhijith/CS537/p3a/xv6-sp20/kernel/vectors.S:551
  10689b:	e9 d6 f5 ff ff       	jmp    105e76 <alltraps>

001068a0 <vector111>:
vector111():
/u/a/b/abhijith/CS537/p3a/xv6-sp20/kernel/vectors.S:554
  1068a0:	6a 00                	push   $0x0
/u/a/b/abhijith/CS537/p3a/xv6-sp20/kernel/vectors.S:555
  1068a2:	6a 6f                	push   $0x6f
/u/a/b/abhijith/CS537/p3a/xv6-sp20/kernel/vectors.S:556
  1068a4:	e9 cd f5 ff ff       	jmp    105e76 <alltraps>

001068a9 <vector112>:
vector112():
/u/a/b/abhijith/CS537/p3a/xv6-sp20/kernel/vectors.S:559
  1068a9:	6a 00                	push   $0x0
/u/a/b/abhijith/CS537/p3a/xv6-sp20/kernel/vectors.S:560
  1068ab:	6a 70                	push   $0x70
/u/a/b/abhijith/CS537/p3a/xv6-sp20/kernel/vectors.S:561
  1068ad:	e9 c4 f5 ff ff       	jmp    105e76 <alltraps>

001068b2 <vector113>:
vector113():
/u/a/b/abhijith/CS537/p3a/xv6-sp20/kernel/vectors.S:564
  1068b2:	6a 00                	push   $0x0
/u/a/b/abhijith/CS537/p3a/xv6-sp20/kernel/vectors.S:565
  1068b4:	6a 71                	push   $0x71
/u/a/b/abhijith/CS537/p3a/xv6-sp20/kernel/vectors.S:566
  1068b6:	e9 bb f5 ff ff       	jmp    105e76 <alltraps>

001068bb <vector114>:
vector114():
/u/a/b/abhijith/CS537/p3a/xv6-sp20/kernel/vectors.S:569
  1068bb:	6a 00                	push   $0x0
/u/a/b/abhijith/CS537/p3a/xv6-sp20/kernel/vectors.S:570
  1068bd:	6a 72                	push   $0x72
/u/a/b/abhijith/CS537/p3a/xv6-sp20/kernel/vectors.S:571
  1068bf:	e9 b2 f5 ff ff       	jmp    105e76 <alltraps>

001068c4 <vector115>:
vector115():
/u/a/b/abhijith/CS537/p3a/xv6-sp20/kernel/vectors.S:574
  1068c4:	6a 00                	push   $0x0
/u/a/b/abhijith/CS537/p3a/xv6-sp20/kernel/vectors.S:575
  1068c6:	6a 73                	push   $0x73
/u/a/b/abhijith/CS537/p3a/xv6-sp20/kernel/vectors.S:576
  1068c8:	e9 a9 f5 ff ff       	jmp    105e76 <alltraps>

001068cd <vector116>:
vector116():
/u/a/b/abhijith/CS537/p3a/xv6-sp20/kernel/vectors.S:579
  1068cd:	6a 00                	push   $0x0
/u/a/b/abhijith/CS537/p3a/xv6-sp20/kernel/vectors.S:580
  1068cf:	6a 74                	push   $0x74
/u/a/b/abhijith/CS537/p3a/xv6-sp20/kernel/vectors.S:581
  1068d1:	e9 a0 f5 ff ff       	jmp    105e76 <alltraps>

001068d6 <vector117>:
vector117():
/u/a/b/abhijith/CS537/p3a/xv6-sp20/kernel/vectors.S:584
  1068d6:	6a 00                	push   $0x0
/u/a/b/abhijith/CS537/p3a/xv6-sp20/kernel/vectors.S:585
  1068d8:	6a 75                	push   $0x75
/u/a/b/abhijith/CS537/p3a/xv6-sp20/kernel/vectors.S:586
  1068da:	e9 97 f5 ff ff       	jmp    105e76 <alltraps>

001068df <vector118>:
vector118():
/u/a/b/abhijith/CS537/p3a/xv6-sp20/kernel/vectors.S:589
  1068df:	6a 00                	push   $0x0
/u/a/b/abhijith/CS537/p3a/xv6-sp20/kernel/vectors.S:590
  1068e1:	6a 76                	push   $0x76
/u/a/b/abhijith/CS537/p3a/xv6-sp20/kernel/vectors.S:591
  1068e3:	e9 8e f5 ff ff       	jmp    105e76 <alltraps>

001068e8 <vector119>:
vector119():
/u/a/b/abhijith/CS537/p3a/xv6-sp20/kernel/vectors.S:594
  1068e8:	6a 00                	push   $0x0
/u/a/b/abhijith/CS537/p3a/xv6-sp20/kernel/vectors.S:595
  1068ea:	6a 77                	push   $0x77
/u/a/b/abhijith/CS537/p3a/xv6-sp20/kernel/vectors.S:596
  1068ec:	e9 85 f5 ff ff       	jmp    105e76 <alltraps>

001068f1 <vector120>:
vector120():
/u/a/b/abhijith/CS537/p3a/xv6-sp20/kernel/vectors.S:599
  1068f1:	6a 00                	push   $0x0
/u/a/b/abhijith/CS537/p3a/xv6-sp20/kernel/vectors.S:600
  1068f3:	6a 78                	push   $0x78
/u/a/b/abhijith/CS537/p3a/xv6-sp20/kernel/vectors.S:601
  1068f5:	e9 7c f5 ff ff       	jmp    105e76 <alltraps>

001068fa <vector121>:
vector121():
/u/a/b/abhijith/CS537/p3a/xv6-sp20/kernel/vectors.S:604
  1068fa:	6a 00                	push   $0x0
/u/a/b/abhijith/CS537/p3a/xv6-sp20/kernel/vectors.S:605
  1068fc:	6a 79                	push   $0x79
/u/a/b/abhijith/CS537/p3a/xv6-sp20/kernel/vectors.S:606
  1068fe:	e9 73 f5 ff ff       	jmp    105e76 <alltraps>

00106903 <vector122>:
vector122():
/u/a/b/abhijith/CS537/p3a/xv6-sp20/kernel/vectors.S:609
  106903:	6a 00                	push   $0x0
/u/a/b/abhijith/CS537/p3a/xv6-sp20/kernel/vectors.S:610
  106905:	6a 7a                	push   $0x7a
/u/a/b/abhijith/CS537/p3a/xv6-sp20/kernel/vectors.S:611
  106907:	e9 6a f5 ff ff       	jmp    105e76 <alltraps>

0010690c <vector123>:
vector123():
/u/a/b/abhijith/CS537/p3a/xv6-sp20/kernel/vectors.S:614
  10690c:	6a 00                	push   $0x0
/u/a/b/abhijith/CS537/p3a/xv6-sp20/kernel/vectors.S:615
  10690e:	6a 7b                	push   $0x7b
/u/a/b/abhijith/CS537/p3a/xv6-sp20/kernel/vectors.S:616
  106910:	e9 61 f5 ff ff       	jmp    105e76 <alltraps>

00106915 <vector124>:
vector124():
/u/a/b/abhijith/CS537/p3a/xv6-sp20/kernel/vectors.S:619
  106915:	6a 00                	push   $0x0
/u/a/b/abhijith/CS537/p3a/xv6-sp20/kernel/vectors.S:620
  106917:	6a 7c                	push   $0x7c
/u/a/b/abhijith/CS537/p3a/xv6-sp20/kernel/vectors.S:621
  106919:	e9 58 f5 ff ff       	jmp    105e76 <alltraps>

0010691e <vector125>:
vector125():
/u/a/b/abhijith/CS537/p3a/xv6-sp20/kernel/vectors.S:624
  10691e:	6a 00                	push   $0x0
/u/a/b/abhijith/CS537/p3a/xv6-sp20/kernel/vectors.S:625
  106920:	6a 7d                	push   $0x7d
/u/a/b/abhijith/CS537/p3a/xv6-sp20/kernel/vectors.S:626
  106922:	e9 4f f5 ff ff       	jmp    105e76 <alltraps>

00106927 <vector126>:
vector126():
/u/a/b/abhijith/CS537/p3a/xv6-sp20/kernel/vectors.S:629
  106927:	6a 00                	push   $0x0
/u/a/b/abhijith/CS537/p3a/xv6-sp20/kernel/vectors.S:630
  106929:	6a 7e                	push   $0x7e
/u/a/b/abhijith/CS537/p3a/xv6-sp20/kernel/vectors.S:631
  10692b:	e9 46 f5 ff ff       	jmp    105e76 <alltraps>

00106930 <vector127>:
vector127():
/u/a/b/abhijith/CS537/p3a/xv6-sp20/kernel/vectors.S:634
  106930:	6a 00                	push   $0x0
/u/a/b/abhijith/CS537/p3a/xv6-sp20/kernel/vectors.S:635
  106932:	6a 7f                	push   $0x7f
/u/a/b/abhijith/CS537/p3a/xv6-sp20/kernel/vectors.S:636
  106934:	e9 3d f5 ff ff       	jmp    105e76 <alltraps>

00106939 <vector128>:
vector128():
/u/a/b/abhijith/CS537/p3a/xv6-sp20/kernel/vectors.S:639
  106939:	6a 00                	push   $0x0
/u/a/b/abhijith/CS537/p3a/xv6-sp20/kernel/vectors.S:640
  10693b:	68 80 00 00 00       	push   $0x80
/u/a/b/abhijith/CS537/p3a/xv6-sp20/kernel/vectors.S:641
  106940:	e9 31 f5 ff ff       	jmp    105e76 <alltraps>

00106945 <vector129>:
vector129():
/u/a/b/abhijith/CS537/p3a/xv6-sp20/kernel/vectors.S:644
  106945:	6a 00                	push   $0x0
/u/a/b/abhijith/CS537/p3a/xv6-sp20/kernel/vectors.S:645
  106947:	68 81 00 00 00       	push   $0x81
/u/a/b/abhijith/CS537/p3a/xv6-sp20/kernel/vectors.S:646
  10694c:	e9 25 f5 ff ff       	jmp    105e76 <alltraps>

00106951 <vector130>:
vector130():
/u/a/b/abhijith/CS537/p3a/xv6-sp20/kernel/vectors.S:649
  106951:	6a 00                	push   $0x0
/u/a/b/abhijith/CS537/p3a/xv6-sp20/kernel/vectors.S:650
  106953:	68 82 00 00 00       	push   $0x82
/u/a/b/abhijith/CS537/p3a/xv6-sp20/kernel/vectors.S:651
  106958:	e9 19 f5 ff ff       	jmp    105e76 <alltraps>

0010695d <vector131>:
vector131():
/u/a/b/abhijith/CS537/p3a/xv6-sp20/kernel/vectors.S:654
  10695d:	6a 00                	push   $0x0
/u/a/b/abhijith/CS537/p3a/xv6-sp20/kernel/vectors.S:655
  10695f:	68 83 00 00 00       	push   $0x83
/u/a/b/abhijith/CS537/p3a/xv6-sp20/kernel/vectors.S:656
  106964:	e9 0d f5 ff ff       	jmp    105e76 <alltraps>

00106969 <vector132>:
vector132():
/u/a/b/abhijith/CS537/p3a/xv6-sp20/kernel/vectors.S:659
  106969:	6a 00                	push   $0x0
/u/a/b/abhijith/CS537/p3a/xv6-sp20/kernel/vectors.S:660
  10696b:	68 84 00 00 00       	push   $0x84
/u/a/b/abhijith/CS537/p3a/xv6-sp20/kernel/vectors.S:661
  106970:	e9 01 f5 ff ff       	jmp    105e76 <alltraps>

00106975 <vector133>:
vector133():
/u/a/b/abhijith/CS537/p3a/xv6-sp20/kernel/vectors.S:664
  106975:	6a 00                	push   $0x0
/u/a/b/abhijith/CS537/p3a/xv6-sp20/kernel/vectors.S:665
  106977:	68 85 00 00 00       	push   $0x85
/u/a/b/abhijith/CS537/p3a/xv6-sp20/kernel/vectors.S:666
  10697c:	e9 f5 f4 ff ff       	jmp    105e76 <alltraps>

00106981 <vector134>:
vector134():
/u/a/b/abhijith/CS537/p3a/xv6-sp20/kernel/vectors.S:669
  106981:	6a 00                	push   $0x0
/u/a/b/abhijith/CS537/p3a/xv6-sp20/kernel/vectors.S:670
  106983:	68 86 00 00 00       	push   $0x86
/u/a/b/abhijith/CS537/p3a/xv6-sp20/kernel/vectors.S:671
  106988:	e9 e9 f4 ff ff       	jmp    105e76 <alltraps>

0010698d <vector135>:
vector135():
/u/a/b/abhijith/CS537/p3a/xv6-sp20/kernel/vectors.S:674
  10698d:	6a 00                	push   $0x0
/u/a/b/abhijith/CS537/p3a/xv6-sp20/kernel/vectors.S:675
  10698f:	68 87 00 00 00       	push   $0x87
/u/a/b/abhijith/CS537/p3a/xv6-sp20/kernel/vectors.S:676
  106994:	e9 dd f4 ff ff       	jmp    105e76 <alltraps>

00106999 <vector136>:
vector136():
/u/a/b/abhijith/CS537/p3a/xv6-sp20/kernel/vectors.S:679
  106999:	6a 00                	push   $0x0
/u/a/b/abhijith/CS537/p3a/xv6-sp20/kernel/vectors.S:680
  10699b:	68 88 00 00 00       	push   $0x88
/u/a/b/abhijith/CS537/p3a/xv6-sp20/kernel/vectors.S:681
  1069a0:	e9 d1 f4 ff ff       	jmp    105e76 <alltraps>

001069a5 <vector137>:
vector137():
/u/a/b/abhijith/CS537/p3a/xv6-sp20/kernel/vectors.S:684
  1069a5:	6a 00                	push   $0x0
/u/a/b/abhijith/CS537/p3a/xv6-sp20/kernel/vectors.S:685
  1069a7:	68 89 00 00 00       	push   $0x89
/u/a/b/abhijith/CS537/p3a/xv6-sp20/kernel/vectors.S:686
  1069ac:	e9 c5 f4 ff ff       	jmp    105e76 <alltraps>

001069b1 <vector138>:
vector138():
/u/a/b/abhijith/CS537/p3a/xv6-sp20/kernel/vectors.S:689
  1069b1:	6a 00                	push   $0x0
/u/a/b/abhijith/CS537/p3a/xv6-sp20/kernel/vectors.S:690
  1069b3:	68 8a 00 00 00       	push   $0x8a
/u/a/b/abhijith/CS537/p3a/xv6-sp20/kernel/vectors.S:691
  1069b8:	e9 b9 f4 ff ff       	jmp    105e76 <alltraps>

001069bd <vector139>:
vector139():
/u/a/b/abhijith/CS537/p3a/xv6-sp20/kernel/vectors.S:694
  1069bd:	6a 00                	push   $0x0
/u/a/b/abhijith/CS537/p3a/xv6-sp20/kernel/vectors.S:695
  1069bf:	68 8b 00 00 00       	push   $0x8b
/u/a/b/abhijith/CS537/p3a/xv6-sp20/kernel/vectors.S:696
  1069c4:	e9 ad f4 ff ff       	jmp    105e76 <alltraps>

001069c9 <vector140>:
vector140():
/u/a/b/abhijith/CS537/p3a/xv6-sp20/kernel/vectors.S:699
  1069c9:	6a 00                	push   $0x0
/u/a/b/abhijith/CS537/p3a/xv6-sp20/kernel/vectors.S:700
  1069cb:	68 8c 00 00 00       	push   $0x8c
/u/a/b/abhijith/CS537/p3a/xv6-sp20/kernel/vectors.S:701
  1069d0:	e9 a1 f4 ff ff       	jmp    105e76 <alltraps>

001069d5 <vector141>:
vector141():
/u/a/b/abhijith/CS537/p3a/xv6-sp20/kernel/vectors.S:704
  1069d5:	6a 00                	push   $0x0
/u/a/b/abhijith/CS537/p3a/xv6-sp20/kernel/vectors.S:705
  1069d7:	68 8d 00 00 00       	push   $0x8d
/u/a/b/abhijith/CS537/p3a/xv6-sp20/kernel/vectors.S:706
  1069dc:	e9 95 f4 ff ff       	jmp    105e76 <alltraps>

001069e1 <vector142>:
vector142():
/u/a/b/abhijith/CS537/p3a/xv6-sp20/kernel/vectors.S:709
  1069e1:	6a 00                	push   $0x0
/u/a/b/abhijith/CS537/p3a/xv6-sp20/kernel/vectors.S:710
  1069e3:	68 8e 00 00 00       	push   $0x8e
/u/a/b/abhijith/CS537/p3a/xv6-sp20/kernel/vectors.S:711
  1069e8:	e9 89 f4 ff ff       	jmp    105e76 <alltraps>

001069ed <vector143>:
vector143():
/u/a/b/abhijith/CS537/p3a/xv6-sp20/kernel/vectors.S:714
  1069ed:	6a 00                	push   $0x0
/u/a/b/abhijith/CS537/p3a/xv6-sp20/kernel/vectors.S:715
  1069ef:	68 8f 00 00 00       	push   $0x8f
/u/a/b/abhijith/CS537/p3a/xv6-sp20/kernel/vectors.S:716
  1069f4:	e9 7d f4 ff ff       	jmp    105e76 <alltraps>

001069f9 <vector144>:
vector144():
/u/a/b/abhijith/CS537/p3a/xv6-sp20/kernel/vectors.S:719
  1069f9:	6a 00                	push   $0x0
/u/a/b/abhijith/CS537/p3a/xv6-sp20/kernel/vectors.S:720
  1069fb:	68 90 00 00 00       	push   $0x90
/u/a/b/abhijith/CS537/p3a/xv6-sp20/kernel/vectors.S:721
  106a00:	e9 71 f4 ff ff       	jmp    105e76 <alltraps>

00106a05 <vector145>:
vector145():
/u/a/b/abhijith/CS537/p3a/xv6-sp20/kernel/vectors.S:724
  106a05:	6a 00                	push   $0x0
/u/a/b/abhijith/CS537/p3a/xv6-sp20/kernel/vectors.S:725
  106a07:	68 91 00 00 00       	push   $0x91
/u/a/b/abhijith/CS537/p3a/xv6-sp20/kernel/vectors.S:726
  106a0c:	e9 65 f4 ff ff       	jmp    105e76 <alltraps>

00106a11 <vector146>:
vector146():
/u/a/b/abhijith/CS537/p3a/xv6-sp20/kernel/vectors.S:729
  106a11:	6a 00                	push   $0x0
/u/a/b/abhijith/CS537/p3a/xv6-sp20/kernel/vectors.S:730
  106a13:	68 92 00 00 00       	push   $0x92
/u/a/b/abhijith/CS537/p3a/xv6-sp20/kernel/vectors.S:731
  106a18:	e9 59 f4 ff ff       	jmp    105e76 <alltraps>

00106a1d <vector147>:
vector147():
/u/a/b/abhijith/CS537/p3a/xv6-sp20/kernel/vectors.S:734
  106a1d:	6a 00                	push   $0x0
/u/a/b/abhijith/CS537/p3a/xv6-sp20/kernel/vectors.S:735
  106a1f:	68 93 00 00 00       	push   $0x93
/u/a/b/abhijith/CS537/p3a/xv6-sp20/kernel/vectors.S:736
  106a24:	e9 4d f4 ff ff       	jmp    105e76 <alltraps>

00106a29 <vector148>:
vector148():
/u/a/b/abhijith/CS537/p3a/xv6-sp20/kernel/vectors.S:739
  106a29:	6a 00                	push   $0x0
/u/a/b/abhijith/CS537/p3a/xv6-sp20/kernel/vectors.S:740
  106a2b:	68 94 00 00 00       	push   $0x94
/u/a/b/abhijith/CS537/p3a/xv6-sp20/kernel/vectors.S:741
  106a30:	e9 41 f4 ff ff       	jmp    105e76 <alltraps>

00106a35 <vector149>:
vector149():
/u/a/b/abhijith/CS537/p3a/xv6-sp20/kernel/vectors.S:744
  106a35:	6a 00                	push   $0x0
/u/a/b/abhijith/CS537/p3a/xv6-sp20/kernel/vectors.S:745
  106a37:	68 95 00 00 00       	push   $0x95
/u/a/b/abhijith/CS537/p3a/xv6-sp20/kernel/vectors.S:746
  106a3c:	e9 35 f4 ff ff       	jmp    105e76 <alltraps>

00106a41 <vector150>:
vector150():
/u/a/b/abhijith/CS537/p3a/xv6-sp20/kernel/vectors.S:749
  106a41:	6a 00                	push   $0x0
/u/a/b/abhijith/CS537/p3a/xv6-sp20/kernel/vectors.S:750
  106a43:	68 96 00 00 00       	push   $0x96
/u/a/b/abhijith/CS537/p3a/xv6-sp20/kernel/vectors.S:751
  106a48:	e9 29 f4 ff ff       	jmp    105e76 <alltraps>

00106a4d <vector151>:
vector151():
/u/a/b/abhijith/CS537/p3a/xv6-sp20/kernel/vectors.S:754
  106a4d:	6a 00                	push   $0x0
/u/a/b/abhijith/CS537/p3a/xv6-sp20/kernel/vectors.S:755
  106a4f:	68 97 00 00 00       	push   $0x97
/u/a/b/abhijith/CS537/p3a/xv6-sp20/kernel/vectors.S:756
  106a54:	e9 1d f4 ff ff       	jmp    105e76 <alltraps>

00106a59 <vector152>:
vector152():
/u/a/b/abhijith/CS537/p3a/xv6-sp20/kernel/vectors.S:759
  106a59:	6a 00                	push   $0x0
/u/a/b/abhijith/CS537/p3a/xv6-sp20/kernel/vectors.S:760
  106a5b:	68 98 00 00 00       	push   $0x98
/u/a/b/abhijith/CS537/p3a/xv6-sp20/kernel/vectors.S:761
  106a60:	e9 11 f4 ff ff       	jmp    105e76 <alltraps>

00106a65 <vector153>:
vector153():
/u/a/b/abhijith/CS537/p3a/xv6-sp20/kernel/vectors.S:764
  106a65:	6a 00                	push   $0x0
/u/a/b/abhijith/CS537/p3a/xv6-sp20/kernel/vectors.S:765
  106a67:	68 99 00 00 00       	push   $0x99
/u/a/b/abhijith/CS537/p3a/xv6-sp20/kernel/vectors.S:766
  106a6c:	e9 05 f4 ff ff       	jmp    105e76 <alltraps>

00106a71 <vector154>:
vector154():
/u/a/b/abhijith/CS537/p3a/xv6-sp20/kernel/vectors.S:769
  106a71:	6a 00                	push   $0x0
/u/a/b/abhijith/CS537/p3a/xv6-sp20/kernel/vectors.S:770
  106a73:	68 9a 00 00 00       	push   $0x9a
/u/a/b/abhijith/CS537/p3a/xv6-sp20/kernel/vectors.S:771
  106a78:	e9 f9 f3 ff ff       	jmp    105e76 <alltraps>

00106a7d <vector155>:
vector155():
/u/a/b/abhijith/CS537/p3a/xv6-sp20/kernel/vectors.S:774
  106a7d:	6a 00                	push   $0x0
/u/a/b/abhijith/CS537/p3a/xv6-sp20/kernel/vectors.S:775
  106a7f:	68 9b 00 00 00       	push   $0x9b
/u/a/b/abhijith/CS537/p3a/xv6-sp20/kernel/vectors.S:776
  106a84:	e9 ed f3 ff ff       	jmp    105e76 <alltraps>

00106a89 <vector156>:
vector156():
/u/a/b/abhijith/CS537/p3a/xv6-sp20/kernel/vectors.S:779
  106a89:	6a 00                	push   $0x0
/u/a/b/abhijith/CS537/p3a/xv6-sp20/kernel/vectors.S:780
  106a8b:	68 9c 00 00 00       	push   $0x9c
/u/a/b/abhijith/CS537/p3a/xv6-sp20/kernel/vectors.S:781
  106a90:	e9 e1 f3 ff ff       	jmp    105e76 <alltraps>

00106a95 <vector157>:
vector157():
/u/a/b/abhijith/CS537/p3a/xv6-sp20/kernel/vectors.S:784
  106a95:	6a 00                	push   $0x0
/u/a/b/abhijith/CS537/p3a/xv6-sp20/kernel/vectors.S:785
  106a97:	68 9d 00 00 00       	push   $0x9d
/u/a/b/abhijith/CS537/p3a/xv6-sp20/kernel/vectors.S:786
  106a9c:	e9 d5 f3 ff ff       	jmp    105e76 <alltraps>

00106aa1 <vector158>:
vector158():
/u/a/b/abhijith/CS537/p3a/xv6-sp20/kernel/vectors.S:789
  106aa1:	6a 00                	push   $0x0
/u/a/b/abhijith/CS537/p3a/xv6-sp20/kernel/vectors.S:790
  106aa3:	68 9e 00 00 00       	push   $0x9e
/u/a/b/abhijith/CS537/p3a/xv6-sp20/kernel/vectors.S:791
  106aa8:	e9 c9 f3 ff ff       	jmp    105e76 <alltraps>

00106aad <vector159>:
vector159():
/u/a/b/abhijith/CS537/p3a/xv6-sp20/kernel/vectors.S:794
  106aad:	6a 00                	push   $0x0
/u/a/b/abhijith/CS537/p3a/xv6-sp20/kernel/vectors.S:795
  106aaf:	68 9f 00 00 00       	push   $0x9f
/u/a/b/abhijith/CS537/p3a/xv6-sp20/kernel/vectors.S:796
  106ab4:	e9 bd f3 ff ff       	jmp    105e76 <alltraps>

00106ab9 <vector160>:
vector160():
/u/a/b/abhijith/CS537/p3a/xv6-sp20/kernel/vectors.S:799
  106ab9:	6a 00                	push   $0x0
/u/a/b/abhijith/CS537/p3a/xv6-sp20/kernel/vectors.S:800
  106abb:	68 a0 00 00 00       	push   $0xa0
/u/a/b/abhijith/CS537/p3a/xv6-sp20/kernel/vectors.S:801
  106ac0:	e9 b1 f3 ff ff       	jmp    105e76 <alltraps>

00106ac5 <vector161>:
vector161():
/u/a/b/abhijith/CS537/p3a/xv6-sp20/kernel/vectors.S:804
  106ac5:	6a 00                	push   $0x0
/u/a/b/abhijith/CS537/p3a/xv6-sp20/kernel/vectors.S:805
  106ac7:	68 a1 00 00 00       	push   $0xa1
/u/a/b/abhijith/CS537/p3a/xv6-sp20/kernel/vectors.S:806
  106acc:	e9 a5 f3 ff ff       	jmp    105e76 <alltraps>

00106ad1 <vector162>:
vector162():
/u/a/b/abhijith/CS537/p3a/xv6-sp20/kernel/vectors.S:809
  106ad1:	6a 00                	push   $0x0
/u/a/b/abhijith/CS537/p3a/xv6-sp20/kernel/vectors.S:810
  106ad3:	68 a2 00 00 00       	push   $0xa2
/u/a/b/abhijith/CS537/p3a/xv6-sp20/kernel/vectors.S:811
  106ad8:	e9 99 f3 ff ff       	jmp    105e76 <alltraps>

00106add <vector163>:
vector163():
/u/a/b/abhijith/CS537/p3a/xv6-sp20/kernel/vectors.S:814
  106add:	6a 00                	push   $0x0
/u/a/b/abhijith/CS537/p3a/xv6-sp20/kernel/vectors.S:815
  106adf:	68 a3 00 00 00       	push   $0xa3
/u/a/b/abhijith/CS537/p3a/xv6-sp20/kernel/vectors.S:816
  106ae4:	e9 8d f3 ff ff       	jmp    105e76 <alltraps>

00106ae9 <vector164>:
vector164():
/u/a/b/abhijith/CS537/p3a/xv6-sp20/kernel/vectors.S:819
  106ae9:	6a 00                	push   $0x0
/u/a/b/abhijith/CS537/p3a/xv6-sp20/kernel/vectors.S:820
  106aeb:	68 a4 00 00 00       	push   $0xa4
/u/a/b/abhijith/CS537/p3a/xv6-sp20/kernel/vectors.S:821
  106af0:	e9 81 f3 ff ff       	jmp    105e76 <alltraps>

00106af5 <vector165>:
vector165():
/u/a/b/abhijith/CS537/p3a/xv6-sp20/kernel/vectors.S:824
  106af5:	6a 00                	push   $0x0
/u/a/b/abhijith/CS537/p3a/xv6-sp20/kernel/vectors.S:825
  106af7:	68 a5 00 00 00       	push   $0xa5
/u/a/b/abhijith/CS537/p3a/xv6-sp20/kernel/vectors.S:826
  106afc:	e9 75 f3 ff ff       	jmp    105e76 <alltraps>

00106b01 <vector166>:
vector166():
/u/a/b/abhijith/CS537/p3a/xv6-sp20/kernel/vectors.S:829
  106b01:	6a 00                	push   $0x0
/u/a/b/abhijith/CS537/p3a/xv6-sp20/kernel/vectors.S:830
  106b03:	68 a6 00 00 00       	push   $0xa6
/u/a/b/abhijith/CS537/p3a/xv6-sp20/kernel/vectors.S:831
  106b08:	e9 69 f3 ff ff       	jmp    105e76 <alltraps>

00106b0d <vector167>:
vector167():
/u/a/b/abhijith/CS537/p3a/xv6-sp20/kernel/vectors.S:834
  106b0d:	6a 00                	push   $0x0
/u/a/b/abhijith/CS537/p3a/xv6-sp20/kernel/vectors.S:835
  106b0f:	68 a7 00 00 00       	push   $0xa7
/u/a/b/abhijith/CS537/p3a/xv6-sp20/kernel/vectors.S:836
  106b14:	e9 5d f3 ff ff       	jmp    105e76 <alltraps>

00106b19 <vector168>:
vector168():
/u/a/b/abhijith/CS537/p3a/xv6-sp20/kernel/vectors.S:839
  106b19:	6a 00                	push   $0x0
/u/a/b/abhijith/CS537/p3a/xv6-sp20/kernel/vectors.S:840
  106b1b:	68 a8 00 00 00       	push   $0xa8
/u/a/b/abhijith/CS537/p3a/xv6-sp20/kernel/vectors.S:841
  106b20:	e9 51 f3 ff ff       	jmp    105e76 <alltraps>

00106b25 <vector169>:
vector169():
/u/a/b/abhijith/CS537/p3a/xv6-sp20/kernel/vectors.S:844
  106b25:	6a 00                	push   $0x0
/u/a/b/abhijith/CS537/p3a/xv6-sp20/kernel/vectors.S:845
  106b27:	68 a9 00 00 00       	push   $0xa9
/u/a/b/abhijith/CS537/p3a/xv6-sp20/kernel/vectors.S:846
  106b2c:	e9 45 f3 ff ff       	jmp    105e76 <alltraps>

00106b31 <vector170>:
vector170():
/u/a/b/abhijith/CS537/p3a/xv6-sp20/kernel/vectors.S:849
  106b31:	6a 00                	push   $0x0
/u/a/b/abhijith/CS537/p3a/xv6-sp20/kernel/vectors.S:850
  106b33:	68 aa 00 00 00       	push   $0xaa
/u/a/b/abhijith/CS537/p3a/xv6-sp20/kernel/vectors.S:851
  106b38:	e9 39 f3 ff ff       	jmp    105e76 <alltraps>

00106b3d <vector171>:
vector171():
/u/a/b/abhijith/CS537/p3a/xv6-sp20/kernel/vectors.S:854
  106b3d:	6a 00                	push   $0x0
/u/a/b/abhijith/CS537/p3a/xv6-sp20/kernel/vectors.S:855
  106b3f:	68 ab 00 00 00       	push   $0xab
/u/a/b/abhijith/CS537/p3a/xv6-sp20/kernel/vectors.S:856
  106b44:	e9 2d f3 ff ff       	jmp    105e76 <alltraps>

00106b49 <vector172>:
vector172():
/u/a/b/abhijith/CS537/p3a/xv6-sp20/kernel/vectors.S:859
  106b49:	6a 00                	push   $0x0
/u/a/b/abhijith/CS537/p3a/xv6-sp20/kernel/vectors.S:860
  106b4b:	68 ac 00 00 00       	push   $0xac
/u/a/b/abhijith/CS537/p3a/xv6-sp20/kernel/vectors.S:861
  106b50:	e9 21 f3 ff ff       	jmp    105e76 <alltraps>

00106b55 <vector173>:
vector173():
/u/a/b/abhijith/CS537/p3a/xv6-sp20/kernel/vectors.S:864
  106b55:	6a 00                	push   $0x0
/u/a/b/abhijith/CS537/p3a/xv6-sp20/kernel/vectors.S:865
  106b57:	68 ad 00 00 00       	push   $0xad
/u/a/b/abhijith/CS537/p3a/xv6-sp20/kernel/vectors.S:866
  106b5c:	e9 15 f3 ff ff       	jmp    105e76 <alltraps>

00106b61 <vector174>:
vector174():
/u/a/b/abhijith/CS537/p3a/xv6-sp20/kernel/vectors.S:869
  106b61:	6a 00                	push   $0x0
/u/a/b/abhijith/CS537/p3a/xv6-sp20/kernel/vectors.S:870
  106b63:	68 ae 00 00 00       	push   $0xae
/u/a/b/abhijith/CS537/p3a/xv6-sp20/kernel/vectors.S:871
  106b68:	e9 09 f3 ff ff       	jmp    105e76 <alltraps>

00106b6d <vector175>:
vector175():
/u/a/b/abhijith/CS537/p3a/xv6-sp20/kernel/vectors.S:874
  106b6d:	6a 00                	push   $0x0
/u/a/b/abhijith/CS537/p3a/xv6-sp20/kernel/vectors.S:875
  106b6f:	68 af 00 00 00       	push   $0xaf
/u/a/b/abhijith/CS537/p3a/xv6-sp20/kernel/vectors.S:876
  106b74:	e9 fd f2 ff ff       	jmp    105e76 <alltraps>

00106b79 <vector176>:
vector176():
/u/a/b/abhijith/CS537/p3a/xv6-sp20/kernel/vectors.S:879
  106b79:	6a 00                	push   $0x0
/u/a/b/abhijith/CS537/p3a/xv6-sp20/kernel/vectors.S:880
  106b7b:	68 b0 00 00 00       	push   $0xb0
/u/a/b/abhijith/CS537/p3a/xv6-sp20/kernel/vectors.S:881
  106b80:	e9 f1 f2 ff ff       	jmp    105e76 <alltraps>

00106b85 <vector177>:
vector177():
/u/a/b/abhijith/CS537/p3a/xv6-sp20/kernel/vectors.S:884
  106b85:	6a 00                	push   $0x0
/u/a/b/abhijith/CS537/p3a/xv6-sp20/kernel/vectors.S:885
  106b87:	68 b1 00 00 00       	push   $0xb1
/u/a/b/abhijith/CS537/p3a/xv6-sp20/kernel/vectors.S:886
  106b8c:	e9 e5 f2 ff ff       	jmp    105e76 <alltraps>

00106b91 <vector178>:
vector178():
/u/a/b/abhijith/CS537/p3a/xv6-sp20/kernel/vectors.S:889
  106b91:	6a 00                	push   $0x0
/u/a/b/abhijith/CS537/p3a/xv6-sp20/kernel/vectors.S:890
  106b93:	68 b2 00 00 00       	push   $0xb2
/u/a/b/abhijith/CS537/p3a/xv6-sp20/kernel/vectors.S:891
  106b98:	e9 d9 f2 ff ff       	jmp    105e76 <alltraps>

00106b9d <vector179>:
vector179():
/u/a/b/abhijith/CS537/p3a/xv6-sp20/kernel/vectors.S:894
  106b9d:	6a 00                	push   $0x0
/u/a/b/abhijith/CS537/p3a/xv6-sp20/kernel/vectors.S:895
  106b9f:	68 b3 00 00 00       	push   $0xb3
/u/a/b/abhijith/CS537/p3a/xv6-sp20/kernel/vectors.S:896
  106ba4:	e9 cd f2 ff ff       	jmp    105e76 <alltraps>

00106ba9 <vector180>:
vector180():
/u/a/b/abhijith/CS537/p3a/xv6-sp20/kernel/vectors.S:899
  106ba9:	6a 00                	push   $0x0
/u/a/b/abhijith/CS537/p3a/xv6-sp20/kernel/vectors.S:900
  106bab:	68 b4 00 00 00       	push   $0xb4
/u/a/b/abhijith/CS537/p3a/xv6-sp20/kernel/vectors.S:901
  106bb0:	e9 c1 f2 ff ff       	jmp    105e76 <alltraps>

00106bb5 <vector181>:
vector181():
/u/a/b/abhijith/CS537/p3a/xv6-sp20/kernel/vectors.S:904
  106bb5:	6a 00                	push   $0x0
/u/a/b/abhijith/CS537/p3a/xv6-sp20/kernel/vectors.S:905
  106bb7:	68 b5 00 00 00       	push   $0xb5
/u/a/b/abhijith/CS537/p3a/xv6-sp20/kernel/vectors.S:906
  106bbc:	e9 b5 f2 ff ff       	jmp    105e76 <alltraps>

00106bc1 <vector182>:
vector182():
/u/a/b/abhijith/CS537/p3a/xv6-sp20/kernel/vectors.S:909
  106bc1:	6a 00                	push   $0x0
/u/a/b/abhijith/CS537/p3a/xv6-sp20/kernel/vectors.S:910
  106bc3:	68 b6 00 00 00       	push   $0xb6
/u/a/b/abhijith/CS537/p3a/xv6-sp20/kernel/vectors.S:911
  106bc8:	e9 a9 f2 ff ff       	jmp    105e76 <alltraps>

00106bcd <vector183>:
vector183():
/u/a/b/abhijith/CS537/p3a/xv6-sp20/kernel/vectors.S:914
  106bcd:	6a 00                	push   $0x0
/u/a/b/abhijith/CS537/p3a/xv6-sp20/kernel/vectors.S:915
  106bcf:	68 b7 00 00 00       	push   $0xb7
/u/a/b/abhijith/CS537/p3a/xv6-sp20/kernel/vectors.S:916
  106bd4:	e9 9d f2 ff ff       	jmp    105e76 <alltraps>

00106bd9 <vector184>:
vector184():
/u/a/b/abhijith/CS537/p3a/xv6-sp20/kernel/vectors.S:919
  106bd9:	6a 00                	push   $0x0
/u/a/b/abhijith/CS537/p3a/xv6-sp20/kernel/vectors.S:920
  106bdb:	68 b8 00 00 00       	push   $0xb8
/u/a/b/abhijith/CS537/p3a/xv6-sp20/kernel/vectors.S:921
  106be0:	e9 91 f2 ff ff       	jmp    105e76 <alltraps>

00106be5 <vector185>:
vector185():
/u/a/b/abhijith/CS537/p3a/xv6-sp20/kernel/vectors.S:924
  106be5:	6a 00                	push   $0x0
/u/a/b/abhijith/CS537/p3a/xv6-sp20/kernel/vectors.S:925
  106be7:	68 b9 00 00 00       	push   $0xb9
/u/a/b/abhijith/CS537/p3a/xv6-sp20/kernel/vectors.S:926
  106bec:	e9 85 f2 ff ff       	jmp    105e76 <alltraps>

00106bf1 <vector186>:
vector186():
/u/a/b/abhijith/CS537/p3a/xv6-sp20/kernel/vectors.S:929
  106bf1:	6a 00                	push   $0x0
/u/a/b/abhijith/CS537/p3a/xv6-sp20/kernel/vectors.S:930
  106bf3:	68 ba 00 00 00       	push   $0xba
/u/a/b/abhijith/CS537/p3a/xv6-sp20/kernel/vectors.S:931
  106bf8:	e9 79 f2 ff ff       	jmp    105e76 <alltraps>

00106bfd <vector187>:
vector187():
/u/a/b/abhijith/CS537/p3a/xv6-sp20/kernel/vectors.S:934
  106bfd:	6a 00                	push   $0x0
/u/a/b/abhijith/CS537/p3a/xv6-sp20/kernel/vectors.S:935
  106bff:	68 bb 00 00 00       	push   $0xbb
/u/a/b/abhijith/CS537/p3a/xv6-sp20/kernel/vectors.S:936
  106c04:	e9 6d f2 ff ff       	jmp    105e76 <alltraps>

00106c09 <vector188>:
vector188():
/u/a/b/abhijith/CS537/p3a/xv6-sp20/kernel/vectors.S:939
  106c09:	6a 00                	push   $0x0
/u/a/b/abhijith/CS537/p3a/xv6-sp20/kernel/vectors.S:940
  106c0b:	68 bc 00 00 00       	push   $0xbc
/u/a/b/abhijith/CS537/p3a/xv6-sp20/kernel/vectors.S:941
  106c10:	e9 61 f2 ff ff       	jmp    105e76 <alltraps>

00106c15 <vector189>:
vector189():
/u/a/b/abhijith/CS537/p3a/xv6-sp20/kernel/vectors.S:944
  106c15:	6a 00                	push   $0x0
/u/a/b/abhijith/CS537/p3a/xv6-sp20/kernel/vectors.S:945
  106c17:	68 bd 00 00 00       	push   $0xbd
/u/a/b/abhijith/CS537/p3a/xv6-sp20/kernel/vectors.S:946
  106c1c:	e9 55 f2 ff ff       	jmp    105e76 <alltraps>

00106c21 <vector190>:
vector190():
/u/a/b/abhijith/CS537/p3a/xv6-sp20/kernel/vectors.S:949
  106c21:	6a 00                	push   $0x0
/u/a/b/abhijith/CS537/p3a/xv6-sp20/kernel/vectors.S:950
  106c23:	68 be 00 00 00       	push   $0xbe
/u/a/b/abhijith/CS537/p3a/xv6-sp20/kernel/vectors.S:951
  106c28:	e9 49 f2 ff ff       	jmp    105e76 <alltraps>

00106c2d <vector191>:
vector191():
/u/a/b/abhijith/CS537/p3a/xv6-sp20/kernel/vectors.S:954
  106c2d:	6a 00                	push   $0x0
/u/a/b/abhijith/CS537/p3a/xv6-sp20/kernel/vectors.S:955
  106c2f:	68 bf 00 00 00       	push   $0xbf
/u/a/b/abhijith/CS537/p3a/xv6-sp20/kernel/vectors.S:956
  106c34:	e9 3d f2 ff ff       	jmp    105e76 <alltraps>

00106c39 <vector192>:
vector192():
/u/a/b/abhijith/CS537/p3a/xv6-sp20/kernel/vectors.S:959
  106c39:	6a 00                	push   $0x0
/u/a/b/abhijith/CS537/p3a/xv6-sp20/kernel/vectors.S:960
  106c3b:	68 c0 00 00 00       	push   $0xc0
/u/a/b/abhijith/CS537/p3a/xv6-sp20/kernel/vectors.S:961
  106c40:	e9 31 f2 ff ff       	jmp    105e76 <alltraps>

00106c45 <vector193>:
vector193():
/u/a/b/abhijith/CS537/p3a/xv6-sp20/kernel/vectors.S:964
  106c45:	6a 00                	push   $0x0
/u/a/b/abhijith/CS537/p3a/xv6-sp20/kernel/vectors.S:965
  106c47:	68 c1 00 00 00       	push   $0xc1
/u/a/b/abhijith/CS537/p3a/xv6-sp20/kernel/vectors.S:966
  106c4c:	e9 25 f2 ff ff       	jmp    105e76 <alltraps>

00106c51 <vector194>:
vector194():
/u/a/b/abhijith/CS537/p3a/xv6-sp20/kernel/vectors.S:969
  106c51:	6a 00                	push   $0x0
/u/a/b/abhijith/CS537/p3a/xv6-sp20/kernel/vectors.S:970
  106c53:	68 c2 00 00 00       	push   $0xc2
/u/a/b/abhijith/CS537/p3a/xv6-sp20/kernel/vectors.S:971
  106c58:	e9 19 f2 ff ff       	jmp    105e76 <alltraps>

00106c5d <vector195>:
vector195():
/u/a/b/abhijith/CS537/p3a/xv6-sp20/kernel/vectors.S:974
  106c5d:	6a 00                	push   $0x0
/u/a/b/abhijith/CS537/p3a/xv6-sp20/kernel/vectors.S:975
  106c5f:	68 c3 00 00 00       	push   $0xc3
/u/a/b/abhijith/CS537/p3a/xv6-sp20/kernel/vectors.S:976
  106c64:	e9 0d f2 ff ff       	jmp    105e76 <alltraps>

00106c69 <vector196>:
vector196():
/u/a/b/abhijith/CS537/p3a/xv6-sp20/kernel/vectors.S:979
  106c69:	6a 00                	push   $0x0
/u/a/b/abhijith/CS537/p3a/xv6-sp20/kernel/vectors.S:980
  106c6b:	68 c4 00 00 00       	push   $0xc4
/u/a/b/abhijith/CS537/p3a/xv6-sp20/kernel/vectors.S:981
  106c70:	e9 01 f2 ff ff       	jmp    105e76 <alltraps>

00106c75 <vector197>:
vector197():
/u/a/b/abhijith/CS537/p3a/xv6-sp20/kernel/vectors.S:984
  106c75:	6a 00                	push   $0x0
/u/a/b/abhijith/CS537/p3a/xv6-sp20/kernel/vectors.S:985
  106c77:	68 c5 00 00 00       	push   $0xc5
/u/a/b/abhijith/CS537/p3a/xv6-sp20/kernel/vectors.S:986
  106c7c:	e9 f5 f1 ff ff       	jmp    105e76 <alltraps>

00106c81 <vector198>:
vector198():
/u/a/b/abhijith/CS537/p3a/xv6-sp20/kernel/vectors.S:989
  106c81:	6a 00                	push   $0x0
/u/a/b/abhijith/CS537/p3a/xv6-sp20/kernel/vectors.S:990
  106c83:	68 c6 00 00 00       	push   $0xc6
/u/a/b/abhijith/CS537/p3a/xv6-sp20/kernel/vectors.S:991
  106c88:	e9 e9 f1 ff ff       	jmp    105e76 <alltraps>

00106c8d <vector199>:
vector199():
/u/a/b/abhijith/CS537/p3a/xv6-sp20/kernel/vectors.S:994
  106c8d:	6a 00                	push   $0x0
/u/a/b/abhijith/CS537/p3a/xv6-sp20/kernel/vectors.S:995
  106c8f:	68 c7 00 00 00       	push   $0xc7
/u/a/b/abhijith/CS537/p3a/xv6-sp20/kernel/vectors.S:996
  106c94:	e9 dd f1 ff ff       	jmp    105e76 <alltraps>

00106c99 <vector200>:
vector200():
/u/a/b/abhijith/CS537/p3a/xv6-sp20/kernel/vectors.S:999
  106c99:	6a 00                	push   $0x0
/u/a/b/abhijith/CS537/p3a/xv6-sp20/kernel/vectors.S:1000
  106c9b:	68 c8 00 00 00       	push   $0xc8
/u/a/b/abhijith/CS537/p3a/xv6-sp20/kernel/vectors.S:1001
  106ca0:	e9 d1 f1 ff ff       	jmp    105e76 <alltraps>

00106ca5 <vector201>:
vector201():
/u/a/b/abhijith/CS537/p3a/xv6-sp20/kernel/vectors.S:1004
  106ca5:	6a 00                	push   $0x0
/u/a/b/abhijith/CS537/p3a/xv6-sp20/kernel/vectors.S:1005
  106ca7:	68 c9 00 00 00       	push   $0xc9
/u/a/b/abhijith/CS537/p3a/xv6-sp20/kernel/vectors.S:1006
  106cac:	e9 c5 f1 ff ff       	jmp    105e76 <alltraps>

00106cb1 <vector202>:
vector202():
/u/a/b/abhijith/CS537/p3a/xv6-sp20/kernel/vectors.S:1009
  106cb1:	6a 00                	push   $0x0
/u/a/b/abhijith/CS537/p3a/xv6-sp20/kernel/vectors.S:1010
  106cb3:	68 ca 00 00 00       	push   $0xca
/u/a/b/abhijith/CS537/p3a/xv6-sp20/kernel/vectors.S:1011
  106cb8:	e9 b9 f1 ff ff       	jmp    105e76 <alltraps>

00106cbd <vector203>:
vector203():
/u/a/b/abhijith/CS537/p3a/xv6-sp20/kernel/vectors.S:1014
  106cbd:	6a 00                	push   $0x0
/u/a/b/abhijith/CS537/p3a/xv6-sp20/kernel/vectors.S:1015
  106cbf:	68 cb 00 00 00       	push   $0xcb
/u/a/b/abhijith/CS537/p3a/xv6-sp20/kernel/vectors.S:1016
  106cc4:	e9 ad f1 ff ff       	jmp    105e76 <alltraps>

00106cc9 <vector204>:
vector204():
/u/a/b/abhijith/CS537/p3a/xv6-sp20/kernel/vectors.S:1019
  106cc9:	6a 00                	push   $0x0
/u/a/b/abhijith/CS537/p3a/xv6-sp20/kernel/vectors.S:1020
  106ccb:	68 cc 00 00 00       	push   $0xcc
/u/a/b/abhijith/CS537/p3a/xv6-sp20/kernel/vectors.S:1021
  106cd0:	e9 a1 f1 ff ff       	jmp    105e76 <alltraps>

00106cd5 <vector205>:
vector205():
/u/a/b/abhijith/CS537/p3a/xv6-sp20/kernel/vectors.S:1024
  106cd5:	6a 00                	push   $0x0
/u/a/b/abhijith/CS537/p3a/xv6-sp20/kernel/vectors.S:1025
  106cd7:	68 cd 00 00 00       	push   $0xcd
/u/a/b/abhijith/CS537/p3a/xv6-sp20/kernel/vectors.S:1026
  106cdc:	e9 95 f1 ff ff       	jmp    105e76 <alltraps>

00106ce1 <vector206>:
vector206():
/u/a/b/abhijith/CS537/p3a/xv6-sp20/kernel/vectors.S:1029
  106ce1:	6a 00                	push   $0x0
/u/a/b/abhijith/CS537/p3a/xv6-sp20/kernel/vectors.S:1030
  106ce3:	68 ce 00 00 00       	push   $0xce
/u/a/b/abhijith/CS537/p3a/xv6-sp20/kernel/vectors.S:1031
  106ce8:	e9 89 f1 ff ff       	jmp    105e76 <alltraps>

00106ced <vector207>:
vector207():
/u/a/b/abhijith/CS537/p3a/xv6-sp20/kernel/vectors.S:1034
  106ced:	6a 00                	push   $0x0
/u/a/b/abhijith/CS537/p3a/xv6-sp20/kernel/vectors.S:1035
  106cef:	68 cf 00 00 00       	push   $0xcf
/u/a/b/abhijith/CS537/p3a/xv6-sp20/kernel/vectors.S:1036
  106cf4:	e9 7d f1 ff ff       	jmp    105e76 <alltraps>

00106cf9 <vector208>:
vector208():
/u/a/b/abhijith/CS537/p3a/xv6-sp20/kernel/vectors.S:1039
  106cf9:	6a 00                	push   $0x0
/u/a/b/abhijith/CS537/p3a/xv6-sp20/kernel/vectors.S:1040
  106cfb:	68 d0 00 00 00       	push   $0xd0
/u/a/b/abhijith/CS537/p3a/xv6-sp20/kernel/vectors.S:1041
  106d00:	e9 71 f1 ff ff       	jmp    105e76 <alltraps>

00106d05 <vector209>:
vector209():
/u/a/b/abhijith/CS537/p3a/xv6-sp20/kernel/vectors.S:1044
  106d05:	6a 00                	push   $0x0
/u/a/b/abhijith/CS537/p3a/xv6-sp20/kernel/vectors.S:1045
  106d07:	68 d1 00 00 00       	push   $0xd1
/u/a/b/abhijith/CS537/p3a/xv6-sp20/kernel/vectors.S:1046
  106d0c:	e9 65 f1 ff ff       	jmp    105e76 <alltraps>

00106d11 <vector210>:
vector210():
/u/a/b/abhijith/CS537/p3a/xv6-sp20/kernel/vectors.S:1049
  106d11:	6a 00                	push   $0x0
/u/a/b/abhijith/CS537/p3a/xv6-sp20/kernel/vectors.S:1050
  106d13:	68 d2 00 00 00       	push   $0xd2
/u/a/b/abhijith/CS537/p3a/xv6-sp20/kernel/vectors.S:1051
  106d18:	e9 59 f1 ff ff       	jmp    105e76 <alltraps>

00106d1d <vector211>:
vector211():
/u/a/b/abhijith/CS537/p3a/xv6-sp20/kernel/vectors.S:1054
  106d1d:	6a 00                	push   $0x0
/u/a/b/abhijith/CS537/p3a/xv6-sp20/kernel/vectors.S:1055
  106d1f:	68 d3 00 00 00       	push   $0xd3
/u/a/b/abhijith/CS537/p3a/xv6-sp20/kernel/vectors.S:1056
  106d24:	e9 4d f1 ff ff       	jmp    105e76 <alltraps>

00106d29 <vector212>:
vector212():
/u/a/b/abhijith/CS537/p3a/xv6-sp20/kernel/vectors.S:1059
  106d29:	6a 00                	push   $0x0
/u/a/b/abhijith/CS537/p3a/xv6-sp20/kernel/vectors.S:1060
  106d2b:	68 d4 00 00 00       	push   $0xd4
/u/a/b/abhijith/CS537/p3a/xv6-sp20/kernel/vectors.S:1061
  106d30:	e9 41 f1 ff ff       	jmp    105e76 <alltraps>

00106d35 <vector213>:
vector213():
/u/a/b/abhijith/CS537/p3a/xv6-sp20/kernel/vectors.S:1064
  106d35:	6a 00                	push   $0x0
/u/a/b/abhijith/CS537/p3a/xv6-sp20/kernel/vectors.S:1065
  106d37:	68 d5 00 00 00       	push   $0xd5
/u/a/b/abhijith/CS537/p3a/xv6-sp20/kernel/vectors.S:1066
  106d3c:	e9 35 f1 ff ff       	jmp    105e76 <alltraps>

00106d41 <vector214>:
vector214():
/u/a/b/abhijith/CS537/p3a/xv6-sp20/kernel/vectors.S:1069
  106d41:	6a 00                	push   $0x0
/u/a/b/abhijith/CS537/p3a/xv6-sp20/kernel/vectors.S:1070
  106d43:	68 d6 00 00 00       	push   $0xd6
/u/a/b/abhijith/CS537/p3a/xv6-sp20/kernel/vectors.S:1071
  106d48:	e9 29 f1 ff ff       	jmp    105e76 <alltraps>

00106d4d <vector215>:
vector215():
/u/a/b/abhijith/CS537/p3a/xv6-sp20/kernel/vectors.S:1074
  106d4d:	6a 00                	push   $0x0
/u/a/b/abhijith/CS537/p3a/xv6-sp20/kernel/vectors.S:1075
  106d4f:	68 d7 00 00 00       	push   $0xd7
/u/a/b/abhijith/CS537/p3a/xv6-sp20/kernel/vectors.S:1076
  106d54:	e9 1d f1 ff ff       	jmp    105e76 <alltraps>

00106d59 <vector216>:
vector216():
/u/a/b/abhijith/CS537/p3a/xv6-sp20/kernel/vectors.S:1079
  106d59:	6a 00                	push   $0x0
/u/a/b/abhijith/CS537/p3a/xv6-sp20/kernel/vectors.S:1080
  106d5b:	68 d8 00 00 00       	push   $0xd8
/u/a/b/abhijith/CS537/p3a/xv6-sp20/kernel/vectors.S:1081
  106d60:	e9 11 f1 ff ff       	jmp    105e76 <alltraps>

00106d65 <vector217>:
vector217():
/u/a/b/abhijith/CS537/p3a/xv6-sp20/kernel/vectors.S:1084
  106d65:	6a 00                	push   $0x0
/u/a/b/abhijith/CS537/p3a/xv6-sp20/kernel/vectors.S:1085
  106d67:	68 d9 00 00 00       	push   $0xd9
/u/a/b/abhijith/CS537/p3a/xv6-sp20/kernel/vectors.S:1086
  106d6c:	e9 05 f1 ff ff       	jmp    105e76 <alltraps>

00106d71 <vector218>:
vector218():
/u/a/b/abhijith/CS537/p3a/xv6-sp20/kernel/vectors.S:1089
  106d71:	6a 00                	push   $0x0
/u/a/b/abhijith/CS537/p3a/xv6-sp20/kernel/vectors.S:1090
  106d73:	68 da 00 00 00       	push   $0xda
/u/a/b/abhijith/CS537/p3a/xv6-sp20/kernel/vectors.S:1091
  106d78:	e9 f9 f0 ff ff       	jmp    105e76 <alltraps>

00106d7d <vector219>:
vector219():
/u/a/b/abhijith/CS537/p3a/xv6-sp20/kernel/vectors.S:1094
  106d7d:	6a 00                	push   $0x0
/u/a/b/abhijith/CS537/p3a/xv6-sp20/kernel/vectors.S:1095
  106d7f:	68 db 00 00 00       	push   $0xdb
/u/a/b/abhijith/CS537/p3a/xv6-sp20/kernel/vectors.S:1096
  106d84:	e9 ed f0 ff ff       	jmp    105e76 <alltraps>

00106d89 <vector220>:
vector220():
/u/a/b/abhijith/CS537/p3a/xv6-sp20/kernel/vectors.S:1099
  106d89:	6a 00                	push   $0x0
/u/a/b/abhijith/CS537/p3a/xv6-sp20/kernel/vectors.S:1100
  106d8b:	68 dc 00 00 00       	push   $0xdc
/u/a/b/abhijith/CS537/p3a/xv6-sp20/kernel/vectors.S:1101
  106d90:	e9 e1 f0 ff ff       	jmp    105e76 <alltraps>

00106d95 <vector221>:
vector221():
/u/a/b/abhijith/CS537/p3a/xv6-sp20/kernel/vectors.S:1104
  106d95:	6a 00                	push   $0x0
/u/a/b/abhijith/CS537/p3a/xv6-sp20/kernel/vectors.S:1105
  106d97:	68 dd 00 00 00       	push   $0xdd
/u/a/b/abhijith/CS537/p3a/xv6-sp20/kernel/vectors.S:1106
  106d9c:	e9 d5 f0 ff ff       	jmp    105e76 <alltraps>

00106da1 <vector222>:
vector222():
/u/a/b/abhijith/CS537/p3a/xv6-sp20/kernel/vectors.S:1109
  106da1:	6a 00                	push   $0x0
/u/a/b/abhijith/CS537/p3a/xv6-sp20/kernel/vectors.S:1110
  106da3:	68 de 00 00 00       	push   $0xde
/u/a/b/abhijith/CS537/p3a/xv6-sp20/kernel/vectors.S:1111
  106da8:	e9 c9 f0 ff ff       	jmp    105e76 <alltraps>

00106dad <vector223>:
vector223():
/u/a/b/abhijith/CS537/p3a/xv6-sp20/kernel/vectors.S:1114
  106dad:	6a 00                	push   $0x0
/u/a/b/abhijith/CS537/p3a/xv6-sp20/kernel/vectors.S:1115
  106daf:	68 df 00 00 00       	push   $0xdf
/u/a/b/abhijith/CS537/p3a/xv6-sp20/kernel/vectors.S:1116
  106db4:	e9 bd f0 ff ff       	jmp    105e76 <alltraps>

00106db9 <vector224>:
vector224():
/u/a/b/abhijith/CS537/p3a/xv6-sp20/kernel/vectors.S:1119
  106db9:	6a 00                	push   $0x0
/u/a/b/abhijith/CS537/p3a/xv6-sp20/kernel/vectors.S:1120
  106dbb:	68 e0 00 00 00       	push   $0xe0
/u/a/b/abhijith/CS537/p3a/xv6-sp20/kernel/vectors.S:1121
  106dc0:	e9 b1 f0 ff ff       	jmp    105e76 <alltraps>

00106dc5 <vector225>:
vector225():
/u/a/b/abhijith/CS537/p3a/xv6-sp20/kernel/vectors.S:1124
  106dc5:	6a 00                	push   $0x0
/u/a/b/abhijith/CS537/p3a/xv6-sp20/kernel/vectors.S:1125
  106dc7:	68 e1 00 00 00       	push   $0xe1
/u/a/b/abhijith/CS537/p3a/xv6-sp20/kernel/vectors.S:1126
  106dcc:	e9 a5 f0 ff ff       	jmp    105e76 <alltraps>

00106dd1 <vector226>:
vector226():
/u/a/b/abhijith/CS537/p3a/xv6-sp20/kernel/vectors.S:1129
  106dd1:	6a 00                	push   $0x0
/u/a/b/abhijith/CS537/p3a/xv6-sp20/kernel/vectors.S:1130
  106dd3:	68 e2 00 00 00       	push   $0xe2
/u/a/b/abhijith/CS537/p3a/xv6-sp20/kernel/vectors.S:1131
  106dd8:	e9 99 f0 ff ff       	jmp    105e76 <alltraps>

00106ddd <vector227>:
vector227():
/u/a/b/abhijith/CS537/p3a/xv6-sp20/kernel/vectors.S:1134
  106ddd:	6a 00                	push   $0x0
/u/a/b/abhijith/CS537/p3a/xv6-sp20/kernel/vectors.S:1135
  106ddf:	68 e3 00 00 00       	push   $0xe3
/u/a/b/abhijith/CS537/p3a/xv6-sp20/kernel/vectors.S:1136
  106de4:	e9 8d f0 ff ff       	jmp    105e76 <alltraps>

00106de9 <vector228>:
vector228():
/u/a/b/abhijith/CS537/p3a/xv6-sp20/kernel/vectors.S:1139
  106de9:	6a 00                	push   $0x0
/u/a/b/abhijith/CS537/p3a/xv6-sp20/kernel/vectors.S:1140
  106deb:	68 e4 00 00 00       	push   $0xe4
/u/a/b/abhijith/CS537/p3a/xv6-sp20/kernel/vectors.S:1141
  106df0:	e9 81 f0 ff ff       	jmp    105e76 <alltraps>

00106df5 <vector229>:
vector229():
/u/a/b/abhijith/CS537/p3a/xv6-sp20/kernel/vectors.S:1144
  106df5:	6a 00                	push   $0x0
/u/a/b/abhijith/CS537/p3a/xv6-sp20/kernel/vectors.S:1145
  106df7:	68 e5 00 00 00       	push   $0xe5
/u/a/b/abhijith/CS537/p3a/xv6-sp20/kernel/vectors.S:1146
  106dfc:	e9 75 f0 ff ff       	jmp    105e76 <alltraps>

00106e01 <vector230>:
vector230():
/u/a/b/abhijith/CS537/p3a/xv6-sp20/kernel/vectors.S:1149
  106e01:	6a 00                	push   $0x0
/u/a/b/abhijith/CS537/p3a/xv6-sp20/kernel/vectors.S:1150
  106e03:	68 e6 00 00 00       	push   $0xe6
/u/a/b/abhijith/CS537/p3a/xv6-sp20/kernel/vectors.S:1151
  106e08:	e9 69 f0 ff ff       	jmp    105e76 <alltraps>

00106e0d <vector231>:
vector231():
/u/a/b/abhijith/CS537/p3a/xv6-sp20/kernel/vectors.S:1154
  106e0d:	6a 00                	push   $0x0
/u/a/b/abhijith/CS537/p3a/xv6-sp20/kernel/vectors.S:1155
  106e0f:	68 e7 00 00 00       	push   $0xe7
/u/a/b/abhijith/CS537/p3a/xv6-sp20/kernel/vectors.S:1156
  106e14:	e9 5d f0 ff ff       	jmp    105e76 <alltraps>

00106e19 <vector232>:
vector232():
/u/a/b/abhijith/CS537/p3a/xv6-sp20/kernel/vectors.S:1159
  106e19:	6a 00                	push   $0x0
/u/a/b/abhijith/CS537/p3a/xv6-sp20/kernel/vectors.S:1160
  106e1b:	68 e8 00 00 00       	push   $0xe8
/u/a/b/abhijith/CS537/p3a/xv6-sp20/kernel/vectors.S:1161
  106e20:	e9 51 f0 ff ff       	jmp    105e76 <alltraps>

00106e25 <vector233>:
vector233():
/u/a/b/abhijith/CS537/p3a/xv6-sp20/kernel/vectors.S:1164
  106e25:	6a 00                	push   $0x0
/u/a/b/abhijith/CS537/p3a/xv6-sp20/kernel/vectors.S:1165
  106e27:	68 e9 00 00 00       	push   $0xe9
/u/a/b/abhijith/CS537/p3a/xv6-sp20/kernel/vectors.S:1166
  106e2c:	e9 45 f0 ff ff       	jmp    105e76 <alltraps>

00106e31 <vector234>:
vector234():
/u/a/b/abhijith/CS537/p3a/xv6-sp20/kernel/vectors.S:1169
  106e31:	6a 00                	push   $0x0
/u/a/b/abhijith/CS537/p3a/xv6-sp20/kernel/vectors.S:1170
  106e33:	68 ea 00 00 00       	push   $0xea
/u/a/b/abhijith/CS537/p3a/xv6-sp20/kernel/vectors.S:1171
  106e38:	e9 39 f0 ff ff       	jmp    105e76 <alltraps>

00106e3d <vector235>:
vector235():
/u/a/b/abhijith/CS537/p3a/xv6-sp20/kernel/vectors.S:1174
  106e3d:	6a 00                	push   $0x0
/u/a/b/abhijith/CS537/p3a/xv6-sp20/kernel/vectors.S:1175
  106e3f:	68 eb 00 00 00       	push   $0xeb
/u/a/b/abhijith/CS537/p3a/xv6-sp20/kernel/vectors.S:1176
  106e44:	e9 2d f0 ff ff       	jmp    105e76 <alltraps>

00106e49 <vector236>:
vector236():
/u/a/b/abhijith/CS537/p3a/xv6-sp20/kernel/vectors.S:1179
  106e49:	6a 00                	push   $0x0
/u/a/b/abhijith/CS537/p3a/xv6-sp20/kernel/vectors.S:1180
  106e4b:	68 ec 00 00 00       	push   $0xec
/u/a/b/abhijith/CS537/p3a/xv6-sp20/kernel/vectors.S:1181
  106e50:	e9 21 f0 ff ff       	jmp    105e76 <alltraps>

00106e55 <vector237>:
vector237():
/u/a/b/abhijith/CS537/p3a/xv6-sp20/kernel/vectors.S:1184
  106e55:	6a 00                	push   $0x0
/u/a/b/abhijith/CS537/p3a/xv6-sp20/kernel/vectors.S:1185
  106e57:	68 ed 00 00 00       	push   $0xed
/u/a/b/abhijith/CS537/p3a/xv6-sp20/kernel/vectors.S:1186
  106e5c:	e9 15 f0 ff ff       	jmp    105e76 <alltraps>

00106e61 <vector238>:
vector238():
/u/a/b/abhijith/CS537/p3a/xv6-sp20/kernel/vectors.S:1189
  106e61:	6a 00                	push   $0x0
/u/a/b/abhijith/CS537/p3a/xv6-sp20/kernel/vectors.S:1190
  106e63:	68 ee 00 00 00       	push   $0xee
/u/a/b/abhijith/CS537/p3a/xv6-sp20/kernel/vectors.S:1191
  106e68:	e9 09 f0 ff ff       	jmp    105e76 <alltraps>

00106e6d <vector239>:
vector239():
/u/a/b/abhijith/CS537/p3a/xv6-sp20/kernel/vectors.S:1194
  106e6d:	6a 00                	push   $0x0
/u/a/b/abhijith/CS537/p3a/xv6-sp20/kernel/vectors.S:1195
  106e6f:	68 ef 00 00 00       	push   $0xef
/u/a/b/abhijith/CS537/p3a/xv6-sp20/kernel/vectors.S:1196
  106e74:	e9 fd ef ff ff       	jmp    105e76 <alltraps>

00106e79 <vector240>:
vector240():
/u/a/b/abhijith/CS537/p3a/xv6-sp20/kernel/vectors.S:1199
  106e79:	6a 00                	push   $0x0
/u/a/b/abhijith/CS537/p3a/xv6-sp20/kernel/vectors.S:1200
  106e7b:	68 f0 00 00 00       	push   $0xf0
/u/a/b/abhijith/CS537/p3a/xv6-sp20/kernel/vectors.S:1201
  106e80:	e9 f1 ef ff ff       	jmp    105e76 <alltraps>

00106e85 <vector241>:
vector241():
/u/a/b/abhijith/CS537/p3a/xv6-sp20/kernel/vectors.S:1204
  106e85:	6a 00                	push   $0x0
/u/a/b/abhijith/CS537/p3a/xv6-sp20/kernel/vectors.S:1205
  106e87:	68 f1 00 00 00       	push   $0xf1
/u/a/b/abhijith/CS537/p3a/xv6-sp20/kernel/vectors.S:1206
  106e8c:	e9 e5 ef ff ff       	jmp    105e76 <alltraps>

00106e91 <vector242>:
vector242():
/u/a/b/abhijith/CS537/p3a/xv6-sp20/kernel/vectors.S:1209
  106e91:	6a 00                	push   $0x0
/u/a/b/abhijith/CS537/p3a/xv6-sp20/kernel/vectors.S:1210
  106e93:	68 f2 00 00 00       	push   $0xf2
/u/a/b/abhijith/CS537/p3a/xv6-sp20/kernel/vectors.S:1211
  106e98:	e9 d9 ef ff ff       	jmp    105e76 <alltraps>

00106e9d <vector243>:
vector243():
/u/a/b/abhijith/CS537/p3a/xv6-sp20/kernel/vectors.S:1214
  106e9d:	6a 00                	push   $0x0
/u/a/b/abhijith/CS537/p3a/xv6-sp20/kernel/vectors.S:1215
  106e9f:	68 f3 00 00 00       	push   $0xf3
/u/a/b/abhijith/CS537/p3a/xv6-sp20/kernel/vectors.S:1216
  106ea4:	e9 cd ef ff ff       	jmp    105e76 <alltraps>

00106ea9 <vector244>:
vector244():
/u/a/b/abhijith/CS537/p3a/xv6-sp20/kernel/vectors.S:1219
  106ea9:	6a 00                	push   $0x0
/u/a/b/abhijith/CS537/p3a/xv6-sp20/kernel/vectors.S:1220
  106eab:	68 f4 00 00 00       	push   $0xf4
/u/a/b/abhijith/CS537/p3a/xv6-sp20/kernel/vectors.S:1221
  106eb0:	e9 c1 ef ff ff       	jmp    105e76 <alltraps>

00106eb5 <vector245>:
vector245():
/u/a/b/abhijith/CS537/p3a/xv6-sp20/kernel/vectors.S:1224
  106eb5:	6a 00                	push   $0x0
/u/a/b/abhijith/CS537/p3a/xv6-sp20/kernel/vectors.S:1225
  106eb7:	68 f5 00 00 00       	push   $0xf5
/u/a/b/abhijith/CS537/p3a/xv6-sp20/kernel/vectors.S:1226
  106ebc:	e9 b5 ef ff ff       	jmp    105e76 <alltraps>

00106ec1 <vector246>:
vector246():
/u/a/b/abhijith/CS537/p3a/xv6-sp20/kernel/vectors.S:1229
  106ec1:	6a 00                	push   $0x0
/u/a/b/abhijith/CS537/p3a/xv6-sp20/kernel/vectors.S:1230
  106ec3:	68 f6 00 00 00       	push   $0xf6
/u/a/b/abhijith/CS537/p3a/xv6-sp20/kernel/vectors.S:1231
  106ec8:	e9 a9 ef ff ff       	jmp    105e76 <alltraps>

00106ecd <vector247>:
vector247():
/u/a/b/abhijith/CS537/p3a/xv6-sp20/kernel/vectors.S:1234
  106ecd:	6a 00                	push   $0x0
/u/a/b/abhijith/CS537/p3a/xv6-sp20/kernel/vectors.S:1235
  106ecf:	68 f7 00 00 00       	push   $0xf7
/u/a/b/abhijith/CS537/p3a/xv6-sp20/kernel/vectors.S:1236
  106ed4:	e9 9d ef ff ff       	jmp    105e76 <alltraps>

00106ed9 <vector248>:
vector248():
/u/a/b/abhijith/CS537/p3a/xv6-sp20/kernel/vectors.S:1239
  106ed9:	6a 00                	push   $0x0
/u/a/b/abhijith/CS537/p3a/xv6-sp20/kernel/vectors.S:1240
  106edb:	68 f8 00 00 00       	push   $0xf8
/u/a/b/abhijith/CS537/p3a/xv6-sp20/kernel/vectors.S:1241
  106ee0:	e9 91 ef ff ff       	jmp    105e76 <alltraps>

00106ee5 <vector249>:
vector249():
/u/a/b/abhijith/CS537/p3a/xv6-sp20/kernel/vectors.S:1244
  106ee5:	6a 00                	push   $0x0
/u/a/b/abhijith/CS537/p3a/xv6-sp20/kernel/vectors.S:1245
  106ee7:	68 f9 00 00 00       	push   $0xf9
/u/a/b/abhijith/CS537/p3a/xv6-sp20/kernel/vectors.S:1246
  106eec:	e9 85 ef ff ff       	jmp    105e76 <alltraps>

00106ef1 <vector250>:
vector250():
/u/a/b/abhijith/CS537/p3a/xv6-sp20/kernel/vectors.S:1249
  106ef1:	6a 00                	push   $0x0
/u/a/b/abhijith/CS537/p3a/xv6-sp20/kernel/vectors.S:1250
  106ef3:	68 fa 00 00 00       	push   $0xfa
/u/a/b/abhijith/CS537/p3a/xv6-sp20/kernel/vectors.S:1251
  106ef8:	e9 79 ef ff ff       	jmp    105e76 <alltraps>

00106efd <vector251>:
vector251():
/u/a/b/abhijith/CS537/p3a/xv6-sp20/kernel/vectors.S:1254
  106efd:	6a 00                	push   $0x0
/u/a/b/abhijith/CS537/p3a/xv6-sp20/kernel/vectors.S:1255
  106eff:	68 fb 00 00 00       	push   $0xfb
/u/a/b/abhijith/CS537/p3a/xv6-sp20/kernel/vectors.S:1256
  106f04:	e9 6d ef ff ff       	jmp    105e76 <alltraps>

00106f09 <vector252>:
vector252():
/u/a/b/abhijith/CS537/p3a/xv6-sp20/kernel/vectors.S:1259
  106f09:	6a 00                	push   $0x0
/u/a/b/abhijith/CS537/p3a/xv6-sp20/kernel/vectors.S:1260
  106f0b:	68 fc 00 00 00       	push   $0xfc
/u/a/b/abhijith/CS537/p3a/xv6-sp20/kernel/vectors.S:1261
  106f10:	e9 61 ef ff ff       	jmp    105e76 <alltraps>

00106f15 <vector253>:
vector253():
/u/a/b/abhijith/CS537/p3a/xv6-sp20/kernel/vectors.S:1264
  106f15:	6a 00                	push   $0x0
/u/a/b/abhijith/CS537/p3a/xv6-sp20/kernel/vectors.S:1265
  106f17:	68 fd 00 00 00       	push   $0xfd
/u/a/b/abhijith/CS537/p3a/xv6-sp20/kernel/vectors.S:1266
  106f1c:	e9 55 ef ff ff       	jmp    105e76 <alltraps>

00106f21 <vector254>:
vector254():
/u/a/b/abhijith/CS537/p3a/xv6-sp20/kernel/vectors.S:1269
  106f21:	6a 00                	push   $0x0
/u/a/b/abhijith/CS537/p3a/xv6-sp20/kernel/vectors.S:1270
  106f23:	68 fe 00 00 00       	push   $0xfe
/u/a/b/abhijith/CS537/p3a/xv6-sp20/kernel/vectors.S:1271
  106f28:	e9 49 ef ff ff       	jmp    105e76 <alltraps>

00106f2d <vector255>:
vector255():
/u/a/b/abhijith/CS537/p3a/xv6-sp20/kernel/vectors.S:1274
  106f2d:	6a 00                	push   $0x0
/u/a/b/abhijith/CS537/p3a/xv6-sp20/kernel/vectors.S:1275
  106f2f:	68 ff 00 00 00       	push   $0xff
/u/a/b/abhijith/CS537/p3a/xv6-sp20/kernel/vectors.S:1276
  106f34:	e9 3d ef ff ff       	jmp    105e76 <alltraps>

00106f39 <lgdt>:
lgdt():
/u/a/b/abhijith/CS537/p3a/xv6-sp20/include/x86.h:57
  106f39:	55                   	push   %ebp
  106f3a:	89 e5                	mov    %esp,%ebp
  106f3c:	83 ec 10             	sub    $0x10,%esp
/u/a/b/abhijith/CS537/p3a/xv6-sp20/include/x86.h:60
  106f3f:	8b 45 0c             	mov    0xc(%ebp),%eax
  106f42:	83 e8 01             	sub    $0x1,%eax
  106f45:	66 89 45 fa          	mov    %ax,-0x6(%ebp)
/u/a/b/abhijith/CS537/p3a/xv6-sp20/include/x86.h:61
  106f49:	8b 45 08             	mov    0x8(%ebp),%eax
  106f4c:	66 89 45 fc          	mov    %ax,-0x4(%ebp)
/u/a/b/abhijith/CS537/p3a/xv6-sp20/include/x86.h:62
  106f50:	8b 45 08             	mov    0x8(%ebp),%eax
  106f53:	c1 e8 10             	shr    $0x10,%eax
  106f56:	66 89 45 fe          	mov    %ax,-0x2(%ebp)
/u/a/b/abhijith/CS537/p3a/xv6-sp20/include/x86.h:64
  106f5a:	8d 45 fa             	lea    -0x6(%ebp),%eax
  106f5d:	0f 01 10             	lgdtl  (%eax)
/u/a/b/abhijith/CS537/p3a/xv6-sp20/include/x86.h:65
  106f60:	90                   	nop
  106f61:	c9                   	leave  
  106f62:	c3                   	ret    

00106f63 <ltr>:
ltr():
/u/a/b/abhijith/CS537/p3a/xv6-sp20/include/x86.h:83
  106f63:	55                   	push   %ebp
  106f64:	89 e5                	mov    %esp,%ebp
  106f66:	83 ec 04             	sub    $0x4,%esp
  106f69:	8b 45 08             	mov    0x8(%ebp),%eax
  106f6c:	66 89 45 fc          	mov    %ax,-0x4(%ebp)
/u/a/b/abhijith/CS537/p3a/xv6-sp20/include/x86.h:84
  106f70:	0f b7 45 fc          	movzwl -0x4(%ebp),%eax
  106f74:	0f 00 d8             	ltr    %ax
/u/a/b/abhijith/CS537/p3a/xv6-sp20/include/x86.h:85
  106f77:	90                   	nop
  106f78:	c9                   	leave  
  106f79:	c3                   	ret    

00106f7a <loadgs>:
loadgs():
/u/a/b/abhijith/CS537/p3a/xv6-sp20/include/x86.h:97
  106f7a:	55                   	push   %ebp
  106f7b:	89 e5                	mov    %esp,%ebp
  106f7d:	83 ec 04             	sub    $0x4,%esp
  106f80:	8b 45 08             	mov    0x8(%ebp),%eax
  106f83:	66 89 45 fc          	mov    %ax,-0x4(%ebp)
/u/a/b/abhijith/CS537/p3a/xv6-sp20/include/x86.h:98
  106f87:	0f b7 45 fc          	movzwl -0x4(%ebp),%eax
  106f8b:	8e e8                	mov    %eax,%gs
/u/a/b/abhijith/CS537/p3a/xv6-sp20/include/x86.h:99
  106f8d:	90                   	nop
  106f8e:	c9                   	leave  
  106f8f:	c3                   	ret    

00106f90 <lcr0>:
lcr0():
/u/a/b/abhijith/CS537/p3a/xv6-sp20/include/x86.h:144
  106f90:	55                   	push   %ebp
  106f91:	89 e5                	mov    %esp,%ebp
/u/a/b/abhijith/CS537/p3a/xv6-sp20/include/x86.h:145
  106f93:	8b 45 08             	mov    0x8(%ebp),%eax
  106f96:	0f 22 c0             	mov    %eax,%cr0
/u/a/b/abhijith/CS537/p3a/xv6-sp20/include/x86.h:146
  106f99:	90                   	nop
  106f9a:	5d                   	pop    %ebp
  106f9b:	c3                   	ret    

00106f9c <rcr0>:
rcr0():
/u/a/b/abhijith/CS537/p3a/xv6-sp20/include/x86.h:150
  106f9c:	55                   	push   %ebp
  106f9d:	89 e5                	mov    %esp,%ebp
  106f9f:	83 ec 10             	sub    $0x10,%esp
/u/a/b/abhijith/CS537/p3a/xv6-sp20/include/x86.h:152
  106fa2:	0f 20 c0             	mov    %cr0,%eax
  106fa5:	89 45 fc             	mov    %eax,-0x4(%ebp)
/u/a/b/abhijith/CS537/p3a/xv6-sp20/include/x86.h:153
  106fa8:	8b 45 fc             	mov    -0x4(%ebp),%eax
/u/a/b/abhijith/CS537/p3a/xv6-sp20/include/x86.h:154
  106fab:	c9                   	leave  
  106fac:	c3                   	ret    

00106fad <lcr3>:
lcr3():
/u/a/b/abhijith/CS537/p3a/xv6-sp20/include/x86.h:166
  106fad:	55                   	push   %ebp
  106fae:	89 e5                	mov    %esp,%ebp
/u/a/b/abhijith/CS537/p3a/xv6-sp20/include/x86.h:167
  106fb0:	8b 45 08             	mov    0x8(%ebp),%eax
  106fb3:	0f 22 d8             	mov    %eax,%cr3
/u/a/b/abhijith/CS537/p3a/xv6-sp20/include/x86.h:168
  106fb6:	90                   	nop
  106fb7:	5d                   	pop    %ebp
  106fb8:	c3                   	ret    

00106fb9 <kvmalloc>:
kvmalloc():
/u/a/b/abhijith/CS537/p3a/xv6-sp20/kernel/vm.c:17
  106fb9:	55                   	push   %ebp
  106fba:	89 e5                	mov    %esp,%ebp
  106fbc:	83 ec 08             	sub    $0x8,%esp
/u/a/b/abhijith/CS537/p3a/xv6-sp20/kernel/vm.c:18
  106fbf:	e8 99 05 00 00       	call   10755d <setupkvm>
  106fc4:	a3 78 bb 10 00       	mov    %eax,0x10bb78
/u/a/b/abhijith/CS537/p3a/xv6-sp20/kernel/vm.c:19
  106fc9:	90                   	nop
  106fca:	c9                   	leave  
  106fcb:	c3                   	ret    

00106fcc <seginit>:
seginit():
/u/a/b/abhijith/CS537/p3a/xv6-sp20/kernel/vm.c:25
  106fcc:	55                   	push   %ebp
  106fcd:	89 e5                	mov    %esp,%ebp
  106fcf:	53                   	push   %ebx
  106fd0:	83 ec 14             	sub    $0x14,%esp
/u/a/b/abhijith/CS537/p3a/xv6-sp20/kernel/vm.c:32
  106fd3:	e8 4d bf ff ff       	call   102f25 <cpunum>
  106fd8:	69 c0 bc 00 00 00    	imul   $0xbc,%eax,%eax
  106fde:	05 c0 fd 10 00       	add    $0x10fdc0,%eax
  106fe3:	89 45 f4             	mov    %eax,-0xc(%ebp)
/u/a/b/abhijith/CS537/p3a/xv6-sp20/kernel/vm.c:33
  106fe6:	8b 45 f4             	mov    -0xc(%ebp),%eax
  106fe9:	66 c7 40 78 ff ff    	movw   $0xffff,0x78(%eax)
  106fef:	8b 45 f4             	mov    -0xc(%ebp),%eax
  106ff2:	66 c7 40 7a 00 00    	movw   $0x0,0x7a(%eax)
  106ff8:	8b 45 f4             	mov    -0xc(%ebp),%eax
  106ffb:	c6 40 7c 00          	movb   $0x0,0x7c(%eax)
  106fff:	8b 45 f4             	mov    -0xc(%ebp),%eax
  107002:	0f b6 50 7d          	movzbl 0x7d(%eax),%edx
  107006:	83 e2 f0             	and    $0xfffffff0,%edx
  107009:	83 ca 0a             	or     $0xa,%edx
  10700c:	88 50 7d             	mov    %dl,0x7d(%eax)
  10700f:	8b 45 f4             	mov    -0xc(%ebp),%eax
  107012:	0f b6 50 7d          	movzbl 0x7d(%eax),%edx
  107016:	83 ca 10             	or     $0x10,%edx
  107019:	88 50 7d             	mov    %dl,0x7d(%eax)
  10701c:	8b 45 f4             	mov    -0xc(%ebp),%eax
  10701f:	0f b6 50 7d          	movzbl 0x7d(%eax),%edx
  107023:	83 e2 9f             	and    $0xffffff9f,%edx
  107026:	88 50 7d             	mov    %dl,0x7d(%eax)
  107029:	8b 45 f4             	mov    -0xc(%ebp),%eax
  10702c:	0f b6 50 7d          	movzbl 0x7d(%eax),%edx
  107030:	83 ca 80             	or     $0xffffff80,%edx
  107033:	88 50 7d             	mov    %dl,0x7d(%eax)
  107036:	8b 45 f4             	mov    -0xc(%ebp),%eax
  107039:	0f b6 50 7e          	movzbl 0x7e(%eax),%edx
  10703d:	83 ca 0f             	or     $0xf,%edx
  107040:	88 50 7e             	mov    %dl,0x7e(%eax)
  107043:	8b 45 f4             	mov    -0xc(%ebp),%eax
  107046:	0f b6 50 7e          	movzbl 0x7e(%eax),%edx
  10704a:	83 e2 ef             	and    $0xffffffef,%edx
  10704d:	88 50 7e             	mov    %dl,0x7e(%eax)
  107050:	8b 45 f4             	mov    -0xc(%ebp),%eax
  107053:	0f b6 50 7e          	movzbl 0x7e(%eax),%edx
  107057:	83 e2 df             	and    $0xffffffdf,%edx
  10705a:	88 50 7e             	mov    %dl,0x7e(%eax)
  10705d:	8b 45 f4             	mov    -0xc(%ebp),%eax
  107060:	0f b6 50 7e          	movzbl 0x7e(%eax),%edx
  107064:	83 ca 40             	or     $0x40,%edx
  107067:	88 50 7e             	mov    %dl,0x7e(%eax)
  10706a:	8b 45 f4             	mov    -0xc(%ebp),%eax
  10706d:	0f b6 50 7e          	movzbl 0x7e(%eax),%edx
  107071:	83 ca 80             	or     $0xffffff80,%edx
  107074:	88 50 7e             	mov    %dl,0x7e(%eax)
  107077:	8b 45 f4             	mov    -0xc(%ebp),%eax
  10707a:	c6 40 7f 00          	movb   $0x0,0x7f(%eax)
/u/a/b/abhijith/CS537/p3a/xv6-sp20/kernel/vm.c:34
  10707e:	8b 45 f4             	mov    -0xc(%ebp),%eax
  107081:	66 c7 80 80 00 00 00 	movw   $0xffff,0x80(%eax)
  107088:	ff ff 
  10708a:	8b 45 f4             	mov    -0xc(%ebp),%eax
  10708d:	66 c7 80 82 00 00 00 	movw   $0x0,0x82(%eax)
  107094:	00 00 
  107096:	8b 45 f4             	mov    -0xc(%ebp),%eax
  107099:	c6 80 84 00 00 00 00 	movb   $0x0,0x84(%eax)
  1070a0:	8b 45 f4             	mov    -0xc(%ebp),%eax
  1070a3:	0f b6 90 85 00 00 00 	movzbl 0x85(%eax),%edx
  1070aa:	83 e2 f0             	and    $0xfffffff0,%edx
  1070ad:	83 ca 02             	or     $0x2,%edx
  1070b0:	88 90 85 00 00 00    	mov    %dl,0x85(%eax)
  1070b6:	8b 45 f4             	mov    -0xc(%ebp),%eax
  1070b9:	0f b6 90 85 00 00 00 	movzbl 0x85(%eax),%edx
  1070c0:	83 ca 10             	or     $0x10,%edx
  1070c3:	88 90 85 00 00 00    	mov    %dl,0x85(%eax)
  1070c9:	8b 45 f4             	mov    -0xc(%ebp),%eax
  1070cc:	0f b6 90 85 00 00 00 	movzbl 0x85(%eax),%edx
  1070d3:	83 e2 9f             	and    $0xffffff9f,%edx
  1070d6:	88 90 85 00 00 00    	mov    %dl,0x85(%eax)
  1070dc:	8b 45 f4             	mov    -0xc(%ebp),%eax
  1070df:	0f b6 90 85 00 00 00 	movzbl 0x85(%eax),%edx
  1070e6:	83 ca 80             	or     $0xffffff80,%edx
  1070e9:	88 90 85 00 00 00    	mov    %dl,0x85(%eax)
  1070ef:	8b 45 f4             	mov    -0xc(%ebp),%eax
  1070f2:	0f b6 90 86 00 00 00 	movzbl 0x86(%eax),%edx
  1070f9:	83 ca 0f             	or     $0xf,%edx
  1070fc:	88 90 86 00 00 00    	mov    %dl,0x86(%eax)
  107102:	8b 45 f4             	mov    -0xc(%ebp),%eax
  107105:	0f b6 90 86 00 00 00 	movzbl 0x86(%eax),%edx
  10710c:	83 e2 ef             	and    $0xffffffef,%edx
  10710f:	88 90 86 00 00 00    	mov    %dl,0x86(%eax)
  107115:	8b 45 f4             	mov    -0xc(%ebp),%eax
  107118:	0f b6 90 86 00 00 00 	movzbl 0x86(%eax),%edx
  10711f:	83 e2 df             	and    $0xffffffdf,%edx
  107122:	88 90 86 00 00 00    	mov    %dl,0x86(%eax)
  107128:	8b 45 f4             	mov    -0xc(%ebp),%eax
  10712b:	0f b6 90 86 00 00 00 	movzbl 0x86(%eax),%edx
  107132:	83 ca 40             	or     $0x40,%edx
  107135:	88 90 86 00 00 00    	mov    %dl,0x86(%eax)
  10713b:	8b 45 f4             	mov    -0xc(%ebp),%eax
  10713e:	0f b6 90 86 00 00 00 	movzbl 0x86(%eax),%edx
  107145:	83 ca 80             	or     $0xffffff80,%edx
  107148:	88 90 86 00 00 00    	mov    %dl,0x86(%eax)
  10714e:	8b 45 f4             	mov    -0xc(%ebp),%eax
  107151:	c6 80 87 00 00 00 00 	movb   $0x0,0x87(%eax)
/u/a/b/abhijith/CS537/p3a/xv6-sp20/kernel/vm.c:35
  107158:	8b 45 f4             	mov    -0xc(%ebp),%eax
  10715b:	66 c7 80 90 00 00 00 	movw   $0xffff,0x90(%eax)
  107162:	ff ff 
  107164:	8b 45 f4             	mov    -0xc(%ebp),%eax
  107167:	66 c7 80 92 00 00 00 	movw   $0x0,0x92(%eax)
  10716e:	00 00 
  107170:	8b 45 f4             	mov    -0xc(%ebp),%eax
  107173:	c6 80 94 00 00 00 00 	movb   $0x0,0x94(%eax)
  10717a:	8b 45 f4             	mov    -0xc(%ebp),%eax
  10717d:	0f b6 90 95 00 00 00 	movzbl 0x95(%eax),%edx
  107184:	83 e2 f0             	and    $0xfffffff0,%edx
  107187:	83 ca 0a             	or     $0xa,%edx
  10718a:	88 90 95 00 00 00    	mov    %dl,0x95(%eax)
  107190:	8b 45 f4             	mov    -0xc(%ebp),%eax
  107193:	0f b6 90 95 00 00 00 	movzbl 0x95(%eax),%edx
  10719a:	83 ca 10             	or     $0x10,%edx
  10719d:	88 90 95 00 00 00    	mov    %dl,0x95(%eax)
  1071a3:	8b 45 f4             	mov    -0xc(%ebp),%eax
  1071a6:	0f b6 90 95 00 00 00 	movzbl 0x95(%eax),%edx
  1071ad:	83 ca 60             	or     $0x60,%edx
  1071b0:	88 90 95 00 00 00    	mov    %dl,0x95(%eax)
  1071b6:	8b 45 f4             	mov    -0xc(%ebp),%eax
  1071b9:	0f b6 90 95 00 00 00 	movzbl 0x95(%eax),%edx
  1071c0:	83 ca 80             	or     $0xffffff80,%edx
  1071c3:	88 90 95 00 00 00    	mov    %dl,0x95(%eax)
  1071c9:	8b 45 f4             	mov    -0xc(%ebp),%eax
  1071cc:	0f b6 90 96 00 00 00 	movzbl 0x96(%eax),%edx
  1071d3:	83 ca 0f             	or     $0xf,%edx
  1071d6:	88 90 96 00 00 00    	mov    %dl,0x96(%eax)
  1071dc:	8b 45 f4             	mov    -0xc(%ebp),%eax
  1071df:	0f b6 90 96 00 00 00 	movzbl 0x96(%eax),%edx
  1071e6:	83 e2 ef             	and    $0xffffffef,%edx
  1071e9:	88 90 96 00 00 00    	mov    %dl,0x96(%eax)
  1071ef:	8b 45 f4             	mov    -0xc(%ebp),%eax
  1071f2:	0f b6 90 96 00 00 00 	movzbl 0x96(%eax),%edx
  1071f9:	83 e2 df             	and    $0xffffffdf,%edx
  1071fc:	88 90 96 00 00 00    	mov    %dl,0x96(%eax)
  107202:	8b 45 f4             	mov    -0xc(%ebp),%eax
  107205:	0f b6 90 96 00 00 00 	movzbl 0x96(%eax),%edx
  10720c:	83 ca 40             	or     $0x40,%edx
  10720f:	88 90 96 00 00 00    	mov    %dl,0x96(%eax)
  107215:	8b 45 f4             	mov    -0xc(%ebp),%eax
  107218:	0f b6 90 96 00 00 00 	movzbl 0x96(%eax),%edx
  10721f:	83 ca 80             	or     $0xffffff80,%edx
  107222:	88 90 96 00 00 00    	mov    %dl,0x96(%eax)
  107228:	8b 45 f4             	mov    -0xc(%ebp),%eax
  10722b:	c6 80 97 00 00 00 00 	movb   $0x0,0x97(%eax)
/u/a/b/abhijith/CS537/p3a/xv6-sp20/kernel/vm.c:36
  107232:	8b 45 f4             	mov    -0xc(%ebp),%eax
  107235:	66 c7 80 98 00 00 00 	movw   $0xffff,0x98(%eax)
  10723c:	ff ff 
  10723e:	8b 45 f4             	mov    -0xc(%ebp),%eax
  107241:	66 c7 80 9a 00 00 00 	movw   $0x0,0x9a(%eax)
  107248:	00 00 
  10724a:	8b 45 f4             	mov    -0xc(%ebp),%eax
  10724d:	c6 80 9c 00 00 00 00 	movb   $0x0,0x9c(%eax)
  107254:	8b 45 f4             	mov    -0xc(%ebp),%eax
  107257:	0f b6 90 9d 00 00 00 	movzbl 0x9d(%eax),%edx
  10725e:	83 e2 f0             	and    $0xfffffff0,%edx
  107261:	83 ca 02             	or     $0x2,%edx
  107264:	88 90 9d 00 00 00    	mov    %dl,0x9d(%eax)
  10726a:	8b 45 f4             	mov    -0xc(%ebp),%eax
  10726d:	0f b6 90 9d 00 00 00 	movzbl 0x9d(%eax),%edx
  107274:	83 ca 10             	or     $0x10,%edx
  107277:	88 90 9d 00 00 00    	mov    %dl,0x9d(%eax)
  10727d:	8b 45 f4             	mov    -0xc(%ebp),%eax
  107280:	0f b6 90 9d 00 00 00 	movzbl 0x9d(%eax),%edx
  107287:	83 ca 60             	or     $0x60,%edx
  10728a:	88 90 9d 00 00 00    	mov    %dl,0x9d(%eax)
  107290:	8b 45 f4             	mov    -0xc(%ebp),%eax
  107293:	0f b6 90 9d 00 00 00 	movzbl 0x9d(%eax),%edx
  10729a:	83 ca 80             	or     $0xffffff80,%edx
  10729d:	88 90 9d 00 00 00    	mov    %dl,0x9d(%eax)
  1072a3:	8b 45 f4             	mov    -0xc(%ebp),%eax
  1072a6:	0f b6 90 9e 00 00 00 	movzbl 0x9e(%eax),%edx
  1072ad:	83 ca 0f             	or     $0xf,%edx
  1072b0:	88 90 9e 00 00 00    	mov    %dl,0x9e(%eax)
  1072b6:	8b 45 f4             	mov    -0xc(%ebp),%eax
  1072b9:	0f b6 90 9e 00 00 00 	movzbl 0x9e(%eax),%edx
  1072c0:	83 e2 ef             	and    $0xffffffef,%edx
  1072c3:	88 90 9e 00 00 00    	mov    %dl,0x9e(%eax)
  1072c9:	8b 45 f4             	mov    -0xc(%ebp),%eax
  1072cc:	0f b6 90 9e 00 00 00 	movzbl 0x9e(%eax),%edx
  1072d3:	83 e2 df             	and    $0xffffffdf,%edx
  1072d6:	88 90 9e 00 00 00    	mov    %dl,0x9e(%eax)
  1072dc:	8b 45 f4             	mov    -0xc(%ebp),%eax
  1072df:	0f b6 90 9e 00 00 00 	movzbl 0x9e(%eax),%edx
  1072e6:	83 ca 40             	or     $0x40,%edx
  1072e9:	88 90 9e 00 00 00    	mov    %dl,0x9e(%eax)
  1072ef:	8b 45 f4             	mov    -0xc(%ebp),%eax
  1072f2:	0f b6 90 9e 00 00 00 	movzbl 0x9e(%eax),%edx
  1072f9:	83 ca 80             	or     $0xffffff80,%edx
  1072fc:	88 90 9e 00 00 00    	mov    %dl,0x9e(%eax)
  107302:	8b 45 f4             	mov    -0xc(%ebp),%eax
  107305:	c6 80 9f 00 00 00 00 	movb   $0x0,0x9f(%eax)
/u/a/b/abhijith/CS537/p3a/xv6-sp20/kernel/vm.c:39
  10730c:	8b 45 f4             	mov    -0xc(%ebp),%eax
  10730f:	05 b4 00 00 00       	add    $0xb4,%eax
  107314:	89 c3                	mov    %eax,%ebx
  107316:	8b 45 f4             	mov    -0xc(%ebp),%eax
  107319:	05 b4 00 00 00       	add    $0xb4,%eax
  10731e:	c1 e8 10             	shr    $0x10,%eax
  107321:	89 c2                	mov    %eax,%edx
  107323:	8b 45 f4             	mov    -0xc(%ebp),%eax
  107326:	05 b4 00 00 00       	add    $0xb4,%eax
  10732b:	c1 e8 18             	shr    $0x18,%eax
  10732e:	89 c1                	mov    %eax,%ecx
  107330:	8b 45 f4             	mov    -0xc(%ebp),%eax
  107333:	66 c7 80 88 00 00 00 	movw   $0x0,0x88(%eax)
  10733a:	00 00 
  10733c:	8b 45 f4             	mov    -0xc(%ebp),%eax
  10733f:	66 89 98 8a 00 00 00 	mov    %bx,0x8a(%eax)
  107346:	8b 45 f4             	mov    -0xc(%ebp),%eax
  107349:	88 90 8c 00 00 00    	mov    %dl,0x8c(%eax)
  10734f:	8b 45 f4             	mov    -0xc(%ebp),%eax
  107352:	0f b6 90 8d 00 00 00 	movzbl 0x8d(%eax),%edx
  107359:	83 e2 f0             	and    $0xfffffff0,%edx
  10735c:	83 ca 02             	or     $0x2,%edx
  10735f:	88 90 8d 00 00 00    	mov    %dl,0x8d(%eax)
  107365:	8b 45 f4             	mov    -0xc(%ebp),%eax
  107368:	0f b6 90 8d 00 00 00 	movzbl 0x8d(%eax),%edx
  10736f:	83 ca 10             	or     $0x10,%edx
  107372:	88 90 8d 00 00 00    	mov    %dl,0x8d(%eax)
  107378:	8b 45 f4             	mov    -0xc(%ebp),%eax
  10737b:	0f b6 90 8d 00 00 00 	movzbl 0x8d(%eax),%edx
  107382:	83 e2 9f             	and    $0xffffff9f,%edx
  107385:	88 90 8d 00 00 00    	mov    %dl,0x8d(%eax)
  10738b:	8b 45 f4             	mov    -0xc(%ebp),%eax
  10738e:	0f b6 90 8d 00 00 00 	movzbl 0x8d(%eax),%edx
  107395:	83 ca 80             	or     $0xffffff80,%edx
  107398:	88 90 8d 00 00 00    	mov    %dl,0x8d(%eax)
  10739e:	8b 45 f4             	mov    -0xc(%ebp),%eax
  1073a1:	0f b6 90 8e 00 00 00 	movzbl 0x8e(%eax),%edx
  1073a8:	83 e2 f0             	and    $0xfffffff0,%edx
  1073ab:	88 90 8e 00 00 00    	mov    %dl,0x8e(%eax)
  1073b1:	8b 45 f4             	mov    -0xc(%ebp),%eax
  1073b4:	0f b6 90 8e 00 00 00 	movzbl 0x8e(%eax),%edx
  1073bb:	83 e2 ef             	and    $0xffffffef,%edx
  1073be:	88 90 8e 00 00 00    	mov    %dl,0x8e(%eax)
  1073c4:	8b 45 f4             	mov    -0xc(%ebp),%eax
  1073c7:	0f b6 90 8e 00 00 00 	movzbl 0x8e(%eax),%edx
  1073ce:	83 e2 df             	and    $0xffffffdf,%edx
  1073d1:	88 90 8e 00 00 00    	mov    %dl,0x8e(%eax)
  1073d7:	8b 45 f4             	mov    -0xc(%ebp),%eax
  1073da:	0f b6 90 8e 00 00 00 	movzbl 0x8e(%eax),%edx
  1073e1:	83 ca 40             	or     $0x40,%edx
  1073e4:	88 90 8e 00 00 00    	mov    %dl,0x8e(%eax)
  1073ea:	8b 45 f4             	mov    -0xc(%ebp),%eax
  1073ed:	0f b6 90 8e 00 00 00 	movzbl 0x8e(%eax),%edx
  1073f4:	83 ca 80             	or     $0xffffff80,%edx
  1073f7:	88 90 8e 00 00 00    	mov    %dl,0x8e(%eax)
  1073fd:	8b 45 f4             	mov    -0xc(%ebp),%eax
  107400:	88 88 8f 00 00 00    	mov    %cl,0x8f(%eax)
/u/a/b/abhijith/CS537/p3a/xv6-sp20/kernel/vm.c:41
  107406:	8b 45 f4             	mov    -0xc(%ebp),%eax
  107409:	83 c0 70             	add    $0x70,%eax
  10740c:	83 ec 08             	sub    $0x8,%esp
  10740f:	6a 38                	push   $0x38
  107411:	50                   	push   %eax
  107412:	e8 22 fb ff ff       	call   106f39 <lgdt>
  107417:	83 c4 10             	add    $0x10,%esp
/u/a/b/abhijith/CS537/p3a/xv6-sp20/kernel/vm.c:42
  10741a:	83 ec 0c             	sub    $0xc,%esp
  10741d:	6a 18                	push   $0x18
  10741f:	e8 56 fb ff ff       	call   106f7a <loadgs>
  107424:	83 c4 10             	add    $0x10,%esp
/u/a/b/abhijith/CS537/p3a/xv6-sp20/kernel/vm.c:45
  107427:	8b 45 f4             	mov    -0xc(%ebp),%eax
  10742a:	65 a3 00 00 00 00    	mov    %eax,%gs:0x0
/u/a/b/abhijith/CS537/p3a/xv6-sp20/kernel/vm.c:46
  107430:	65 c7 05 04 00 00 00 	movl   $0x0,%gs:0x4
  107437:	00 00 00 00 
/u/a/b/abhijith/CS537/p3a/xv6-sp20/kernel/vm.c:47
  10743b:	90                   	nop
  10743c:	8b 5d fc             	mov    -0x4(%ebp),%ebx
  10743f:	c9                   	leave  
  107440:	c3                   	ret    

00107441 <walkpgdir>:
walkpgdir():
/u/a/b/abhijith/CS537/p3a/xv6-sp20/kernel/vm.c:54
  107441:	55                   	push   %ebp
  107442:	89 e5                	mov    %esp,%ebp
  107444:	83 ec 18             	sub    $0x18,%esp
/u/a/b/abhijith/CS537/p3a/xv6-sp20/kernel/vm.c:58
  107447:	8b 45 0c             	mov    0xc(%ebp),%eax
  10744a:	c1 e8 16             	shr    $0x16,%eax
  10744d:	8d 14 85 00 00 00 00 	lea    0x0(,%eax,4),%edx
  107454:	8b 45 08             	mov    0x8(%ebp),%eax
  107457:	01 d0                	add    %edx,%eax
  107459:	89 45 f0             	mov    %eax,-0x10(%ebp)
/u/a/b/abhijith/CS537/p3a/xv6-sp20/kernel/vm.c:60
  10745c:	8b 45 f0             	mov    -0x10(%ebp),%eax
  10745f:	8b 00                	mov    (%eax),%eax
  107461:	83 e0 01             	and    $0x1,%eax
  107464:	85 c0                	test   %eax,%eax
  107466:	74 0f                	je     107477 <walkpgdir+0x36>
/u/a/b/abhijith/CS537/p3a/xv6-sp20/kernel/vm.c:61
  107468:	8b 45 f0             	mov    -0x10(%ebp),%eax
  10746b:	8b 00                	mov    (%eax),%eax
  10746d:	25 00 f0 ff ff       	and    $0xfffff000,%eax
  107472:	89 45 f4             	mov    %eax,-0xc(%ebp)
  107475:	eb 3d                	jmp    1074b4 <walkpgdir+0x73>
/u/a/b/abhijith/CS537/p3a/xv6-sp20/kernel/vm.c:63
  107477:	83 7d 10 00          	cmpl   $0x0,0x10(%ebp)
  10747b:	74 0e                	je     10748b <walkpgdir+0x4a>
/u/a/b/abhijith/CS537/p3a/xv6-sp20/kernel/vm.c:63 (discriminator 1)
  10747d:	e8 a2 b6 ff ff       	call   102b24 <kalloc>
  107482:	89 45 f4             	mov    %eax,-0xc(%ebp)
  107485:	83 7d f4 00          	cmpl   $0x0,-0xc(%ebp)
  107489:	75 07                	jne    107492 <walkpgdir+0x51>
/u/a/b/abhijith/CS537/p3a/xv6-sp20/kernel/vm.c:64
  10748b:	b8 00 00 00 00       	mov    $0x0,%eax
  107490:	eb 39                	jmp    1074cb <walkpgdir+0x8a>
/u/a/b/abhijith/CS537/p3a/xv6-sp20/kernel/vm.c:66
  107492:	83 ec 04             	sub    $0x4,%esp
  107495:	68 00 10 00 00       	push   $0x1000
  10749a:	6a 00                	push   $0x0
  10749c:	ff 75 f4             	pushl  -0xc(%ebp)
  10749f:	e8 7f d5 ff ff       	call   104a23 <memset>
  1074a4:	83 c4 10             	add    $0x10,%esp
/u/a/b/abhijith/CS537/p3a/xv6-sp20/kernel/vm.c:71
  1074a7:	8b 45 f4             	mov    -0xc(%ebp),%eax
  1074aa:	83 c8 07             	or     $0x7,%eax
  1074ad:	89 c2                	mov    %eax,%edx
  1074af:	8b 45 f0             	mov    -0x10(%ebp),%eax
  1074b2:	89 10                	mov    %edx,(%eax)
/u/a/b/abhijith/CS537/p3a/xv6-sp20/kernel/vm.c:74
  1074b4:	8b 45 0c             	mov    0xc(%ebp),%eax
  1074b7:	c1 e8 0c             	shr    $0xc,%eax
  1074ba:	25 ff 03 00 00       	and    $0x3ff,%eax
  1074bf:	8d 14 85 00 00 00 00 	lea    0x0(,%eax,4),%edx
  1074c6:	8b 45 f4             	mov    -0xc(%ebp),%eax
  1074c9:	01 d0                	add    %edx,%eax
/u/a/b/abhijith/CS537/p3a/xv6-sp20/kernel/vm.c:75
  1074cb:	c9                   	leave  
  1074cc:	c3                   	ret    

001074cd <mappages>:
mappages():
/u/a/b/abhijith/CS537/p3a/xv6-sp20/kernel/vm.c:82
  1074cd:	55                   	push   %ebp
  1074ce:	89 e5                	mov    %esp,%ebp
  1074d0:	83 ec 18             	sub    $0x18,%esp
/u/a/b/abhijith/CS537/p3a/xv6-sp20/kernel/vm.c:86
  1074d3:	8b 45 0c             	mov    0xc(%ebp),%eax
  1074d6:	25 00 f0 ff ff       	and    $0xfffff000,%eax
  1074db:	89 45 f4             	mov    %eax,-0xc(%ebp)
/u/a/b/abhijith/CS537/p3a/xv6-sp20/kernel/vm.c:87
  1074de:	8b 45 10             	mov    0x10(%ebp),%eax
  1074e1:	8d 50 ff             	lea    -0x1(%eax),%edx
  1074e4:	8b 45 0c             	mov    0xc(%ebp),%eax
  1074e7:	01 d0                	add    %edx,%eax
  1074e9:	25 00 f0 ff ff       	and    $0xfffff000,%eax
  1074ee:	89 45 f0             	mov    %eax,-0x10(%ebp)
/u/a/b/abhijith/CS537/p3a/xv6-sp20/kernel/vm.c:89
  1074f1:	83 ec 04             	sub    $0x4,%esp
  1074f4:	6a 01                	push   $0x1
  1074f6:	ff 75 f4             	pushl  -0xc(%ebp)
  1074f9:	ff 75 08             	pushl  0x8(%ebp)
  1074fc:	e8 40 ff ff ff       	call   107441 <walkpgdir>
  107501:	83 c4 10             	add    $0x10,%esp
  107504:	89 45 ec             	mov    %eax,-0x14(%ebp)
/u/a/b/abhijith/CS537/p3a/xv6-sp20/kernel/vm.c:90
  107507:	83 7d ec 00          	cmpl   $0x0,-0x14(%ebp)
  10750b:	75 07                	jne    107514 <mappages+0x47>
/u/a/b/abhijith/CS537/p3a/xv6-sp20/kernel/vm.c:91
  10750d:	b8 ff ff ff ff       	mov    $0xffffffff,%eax
  107512:	eb 47                	jmp    10755b <mappages+0x8e>
/u/a/b/abhijith/CS537/p3a/xv6-sp20/kernel/vm.c:92
  107514:	8b 45 ec             	mov    -0x14(%ebp),%eax
  107517:	8b 00                	mov    (%eax),%eax
  107519:	83 e0 01             	and    $0x1,%eax
  10751c:	85 c0                	test   %eax,%eax
  10751e:	74 0d                	je     10752d <mappages+0x60>
/u/a/b/abhijith/CS537/p3a/xv6-sp20/kernel/vm.c:93
  107520:	83 ec 0c             	sub    $0xc,%esp
  107523:	68 48 83 10 00       	push   $0x108348
  107528:	e8 4b 90 ff ff       	call   100578 <panic>
/u/a/b/abhijith/CS537/p3a/xv6-sp20/kernel/vm.c:94
  10752d:	8b 45 18             	mov    0x18(%ebp),%eax
  107530:	0b 45 14             	or     0x14(%ebp),%eax
  107533:	83 c8 01             	or     $0x1,%eax
  107536:	89 c2                	mov    %eax,%edx
  107538:	8b 45 ec             	mov    -0x14(%ebp),%eax
  10753b:	89 10                	mov    %edx,(%eax)
/u/a/b/abhijith/CS537/p3a/xv6-sp20/kernel/vm.c:95
  10753d:	8b 45 f4             	mov    -0xc(%ebp),%eax
  107540:	3b 45 f0             	cmp    -0x10(%ebp),%eax
  107543:	74 10                	je     107555 <mappages+0x88>
/u/a/b/abhijith/CS537/p3a/xv6-sp20/kernel/vm.c:97
  107545:	81 45 f4 00 10 00 00 	addl   $0x1000,-0xc(%ebp)
/u/a/b/abhijith/CS537/p3a/xv6-sp20/kernel/vm.c:98
  10754c:	81 45 14 00 10 00 00 	addl   $0x1000,0x14(%ebp)
/u/a/b/abhijith/CS537/p3a/xv6-sp20/kernel/vm.c:89
  107553:	eb 9c                	jmp    1074f1 <mappages+0x24>
/u/a/b/abhijith/CS537/p3a/xv6-sp20/kernel/vm.c:96
  107555:	90                   	nop
/u/a/b/abhijith/CS537/p3a/xv6-sp20/kernel/vm.c:100
  107556:	b8 00 00 00 00       	mov    $0x0,%eax
/u/a/b/abhijith/CS537/p3a/xv6-sp20/kernel/vm.c:101
  10755b:	c9                   	leave  
  10755c:	c3                   	ret    

0010755d <setupkvm>:
setupkvm():
/u/a/b/abhijith/CS537/p3a/xv6-sp20/kernel/vm.c:139
  10755d:	55                   	push   %ebp
  10755e:	89 e5                	mov    %esp,%ebp
  107560:	53                   	push   %ebx
  107561:	83 ec 14             	sub    $0x14,%esp
/u/a/b/abhijith/CS537/p3a/xv6-sp20/kernel/vm.c:143
  107564:	e8 bb b5 ff ff       	call   102b24 <kalloc>
  107569:	89 45 f0             	mov    %eax,-0x10(%ebp)
  10756c:	83 7d f0 00          	cmpl   $0x0,-0x10(%ebp)
  107570:	75 07                	jne    107579 <setupkvm+0x1c>
/u/a/b/abhijith/CS537/p3a/xv6-sp20/kernel/vm.c:144
  107572:	b8 00 00 00 00       	mov    $0x0,%eax
  107577:	eb 77                	jmp    1075f0 <setupkvm+0x93>
/u/a/b/abhijith/CS537/p3a/xv6-sp20/kernel/vm.c:145
  107579:	83 ec 04             	sub    $0x4,%esp
  10757c:	68 00 10 00 00       	push   $0x1000
  107581:	6a 00                	push   $0x0
  107583:	ff 75 f0             	pushl  -0x10(%ebp)
  107586:	e8 98 d4 ff ff       	call   104a23 <memset>
  10758b:	83 c4 10             	add    $0x10,%esp
/u/a/b/abhijith/CS537/p3a/xv6-sp20/kernel/vm.c:146
  10758e:	c7 45 f4 e0 a9 10 00 	movl   $0x10a9e0,-0xc(%ebp)
/u/a/b/abhijith/CS537/p3a/xv6-sp20/kernel/vm.c:147
  107595:	c7 45 f4 e0 a9 10 00 	movl   $0x10a9e0,-0xc(%ebp)
  10759c:	eb 46                	jmp    1075e4 <setupkvm+0x87>
/u/a/b/abhijith/CS537/p3a/xv6-sp20/kernel/vm.c:149
  10759e:	8b 45 f4             	mov    -0xc(%ebp),%eax
  1075a1:	8b 50 08             	mov    0x8(%eax),%edx
  1075a4:	8b 45 f4             	mov    -0xc(%ebp),%eax
  1075a7:	8b 00                	mov    (%eax),%eax
  1075a9:	89 c3                	mov    %eax,%ebx
  1075ab:	8b 45 f4             	mov    -0xc(%ebp),%eax
  1075ae:	8b 40 04             	mov    0x4(%eax),%eax
  1075b1:	89 c1                	mov    %eax,%ecx
  1075b3:	8b 45 f4             	mov    -0xc(%ebp),%eax
  1075b6:	8b 00                	mov    (%eax),%eax
  1075b8:	29 c1                	sub    %eax,%ecx
  1075ba:	89 c8                	mov    %ecx,%eax
  1075bc:	89 c1                	mov    %eax,%ecx
  1075be:	8b 45 f4             	mov    -0xc(%ebp),%eax
  1075c1:	8b 00                	mov    (%eax),%eax
  1075c3:	83 ec 0c             	sub    $0xc,%esp
  1075c6:	52                   	push   %edx
  1075c7:	53                   	push   %ebx
  1075c8:	51                   	push   %ecx
  1075c9:	50                   	push   %eax
  1075ca:	ff 75 f0             	pushl  -0x10(%ebp)
  1075cd:	e8 fb fe ff ff       	call   1074cd <mappages>
  1075d2:	83 c4 20             	add    $0x20,%esp
  1075d5:	85 c0                	test   %eax,%eax
  1075d7:	79 07                	jns    1075e0 <setupkvm+0x83>
/u/a/b/abhijith/CS537/p3a/xv6-sp20/kernel/vm.c:150
  1075d9:	b8 00 00 00 00       	mov    $0x0,%eax
  1075de:	eb 10                	jmp    1075f0 <setupkvm+0x93>
/u/a/b/abhijith/CS537/p3a/xv6-sp20/kernel/vm.c:147 (discriminator 2)
  1075e0:	83 45 f4 0c          	addl   $0xc,-0xc(%ebp)
/u/a/b/abhijith/CS537/p3a/xv6-sp20/kernel/vm.c:147 (discriminator 1)
  1075e4:	81 7d f4 10 aa 10 00 	cmpl   $0x10aa10,-0xc(%ebp)
  1075eb:	72 b1                	jb     10759e <setupkvm+0x41>
/u/a/b/abhijith/CS537/p3a/xv6-sp20/kernel/vm.c:152
  1075ed:	8b 45 f0             	mov    -0x10(%ebp),%eax
/u/a/b/abhijith/CS537/p3a/xv6-sp20/kernel/vm.c:153
  1075f0:	8b 5d fc             	mov    -0x4(%ebp),%ebx
  1075f3:	c9                   	leave  
  1075f4:	c3                   	ret    

001075f5 <vmenable>:
vmenable():
/u/a/b/abhijith/CS537/p3a/xv6-sp20/kernel/vm.c:158
  1075f5:	55                   	push   %ebp
  1075f6:	89 e5                	mov    %esp,%ebp
  1075f8:	83 ec 18             	sub    $0x18,%esp
/u/a/b/abhijith/CS537/p3a/xv6-sp20/kernel/vm.c:161
  1075fb:	e8 20 00 00 00       	call   107620 <switchkvm>
/u/a/b/abhijith/CS537/p3a/xv6-sp20/kernel/vm.c:162
  107600:	e8 97 f9 ff ff       	call   106f9c <rcr0>
  107605:	89 45 f4             	mov    %eax,-0xc(%ebp)
/u/a/b/abhijith/CS537/p3a/xv6-sp20/kernel/vm.c:163
  107608:	81 4d f4 00 00 00 80 	orl    $0x80000000,-0xc(%ebp)
/u/a/b/abhijith/CS537/p3a/xv6-sp20/kernel/vm.c:164
  10760f:	83 ec 0c             	sub    $0xc,%esp
  107612:	ff 75 f4             	pushl  -0xc(%ebp)
  107615:	e8 76 f9 ff ff       	call   106f90 <lcr0>
  10761a:	83 c4 10             	add    $0x10,%esp
/u/a/b/abhijith/CS537/p3a/xv6-sp20/kernel/vm.c:165
  10761d:	90                   	nop
  10761e:	c9                   	leave  
  10761f:	c3                   	ret    

00107620 <switchkvm>:
switchkvm():
/u/a/b/abhijith/CS537/p3a/xv6-sp20/kernel/vm.c:171
  107620:	55                   	push   %ebp
  107621:	89 e5                	mov    %esp,%ebp
/u/a/b/abhijith/CS537/p3a/xv6-sp20/kernel/vm.c:172
  107623:	a1 78 bb 10 00       	mov    0x10bb78,%eax
  107628:	50                   	push   %eax
  107629:	e8 7f f9 ff ff       	call   106fad <lcr3>
  10762e:	83 c4 04             	add    $0x4,%esp
/u/a/b/abhijith/CS537/p3a/xv6-sp20/kernel/vm.c:173
  107631:	90                   	nop
  107632:	c9                   	leave  
  107633:	c3                   	ret    

00107634 <switchuvm>:
switchuvm():
/u/a/b/abhijith/CS537/p3a/xv6-sp20/kernel/vm.c:178
  107634:	55                   	push   %ebp
  107635:	89 e5                	mov    %esp,%ebp
  107637:	56                   	push   %esi
  107638:	53                   	push   %ebx
/u/a/b/abhijith/CS537/p3a/xv6-sp20/kernel/vm.c:179
  107639:	e8 05 d3 ff ff       	call   104943 <pushcli>
/u/a/b/abhijith/CS537/p3a/xv6-sp20/kernel/vm.c:180
  10763e:	65 a1 00 00 00 00    	mov    %gs:0x0,%eax
  107644:	65 8b 15 00 00 00 00 	mov    %gs:0x0,%edx
  10764b:	83 c2 08             	add    $0x8,%edx
  10764e:	89 d6                	mov    %edx,%esi
  107650:	65 8b 15 00 00 00 00 	mov    %gs:0x0,%edx
  107657:	83 c2 08             	add    $0x8,%edx
  10765a:	c1 ea 10             	shr    $0x10,%edx
  10765d:	89 d3                	mov    %edx,%ebx
  10765f:	65 8b 15 00 00 00 00 	mov    %gs:0x0,%edx
  107666:	83 c2 08             	add    $0x8,%edx
  107669:	c1 ea 18             	shr    $0x18,%edx
  10766c:	89 d1                	mov    %edx,%ecx
  10766e:	66 c7 80 a0 00 00 00 	movw   $0x67,0xa0(%eax)
  107675:	67 00 
  107677:	66 89 b0 a2 00 00 00 	mov    %si,0xa2(%eax)
  10767e:	88 98 a4 00 00 00    	mov    %bl,0xa4(%eax)
  107684:	0f b6 90 a5 00 00 00 	movzbl 0xa5(%eax),%edx
  10768b:	83 e2 f0             	and    $0xfffffff0,%edx
  10768e:	83 ca 09             	or     $0x9,%edx
  107691:	88 90 a5 00 00 00    	mov    %dl,0xa5(%eax)
  107697:	0f b6 90 a5 00 00 00 	movzbl 0xa5(%eax),%edx
  10769e:	83 ca 10             	or     $0x10,%edx
  1076a1:	88 90 a5 00 00 00    	mov    %dl,0xa5(%eax)
  1076a7:	0f b6 90 a5 00 00 00 	movzbl 0xa5(%eax),%edx
  1076ae:	83 e2 9f             	and    $0xffffff9f,%edx
  1076b1:	88 90 a5 00 00 00    	mov    %dl,0xa5(%eax)
  1076b7:	0f b6 90 a5 00 00 00 	movzbl 0xa5(%eax),%edx
  1076be:	83 ca 80             	or     $0xffffff80,%edx
  1076c1:	88 90 a5 00 00 00    	mov    %dl,0xa5(%eax)
  1076c7:	0f b6 90 a6 00 00 00 	movzbl 0xa6(%eax),%edx
  1076ce:	83 e2 f0             	and    $0xfffffff0,%edx
  1076d1:	88 90 a6 00 00 00    	mov    %dl,0xa6(%eax)
  1076d7:	0f b6 90 a6 00 00 00 	movzbl 0xa6(%eax),%edx
  1076de:	83 e2 ef             	and    $0xffffffef,%edx
  1076e1:	88 90 a6 00 00 00    	mov    %dl,0xa6(%eax)
  1076e7:	0f b6 90 a6 00 00 00 	movzbl 0xa6(%eax),%edx
  1076ee:	83 e2 df             	and    $0xffffffdf,%edx
  1076f1:	88 90 a6 00 00 00    	mov    %dl,0xa6(%eax)
  1076f7:	0f b6 90 a6 00 00 00 	movzbl 0xa6(%eax),%edx
  1076fe:	83 ca 40             	or     $0x40,%edx
  107701:	88 90 a6 00 00 00    	mov    %dl,0xa6(%eax)
  107707:	0f b6 90 a6 00 00 00 	movzbl 0xa6(%eax),%edx
  10770e:	83 e2 7f             	and    $0x7f,%edx
  107711:	88 90 a6 00 00 00    	mov    %dl,0xa6(%eax)
  107717:	88 88 a7 00 00 00    	mov    %cl,0xa7(%eax)
/u/a/b/abhijith/CS537/p3a/xv6-sp20/kernel/vm.c:181
  10771d:	65 a1 00 00 00 00    	mov    %gs:0x0,%eax
  107723:	0f b6 90 a5 00 00 00 	movzbl 0xa5(%eax),%edx
  10772a:	83 e2 ef             	and    $0xffffffef,%edx
  10772d:	88 90 a5 00 00 00    	mov    %dl,0xa5(%eax)
/u/a/b/abhijith/CS537/p3a/xv6-sp20/kernel/vm.c:182
  107733:	65 a1 00 00 00 00    	mov    %gs:0x0,%eax
  107739:	66 c7 40 10 10 00    	movw   $0x10,0x10(%eax)
/u/a/b/abhijith/CS537/p3a/xv6-sp20/kernel/vm.c:183
  10773f:	65 a1 04 00 00 00    	mov    %gs:0x4,%eax
  107745:	8b 40 08             	mov    0x8(%eax),%eax
  107748:	89 c2                	mov    %eax,%edx
  10774a:	65 a1 00 00 00 00    	mov    %gs:0x0,%eax
  107750:	81 c2 00 10 00 00    	add    $0x1000,%edx
  107756:	89 50 0c             	mov    %edx,0xc(%eax)
/u/a/b/abhijith/CS537/p3a/xv6-sp20/kernel/vm.c:184
  107759:	83 ec 0c             	sub    $0xc,%esp
  10775c:	6a 30                	push   $0x30
  10775e:	e8 00 f8 ff ff       	call   106f63 <ltr>
  107763:	83 c4 10             	add    $0x10,%esp
/u/a/b/abhijith/CS537/p3a/xv6-sp20/kernel/vm.c:185
  107766:	8b 45 08             	mov    0x8(%ebp),%eax
  107769:	8b 40 04             	mov    0x4(%eax),%eax
  10776c:	85 c0                	test   %eax,%eax
  10776e:	75 0d                	jne    10777d <switchuvm+0x149>
/u/a/b/abhijith/CS537/p3a/xv6-sp20/kernel/vm.c:186
  107770:	83 ec 0c             	sub    $0xc,%esp
  107773:	68 4e 83 10 00       	push   $0x10834e
  107778:	e8 fb 8d ff ff       	call   100578 <panic>
/u/a/b/abhijith/CS537/p3a/xv6-sp20/kernel/vm.c:187
  10777d:	8b 45 08             	mov    0x8(%ebp),%eax
  107780:	8b 40 04             	mov    0x4(%eax),%eax
  107783:	83 ec 0c             	sub    $0xc,%esp
  107786:	50                   	push   %eax
  107787:	e8 21 f8 ff ff       	call   106fad <lcr3>
  10778c:	83 c4 10             	add    $0x10,%esp
/u/a/b/abhijith/CS537/p3a/xv6-sp20/kernel/vm.c:188
  10778f:	e8 f4 d1 ff ff       	call   104988 <popcli>
/u/a/b/abhijith/CS537/p3a/xv6-sp20/kernel/vm.c:189
  107794:	90                   	nop
  107795:	8d 65 f8             	lea    -0x8(%ebp),%esp
  107798:	5b                   	pop    %ebx
  107799:	5e                   	pop    %esi
  10779a:	5d                   	pop    %ebp
  10779b:	c3                   	ret    

0010779c <inituvm>:
inituvm():
/u/a/b/abhijith/CS537/p3a/xv6-sp20/kernel/vm.c:195
  10779c:	55                   	push   %ebp
  10779d:	89 e5                	mov    %esp,%ebp
  10779f:	83 ec 18             	sub    $0x18,%esp
/u/a/b/abhijith/CS537/p3a/xv6-sp20/kernel/vm.c:198
  1077a2:	81 7d 10 ff 0f 00 00 	cmpl   $0xfff,0x10(%ebp)
  1077a9:	76 0d                	jbe    1077b8 <inituvm+0x1c>
/u/a/b/abhijith/CS537/p3a/xv6-sp20/kernel/vm.c:199
  1077ab:	83 ec 0c             	sub    $0xc,%esp
  1077ae:	68 62 83 10 00       	push   $0x108362
  1077b3:	e8 c0 8d ff ff       	call   100578 <panic>
/u/a/b/abhijith/CS537/p3a/xv6-sp20/kernel/vm.c:200
  1077b8:	e8 67 b3 ff ff       	call   102b24 <kalloc>
  1077bd:	89 45 f4             	mov    %eax,-0xc(%ebp)
/u/a/b/abhijith/CS537/p3a/xv6-sp20/kernel/vm.c:201
  1077c0:	83 ec 04             	sub    $0x4,%esp
  1077c3:	68 00 10 00 00       	push   $0x1000
  1077c8:	6a 00                	push   $0x0
  1077ca:	ff 75 f4             	pushl  -0xc(%ebp)
  1077cd:	e8 51 d2 ff ff       	call   104a23 <memset>
  1077d2:	83 c4 10             	add    $0x10,%esp
/u/a/b/abhijith/CS537/p3a/xv6-sp20/kernel/vm.c:202
  1077d5:	8b 45 f4             	mov    -0xc(%ebp),%eax
  1077d8:	83 ec 0c             	sub    $0xc,%esp
  1077db:	6a 06                	push   $0x6
  1077dd:	50                   	push   %eax
  1077de:	68 00 10 00 00       	push   $0x1000
  1077e3:	6a 00                	push   $0x0
  1077e5:	ff 75 08             	pushl  0x8(%ebp)
  1077e8:	e8 e0 fc ff ff       	call   1074cd <mappages>
  1077ed:	83 c4 20             	add    $0x20,%esp
/u/a/b/abhijith/CS537/p3a/xv6-sp20/kernel/vm.c:203
  1077f0:	83 ec 04             	sub    $0x4,%esp
  1077f3:	ff 75 10             	pushl  0x10(%ebp)
  1077f6:	ff 75 0c             	pushl  0xc(%ebp)
  1077f9:	ff 75 f4             	pushl  -0xc(%ebp)
  1077fc:	e8 94 d2 ff ff       	call   104a95 <memmove>
  107801:	83 c4 10             	add    $0x10,%esp
/u/a/b/abhijith/CS537/p3a/xv6-sp20/kernel/vm.c:204
  107804:	90                   	nop
  107805:	c9                   	leave  
  107806:	c3                   	ret    

00107807 <loaduvm>:
loaduvm():
/u/a/b/abhijith/CS537/p3a/xv6-sp20/kernel/vm.c:210
  107807:	55                   	push   %ebp
  107808:	89 e5                	mov    %esp,%ebp
  10780a:	83 ec 18             	sub    $0x18,%esp
/u/a/b/abhijith/CS537/p3a/xv6-sp20/kernel/vm.c:214
  10780d:	8b 45 0c             	mov    0xc(%ebp),%eax
  107810:	25 ff 0f 00 00       	and    $0xfff,%eax
  107815:	85 c0                	test   %eax,%eax
  107817:	74 0d                	je     107826 <loaduvm+0x1f>
/u/a/b/abhijith/CS537/p3a/xv6-sp20/kernel/vm.c:215
  107819:	83 ec 0c             	sub    $0xc,%esp
  10781c:	68 7c 83 10 00       	push   $0x10837c
  107821:	e8 52 8d ff ff       	call   100578 <panic>
/u/a/b/abhijith/CS537/p3a/xv6-sp20/kernel/vm.c:216
  107826:	c7 45 f4 00 00 00 00 	movl   $0x0,-0xc(%ebp)
  10782d:	e9 89 00 00 00       	jmp    1078bb <loaduvm+0xb4>
/u/a/b/abhijith/CS537/p3a/xv6-sp20/kernel/vm.c:217
  107832:	8b 55 0c             	mov    0xc(%ebp),%edx
  107835:	8b 45 f4             	mov    -0xc(%ebp),%eax
  107838:	01 d0                	add    %edx,%eax
  10783a:	83 ec 04             	sub    $0x4,%esp
  10783d:	6a 00                	push   $0x0
  10783f:	50                   	push   %eax
  107840:	ff 75 08             	pushl  0x8(%ebp)
  107843:	e8 f9 fb ff ff       	call   107441 <walkpgdir>
  107848:	83 c4 10             	add    $0x10,%esp
  10784b:	89 45 ec             	mov    %eax,-0x14(%ebp)
  10784e:	83 7d ec 00          	cmpl   $0x0,-0x14(%ebp)
  107852:	75 0d                	jne    107861 <loaduvm+0x5a>
/u/a/b/abhijith/CS537/p3a/xv6-sp20/kernel/vm.c:218
  107854:	83 ec 0c             	sub    $0xc,%esp
  107857:	68 9f 83 10 00       	push   $0x10839f
  10785c:	e8 17 8d ff ff       	call   100578 <panic>
/u/a/b/abhijith/CS537/p3a/xv6-sp20/kernel/vm.c:219
  107861:	8b 45 ec             	mov    -0x14(%ebp),%eax
  107864:	8b 00                	mov    (%eax),%eax
  107866:	25 00 f0 ff ff       	and    $0xfffff000,%eax
  10786b:	89 45 e8             	mov    %eax,-0x18(%ebp)
/u/a/b/abhijith/CS537/p3a/xv6-sp20/kernel/vm.c:220
  10786e:	8b 45 18             	mov    0x18(%ebp),%eax
  107871:	2b 45 f4             	sub    -0xc(%ebp),%eax
  107874:	3d ff 0f 00 00       	cmp    $0xfff,%eax
  107879:	77 0b                	ja     107886 <loaduvm+0x7f>
/u/a/b/abhijith/CS537/p3a/xv6-sp20/kernel/vm.c:221
  10787b:	8b 45 18             	mov    0x18(%ebp),%eax
  10787e:	2b 45 f4             	sub    -0xc(%ebp),%eax
  107881:	89 45 f0             	mov    %eax,-0x10(%ebp)
  107884:	eb 07                	jmp    10788d <loaduvm+0x86>
/u/a/b/abhijith/CS537/p3a/xv6-sp20/kernel/vm.c:223
  107886:	c7 45 f0 00 10 00 00 	movl   $0x1000,-0x10(%ebp)
/u/a/b/abhijith/CS537/p3a/xv6-sp20/kernel/vm.c:224
  10788d:	8b 55 14             	mov    0x14(%ebp),%edx
  107890:	8b 45 f4             	mov    -0xc(%ebp),%eax
  107893:	01 c2                	add    %eax,%edx
  107895:	8b 45 e8             	mov    -0x18(%ebp),%eax
  107898:	ff 75 f0             	pushl  -0x10(%ebp)
  10789b:	52                   	push   %edx
  10789c:	50                   	push   %eax
  10789d:	ff 75 10             	pushl  0x10(%ebp)
  1078a0:	e8 0d a5 ff ff       	call   101db2 <readi>
  1078a5:	83 c4 10             	add    $0x10,%esp
  1078a8:	39 45 f0             	cmp    %eax,-0x10(%ebp)
  1078ab:	74 07                	je     1078b4 <loaduvm+0xad>
/u/a/b/abhijith/CS537/p3a/xv6-sp20/kernel/vm.c:225
  1078ad:	b8 ff ff ff ff       	mov    $0xffffffff,%eax
  1078b2:	eb 18                	jmp    1078cc <loaduvm+0xc5>
/u/a/b/abhijith/CS537/p3a/xv6-sp20/kernel/vm.c:216 (discriminator 2)
  1078b4:	81 45 f4 00 10 00 00 	addl   $0x1000,-0xc(%ebp)
/u/a/b/abhijith/CS537/p3a/xv6-sp20/kernel/vm.c:216 (discriminator 1)
  1078bb:	8b 45 f4             	mov    -0xc(%ebp),%eax
  1078be:	3b 45 18             	cmp    0x18(%ebp),%eax
  1078c1:	0f 82 6b ff ff ff    	jb     107832 <loaduvm+0x2b>
/u/a/b/abhijith/CS537/p3a/xv6-sp20/kernel/vm.c:227
  1078c7:	b8 00 00 00 00       	mov    $0x0,%eax
/u/a/b/abhijith/CS537/p3a/xv6-sp20/kernel/vm.c:228
  1078cc:	c9                   	leave  
  1078cd:	c3                   	ret    

001078ce <allocuvm>:
allocuvm():
/u/a/b/abhijith/CS537/p3a/xv6-sp20/kernel/vm.c:234
  1078ce:	55                   	push   %ebp
  1078cf:	89 e5                	mov    %esp,%ebp
  1078d1:	83 ec 18             	sub    $0x18,%esp
/u/a/b/abhijith/CS537/p3a/xv6-sp20/kernel/vm.c:238
  1078d4:	81 7d 10 00 00 0a 00 	cmpl   $0xa0000,0x10(%ebp)
  1078db:	76 0a                	jbe    1078e7 <allocuvm+0x19>
/u/a/b/abhijith/CS537/p3a/xv6-sp20/kernel/vm.c:239
  1078dd:	b8 00 00 00 00       	mov    $0x0,%eax
  1078e2:	e9 9f 00 00 00       	jmp    107986 <allocuvm+0xb8>
/u/a/b/abhijith/CS537/p3a/xv6-sp20/kernel/vm.c:240
  1078e7:	8b 45 10             	mov    0x10(%ebp),%eax
  1078ea:	3b 45 0c             	cmp    0xc(%ebp),%eax
  1078ed:	73 08                	jae    1078f7 <allocuvm+0x29>
/u/a/b/abhijith/CS537/p3a/xv6-sp20/kernel/vm.c:241
  1078ef:	8b 45 0c             	mov    0xc(%ebp),%eax
  1078f2:	e9 8f 00 00 00       	jmp    107986 <allocuvm+0xb8>
/u/a/b/abhijith/CS537/p3a/xv6-sp20/kernel/vm.c:243
  1078f7:	8b 45 0c             	mov    0xc(%ebp),%eax
  1078fa:	05 ff 0f 00 00       	add    $0xfff,%eax
  1078ff:	25 00 f0 ff ff       	and    $0xfffff000,%eax
  107904:	89 45 f4             	mov    %eax,-0xc(%ebp)
/u/a/b/abhijith/CS537/p3a/xv6-sp20/kernel/vm.c:244
  107907:	eb 72                	jmp    10797b <allocuvm+0xad>
/u/a/b/abhijith/CS537/p3a/xv6-sp20/kernel/vm.c:245
  107909:	e8 16 b2 ff ff       	call   102b24 <kalloc>
  10790e:	89 45 f0             	mov    %eax,-0x10(%ebp)
/u/a/b/abhijith/CS537/p3a/xv6-sp20/kernel/vm.c:246
  107911:	83 7d f0 00          	cmpl   $0x0,-0x10(%ebp)
  107915:	75 2b                	jne    107942 <allocuvm+0x74>
/u/a/b/abhijith/CS537/p3a/xv6-sp20/kernel/vm.c:247
  107917:	83 ec 0c             	sub    $0xc,%esp
  10791a:	68 bd 83 10 00       	push   $0x1083bd
  10791f:	e8 c8 8a ff ff       	call   1003ec <cprintf>
  107924:	83 c4 10             	add    $0x10,%esp
/u/a/b/abhijith/CS537/p3a/xv6-sp20/kernel/vm.c:248
  107927:	83 ec 04             	sub    $0x4,%esp
  10792a:	ff 75 0c             	pushl  0xc(%ebp)
  10792d:	ff 75 10             	pushl  0x10(%ebp)
  107930:	ff 75 08             	pushl  0x8(%ebp)
  107933:	e8 50 00 00 00       	call   107988 <deallocuvm>
  107938:	83 c4 10             	add    $0x10,%esp
/u/a/b/abhijith/CS537/p3a/xv6-sp20/kernel/vm.c:249
  10793b:	b8 00 00 00 00       	mov    $0x0,%eax
  107940:	eb 44                	jmp    107986 <allocuvm+0xb8>
/u/a/b/abhijith/CS537/p3a/xv6-sp20/kernel/vm.c:251
  107942:	83 ec 04             	sub    $0x4,%esp
  107945:	68 00 10 00 00       	push   $0x1000
  10794a:	6a 00                	push   $0x0
  10794c:	ff 75 f0             	pushl  -0x10(%ebp)
  10794f:	e8 cf d0 ff ff       	call   104a23 <memset>
  107954:	83 c4 10             	add    $0x10,%esp
/u/a/b/abhijith/CS537/p3a/xv6-sp20/kernel/vm.c:252
  107957:	8b 55 f0             	mov    -0x10(%ebp),%edx
  10795a:	8b 45 f4             	mov    -0xc(%ebp),%eax
  10795d:	83 ec 0c             	sub    $0xc,%esp
  107960:	6a 06                	push   $0x6
  107962:	52                   	push   %edx
  107963:	68 00 10 00 00       	push   $0x1000
  107968:	50                   	push   %eax
  107969:	ff 75 08             	pushl  0x8(%ebp)
  10796c:	e8 5c fb ff ff       	call   1074cd <mappages>
  107971:	83 c4 20             	add    $0x20,%esp
/u/a/b/abhijith/CS537/p3a/xv6-sp20/kernel/vm.c:244
  107974:	81 45 f4 00 10 00 00 	addl   $0x1000,-0xc(%ebp)
/u/a/b/abhijith/CS537/p3a/xv6-sp20/kernel/vm.c:244 (discriminator 1)
  10797b:	8b 45 f4             	mov    -0xc(%ebp),%eax
  10797e:	3b 45 10             	cmp    0x10(%ebp),%eax
  107981:	72 86                	jb     107909 <allocuvm+0x3b>
/u/a/b/abhijith/CS537/p3a/xv6-sp20/kernel/vm.c:254
  107983:	8b 45 10             	mov    0x10(%ebp),%eax
/u/a/b/abhijith/CS537/p3a/xv6-sp20/kernel/vm.c:255
  107986:	c9                   	leave  
  107987:	c3                   	ret    

00107988 <deallocuvm>:
deallocuvm():
/u/a/b/abhijith/CS537/p3a/xv6-sp20/kernel/vm.c:263
  107988:	55                   	push   %ebp
  107989:	89 e5                	mov    %esp,%ebp
  10798b:	83 ec 18             	sub    $0x18,%esp
/u/a/b/abhijith/CS537/p3a/xv6-sp20/kernel/vm.c:267
  10798e:	8b 45 10             	mov    0x10(%ebp),%eax
  107991:	3b 45 0c             	cmp    0xc(%ebp),%eax
  107994:	72 08                	jb     10799e <deallocuvm+0x16>
/u/a/b/abhijith/CS537/p3a/xv6-sp20/kernel/vm.c:268
  107996:	8b 45 0c             	mov    0xc(%ebp),%eax
  107999:	e9 85 00 00 00       	jmp    107a23 <deallocuvm+0x9b>
/u/a/b/abhijith/CS537/p3a/xv6-sp20/kernel/vm.c:270
  10799e:	8b 45 10             	mov    0x10(%ebp),%eax
  1079a1:	05 ff 0f 00 00       	add    $0xfff,%eax
  1079a6:	25 00 f0 ff ff       	and    $0xfffff000,%eax
  1079ab:	89 45 f4             	mov    %eax,-0xc(%ebp)
/u/a/b/abhijith/CS537/p3a/xv6-sp20/kernel/vm.c:271
  1079ae:	eb 68                	jmp    107a18 <deallocuvm+0x90>
/u/a/b/abhijith/CS537/p3a/xv6-sp20/kernel/vm.c:272
  1079b0:	8b 45 f4             	mov    -0xc(%ebp),%eax
  1079b3:	83 ec 04             	sub    $0x4,%esp
  1079b6:	6a 00                	push   $0x0
  1079b8:	50                   	push   %eax
  1079b9:	ff 75 08             	pushl  0x8(%ebp)
  1079bc:	e8 80 fa ff ff       	call   107441 <walkpgdir>
  1079c1:	83 c4 10             	add    $0x10,%esp
  1079c4:	89 45 f0             	mov    %eax,-0x10(%ebp)
/u/a/b/abhijith/CS537/p3a/xv6-sp20/kernel/vm.c:273
  1079c7:	83 7d f0 00          	cmpl   $0x0,-0x10(%ebp)
  1079cb:	74 44                	je     107a11 <deallocuvm+0x89>
/u/a/b/abhijith/CS537/p3a/xv6-sp20/kernel/vm.c:273 (discriminator 1)
  1079cd:	8b 45 f0             	mov    -0x10(%ebp),%eax
  1079d0:	8b 00                	mov    (%eax),%eax
  1079d2:	83 e0 01             	and    $0x1,%eax
  1079d5:	85 c0                	test   %eax,%eax
  1079d7:	74 38                	je     107a11 <deallocuvm+0x89>
/u/a/b/abhijith/CS537/p3a/xv6-sp20/kernel/vm.c:274
  1079d9:	8b 45 f0             	mov    -0x10(%ebp),%eax
  1079dc:	8b 00                	mov    (%eax),%eax
  1079de:	25 00 f0 ff ff       	and    $0xfffff000,%eax
  1079e3:	89 45 ec             	mov    %eax,-0x14(%ebp)
/u/a/b/abhijith/CS537/p3a/xv6-sp20/kernel/vm.c:275
  1079e6:	83 7d ec 00          	cmpl   $0x0,-0x14(%ebp)
  1079ea:	75 0d                	jne    1079f9 <deallocuvm+0x71>
/u/a/b/abhijith/CS537/p3a/xv6-sp20/kernel/vm.c:276
  1079ec:	83 ec 0c             	sub    $0xc,%esp
  1079ef:	68 d5 83 10 00       	push   $0x1083d5
  1079f4:	e8 7f 8b ff ff       	call   100578 <panic>
/u/a/b/abhijith/CS537/p3a/xv6-sp20/kernel/vm.c:277
  1079f9:	8b 45 ec             	mov    -0x14(%ebp),%eax
  1079fc:	83 ec 0c             	sub    $0xc,%esp
  1079ff:	50                   	push   %eax
  107a00:	e8 7e b0 ff ff       	call   102a83 <kfree>
  107a05:	83 c4 10             	add    $0x10,%esp
/u/a/b/abhijith/CS537/p3a/xv6-sp20/kernel/vm.c:278
  107a08:	8b 45 f0             	mov    -0x10(%ebp),%eax
  107a0b:	c7 00 00 00 00 00    	movl   $0x0,(%eax)
/u/a/b/abhijith/CS537/p3a/xv6-sp20/kernel/vm.c:271
  107a11:	81 45 f4 00 10 00 00 	addl   $0x1000,-0xc(%ebp)
/u/a/b/abhijith/CS537/p3a/xv6-sp20/kernel/vm.c:271 (discriminator 1)
  107a18:	8b 45 f4             	mov    -0xc(%ebp),%eax
  107a1b:	3b 45 0c             	cmp    0xc(%ebp),%eax
  107a1e:	72 90                	jb     1079b0 <deallocuvm+0x28>
/u/a/b/abhijith/CS537/p3a/xv6-sp20/kernel/vm.c:281
  107a20:	8b 45 10             	mov    0x10(%ebp),%eax
/u/a/b/abhijith/CS537/p3a/xv6-sp20/kernel/vm.c:282
  107a23:	c9                   	leave  
  107a24:	c3                   	ret    

00107a25 <freevm>:
freevm():
/u/a/b/abhijith/CS537/p3a/xv6-sp20/kernel/vm.c:288
  107a25:	55                   	push   %ebp
  107a26:	89 e5                	mov    %esp,%ebp
  107a28:	83 ec 18             	sub    $0x18,%esp
/u/a/b/abhijith/CS537/p3a/xv6-sp20/kernel/vm.c:291
  107a2b:	83 7d 08 00          	cmpl   $0x0,0x8(%ebp)
  107a2f:	75 0d                	jne    107a3e <freevm+0x19>
/u/a/b/abhijith/CS537/p3a/xv6-sp20/kernel/vm.c:292
  107a31:	83 ec 0c             	sub    $0xc,%esp
  107a34:	68 db 83 10 00       	push   $0x1083db
  107a39:	e8 3a 8b ff ff       	call   100578 <panic>
/u/a/b/abhijith/CS537/p3a/xv6-sp20/kernel/vm.c:293
  107a3e:	83 ec 04             	sub    $0x4,%esp
  107a41:	6a 00                	push   $0x0
  107a43:	68 00 00 0a 00       	push   $0xa0000
  107a48:	ff 75 08             	pushl  0x8(%ebp)
  107a4b:	e8 38 ff ff ff       	call   107988 <deallocuvm>
  107a50:	83 c4 10             	add    $0x10,%esp
/u/a/b/abhijith/CS537/p3a/xv6-sp20/kernel/vm.c:294
  107a53:	c7 45 f4 00 00 00 00 	movl   $0x0,-0xc(%ebp)
  107a5a:	eb 3e                	jmp    107a9a <freevm+0x75>
/u/a/b/abhijith/CS537/p3a/xv6-sp20/kernel/vm.c:295
  107a5c:	8b 45 f4             	mov    -0xc(%ebp),%eax
  107a5f:	8d 14 85 00 00 00 00 	lea    0x0(,%eax,4),%edx
  107a66:	8b 45 08             	mov    0x8(%ebp),%eax
  107a69:	01 d0                	add    %edx,%eax
  107a6b:	8b 00                	mov    (%eax),%eax
  107a6d:	83 e0 01             	and    $0x1,%eax
  107a70:	85 c0                	test   %eax,%eax
  107a72:	74 22                	je     107a96 <freevm+0x71>
/u/a/b/abhijith/CS537/p3a/xv6-sp20/kernel/vm.c:296
  107a74:	8b 45 f4             	mov    -0xc(%ebp),%eax
  107a77:	8d 14 85 00 00 00 00 	lea    0x0(,%eax,4),%edx
  107a7e:	8b 45 08             	mov    0x8(%ebp),%eax
  107a81:	01 d0                	add    %edx,%eax
  107a83:	8b 00                	mov    (%eax),%eax
  107a85:	25 00 f0 ff ff       	and    $0xfffff000,%eax
  107a8a:	83 ec 0c             	sub    $0xc,%esp
  107a8d:	50                   	push   %eax
  107a8e:	e8 f0 af ff ff       	call   102a83 <kfree>
  107a93:	83 c4 10             	add    $0x10,%esp
/u/a/b/abhijith/CS537/p3a/xv6-sp20/kernel/vm.c:294 (discriminator 2)
  107a96:	83 45 f4 01          	addl   $0x1,-0xc(%ebp)
/u/a/b/abhijith/CS537/p3a/xv6-sp20/kernel/vm.c:294 (discriminator 1)
  107a9a:	81 7d f4 ff 03 00 00 	cmpl   $0x3ff,-0xc(%ebp)
  107aa1:	76 b9                	jbe    107a5c <freevm+0x37>
/u/a/b/abhijith/CS537/p3a/xv6-sp20/kernel/vm.c:298
  107aa3:	83 ec 0c             	sub    $0xc,%esp
  107aa6:	ff 75 08             	pushl  0x8(%ebp)
  107aa9:	e8 d5 af ff ff       	call   102a83 <kfree>
  107aae:	83 c4 10             	add    $0x10,%esp
/u/a/b/abhijith/CS537/p3a/xv6-sp20/kernel/vm.c:299
  107ab1:	90                   	nop
  107ab2:	c9                   	leave  
  107ab3:	c3                   	ret    

00107ab4 <copyuvm>:
copyuvm():
/u/a/b/abhijith/CS537/p3a/xv6-sp20/kernel/vm.c:305
  107ab4:	55                   	push   %ebp
  107ab5:	89 e5                	mov    %esp,%ebp
  107ab7:	83 ec 28             	sub    $0x28,%esp
/u/a/b/abhijith/CS537/p3a/xv6-sp20/kernel/vm.c:311
  107aba:	c7 45 f0 01 00 00 00 	movl   $0x1,-0x10(%ebp)
/u/a/b/abhijith/CS537/p3a/xv6-sp20/kernel/vm.c:313
  107ac1:	e8 97 fa ff ff       	call   10755d <setupkvm>
  107ac6:	89 45 ec             	mov    %eax,-0x14(%ebp)
  107ac9:	83 7d ec 00          	cmpl   $0x0,-0x14(%ebp)
  107acd:	75 0a                	jne    107ad9 <copyuvm+0x25>
/u/a/b/abhijith/CS537/p3a/xv6-sp20/kernel/vm.c:314
  107acf:	b8 00 00 00 00       	mov    $0x0,%eax
  107ad4:	e9 07 01 00 00       	jmp    107be0 <copyuvm+0x12c>
/u/a/b/abhijith/CS537/p3a/xv6-sp20/kernel/vm.c:315
  107ad9:	c7 45 f4 00 00 00 00 	movl   $0x0,-0xc(%ebp)
  107ae0:	e9 d3 00 00 00       	jmp    107bb8 <copyuvm+0x104>
/u/a/b/abhijith/CS537/p3a/xv6-sp20/kernel/vm.c:316
  107ae5:	8b 45 f4             	mov    -0xc(%ebp),%eax
  107ae8:	83 ec 04             	sub    $0x4,%esp
  107aeb:	6a 00                	push   $0x0
  107aed:	50                   	push   %eax
  107aee:	ff 75 08             	pushl  0x8(%ebp)
  107af1:	e8 4b f9 ff ff       	call   107441 <walkpgdir>
  107af6:	83 c4 10             	add    $0x10,%esp
  107af9:	89 45 e8             	mov    %eax,-0x18(%ebp)
  107afc:	83 7d e8 00          	cmpl   $0x0,-0x18(%ebp)
  107b00:	75 0d                	jne    107b0f <copyuvm+0x5b>
/u/a/b/abhijith/CS537/p3a/xv6-sp20/kernel/vm.c:317
  107b02:	83 ec 0c             	sub    $0xc,%esp
  107b05:	68 ec 83 10 00       	push   $0x1083ec
  107b0a:	e8 69 8a ff ff       	call   100578 <panic>
/u/a/b/abhijith/CS537/p3a/xv6-sp20/kernel/vm.c:318
  107b0f:	8b 45 e8             	mov    -0x18(%ebp),%eax
  107b12:	8b 00                	mov    (%eax),%eax
  107b14:	83 e0 01             	and    $0x1,%eax
  107b17:	85 c0                	test   %eax,%eax
  107b19:	75 0d                	jne    107b28 <copyuvm+0x74>
/u/a/b/abhijith/CS537/p3a/xv6-sp20/kernel/vm.c:319
  107b1b:	83 ec 0c             	sub    $0xc,%esp
  107b1e:	68 06 84 10 00       	push   $0x108406
  107b23:	e8 50 8a ff ff       	call   100578 <panic>
/u/a/b/abhijith/CS537/p3a/xv6-sp20/kernel/vm.c:320
  107b28:	8b 45 e8             	mov    -0x18(%ebp),%eax
  107b2b:	8b 00                	mov    (%eax),%eax
  107b2d:	25 00 f0 ff ff       	and    $0xfffff000,%eax
  107b32:	89 45 e4             	mov    %eax,-0x1c(%ebp)
/u/a/b/abhijith/CS537/p3a/xv6-sp20/kernel/vm.c:322
  107b35:	8b 45 e8             	mov    -0x18(%ebp),%eax
  107b38:	8b 00                	mov    (%eax),%eax
  107b3a:	d1 e8                	shr    %eax
  107b3c:	83 e0 01             	and    $0x1,%eax
  107b3f:	89 45 f0             	mov    %eax,-0x10(%ebp)
/u/a/b/abhijith/CS537/p3a/xv6-sp20/kernel/vm.c:324
  107b42:	e8 dd af ff ff       	call   102b24 <kalloc>
  107b47:	89 45 e0             	mov    %eax,-0x20(%ebp)
  107b4a:	83 7d e0 00          	cmpl   $0x0,-0x20(%ebp)
  107b4e:	74 79                	je     107bc9 <copyuvm+0x115>
/u/a/b/abhijith/CS537/p3a/xv6-sp20/kernel/vm.c:326
  107b50:	8b 45 e4             	mov    -0x1c(%ebp),%eax
  107b53:	83 ec 04             	sub    $0x4,%esp
  107b56:	68 00 10 00 00       	push   $0x1000
  107b5b:	50                   	push   %eax
  107b5c:	ff 75 e0             	pushl  -0x20(%ebp)
  107b5f:	e8 31 cf ff ff       	call   104a95 <memmove>
  107b64:	83 c4 10             	add    $0x10,%esp
/u/a/b/abhijith/CS537/p3a/xv6-sp20/kernel/vm.c:328
  107b67:	83 7d f0 00          	cmpl   $0x0,-0x10(%ebp)
  107b6b:	74 23                	je     107b90 <copyuvm+0xdc>
/u/a/b/abhijith/CS537/p3a/xv6-sp20/kernel/vm.c:330
  107b6d:	8b 55 e0             	mov    -0x20(%ebp),%edx
  107b70:	8b 45 f4             	mov    -0xc(%ebp),%eax
  107b73:	83 ec 0c             	sub    $0xc,%esp
  107b76:	6a 06                	push   $0x6
  107b78:	52                   	push   %edx
  107b79:	68 00 10 00 00       	push   $0x1000
  107b7e:	50                   	push   %eax
  107b7f:	ff 75 ec             	pushl  -0x14(%ebp)
  107b82:	e8 46 f9 ff ff       	call   1074cd <mappages>
  107b87:	83 c4 20             	add    $0x20,%esp
  107b8a:	85 c0                	test   %eax,%eax
  107b8c:	79 23                	jns    107bb1 <copyuvm+0xfd>
/u/a/b/abhijith/CS537/p3a/xv6-sp20/kernel/vm.c:331
  107b8e:	eb 3d                	jmp    107bcd <copyuvm+0x119>
/u/a/b/abhijith/CS537/p3a/xv6-sp20/kernel/vm.c:335
  107b90:	8b 55 e0             	mov    -0x20(%ebp),%edx
  107b93:	8b 45 f4             	mov    -0xc(%ebp),%eax
  107b96:	83 ec 0c             	sub    $0xc,%esp
  107b99:	6a 04                	push   $0x4
  107b9b:	52                   	push   %edx
  107b9c:	68 00 10 00 00       	push   $0x1000
  107ba1:	50                   	push   %eax
  107ba2:	ff 75 ec             	pushl  -0x14(%ebp)
  107ba5:	e8 23 f9 ff ff       	call   1074cd <mappages>
  107baa:	83 c4 20             	add    $0x20,%esp
  107bad:	85 c0                	test   %eax,%eax
  107baf:	78 1b                	js     107bcc <copyuvm+0x118>
/u/a/b/abhijith/CS537/p3a/xv6-sp20/kernel/vm.c:315 (discriminator 2)
  107bb1:	81 45 f4 00 10 00 00 	addl   $0x1000,-0xc(%ebp)
/u/a/b/abhijith/CS537/p3a/xv6-sp20/kernel/vm.c:315 (discriminator 1)
  107bb8:	8b 45 f4             	mov    -0xc(%ebp),%eax
  107bbb:	3b 45 0c             	cmp    0xc(%ebp),%eax
  107bbe:	0f 82 21 ff ff ff    	jb     107ae5 <copyuvm+0x31>
/u/a/b/abhijith/CS537/p3a/xv6-sp20/kernel/vm.c:339
  107bc4:	8b 45 ec             	mov    -0x14(%ebp),%eax
  107bc7:	eb 17                	jmp    107be0 <copyuvm+0x12c>
/u/a/b/abhijith/CS537/p3a/xv6-sp20/kernel/vm.c:325
  107bc9:	90                   	nop
  107bca:	eb 01                	jmp    107bcd <copyuvm+0x119>
/u/a/b/abhijith/CS537/p3a/xv6-sp20/kernel/vm.c:336
  107bcc:	90                   	nop
/u/a/b/abhijith/CS537/p3a/xv6-sp20/kernel/vm.c:342
  107bcd:	83 ec 0c             	sub    $0xc,%esp
  107bd0:	ff 75 ec             	pushl  -0x14(%ebp)
  107bd3:	e8 4d fe ff ff       	call   107a25 <freevm>
  107bd8:	83 c4 10             	add    $0x10,%esp
/u/a/b/abhijith/CS537/p3a/xv6-sp20/kernel/vm.c:343
  107bdb:	b8 00 00 00 00       	mov    $0x0,%eax
/u/a/b/abhijith/CS537/p3a/xv6-sp20/kernel/vm.c:344
  107be0:	c9                   	leave  
  107be1:	c3                   	ret    

00107be2 <uva2ka>:
uva2ka():
/u/a/b/abhijith/CS537/p3a/xv6-sp20/kernel/vm.c:349
  107be2:	55                   	push   %ebp
  107be3:	89 e5                	mov    %esp,%ebp
  107be5:	83 ec 18             	sub    $0x18,%esp
/u/a/b/abhijith/CS537/p3a/xv6-sp20/kernel/vm.c:352
  107be8:	83 ec 04             	sub    $0x4,%esp
  107beb:	6a 00                	push   $0x0
  107bed:	ff 75 0c             	pushl  0xc(%ebp)
  107bf0:	ff 75 08             	pushl  0x8(%ebp)
  107bf3:	e8 49 f8 ff ff       	call   107441 <walkpgdir>
  107bf8:	83 c4 10             	add    $0x10,%esp
  107bfb:	89 45 f4             	mov    %eax,-0xc(%ebp)
/u/a/b/abhijith/CS537/p3a/xv6-sp20/kernel/vm.c:353
  107bfe:	8b 45 f4             	mov    -0xc(%ebp),%eax
  107c01:	8b 00                	mov    (%eax),%eax
  107c03:	83 e0 01             	and    $0x1,%eax
  107c06:	85 c0                	test   %eax,%eax
  107c08:	75 07                	jne    107c11 <uva2ka+0x2f>
/u/a/b/abhijith/CS537/p3a/xv6-sp20/kernel/vm.c:354
  107c0a:	b8 00 00 00 00       	mov    $0x0,%eax
  107c0f:	eb 1d                	jmp    107c2e <uva2ka+0x4c>
/u/a/b/abhijith/CS537/p3a/xv6-sp20/kernel/vm.c:355
  107c11:	8b 45 f4             	mov    -0xc(%ebp),%eax
  107c14:	8b 00                	mov    (%eax),%eax
  107c16:	83 e0 04             	and    $0x4,%eax
  107c19:	85 c0                	test   %eax,%eax
  107c1b:	75 07                	jne    107c24 <uva2ka+0x42>
/u/a/b/abhijith/CS537/p3a/xv6-sp20/kernel/vm.c:356
  107c1d:	b8 00 00 00 00       	mov    $0x0,%eax
  107c22:	eb 0a                	jmp    107c2e <uva2ka+0x4c>
/u/a/b/abhijith/CS537/p3a/xv6-sp20/kernel/vm.c:357
  107c24:	8b 45 f4             	mov    -0xc(%ebp),%eax
  107c27:	8b 00                	mov    (%eax),%eax
  107c29:	25 00 f0 ff ff       	and    $0xfffff000,%eax
/u/a/b/abhijith/CS537/p3a/xv6-sp20/kernel/vm.c:358
  107c2e:	c9                   	leave  
  107c2f:	c3                   	ret    

00107c30 <copyout>:
copyout():
/u/a/b/abhijith/CS537/p3a/xv6-sp20/kernel/vm.c:365
  107c30:	55                   	push   %ebp
  107c31:	89 e5                	mov    %esp,%ebp
  107c33:	83 ec 18             	sub    $0x18,%esp
/u/a/b/abhijith/CS537/p3a/xv6-sp20/kernel/vm.c:369
  107c36:	8b 45 10             	mov    0x10(%ebp),%eax
  107c39:	89 45 f4             	mov    %eax,-0xc(%ebp)
/u/a/b/abhijith/CS537/p3a/xv6-sp20/kernel/vm.c:370
  107c3c:	eb 7f                	jmp    107cbd <copyout+0x8d>
/u/a/b/abhijith/CS537/p3a/xv6-sp20/kernel/vm.c:371
  107c3e:	8b 45 0c             	mov    0xc(%ebp),%eax
  107c41:	25 00 f0 ff ff       	and    $0xfffff000,%eax
  107c46:	89 45 ec             	mov    %eax,-0x14(%ebp)
/u/a/b/abhijith/CS537/p3a/xv6-sp20/kernel/vm.c:372
  107c49:	8b 45 ec             	mov    -0x14(%ebp),%eax
  107c4c:	83 ec 08             	sub    $0x8,%esp
  107c4f:	50                   	push   %eax
  107c50:	ff 75 08             	pushl  0x8(%ebp)
  107c53:	e8 8a ff ff ff       	call   107be2 <uva2ka>
  107c58:	83 c4 10             	add    $0x10,%esp
  107c5b:	89 45 e8             	mov    %eax,-0x18(%ebp)
/u/a/b/abhijith/CS537/p3a/xv6-sp20/kernel/vm.c:373
  107c5e:	83 7d e8 00          	cmpl   $0x0,-0x18(%ebp)
  107c62:	75 07                	jne    107c6b <copyout+0x3b>
/u/a/b/abhijith/CS537/p3a/xv6-sp20/kernel/vm.c:374
  107c64:	b8 ff ff ff ff       	mov    $0xffffffff,%eax
  107c69:	eb 61                	jmp    107ccc <copyout+0x9c>
/u/a/b/abhijith/CS537/p3a/xv6-sp20/kernel/vm.c:375
  107c6b:	8b 45 ec             	mov    -0x14(%ebp),%eax
  107c6e:	2b 45 0c             	sub    0xc(%ebp),%eax
  107c71:	05 00 10 00 00       	add    $0x1000,%eax
  107c76:	89 45 f0             	mov    %eax,-0x10(%ebp)
/u/a/b/abhijith/CS537/p3a/xv6-sp20/kernel/vm.c:376
  107c79:	8b 45 f0             	mov    -0x10(%ebp),%eax
  107c7c:	3b 45 14             	cmp    0x14(%ebp),%eax
  107c7f:	76 06                	jbe    107c87 <copyout+0x57>
/u/a/b/abhijith/CS537/p3a/xv6-sp20/kernel/vm.c:377
  107c81:	8b 45 14             	mov    0x14(%ebp),%eax
  107c84:	89 45 f0             	mov    %eax,-0x10(%ebp)
/u/a/b/abhijith/CS537/p3a/xv6-sp20/kernel/vm.c:378
  107c87:	8b 45 0c             	mov    0xc(%ebp),%eax
  107c8a:	2b 45 ec             	sub    -0x14(%ebp),%eax
  107c8d:	89 c2                	mov    %eax,%edx
  107c8f:	8b 45 e8             	mov    -0x18(%ebp),%eax
  107c92:	01 d0                	add    %edx,%eax
  107c94:	83 ec 04             	sub    $0x4,%esp
  107c97:	ff 75 f0             	pushl  -0x10(%ebp)
  107c9a:	ff 75 f4             	pushl  -0xc(%ebp)
  107c9d:	50                   	push   %eax
  107c9e:	e8 f2 cd ff ff       	call   104a95 <memmove>
  107ca3:	83 c4 10             	add    $0x10,%esp
/u/a/b/abhijith/CS537/p3a/xv6-sp20/kernel/vm.c:379
  107ca6:	8b 45 f0             	mov    -0x10(%ebp),%eax
  107ca9:	29 45 14             	sub    %eax,0x14(%ebp)
/u/a/b/abhijith/CS537/p3a/xv6-sp20/kernel/vm.c:380
  107cac:	8b 45 f0             	mov    -0x10(%ebp),%eax
  107caf:	01 45 f4             	add    %eax,-0xc(%ebp)
/u/a/b/abhijith/CS537/p3a/xv6-sp20/kernel/vm.c:381
  107cb2:	8b 45 ec             	mov    -0x14(%ebp),%eax
  107cb5:	05 00 10 00 00       	add    $0x1000,%eax
  107cba:	89 45 0c             	mov    %eax,0xc(%ebp)
/u/a/b/abhijith/CS537/p3a/xv6-sp20/kernel/vm.c:370
  107cbd:	83 7d 14 00          	cmpl   $0x0,0x14(%ebp)
  107cc1:	0f 85 77 ff ff ff    	jne    107c3e <copyout+0xe>
/u/a/b/abhijith/CS537/p3a/xv6-sp20/kernel/vm.c:383
  107cc7:	b8 00 00 00 00       	mov    $0x0,%eax
/u/a/b/abhijith/CS537/p3a/xv6-sp20/kernel/vm.c:384
  107ccc:	c9                   	leave  
  107ccd:	c3                   	ret    

00107cce <vm_set_clear_readonly>:
vm_set_clear_readonly():
/u/a/b/abhijith/CS537/p3a/xv6-sp20/kernel/vm.c:388
  107cce:	55                   	push   %ebp
  107ccf:	89 e5                	mov    %esp,%ebp
  107cd1:	83 ec 18             	sub    $0x18,%esp
/u/a/b/abhijith/CS537/p3a/xv6-sp20/kernel/vm.c:392
  107cd4:	8b 45 10             	mov    0x10(%ebp),%eax
  107cd7:	c1 e0 0c             	shl    $0xc,%eax
  107cda:	89 c2                	mov    %eax,%edx
  107cdc:	8b 45 0c             	mov    0xc(%ebp),%eax
  107cdf:	01 d0                	add    %edx,%eax
  107ce1:	3d 00 00 0a 00       	cmp    $0xa0000,%eax
  107ce6:	76 0a                	jbe    107cf2 <vm_set_clear_readonly+0x24>
/u/a/b/abhijith/CS537/p3a/xv6-sp20/kernel/vm.c:393
  107ce8:	b8 ff ff ff ff       	mov    $0xffffffff,%eax
  107ced:	e9 cd 00 00 00       	jmp    107dbf <vm_set_clear_readonly+0xf1>
/u/a/b/abhijith/CS537/p3a/xv6-sp20/kernel/vm.c:395
  107cf2:	c7 45 f4 00 00 00 00 	movl   $0x0,-0xc(%ebp)
  107cf9:	eb 45                	jmp    107d40 <vm_set_clear_readonly+0x72>
/u/a/b/abhijith/CS537/p3a/xv6-sp20/kernel/vm.c:397
  107cfb:	8b 55 f4             	mov    -0xc(%ebp),%edx
  107cfe:	8b 45 0c             	mov    0xc(%ebp),%eax
  107d01:	01 d0                	add    %edx,%eax
  107d03:	83 ec 04             	sub    $0x4,%esp
  107d06:	6a 00                	push   $0x0
  107d08:	50                   	push   %eax
  107d09:	ff 75 08             	pushl  0x8(%ebp)
  107d0c:	e8 30 f7 ff ff       	call   107441 <walkpgdir>
  107d11:	83 c4 10             	add    $0x10,%esp
  107d14:	89 45 f0             	mov    %eax,-0x10(%ebp)
/u/a/b/abhijith/CS537/p3a/xv6-sp20/kernel/vm.c:398
  107d17:	8b 45 f0             	mov    -0x10(%ebp),%eax
  107d1a:	8b 00                	mov    (%eax),%eax
  107d1c:	83 e0 01             	and    $0x1,%eax
  107d1f:	85 c0                	test   %eax,%eax
  107d21:	74 0c                	je     107d2f <vm_set_clear_readonly+0x61>
/u/a/b/abhijith/CS537/p3a/xv6-sp20/kernel/vm.c:398 (discriminator 1)
  107d23:	8b 45 f0             	mov    -0x10(%ebp),%eax
  107d26:	8b 00                	mov    (%eax),%eax
  107d28:	83 e0 04             	and    $0x4,%eax
  107d2b:	85 c0                	test   %eax,%eax
  107d2d:	75 0a                	jne    107d39 <vm_set_clear_readonly+0x6b>
/u/a/b/abhijith/CS537/p3a/xv6-sp20/kernel/vm.c:399
  107d2f:	b8 ff ff ff ff       	mov    $0xffffffff,%eax
  107d34:	e9 86 00 00 00       	jmp    107dbf <vm_set_clear_readonly+0xf1>
/u/a/b/abhijith/CS537/p3a/xv6-sp20/kernel/vm.c:395 (discriminator 2)
  107d39:	81 45 f4 00 10 00 00 	addl   $0x1000,-0xc(%ebp)
/u/a/b/abhijith/CS537/p3a/xv6-sp20/kernel/vm.c:395 (discriminator 1)
  107d40:	8b 45 f4             	mov    -0xc(%ebp),%eax
  107d43:	3b 45 10             	cmp    0x10(%ebp),%eax
  107d46:	7c b3                	jl     107cfb <vm_set_clear_readonly+0x2d>
/u/a/b/abhijith/CS537/p3a/xv6-sp20/kernel/vm.c:403
  107d48:	c7 45 f4 00 00 00 00 	movl   $0x0,-0xc(%ebp)
  107d4f:	eb 49                	jmp    107d9a <vm_set_clear_readonly+0xcc>
/u/a/b/abhijith/CS537/p3a/xv6-sp20/kernel/vm.c:405
  107d51:	8b 55 f4             	mov    -0xc(%ebp),%edx
  107d54:	8b 45 0c             	mov    0xc(%ebp),%eax
  107d57:	01 d0                	add    %edx,%eax
  107d59:	83 ec 04             	sub    $0x4,%esp
  107d5c:	6a 00                	push   $0x0
  107d5e:	50                   	push   %eax
  107d5f:	ff 75 08             	pushl  0x8(%ebp)
  107d62:	e8 da f6 ff ff       	call   107441 <walkpgdir>
  107d67:	83 c4 10             	add    $0x10,%esp
  107d6a:	89 45 f0             	mov    %eax,-0x10(%ebp)
/u/a/b/abhijith/CS537/p3a/xv6-sp20/kernel/vm.c:406
  107d6d:	83 7d 14 00          	cmpl   $0x0,0x14(%ebp)
  107d71:	74 11                	je     107d84 <vm_set_clear_readonly+0xb6>
/u/a/b/abhijith/CS537/p3a/xv6-sp20/kernel/vm.c:407
  107d73:	8b 45 f0             	mov    -0x10(%ebp),%eax
  107d76:	8b 00                	mov    (%eax),%eax
  107d78:	83 c8 02             	or     $0x2,%eax
  107d7b:	89 c2                	mov    %eax,%edx
  107d7d:	8b 45 f0             	mov    -0x10(%ebp),%eax
  107d80:	89 10                	mov    %edx,(%eax)
  107d82:	eb 0f                	jmp    107d93 <vm_set_clear_readonly+0xc5>
/u/a/b/abhijith/CS537/p3a/xv6-sp20/kernel/vm.c:409
  107d84:	8b 45 f0             	mov    -0x10(%ebp),%eax
  107d87:	8b 00                	mov    (%eax),%eax
  107d89:	83 e0 fd             	and    $0xfffffffd,%eax
  107d8c:	89 c2                	mov    %eax,%edx
  107d8e:	8b 45 f0             	mov    -0x10(%ebp),%eax
  107d91:	89 10                	mov    %edx,(%eax)
/u/a/b/abhijith/CS537/p3a/xv6-sp20/kernel/vm.c:403 (discriminator 2)
  107d93:	81 45 f4 00 10 00 00 	addl   $0x1000,-0xc(%ebp)
/u/a/b/abhijith/CS537/p3a/xv6-sp20/kernel/vm.c:403 (discriminator 1)
  107d9a:	8b 45 10             	mov    0x10(%ebp),%eax
  107d9d:	c1 e0 0c             	shl    $0xc,%eax
  107da0:	39 45 f4             	cmp    %eax,-0xc(%ebp)
  107da3:	7c ac                	jl     107d51 <vm_set_clear_readonly+0x83>
/u/a/b/abhijith/CS537/p3a/xv6-sp20/kernel/vm.c:413
  107da5:	65 a1 04 00 00 00    	mov    %gs:0x4,%eax
  107dab:	8b 40 04             	mov    0x4(%eax),%eax
  107dae:	83 ec 0c             	sub    $0xc,%esp
  107db1:	50                   	push   %eax
  107db2:	e8 f6 f1 ff ff       	call   106fad <lcr3>
  107db7:	83 c4 10             	add    $0x10,%esp
/u/a/b/abhijith/CS537/p3a/xv6-sp20/kernel/vm.c:415
  107dba:	b8 00 00 00 00       	mov    $0x0,%eax
/u/a/b/abhijith/CS537/p3a/xv6-sp20/kernel/vm.c:416
  107dbf:	c9                   	leave  
  107dc0:	c3                   	ret    
