
kernel/kernel:     file format elf32-i386


Disassembly of section .text:

00100000 <multiboot_header>:
multiboot_header():
  100000:	02 b0 ad 1b 01 00    	add    0x11bad(%eax),%dh
  100006:	01 00                	add    %eax,(%eax)
  100008:	fd                   	std    
  100009:	4f                   	dec    %edi
  10000a:	51                   	push   %ecx
  10000b:	e4 00                	in     $0x0,%al
  10000d:	00 10                	add    %dl,(%eax)
  10000f:	00 00                	add    %al,(%eax)
  100011:	00 10                	add    %dl,(%eax)
  100013:	00 46 bc             	add    %al,-0x44(%esi)
  100016:	10 00                	adc    %al,(%eax)
  100018:	04 35                	add    $0x35,%al
  10001a:	11 00                	adc    %eax,(%eax)
  10001c:	20 00                	and    %al,(%eax)
  10001e:	10 00                	adc    %al,(%eax)

00100020 <multiboot_entry>:
multiboot_entry():
/u/a/b/abhijith/CS537/p3b/xv6-sp20/kernel/multiboot.S:45
  100020:	0f 01 15 64 00 10 00 	lgdtl  0x100064
/u/a/b/abhijith/CS537/p3b/xv6-sp20/kernel/multiboot.S:46
  100027:	ea 2e 00 10 00 08 00 	ljmp   $0x8,$0x10002e

0010002e <mbstart32>:
mbstart32():
/u/a/b/abhijith/CS537/p3b/xv6-sp20/kernel/multiboot.S:50
  10002e:	66 b8 10 00          	mov    $0x10,%ax
/u/a/b/abhijith/CS537/p3b/xv6-sp20/kernel/multiboot.S:51
  100032:	8e d8                	mov    %eax,%ds
/u/a/b/abhijith/CS537/p3b/xv6-sp20/kernel/multiboot.S:52
  100034:	8e c0                	mov    %eax,%es
/u/a/b/abhijith/CS537/p3b/xv6-sp20/kernel/multiboot.S:53
  100036:	8e d0                	mov    %eax,%ss
/u/a/b/abhijith/CS537/p3b/xv6-sp20/kernel/multiboot.S:54
  100038:	66 b8 00 00          	mov    $0x0,%ax
/u/a/b/abhijith/CS537/p3b/xv6-sp20/kernel/multiboot.S:55
  10003c:	8e e0                	mov    %eax,%fs
/u/a/b/abhijith/CS537/p3b/xv6-sp20/kernel/multiboot.S:56
  10003e:	8e e8                	mov    %eax,%gs
/u/a/b/abhijith/CS537/p3b/xv6-sp20/kernel/multiboot.S:59
  100040:	bc 30 d5 10 00       	mov    $0x10d530,%esp
/u/a/b/abhijith/CS537/p3b/xv6-sp20/kernel/multiboot.S:60
  100045:	e8 38 31 00 00       	call   103182 <main>

0010004a <spin>:
spin():
/u/a/b/abhijith/CS537/p3b/xv6-sp20/kernel/multiboot.S:62
  10004a:	eb fe                	jmp    10004a <spin>

0010004c <gdt>:
	...
gdt():
/u/a/b/abhijith/CS537/p3b/xv6-sp20/kernel/multiboot.S:62
  100054:	ff                   	(bad)  
  100055:	ff 00                	incl   (%eax)
  100057:	00 00                	add    %al,(%eax)
  100059:	9a cf 00 ff ff 00 00 	lcall  $0x0,$0xffff00cf
  100060:	00                   	.byte 0x0
  100061:	92                   	xchg   %eax,%edx
  100062:	cf                   	iret   
	...

00100064 <gdtdesc>:
gdtdesc():
/u/a/b/abhijith/CS537/p3b/xv6-sp20/kernel/multiboot.S:62
  100064:	17                   	pop    %ss
  100065:	00 4c 00 10          	add    %cl,0x10(%eax,%eax,1)
	...

0010006a <binit>:
binit():
/u/a/b/abhijith/CS537/p3b/xv6-sp20/kernel/bio.c:41
  10006a:	55                   	push   %ebp
  10006b:	89 e5                	mov    %esp,%ebp
  10006d:	83 ec 18             	sub    $0x18,%esp
/u/a/b/abhijith/CS537/p3b/xv6-sp20/kernel/bio.c:44
  100070:	83 ec 08             	sub    $0x8,%esp
  100073:	68 f0 7e 10 00       	push   $0x107ef0
  100078:	68 40 d5 10 00       	push   $0x10d540
  10007d:	e8 21 48 00 00       	call   1048a3 <initlock>
  100082:	83 c4 10             	add    $0x10,%esp
/u/a/b/abhijith/CS537/p3b/xv6-sp20/kernel/bio.c:47
  100085:	c7 05 70 ea 10 00 64 	movl   $0x10ea64,0x10ea70
  10008c:	ea 10 00 
/u/a/b/abhijith/CS537/p3b/xv6-sp20/kernel/bio.c:48
  10008f:	c7 05 74 ea 10 00 64 	movl   $0x10ea64,0x10ea74
  100096:	ea 10 00 
/u/a/b/abhijith/CS537/p3b/xv6-sp20/kernel/bio.c:49
  100099:	c7 45 f4 74 d5 10 00 	movl   $0x10d574,-0xc(%ebp)
  1000a0:	eb 3a                	jmp    1000dc <binit+0x72>
/u/a/b/abhijith/CS537/p3b/xv6-sp20/kernel/bio.c:50 (discriminator 3)
  1000a2:	8b 15 74 ea 10 00    	mov    0x10ea74,%edx
  1000a8:	8b 45 f4             	mov    -0xc(%ebp),%eax
  1000ab:	89 50 10             	mov    %edx,0x10(%eax)
/u/a/b/abhijith/CS537/p3b/xv6-sp20/kernel/bio.c:51 (discriminator 3)
  1000ae:	8b 45 f4             	mov    -0xc(%ebp),%eax
  1000b1:	c7 40 0c 64 ea 10 00 	movl   $0x10ea64,0xc(%eax)
/u/a/b/abhijith/CS537/p3b/xv6-sp20/kernel/bio.c:52 (discriminator 3)
  1000b8:	8b 45 f4             	mov    -0xc(%ebp),%eax
  1000bb:	c7 40 04 ff ff ff ff 	movl   $0xffffffff,0x4(%eax)
/u/a/b/abhijith/CS537/p3b/xv6-sp20/kernel/bio.c:53 (discriminator 3)
  1000c2:	a1 74 ea 10 00       	mov    0x10ea74,%eax
  1000c7:	8b 55 f4             	mov    -0xc(%ebp),%edx
  1000ca:	89 50 0c             	mov    %edx,0xc(%eax)
/u/a/b/abhijith/CS537/p3b/xv6-sp20/kernel/bio.c:54 (discriminator 3)
  1000cd:	8b 45 f4             	mov    -0xc(%ebp),%eax
  1000d0:	a3 74 ea 10 00       	mov    %eax,0x10ea74
/u/a/b/abhijith/CS537/p3b/xv6-sp20/kernel/bio.c:49 (discriminator 3)
  1000d5:	81 45 f4 18 02 00 00 	addl   $0x218,-0xc(%ebp)
/u/a/b/abhijith/CS537/p3b/xv6-sp20/kernel/bio.c:49 (discriminator 1)
  1000dc:	b8 64 ea 10 00       	mov    $0x10ea64,%eax
  1000e1:	39 45 f4             	cmp    %eax,-0xc(%ebp)
  1000e4:	72 bc                	jb     1000a2 <binit+0x38>
/u/a/b/abhijith/CS537/p3b/xv6-sp20/kernel/bio.c:56
  1000e6:	90                   	nop
  1000e7:	c9                   	leave  
  1000e8:	c3                   	ret    

001000e9 <bget>:
bget():
/u/a/b/abhijith/CS537/p3b/xv6-sp20/kernel/bio.c:63
  1000e9:	55                   	push   %ebp
  1000ea:	89 e5                	mov    %esp,%ebp
  1000ec:	83 ec 18             	sub    $0x18,%esp
/u/a/b/abhijith/CS537/p3b/xv6-sp20/kernel/bio.c:66
  1000ef:	83 ec 0c             	sub    $0xc,%esp
  1000f2:	68 40 d5 10 00       	push   $0x10d540
  1000f7:	e8 c9 47 00 00       	call   1048c5 <acquire>
  1000fc:	83 c4 10             	add    $0x10,%esp
/u/a/b/abhijith/CS537/p3b/xv6-sp20/kernel/bio.c:70
  1000ff:	a1 74 ea 10 00       	mov    0x10ea74,%eax
  100104:	89 45 f4             	mov    %eax,-0xc(%ebp)
  100107:	eb 67                	jmp    100170 <bget+0x87>
/u/a/b/abhijith/CS537/p3b/xv6-sp20/kernel/bio.c:71
  100109:	8b 45 f4             	mov    -0xc(%ebp),%eax
  10010c:	8b 40 04             	mov    0x4(%eax),%eax
  10010f:	39 45 08             	cmp    %eax,0x8(%ebp)
  100112:	75 53                	jne    100167 <bget+0x7e>
/u/a/b/abhijith/CS537/p3b/xv6-sp20/kernel/bio.c:71 (discriminator 1)
  100114:	8b 45 f4             	mov    -0xc(%ebp),%eax
  100117:	8b 40 08             	mov    0x8(%eax),%eax
  10011a:	39 45 0c             	cmp    %eax,0xc(%ebp)
  10011d:	75 48                	jne    100167 <bget+0x7e>
/u/a/b/abhijith/CS537/p3b/xv6-sp20/kernel/bio.c:72
  10011f:	8b 45 f4             	mov    -0xc(%ebp),%eax
  100122:	8b 00                	mov    (%eax),%eax
  100124:	83 e0 01             	and    $0x1,%eax
  100127:	85 c0                	test   %eax,%eax
  100129:	75 27                	jne    100152 <bget+0x69>
/u/a/b/abhijith/CS537/p3b/xv6-sp20/kernel/bio.c:73
  10012b:	8b 45 f4             	mov    -0xc(%ebp),%eax
  10012e:	8b 00                	mov    (%eax),%eax
  100130:	83 c8 01             	or     $0x1,%eax
  100133:	89 c2                	mov    %eax,%edx
  100135:	8b 45 f4             	mov    -0xc(%ebp),%eax
  100138:	89 10                	mov    %edx,(%eax)
/u/a/b/abhijith/CS537/p3b/xv6-sp20/kernel/bio.c:74
  10013a:	83 ec 0c             	sub    $0xc,%esp
  10013d:	68 40 d5 10 00       	push   $0x10d540
  100142:	e8 e5 47 00 00       	call   10492c <release>
  100147:	83 c4 10             	add    $0x10,%esp
/u/a/b/abhijith/CS537/p3b/xv6-sp20/kernel/bio.c:75
  10014a:	8b 45 f4             	mov    -0xc(%ebp),%eax
  10014d:	e9 8c 00 00 00       	jmp    1001de <bget+0xf5>
/u/a/b/abhijith/CS537/p3b/xv6-sp20/kernel/bio.c:77
  100152:	83 ec 08             	sub    $0x8,%esp
  100155:	68 40 d5 10 00       	push   $0x10d540
  10015a:	ff 75 f4             	pushl  -0xc(%ebp)
  10015d:	e8 6a 44 00 00       	call   1045cc <sleep>
  100162:	83 c4 10             	add    $0x10,%esp
/u/a/b/abhijith/CS537/p3b/xv6-sp20/kernel/bio.c:78
  100165:	eb 98                	jmp    1000ff <bget+0x16>
/u/a/b/abhijith/CS537/p3b/xv6-sp20/kernel/bio.c:70 (discriminator 2)
  100167:	8b 45 f4             	mov    -0xc(%ebp),%eax
  10016a:	8b 40 10             	mov    0x10(%eax),%eax
  10016d:	89 45 f4             	mov    %eax,-0xc(%ebp)
/u/a/b/abhijith/CS537/p3b/xv6-sp20/kernel/bio.c:70 (discriminator 1)
  100170:	81 7d f4 64 ea 10 00 	cmpl   $0x10ea64,-0xc(%ebp)
  100177:	75 90                	jne    100109 <bget+0x20>
/u/a/b/abhijith/CS537/p3b/xv6-sp20/kernel/bio.c:83
  100179:	a1 70 ea 10 00       	mov    0x10ea70,%eax
  10017e:	89 45 f4             	mov    %eax,-0xc(%ebp)
  100181:	eb 45                	jmp    1001c8 <bget+0xdf>
/u/a/b/abhijith/CS537/p3b/xv6-sp20/kernel/bio.c:84
  100183:	8b 45 f4             	mov    -0xc(%ebp),%eax
  100186:	8b 00                	mov    (%eax),%eax
  100188:	83 e0 01             	and    $0x1,%eax
  10018b:	85 c0                	test   %eax,%eax
  10018d:	75 30                	jne    1001bf <bget+0xd6>
/u/a/b/abhijith/CS537/p3b/xv6-sp20/kernel/bio.c:85
  10018f:	8b 45 f4             	mov    -0xc(%ebp),%eax
  100192:	8b 55 08             	mov    0x8(%ebp),%edx
  100195:	89 50 04             	mov    %edx,0x4(%eax)
/u/a/b/abhijith/CS537/p3b/xv6-sp20/kernel/bio.c:86
  100198:	8b 45 f4             	mov    -0xc(%ebp),%eax
  10019b:	8b 55 0c             	mov    0xc(%ebp),%edx
  10019e:	89 50 08             	mov    %edx,0x8(%eax)
/u/a/b/abhijith/CS537/p3b/xv6-sp20/kernel/bio.c:87
  1001a1:	8b 45 f4             	mov    -0xc(%ebp),%eax
  1001a4:	c7 00 01 00 00 00    	movl   $0x1,(%eax)
/u/a/b/abhijith/CS537/p3b/xv6-sp20/kernel/bio.c:88
  1001aa:	83 ec 0c             	sub    $0xc,%esp
  1001ad:	68 40 d5 10 00       	push   $0x10d540
  1001b2:	e8 75 47 00 00       	call   10492c <release>
  1001b7:	83 c4 10             	add    $0x10,%esp
/u/a/b/abhijith/CS537/p3b/xv6-sp20/kernel/bio.c:89
  1001ba:	8b 45 f4             	mov    -0xc(%ebp),%eax
  1001bd:	eb 1f                	jmp    1001de <bget+0xf5>
/u/a/b/abhijith/CS537/p3b/xv6-sp20/kernel/bio.c:83 (discriminator 2)
  1001bf:	8b 45 f4             	mov    -0xc(%ebp),%eax
  1001c2:	8b 40 0c             	mov    0xc(%eax),%eax
  1001c5:	89 45 f4             	mov    %eax,-0xc(%ebp)
/u/a/b/abhijith/CS537/p3b/xv6-sp20/kernel/bio.c:83 (discriminator 1)
  1001c8:	81 7d f4 64 ea 10 00 	cmpl   $0x10ea64,-0xc(%ebp)
  1001cf:	75 b2                	jne    100183 <bget+0x9a>
/u/a/b/abhijith/CS537/p3b/xv6-sp20/kernel/bio.c:92
  1001d1:	83 ec 0c             	sub    $0xc,%esp
  1001d4:	68 f7 7e 10 00       	push   $0x107ef7
  1001d9:	e8 9a 03 00 00       	call   100578 <panic>
/u/a/b/abhijith/CS537/p3b/xv6-sp20/kernel/bio.c:93
  1001de:	c9                   	leave  
  1001df:	c3                   	ret    

001001e0 <bread>:
bread():
/u/a/b/abhijith/CS537/p3b/xv6-sp20/kernel/bio.c:98
  1001e0:	55                   	push   %ebp
  1001e1:	89 e5                	mov    %esp,%ebp
  1001e3:	83 ec 18             	sub    $0x18,%esp
/u/a/b/abhijith/CS537/p3b/xv6-sp20/kernel/bio.c:101
  1001e6:	83 ec 08             	sub    $0x8,%esp
  1001e9:	ff 75 0c             	pushl  0xc(%ebp)
  1001ec:	ff 75 08             	pushl  0x8(%ebp)
  1001ef:	e8 f5 fe ff ff       	call   1000e9 <bget>
  1001f4:	83 c4 10             	add    $0x10,%esp
  1001f7:	89 45 f4             	mov    %eax,-0xc(%ebp)
/u/a/b/abhijith/CS537/p3b/xv6-sp20/kernel/bio.c:102
  1001fa:	8b 45 f4             	mov    -0xc(%ebp),%eax
  1001fd:	8b 00                	mov    (%eax),%eax
  1001ff:	83 e0 02             	and    $0x2,%eax
  100202:	85 c0                	test   %eax,%eax
  100204:	75 0e                	jne    100214 <bread+0x34>
/u/a/b/abhijith/CS537/p3b/xv6-sp20/kernel/bio.c:103
  100206:	83 ec 0c             	sub    $0xc,%esp
  100209:	ff 75 f4             	pushl  -0xc(%ebp)
  10020c:	e8 fd 25 00 00       	call   10280e <iderw>
  100211:	83 c4 10             	add    $0x10,%esp
/u/a/b/abhijith/CS537/p3b/xv6-sp20/kernel/bio.c:104
  100214:	8b 45 f4             	mov    -0xc(%ebp),%eax
/u/a/b/abhijith/CS537/p3b/xv6-sp20/kernel/bio.c:105
  100217:	c9                   	leave  
  100218:	c3                   	ret    

00100219 <bwrite>:
bwrite():
/u/a/b/abhijith/CS537/p3b/xv6-sp20/kernel/bio.c:110
  100219:	55                   	push   %ebp
  10021a:	89 e5                	mov    %esp,%ebp
  10021c:	83 ec 08             	sub    $0x8,%esp
/u/a/b/abhijith/CS537/p3b/xv6-sp20/kernel/bio.c:111
  10021f:	8b 45 08             	mov    0x8(%ebp),%eax
  100222:	8b 00                	mov    (%eax),%eax
  100224:	83 e0 01             	and    $0x1,%eax
  100227:	85 c0                	test   %eax,%eax
  100229:	75 0d                	jne    100238 <bwrite+0x1f>
/u/a/b/abhijith/CS537/p3b/xv6-sp20/kernel/bio.c:112
  10022b:	83 ec 0c             	sub    $0xc,%esp
  10022e:	68 08 7f 10 00       	push   $0x107f08
  100233:	e8 40 03 00 00       	call   100578 <panic>
/u/a/b/abhijith/CS537/p3b/xv6-sp20/kernel/bio.c:113
  100238:	8b 45 08             	mov    0x8(%ebp),%eax
  10023b:	8b 00                	mov    (%eax),%eax
  10023d:	83 c8 04             	or     $0x4,%eax
  100240:	89 c2                	mov    %eax,%edx
  100242:	8b 45 08             	mov    0x8(%ebp),%eax
  100245:	89 10                	mov    %edx,(%eax)
/u/a/b/abhijith/CS537/p3b/xv6-sp20/kernel/bio.c:114
  100247:	83 ec 0c             	sub    $0xc,%esp
  10024a:	ff 75 08             	pushl  0x8(%ebp)
  10024d:	e8 bc 25 00 00       	call   10280e <iderw>
  100252:	83 c4 10             	add    $0x10,%esp
/u/a/b/abhijith/CS537/p3b/xv6-sp20/kernel/bio.c:115
  100255:	90                   	nop
  100256:	c9                   	leave  
  100257:	c3                   	ret    

00100258 <brelse>:
brelse():
/u/a/b/abhijith/CS537/p3b/xv6-sp20/kernel/bio.c:120
  100258:	55                   	push   %ebp
  100259:	89 e5                	mov    %esp,%ebp
  10025b:	83 ec 08             	sub    $0x8,%esp
/u/a/b/abhijith/CS537/p3b/xv6-sp20/kernel/bio.c:121
  10025e:	8b 45 08             	mov    0x8(%ebp),%eax
  100261:	8b 00                	mov    (%eax),%eax
  100263:	83 e0 01             	and    $0x1,%eax
  100266:	85 c0                	test   %eax,%eax
  100268:	75 0d                	jne    100277 <brelse+0x1f>
/u/a/b/abhijith/CS537/p3b/xv6-sp20/kernel/bio.c:122
  10026a:	83 ec 0c             	sub    $0xc,%esp
  10026d:	68 0f 7f 10 00       	push   $0x107f0f
  100272:	e8 01 03 00 00       	call   100578 <panic>
/u/a/b/abhijith/CS537/p3b/xv6-sp20/kernel/bio.c:124
  100277:	83 ec 0c             	sub    $0xc,%esp
  10027a:	68 40 d5 10 00       	push   $0x10d540
  10027f:	e8 41 46 00 00       	call   1048c5 <acquire>
  100284:	83 c4 10             	add    $0x10,%esp
/u/a/b/abhijith/CS537/p3b/xv6-sp20/kernel/bio.c:126
  100287:	8b 45 08             	mov    0x8(%ebp),%eax
  10028a:	8b 40 10             	mov    0x10(%eax),%eax
  10028d:	8b 55 08             	mov    0x8(%ebp),%edx
  100290:	8b 52 0c             	mov    0xc(%edx),%edx
  100293:	89 50 0c             	mov    %edx,0xc(%eax)
/u/a/b/abhijith/CS537/p3b/xv6-sp20/kernel/bio.c:127
  100296:	8b 45 08             	mov    0x8(%ebp),%eax
  100299:	8b 40 0c             	mov    0xc(%eax),%eax
  10029c:	8b 55 08             	mov    0x8(%ebp),%edx
  10029f:	8b 52 10             	mov    0x10(%edx),%edx
  1002a2:	89 50 10             	mov    %edx,0x10(%eax)
/u/a/b/abhijith/CS537/p3b/xv6-sp20/kernel/bio.c:128
  1002a5:	8b 15 74 ea 10 00    	mov    0x10ea74,%edx
  1002ab:	8b 45 08             	mov    0x8(%ebp),%eax
  1002ae:	89 50 10             	mov    %edx,0x10(%eax)
/u/a/b/abhijith/CS537/p3b/xv6-sp20/kernel/bio.c:129
  1002b1:	8b 45 08             	mov    0x8(%ebp),%eax
  1002b4:	c7 40 0c 64 ea 10 00 	movl   $0x10ea64,0xc(%eax)
/u/a/b/abhijith/CS537/p3b/xv6-sp20/kernel/bio.c:130
  1002bb:	a1 74 ea 10 00       	mov    0x10ea74,%eax
  1002c0:	8b 55 08             	mov    0x8(%ebp),%edx
  1002c3:	89 50 0c             	mov    %edx,0xc(%eax)
/u/a/b/abhijith/CS537/p3b/xv6-sp20/kernel/bio.c:131
  1002c6:	8b 45 08             	mov    0x8(%ebp),%eax
  1002c9:	a3 74 ea 10 00       	mov    %eax,0x10ea74
/u/a/b/abhijith/CS537/p3b/xv6-sp20/kernel/bio.c:133
  1002ce:	8b 45 08             	mov    0x8(%ebp),%eax
  1002d1:	8b 00                	mov    (%eax),%eax
  1002d3:	83 e0 fe             	and    $0xfffffffe,%eax
  1002d6:	89 c2                	mov    %eax,%edx
  1002d8:	8b 45 08             	mov    0x8(%ebp),%eax
  1002db:	89 10                	mov    %edx,(%eax)
/u/a/b/abhijith/CS537/p3b/xv6-sp20/kernel/bio.c:134
  1002dd:	83 ec 0c             	sub    $0xc,%esp
  1002e0:	ff 75 08             	pushl  0x8(%ebp)
  1002e3:	e8 cf 43 00 00       	call   1046b7 <wakeup>
  1002e8:	83 c4 10             	add    $0x10,%esp
/u/a/b/abhijith/CS537/p3b/xv6-sp20/kernel/bio.c:136
  1002eb:	83 ec 0c             	sub    $0xc,%esp
  1002ee:	68 40 d5 10 00       	push   $0x10d540
  1002f3:	e8 34 46 00 00       	call   10492c <release>
  1002f8:	83 c4 10             	add    $0x10,%esp
/u/a/b/abhijith/CS537/p3b/xv6-sp20/kernel/bio.c:137
  1002fb:	90                   	nop
  1002fc:	c9                   	leave  
  1002fd:	c3                   	ret    

001002fe <inb>:
inb():
/u/a/b/abhijith/CS537/p3b/xv6-sp20/include/x86.h:7
  1002fe:	55                   	push   %ebp
  1002ff:	89 e5                	mov    %esp,%ebp
  100301:	83 ec 14             	sub    $0x14,%esp
  100304:	8b 45 08             	mov    0x8(%ebp),%eax
  100307:	66 89 45 ec          	mov    %ax,-0x14(%ebp)
/u/a/b/abhijith/CS537/p3b/xv6-sp20/include/x86.h:10
  10030b:	0f b7 45 ec          	movzwl -0x14(%ebp),%eax
  10030f:	89 c2                	mov    %eax,%edx
  100311:	ec                   	in     (%dx),%al
  100312:	88 45 ff             	mov    %al,-0x1(%ebp)
/u/a/b/abhijith/CS537/p3b/xv6-sp20/include/x86.h:11
  100315:	0f b6 45 ff          	movzbl -0x1(%ebp),%eax
/u/a/b/abhijith/CS537/p3b/xv6-sp20/include/x86.h:12
  100319:	c9                   	leave  
  10031a:	c3                   	ret    

0010031b <outb>:
outb():
/u/a/b/abhijith/CS537/p3b/xv6-sp20/include/x86.h:25
  10031b:	55                   	push   %ebp
  10031c:	89 e5                	mov    %esp,%ebp
  10031e:	83 ec 08             	sub    $0x8,%esp
  100321:	8b 55 08             	mov    0x8(%ebp),%edx
  100324:	8b 45 0c             	mov    0xc(%ebp),%eax
  100327:	66 89 55 fc          	mov    %dx,-0x4(%ebp)
  10032b:	88 45 f8             	mov    %al,-0x8(%ebp)
/u/a/b/abhijith/CS537/p3b/xv6-sp20/include/x86.h:26
  10032e:	0f b6 45 f8          	movzbl -0x8(%ebp),%eax
  100332:	0f b7 55 fc          	movzwl -0x4(%ebp),%edx
  100336:	ee                   	out    %al,(%dx)
/u/a/b/abhijith/CS537/p3b/xv6-sp20/include/x86.h:27
  100337:	90                   	nop
  100338:	c9                   	leave  
  100339:	c3                   	ret    

0010033a <cli>:
cli():
/u/a/b/abhijith/CS537/p3b/xv6-sp20/include/x86.h:119
  10033a:	55                   	push   %ebp
  10033b:	89 e5                	mov    %esp,%ebp
/u/a/b/abhijith/CS537/p3b/xv6-sp20/include/x86.h:120
  10033d:	fa                   	cli    
/u/a/b/abhijith/CS537/p3b/xv6-sp20/include/x86.h:121
  10033e:	90                   	nop
  10033f:	5d                   	pop    %ebp
  100340:	c3                   	ret    

00100341 <printint>:
printint():
/u/a/b/abhijith/CS537/p3b/xv6-sp20/kernel/console.c:27
  100341:	55                   	push   %ebp
  100342:	89 e5                	mov    %esp,%ebp
  100344:	83 ec 28             	sub    $0x28,%esp
/u/a/b/abhijith/CS537/p3b/xv6-sp20/kernel/console.c:33
  100347:	83 7d 10 00          	cmpl   $0x0,0x10(%ebp)
  10034b:	74 1c                	je     100369 <printint+0x28>
/u/a/b/abhijith/CS537/p3b/xv6-sp20/kernel/console.c:33 (discriminator 1)
  10034d:	8b 45 08             	mov    0x8(%ebp),%eax
  100350:	c1 e8 1f             	shr    $0x1f,%eax
  100353:	0f b6 c0             	movzbl %al,%eax
  100356:	89 45 10             	mov    %eax,0x10(%ebp)
  100359:	83 7d 10 00          	cmpl   $0x0,0x10(%ebp)
  10035d:	74 0a                	je     100369 <printint+0x28>
/u/a/b/abhijith/CS537/p3b/xv6-sp20/kernel/console.c:34
  10035f:	8b 45 08             	mov    0x8(%ebp),%eax
  100362:	f7 d8                	neg    %eax
  100364:	89 45 f0             	mov    %eax,-0x10(%ebp)
  100367:	eb 06                	jmp    10036f <printint+0x2e>
/u/a/b/abhijith/CS537/p3b/xv6-sp20/kernel/console.c:36
  100369:	8b 45 08             	mov    0x8(%ebp),%eax
  10036c:	89 45 f0             	mov    %eax,-0x10(%ebp)
/u/a/b/abhijith/CS537/p3b/xv6-sp20/kernel/console.c:38
  10036f:	c7 45 f4 00 00 00 00 	movl   $0x0,-0xc(%ebp)
/u/a/b/abhijith/CS537/p3b/xv6-sp20/kernel/console.c:40 (discriminator 1)
  100376:	8b 4d 0c             	mov    0xc(%ebp),%ecx
  100379:	8b 45 f0             	mov    -0x10(%ebp),%eax
  10037c:	ba 00 00 00 00       	mov    $0x0,%edx
  100381:	f7 f1                	div    %ecx
  100383:	89 d1                	mov    %edx,%ecx
  100385:	8b 45 f4             	mov    -0xc(%ebp),%eax
  100388:	8d 50 01             	lea    0x1(%eax),%edx
  10038b:	89 55 f4             	mov    %edx,-0xc(%ebp)
  10038e:	0f b6 91 08 b0 10 00 	movzbl 0x10b008(%ecx),%edx
  100395:	88 54 05 e0          	mov    %dl,-0x20(%ebp,%eax,1)
/u/a/b/abhijith/CS537/p3b/xv6-sp20/kernel/console.c:41 (discriminator 1)
  100399:	8b 4d 0c             	mov    0xc(%ebp),%ecx
  10039c:	8b 45 f0             	mov    -0x10(%ebp),%eax
  10039f:	ba 00 00 00 00       	mov    $0x0,%edx
  1003a4:	f7 f1                	div    %ecx
  1003a6:	89 45 f0             	mov    %eax,-0x10(%ebp)
  1003a9:	83 7d f0 00          	cmpl   $0x0,-0x10(%ebp)
  1003ad:	75 c7                	jne    100376 <printint+0x35>
/u/a/b/abhijith/CS537/p3b/xv6-sp20/kernel/console.c:43
  1003af:	83 7d 10 00          	cmpl   $0x0,0x10(%ebp)
  1003b3:	74 2a                	je     1003df <printint+0x9e>
/u/a/b/abhijith/CS537/p3b/xv6-sp20/kernel/console.c:44
  1003b5:	8b 45 f4             	mov    -0xc(%ebp),%eax
  1003b8:	8d 50 01             	lea    0x1(%eax),%edx
  1003bb:	89 55 f4             	mov    %edx,-0xc(%ebp)
  1003be:	c6 44 05 e0 2d       	movb   $0x2d,-0x20(%ebp,%eax,1)
/u/a/b/abhijith/CS537/p3b/xv6-sp20/kernel/console.c:46
  1003c3:	eb 1a                	jmp    1003df <printint+0x9e>
/u/a/b/abhijith/CS537/p3b/xv6-sp20/kernel/console.c:47
  1003c5:	8d 55 e0             	lea    -0x20(%ebp),%edx
  1003c8:	8b 45 f4             	mov    -0xc(%ebp),%eax
  1003cb:	01 d0                	add    %edx,%eax
  1003cd:	0f b6 00             	movzbl (%eax),%eax
  1003d0:	0f be c0             	movsbl %al,%eax
  1003d3:	83 ec 0c             	sub    $0xc,%esp
  1003d6:	50                   	push   %eax
  1003d7:	e8 b4 03 00 00       	call   100790 <consputc>
  1003dc:	83 c4 10             	add    $0x10,%esp
/u/a/b/abhijith/CS537/p3b/xv6-sp20/kernel/console.c:46
  1003df:	83 6d f4 01          	subl   $0x1,-0xc(%ebp)
  1003e3:	83 7d f4 00          	cmpl   $0x0,-0xc(%ebp)
  1003e7:	79 dc                	jns    1003c5 <printint+0x84>
/u/a/b/abhijith/CS537/p3b/xv6-sp20/kernel/console.c:48
  1003e9:	90                   	nop
  1003ea:	c9                   	leave  
  1003eb:	c3                   	ret    

001003ec <cprintf>:
cprintf():
/u/a/b/abhijith/CS537/p3b/xv6-sp20/kernel/console.c:53
  1003ec:	55                   	push   %ebp
  1003ed:	89 e5                	mov    %esp,%ebp
  1003ef:	83 ec 28             	sub    $0x28,%esp
/u/a/b/abhijith/CS537/p3b/xv6-sp20/kernel/console.c:58
  1003f2:	a1 b4 bc 10 00       	mov    0x10bcb4,%eax
  1003f7:	89 45 e8             	mov    %eax,-0x18(%ebp)
/u/a/b/abhijith/CS537/p3b/xv6-sp20/kernel/console.c:59
  1003fa:	83 7d e8 00          	cmpl   $0x0,-0x18(%ebp)
  1003fe:	74 10                	je     100410 <cprintf+0x24>
/u/a/b/abhijith/CS537/p3b/xv6-sp20/kernel/console.c:60
  100400:	83 ec 0c             	sub    $0xc,%esp
  100403:	68 80 bc 10 00       	push   $0x10bc80
  100408:	e8 b8 44 00 00       	call   1048c5 <acquire>
  10040d:	83 c4 10             	add    $0x10,%esp
/u/a/b/abhijith/CS537/p3b/xv6-sp20/kernel/console.c:62
  100410:	8d 45 0c             	lea    0xc(%ebp),%eax
  100413:	89 45 f0             	mov    %eax,-0x10(%ebp)
/u/a/b/abhijith/CS537/p3b/xv6-sp20/kernel/console.c:63
  100416:	c7 45 f4 00 00 00 00 	movl   $0x0,-0xc(%ebp)
  10041d:	e9 1a 01 00 00       	jmp    10053c <cprintf+0x150>
/u/a/b/abhijith/CS537/p3b/xv6-sp20/kernel/console.c:64
  100422:	83 7d e4 25          	cmpl   $0x25,-0x1c(%ebp)
  100426:	74 13                	je     10043b <cprintf+0x4f>
/u/a/b/abhijith/CS537/p3b/xv6-sp20/kernel/console.c:65
  100428:	83 ec 0c             	sub    $0xc,%esp
  10042b:	ff 75 e4             	pushl  -0x1c(%ebp)
  10042e:	e8 5d 03 00 00       	call   100790 <consputc>
  100433:	83 c4 10             	add    $0x10,%esp
/u/a/b/abhijith/CS537/p3b/xv6-sp20/kernel/console.c:66
  100436:	e9 fd 00 00 00       	jmp    100538 <cprintf+0x14c>
/u/a/b/abhijith/CS537/p3b/xv6-sp20/kernel/console.c:68
  10043b:	8b 55 08             	mov    0x8(%ebp),%edx
  10043e:	83 45 f4 01          	addl   $0x1,-0xc(%ebp)
  100442:	8b 45 f4             	mov    -0xc(%ebp),%eax
  100445:	01 d0                	add    %edx,%eax
  100447:	0f b6 00             	movzbl (%eax),%eax
  10044a:	0f be c0             	movsbl %al,%eax
  10044d:	25 ff 00 00 00       	and    $0xff,%eax
  100452:	89 45 e4             	mov    %eax,-0x1c(%ebp)
/u/a/b/abhijith/CS537/p3b/xv6-sp20/kernel/console.c:69
  100455:	83 7d e4 00          	cmpl   $0x0,-0x1c(%ebp)
  100459:	0f 84 ff 00 00 00    	je     10055e <cprintf+0x172>
/u/a/b/abhijith/CS537/p3b/xv6-sp20/kernel/console.c:71
  10045f:	8b 45 e4             	mov    -0x1c(%ebp),%eax
  100462:	83 f8 70             	cmp    $0x70,%eax
  100465:	74 47                	je     1004ae <cprintf+0xc2>
  100467:	83 f8 70             	cmp    $0x70,%eax
  10046a:	7f 13                	jg     10047f <cprintf+0x93>
  10046c:	83 f8 25             	cmp    $0x25,%eax
  10046f:	0f 84 98 00 00 00    	je     10050d <cprintf+0x121>
  100475:	83 f8 64             	cmp    $0x64,%eax
  100478:	74 14                	je     10048e <cprintf+0xa2>
  10047a:	e9 9d 00 00 00       	jmp    10051c <cprintf+0x130>
  10047f:	83 f8 73             	cmp    $0x73,%eax
  100482:	74 47                	je     1004cb <cprintf+0xdf>
  100484:	83 f8 78             	cmp    $0x78,%eax
  100487:	74 25                	je     1004ae <cprintf+0xc2>
  100489:	e9 8e 00 00 00       	jmp    10051c <cprintf+0x130>
/u/a/b/abhijith/CS537/p3b/xv6-sp20/kernel/console.c:73
  10048e:	8b 45 f0             	mov    -0x10(%ebp),%eax
  100491:	8d 50 04             	lea    0x4(%eax),%edx
  100494:	89 55 f0             	mov    %edx,-0x10(%ebp)
  100497:	8b 00                	mov    (%eax),%eax
  100499:	83 ec 04             	sub    $0x4,%esp
  10049c:	6a 01                	push   $0x1
  10049e:	6a 0a                	push   $0xa
  1004a0:	50                   	push   %eax
  1004a1:	e8 9b fe ff ff       	call   100341 <printint>
  1004a6:	83 c4 10             	add    $0x10,%esp
/u/a/b/abhijith/CS537/p3b/xv6-sp20/kernel/console.c:74
  1004a9:	e9 8a 00 00 00       	jmp    100538 <cprintf+0x14c>
/u/a/b/abhijith/CS537/p3b/xv6-sp20/kernel/console.c:77
  1004ae:	8b 45 f0             	mov    -0x10(%ebp),%eax
  1004b1:	8d 50 04             	lea    0x4(%eax),%edx
  1004b4:	89 55 f0             	mov    %edx,-0x10(%ebp)
  1004b7:	8b 00                	mov    (%eax),%eax
  1004b9:	83 ec 04             	sub    $0x4,%esp
  1004bc:	6a 00                	push   $0x0
  1004be:	6a 10                	push   $0x10
  1004c0:	50                   	push   %eax
  1004c1:	e8 7b fe ff ff       	call   100341 <printint>
  1004c6:	83 c4 10             	add    $0x10,%esp
/u/a/b/abhijith/CS537/p3b/xv6-sp20/kernel/console.c:78
  1004c9:	eb 6d                	jmp    100538 <cprintf+0x14c>
/u/a/b/abhijith/CS537/p3b/xv6-sp20/kernel/console.c:80
  1004cb:	8b 45 f0             	mov    -0x10(%ebp),%eax
  1004ce:	8d 50 04             	lea    0x4(%eax),%edx
  1004d1:	89 55 f0             	mov    %edx,-0x10(%ebp)
  1004d4:	8b 00                	mov    (%eax),%eax
  1004d6:	89 45 ec             	mov    %eax,-0x14(%ebp)
  1004d9:	83 7d ec 00          	cmpl   $0x0,-0x14(%ebp)
  1004dd:	75 22                	jne    100501 <cprintf+0x115>
/u/a/b/abhijith/CS537/p3b/xv6-sp20/kernel/console.c:81
  1004df:	c7 45 ec 16 7f 10 00 	movl   $0x107f16,-0x14(%ebp)
/u/a/b/abhijith/CS537/p3b/xv6-sp20/kernel/console.c:82
  1004e6:	eb 19                	jmp    100501 <cprintf+0x115>
/u/a/b/abhijith/CS537/p3b/xv6-sp20/kernel/console.c:83 (discriminator 2)
  1004e8:	8b 45 ec             	mov    -0x14(%ebp),%eax
  1004eb:	0f b6 00             	movzbl (%eax),%eax
  1004ee:	0f be c0             	movsbl %al,%eax
  1004f1:	83 ec 0c             	sub    $0xc,%esp
  1004f4:	50                   	push   %eax
  1004f5:	e8 96 02 00 00       	call   100790 <consputc>
  1004fa:	83 c4 10             	add    $0x10,%esp
/u/a/b/abhijith/CS537/p3b/xv6-sp20/kernel/console.c:82 (discriminator 2)
  1004fd:	83 45 ec 01          	addl   $0x1,-0x14(%ebp)
/u/a/b/abhijith/CS537/p3b/xv6-sp20/kernel/console.c:82 (discriminator 1)
  100501:	8b 45 ec             	mov    -0x14(%ebp),%eax
  100504:	0f b6 00             	movzbl (%eax),%eax
  100507:	84 c0                	test   %al,%al
  100509:	75 dd                	jne    1004e8 <cprintf+0xfc>
/u/a/b/abhijith/CS537/p3b/xv6-sp20/kernel/console.c:84
  10050b:	eb 2b                	jmp    100538 <cprintf+0x14c>
/u/a/b/abhijith/CS537/p3b/xv6-sp20/kernel/console.c:86
  10050d:	83 ec 0c             	sub    $0xc,%esp
  100510:	6a 25                	push   $0x25
  100512:	e8 79 02 00 00       	call   100790 <consputc>
  100517:	83 c4 10             	add    $0x10,%esp
/u/a/b/abhijith/CS537/p3b/xv6-sp20/kernel/console.c:87
  10051a:	eb 1c                	jmp    100538 <cprintf+0x14c>
/u/a/b/abhijith/CS537/p3b/xv6-sp20/kernel/console.c:90
  10051c:	83 ec 0c             	sub    $0xc,%esp
  10051f:	6a 25                	push   $0x25
  100521:	e8 6a 02 00 00       	call   100790 <consputc>
  100526:	83 c4 10             	add    $0x10,%esp
/u/a/b/abhijith/CS537/p3b/xv6-sp20/kernel/console.c:91
  100529:	83 ec 0c             	sub    $0xc,%esp
  10052c:	ff 75 e4             	pushl  -0x1c(%ebp)
  10052f:	e8 5c 02 00 00       	call   100790 <consputc>
  100534:	83 c4 10             	add    $0x10,%esp
/u/a/b/abhijith/CS537/p3b/xv6-sp20/kernel/console.c:92
  100537:	90                   	nop
/u/a/b/abhijith/CS537/p3b/xv6-sp20/kernel/console.c:63 (discriminator 2)
  100538:	83 45 f4 01          	addl   $0x1,-0xc(%ebp)
/u/a/b/abhijith/CS537/p3b/xv6-sp20/kernel/console.c:63 (discriminator 1)
  10053c:	8b 55 08             	mov    0x8(%ebp),%edx
  10053f:	8b 45 f4             	mov    -0xc(%ebp),%eax
  100542:	01 d0                	add    %edx,%eax
  100544:	0f b6 00             	movzbl (%eax),%eax
  100547:	0f be c0             	movsbl %al,%eax
  10054a:	25 ff 00 00 00       	and    $0xff,%eax
  10054f:	89 45 e4             	mov    %eax,-0x1c(%ebp)
  100552:	83 7d e4 00          	cmpl   $0x0,-0x1c(%ebp)
  100556:	0f 85 c6 fe ff ff    	jne    100422 <cprintf+0x36>
  10055c:	eb 01                	jmp    10055f <cprintf+0x173>
/u/a/b/abhijith/CS537/p3b/xv6-sp20/kernel/console.c:70
  10055e:	90                   	nop
/u/a/b/abhijith/CS537/p3b/xv6-sp20/kernel/console.c:96
  10055f:	83 7d e8 00          	cmpl   $0x0,-0x18(%ebp)
  100563:	74 10                	je     100575 <cprintf+0x189>
/u/a/b/abhijith/CS537/p3b/xv6-sp20/kernel/console.c:97
  100565:	83 ec 0c             	sub    $0xc,%esp
  100568:	68 80 bc 10 00       	push   $0x10bc80
  10056d:	e8 ba 43 00 00       	call   10492c <release>
  100572:	83 c4 10             	add    $0x10,%esp
/u/a/b/abhijith/CS537/p3b/xv6-sp20/kernel/console.c:98
  100575:	90                   	nop
  100576:	c9                   	leave  
  100577:	c3                   	ret    

00100578 <panic>:
panic():
/u/a/b/abhijith/CS537/p3b/xv6-sp20/kernel/console.c:102
  100578:	55                   	push   %ebp
  100579:	89 e5                	mov    %esp,%ebp
  10057b:	83 ec 38             	sub    $0x38,%esp
/u/a/b/abhijith/CS537/p3b/xv6-sp20/kernel/console.c:106
  10057e:	e8 b7 fd ff ff       	call   10033a <cli>
/u/a/b/abhijith/CS537/p3b/xv6-sp20/kernel/console.c:107
  100583:	c7 05 b4 bc 10 00 00 	movl   $0x0,0x10bcb4
  10058a:	00 00 00 
/u/a/b/abhijith/CS537/p3b/xv6-sp20/kernel/console.c:108
  10058d:	65 a1 00 00 00 00    	mov    %gs:0x0,%eax
  100593:	0f b6 00             	movzbl (%eax),%eax
  100596:	0f b6 c0             	movzbl %al,%eax
  100599:	83 ec 08             	sub    $0x8,%esp
  10059c:	50                   	push   %eax
  10059d:	68 1d 7f 10 00       	push   $0x107f1d
  1005a2:	e8 45 fe ff ff       	call   1003ec <cprintf>
  1005a7:	83 c4 10             	add    $0x10,%esp
/u/a/b/abhijith/CS537/p3b/xv6-sp20/kernel/console.c:109
  1005aa:	8b 45 08             	mov    0x8(%ebp),%eax
  1005ad:	83 ec 0c             	sub    $0xc,%esp
  1005b0:	50                   	push   %eax
  1005b1:	e8 36 fe ff ff       	call   1003ec <cprintf>
  1005b6:	83 c4 10             	add    $0x10,%esp
/u/a/b/abhijith/CS537/p3b/xv6-sp20/kernel/console.c:110
  1005b9:	83 ec 0c             	sub    $0xc,%esp
  1005bc:	68 2c 7f 10 00       	push   $0x107f2c
  1005c1:	e8 26 fe ff ff       	call   1003ec <cprintf>
  1005c6:	83 c4 10             	add    $0x10,%esp
/u/a/b/abhijith/CS537/p3b/xv6-sp20/kernel/console.c:111
  1005c9:	83 ec 08             	sub    $0x8,%esp
  1005cc:	8d 45 cc             	lea    -0x34(%ebp),%eax
  1005cf:	50                   	push   %eax
  1005d0:	8d 45 08             	lea    0x8(%ebp),%eax
  1005d3:	50                   	push   %eax
  1005d4:	e8 a5 43 00 00       	call   10497e <getcallerpcs>
  1005d9:	83 c4 10             	add    $0x10,%esp
/u/a/b/abhijith/CS537/p3b/xv6-sp20/kernel/console.c:112
  1005dc:	c7 45 f4 00 00 00 00 	movl   $0x0,-0xc(%ebp)
  1005e3:	eb 1c                	jmp    100601 <panic+0x89>
/u/a/b/abhijith/CS537/p3b/xv6-sp20/kernel/console.c:113 (discriminator 3)
  1005e5:	8b 45 f4             	mov    -0xc(%ebp),%eax
  1005e8:	8b 44 85 cc          	mov    -0x34(%ebp,%eax,4),%eax
  1005ec:	83 ec 08             	sub    $0x8,%esp
  1005ef:	50                   	push   %eax
  1005f0:	68 2e 7f 10 00       	push   $0x107f2e
  1005f5:	e8 f2 fd ff ff       	call   1003ec <cprintf>
  1005fa:	83 c4 10             	add    $0x10,%esp
/u/a/b/abhijith/CS537/p3b/xv6-sp20/kernel/console.c:112 (discriminator 3)
  1005fd:	83 45 f4 01          	addl   $0x1,-0xc(%ebp)
/u/a/b/abhijith/CS537/p3b/xv6-sp20/kernel/console.c:112 (discriminator 1)
  100601:	83 7d f4 09          	cmpl   $0x9,-0xc(%ebp)
  100605:	7e de                	jle    1005e5 <panic+0x6d>
/u/a/b/abhijith/CS537/p3b/xv6-sp20/kernel/console.c:114
  100607:	c7 05 60 bc 10 00 01 	movl   $0x1,0x10bc60
  10060e:	00 00 00 
/u/a/b/abhijith/CS537/p3b/xv6-sp20/kernel/console.c:115 (discriminator 1)
  100611:	eb fe                	jmp    100611 <panic+0x99>

00100613 <cgaputc>:
cgaputc():
/u/a/b/abhijith/CS537/p3b/xv6-sp20/kernel/console.c:125
  100613:	55                   	push   %ebp
  100614:	89 e5                	mov    %esp,%ebp
  100616:	53                   	push   %ebx
  100617:	83 ec 14             	sub    $0x14,%esp
/u/a/b/abhijith/CS537/p3b/xv6-sp20/kernel/console.c:129
  10061a:	6a 0e                	push   $0xe
  10061c:	68 d4 03 00 00       	push   $0x3d4
  100621:	e8 f5 fc ff ff       	call   10031b <outb>
  100626:	83 c4 08             	add    $0x8,%esp
/u/a/b/abhijith/CS537/p3b/xv6-sp20/kernel/console.c:130
  100629:	68 d5 03 00 00       	push   $0x3d5
  10062e:	e8 cb fc ff ff       	call   1002fe <inb>
  100633:	83 c4 04             	add    $0x4,%esp
  100636:	0f b6 c0             	movzbl %al,%eax
  100639:	c1 e0 08             	shl    $0x8,%eax
  10063c:	89 45 f4             	mov    %eax,-0xc(%ebp)
/u/a/b/abhijith/CS537/p3b/xv6-sp20/kernel/console.c:131
  10063f:	6a 0f                	push   $0xf
  100641:	68 d4 03 00 00       	push   $0x3d4
  100646:	e8 d0 fc ff ff       	call   10031b <outb>
  10064b:	83 c4 08             	add    $0x8,%esp
/u/a/b/abhijith/CS537/p3b/xv6-sp20/kernel/console.c:132
  10064e:	68 d5 03 00 00       	push   $0x3d5
  100653:	e8 a6 fc ff ff       	call   1002fe <inb>
  100658:	83 c4 04             	add    $0x4,%esp
  10065b:	0f b6 c0             	movzbl %al,%eax
  10065e:	09 45 f4             	or     %eax,-0xc(%ebp)
/u/a/b/abhijith/CS537/p3b/xv6-sp20/kernel/console.c:134
  100661:	83 7d 08 0a          	cmpl   $0xa,0x8(%ebp)
  100665:	75 30                	jne    100697 <cgaputc+0x84>
/u/a/b/abhijith/CS537/p3b/xv6-sp20/kernel/console.c:135
  100667:	8b 4d f4             	mov    -0xc(%ebp),%ecx
  10066a:	ba 67 66 66 66       	mov    $0x66666667,%edx
  10066f:	89 c8                	mov    %ecx,%eax
  100671:	f7 ea                	imul   %edx
  100673:	c1 fa 05             	sar    $0x5,%edx
  100676:	89 c8                	mov    %ecx,%eax
  100678:	c1 f8 1f             	sar    $0x1f,%eax
  10067b:	29 c2                	sub    %eax,%edx
  10067d:	89 d0                	mov    %edx,%eax
  10067f:	c1 e0 02             	shl    $0x2,%eax
  100682:	01 d0                	add    %edx,%eax
  100684:	c1 e0 04             	shl    $0x4,%eax
  100687:	29 c1                	sub    %eax,%ecx
  100689:	89 ca                	mov    %ecx,%edx
  10068b:	b8 50 00 00 00       	mov    $0x50,%eax
  100690:	29 d0                	sub    %edx,%eax
  100692:	01 45 f4             	add    %eax,-0xc(%ebp)
  100695:	eb 38                	jmp    1006cf <cgaputc+0xbc>
/u/a/b/abhijith/CS537/p3b/xv6-sp20/kernel/console.c:136
  100697:	81 7d 08 00 01 00 00 	cmpl   $0x100,0x8(%ebp)
  10069e:	75 0c                	jne    1006ac <cgaputc+0x99>
/u/a/b/abhijith/CS537/p3b/xv6-sp20/kernel/console.c:137
  1006a0:	83 7d f4 00          	cmpl   $0x0,-0xc(%ebp)
  1006a4:	7e 29                	jle    1006cf <cgaputc+0xbc>
/u/a/b/abhijith/CS537/p3b/xv6-sp20/kernel/console.c:137 (discriminator 1)
  1006a6:	83 6d f4 01          	subl   $0x1,-0xc(%ebp)
  1006aa:	eb 23                	jmp    1006cf <cgaputc+0xbc>
/u/a/b/abhijith/CS537/p3b/xv6-sp20/kernel/console.c:139
  1006ac:	8b 45 08             	mov    0x8(%ebp),%eax
  1006af:	0f b6 c0             	movzbl %al,%eax
  1006b2:	80 cc 07             	or     $0x7,%ah
  1006b5:	89 c3                	mov    %eax,%ebx
  1006b7:	8b 0d 04 b0 10 00    	mov    0x10b004,%ecx
  1006bd:	8b 45 f4             	mov    -0xc(%ebp),%eax
  1006c0:	8d 50 01             	lea    0x1(%eax),%edx
  1006c3:	89 55 f4             	mov    %edx,-0xc(%ebp)
  1006c6:	01 c0                	add    %eax,%eax
  1006c8:	01 c8                	add    %ecx,%eax
  1006ca:	89 da                	mov    %ebx,%edx
  1006cc:	66 89 10             	mov    %dx,(%eax)
/u/a/b/abhijith/CS537/p3b/xv6-sp20/kernel/console.c:141
  1006cf:	81 7d f4 7f 07 00 00 	cmpl   $0x77f,-0xc(%ebp)
  1006d6:	7e 4c                	jle    100724 <cgaputc+0x111>
/u/a/b/abhijith/CS537/p3b/xv6-sp20/kernel/console.c:142
  1006d8:	a1 04 b0 10 00       	mov    0x10b004,%eax
  1006dd:	8d 90 a0 00 00 00    	lea    0xa0(%eax),%edx
  1006e3:	a1 04 b0 10 00       	mov    0x10b004,%eax
  1006e8:	83 ec 04             	sub    $0x4,%esp
  1006eb:	68 60 0e 00 00       	push   $0xe60
  1006f0:	52                   	push   %edx
  1006f1:	50                   	push   %eax
  1006f2:	e8 7d 44 00 00       	call   104b74 <memmove>
  1006f7:	83 c4 10             	add    $0x10,%esp
/u/a/b/abhijith/CS537/p3b/xv6-sp20/kernel/console.c:143
  1006fa:	83 6d f4 50          	subl   $0x50,-0xc(%ebp)
/u/a/b/abhijith/CS537/p3b/xv6-sp20/kernel/console.c:144
  1006fe:	b8 80 07 00 00       	mov    $0x780,%eax
  100703:	2b 45 f4             	sub    -0xc(%ebp),%eax
  100706:	8d 14 00             	lea    (%eax,%eax,1),%edx
  100709:	a1 04 b0 10 00       	mov    0x10b004,%eax
  10070e:	8b 4d f4             	mov    -0xc(%ebp),%ecx
  100711:	01 c9                	add    %ecx,%ecx
  100713:	01 c8                	add    %ecx,%eax
  100715:	83 ec 04             	sub    $0x4,%esp
  100718:	52                   	push   %edx
  100719:	6a 00                	push   $0x0
  10071b:	50                   	push   %eax
  10071c:	e8 e1 43 00 00       	call   104b02 <memset>
  100721:	83 c4 10             	add    $0x10,%esp
/u/a/b/abhijith/CS537/p3b/xv6-sp20/kernel/console.c:147
  100724:	83 ec 08             	sub    $0x8,%esp
  100727:	6a 0e                	push   $0xe
  100729:	68 d4 03 00 00       	push   $0x3d4
  10072e:	e8 e8 fb ff ff       	call   10031b <outb>
  100733:	83 c4 10             	add    $0x10,%esp
/u/a/b/abhijith/CS537/p3b/xv6-sp20/kernel/console.c:148
  100736:	8b 45 f4             	mov    -0xc(%ebp),%eax
  100739:	c1 f8 08             	sar    $0x8,%eax
  10073c:	0f b6 c0             	movzbl %al,%eax
  10073f:	83 ec 08             	sub    $0x8,%esp
  100742:	50                   	push   %eax
  100743:	68 d5 03 00 00       	push   $0x3d5
  100748:	e8 ce fb ff ff       	call   10031b <outb>
  10074d:	83 c4 10             	add    $0x10,%esp
/u/a/b/abhijith/CS537/p3b/xv6-sp20/kernel/console.c:149
  100750:	83 ec 08             	sub    $0x8,%esp
  100753:	6a 0f                	push   $0xf
  100755:	68 d4 03 00 00       	push   $0x3d4
  10075a:	e8 bc fb ff ff       	call   10031b <outb>
  10075f:	83 c4 10             	add    $0x10,%esp
/u/a/b/abhijith/CS537/p3b/xv6-sp20/kernel/console.c:150
  100762:	8b 45 f4             	mov    -0xc(%ebp),%eax
  100765:	0f b6 c0             	movzbl %al,%eax
  100768:	83 ec 08             	sub    $0x8,%esp
  10076b:	50                   	push   %eax
  10076c:	68 d5 03 00 00       	push   $0x3d5
  100771:	e8 a5 fb ff ff       	call   10031b <outb>
  100776:	83 c4 10             	add    $0x10,%esp
/u/a/b/abhijith/CS537/p3b/xv6-sp20/kernel/console.c:151
  100779:	a1 04 b0 10 00       	mov    0x10b004,%eax
  10077e:	8b 55 f4             	mov    -0xc(%ebp),%edx
  100781:	01 d2                	add    %edx,%edx
  100783:	01 d0                	add    %edx,%eax
  100785:	66 c7 00 20 07       	movw   $0x720,(%eax)
/u/a/b/abhijith/CS537/p3b/xv6-sp20/kernel/console.c:152
  10078a:	90                   	nop
  10078b:	8b 5d fc             	mov    -0x4(%ebp),%ebx
  10078e:	c9                   	leave  
  10078f:	c3                   	ret    

00100790 <consputc>:
consputc():
/u/a/b/abhijith/CS537/p3b/xv6-sp20/kernel/console.c:156
  100790:	55                   	push   %ebp
  100791:	89 e5                	mov    %esp,%ebp
  100793:	83 ec 08             	sub    $0x8,%esp
/u/a/b/abhijith/CS537/p3b/xv6-sp20/kernel/console.c:157
  100796:	a1 60 bc 10 00       	mov    0x10bc60,%eax
  10079b:	85 c0                	test   %eax,%eax
  10079d:	74 07                	je     1007a6 <consputc+0x16>
/u/a/b/abhijith/CS537/p3b/xv6-sp20/kernel/console.c:158
  10079f:	e8 96 fb ff ff       	call   10033a <cli>
/u/a/b/abhijith/CS537/p3b/xv6-sp20/kernel/console.c:159 (discriminator 1)
  1007a4:	eb fe                	jmp    1007a4 <consputc+0x14>
/u/a/b/abhijith/CS537/p3b/xv6-sp20/kernel/console.c:163
  1007a6:	81 7d 08 00 01 00 00 	cmpl   $0x100,0x8(%ebp)
  1007ad:	75 29                	jne    1007d8 <consputc+0x48>
/u/a/b/abhijith/CS537/p3b/xv6-sp20/kernel/console.c:164
  1007af:	83 ec 0c             	sub    $0xc,%esp
  1007b2:	6a 08                	push   $0x8
  1007b4:	e8 2c 5d 00 00       	call   1064e5 <uartputc>
  1007b9:	83 c4 10             	add    $0x10,%esp
  1007bc:	83 ec 0c             	sub    $0xc,%esp
  1007bf:	6a 20                	push   $0x20
  1007c1:	e8 1f 5d 00 00       	call   1064e5 <uartputc>
  1007c6:	83 c4 10             	add    $0x10,%esp
  1007c9:	83 ec 0c             	sub    $0xc,%esp
  1007cc:	6a 08                	push   $0x8
  1007ce:	e8 12 5d 00 00       	call   1064e5 <uartputc>
  1007d3:	83 c4 10             	add    $0x10,%esp
  1007d6:	eb 0e                	jmp    1007e6 <consputc+0x56>
/u/a/b/abhijith/CS537/p3b/xv6-sp20/kernel/console.c:166
  1007d8:	83 ec 0c             	sub    $0xc,%esp
  1007db:	ff 75 08             	pushl  0x8(%ebp)
  1007de:	e8 02 5d 00 00       	call   1064e5 <uartputc>
  1007e3:	83 c4 10             	add    $0x10,%esp
/u/a/b/abhijith/CS537/p3b/xv6-sp20/kernel/console.c:167
  1007e6:	83 ec 0c             	sub    $0xc,%esp
  1007e9:	ff 75 08             	pushl  0x8(%ebp)
  1007ec:	e8 22 fe ff ff       	call   100613 <cgaputc>
  1007f1:	83 c4 10             	add    $0x10,%esp
/u/a/b/abhijith/CS537/p3b/xv6-sp20/kernel/console.c:168
  1007f4:	90                   	nop
  1007f5:	c9                   	leave  
  1007f6:	c3                   	ret    

001007f7 <consoleintr>:
consoleintr():
/u/a/b/abhijith/CS537/p3b/xv6-sp20/kernel/console.c:183
  1007f7:	55                   	push   %ebp
  1007f8:	89 e5                	mov    %esp,%ebp
  1007fa:	83 ec 18             	sub    $0x18,%esp
/u/a/b/abhijith/CS537/p3b/xv6-sp20/kernel/console.c:186
  1007fd:	83 ec 0c             	sub    $0xc,%esp
  100800:	68 80 ec 10 00       	push   $0x10ec80
  100805:	e8 bb 40 00 00       	call   1048c5 <acquire>
  10080a:	83 c4 10             	add    $0x10,%esp
/u/a/b/abhijith/CS537/p3b/xv6-sp20/kernel/console.c:187
  10080d:	e9 42 01 00 00       	jmp    100954 <consoleintr+0x15d>
/u/a/b/abhijith/CS537/p3b/xv6-sp20/kernel/console.c:188
  100812:	8b 45 f4             	mov    -0xc(%ebp),%eax
  100815:	83 f8 10             	cmp    $0x10,%eax
  100818:	74 1e                	je     100838 <consoleintr+0x41>
  10081a:	83 f8 10             	cmp    $0x10,%eax
  10081d:	7f 0a                	jg     100829 <consoleintr+0x32>
  10081f:	83 f8 08             	cmp    $0x8,%eax
  100822:	74 69                	je     10088d <consoleintr+0x96>
  100824:	e9 99 00 00 00       	jmp    1008c2 <consoleintr+0xcb>
  100829:	83 f8 15             	cmp    $0x15,%eax
  10082c:	74 31                	je     10085f <consoleintr+0x68>
  10082e:	83 f8 7f             	cmp    $0x7f,%eax
  100831:	74 5a                	je     10088d <consoleintr+0x96>
  100833:	e9 8a 00 00 00       	jmp    1008c2 <consoleintr+0xcb>
/u/a/b/abhijith/CS537/p3b/xv6-sp20/kernel/console.c:190
  100838:	e8 35 3f 00 00       	call   104772 <procdump>
/u/a/b/abhijith/CS537/p3b/xv6-sp20/kernel/console.c:191
  10083d:	e9 12 01 00 00       	jmp    100954 <consoleintr+0x15d>
/u/a/b/abhijith/CS537/p3b/xv6-sp20/kernel/console.c:195
  100842:	a1 3c ed 10 00       	mov    0x10ed3c,%eax
  100847:	83 e8 01             	sub    $0x1,%eax
  10084a:	a3 3c ed 10 00       	mov    %eax,0x10ed3c
/u/a/b/abhijith/CS537/p3b/xv6-sp20/kernel/console.c:196
  10084f:	83 ec 0c             	sub    $0xc,%esp
  100852:	68 00 01 00 00       	push   $0x100
  100857:	e8 34 ff ff ff       	call   100790 <consputc>
  10085c:	83 c4 10             	add    $0x10,%esp
/u/a/b/abhijith/CS537/p3b/xv6-sp20/kernel/console.c:193
  10085f:	8b 15 3c ed 10 00    	mov    0x10ed3c,%edx
  100865:	a1 38 ed 10 00       	mov    0x10ed38,%eax
  10086a:	39 c2                	cmp    %eax,%edx
  10086c:	0f 84 e2 00 00 00    	je     100954 <consoleintr+0x15d>
/u/a/b/abhijith/CS537/p3b/xv6-sp20/kernel/console.c:194 (discriminator 1)
  100872:	a1 3c ed 10 00       	mov    0x10ed3c,%eax
  100877:	83 e8 01             	sub    $0x1,%eax
  10087a:	83 e0 7f             	and    $0x7f,%eax
  10087d:	0f b6 80 b4 ec 10 00 	movzbl 0x10ecb4(%eax),%eax
/u/a/b/abhijith/CS537/p3b/xv6-sp20/kernel/console.c:193 (discriminator 1)
  100884:	3c 0a                	cmp    $0xa,%al
  100886:	75 ba                	jne    100842 <consoleintr+0x4b>
/u/a/b/abhijith/CS537/p3b/xv6-sp20/kernel/console.c:198
  100888:	e9 c7 00 00 00       	jmp    100954 <consoleintr+0x15d>
/u/a/b/abhijith/CS537/p3b/xv6-sp20/kernel/console.c:200
  10088d:	8b 15 3c ed 10 00    	mov    0x10ed3c,%edx
  100893:	a1 38 ed 10 00       	mov    0x10ed38,%eax
  100898:	39 c2                	cmp    %eax,%edx
  10089a:	0f 84 b4 00 00 00    	je     100954 <consoleintr+0x15d>
/u/a/b/abhijith/CS537/p3b/xv6-sp20/kernel/console.c:201
  1008a0:	a1 3c ed 10 00       	mov    0x10ed3c,%eax
  1008a5:	83 e8 01             	sub    $0x1,%eax
  1008a8:	a3 3c ed 10 00       	mov    %eax,0x10ed3c
/u/a/b/abhijith/CS537/p3b/xv6-sp20/kernel/console.c:202
  1008ad:	83 ec 0c             	sub    $0xc,%esp
  1008b0:	68 00 01 00 00       	push   $0x100
  1008b5:	e8 d6 fe ff ff       	call   100790 <consputc>
  1008ba:	83 c4 10             	add    $0x10,%esp
/u/a/b/abhijith/CS537/p3b/xv6-sp20/kernel/console.c:204
  1008bd:	e9 92 00 00 00       	jmp    100954 <consoleintr+0x15d>
/u/a/b/abhijith/CS537/p3b/xv6-sp20/kernel/console.c:206
  1008c2:	83 7d f4 00          	cmpl   $0x0,-0xc(%ebp)
  1008c6:	0f 84 87 00 00 00    	je     100953 <consoleintr+0x15c>
/u/a/b/abhijith/CS537/p3b/xv6-sp20/kernel/console.c:206 (discriminator 1)
  1008cc:	8b 15 3c ed 10 00    	mov    0x10ed3c,%edx
  1008d2:	a1 34 ed 10 00       	mov    0x10ed34,%eax
  1008d7:	29 c2                	sub    %eax,%edx
  1008d9:	89 d0                	mov    %edx,%eax
  1008db:	83 f8 7f             	cmp    $0x7f,%eax
  1008de:	77 73                	ja     100953 <consoleintr+0x15c>
/u/a/b/abhijith/CS537/p3b/xv6-sp20/kernel/console.c:207
  1008e0:	83 7d f4 0d          	cmpl   $0xd,-0xc(%ebp)
  1008e4:	74 05                	je     1008eb <consoleintr+0xf4>
/u/a/b/abhijith/CS537/p3b/xv6-sp20/kernel/console.c:207 (discriminator 1)
  1008e6:	8b 45 f4             	mov    -0xc(%ebp),%eax
  1008e9:	eb 05                	jmp    1008f0 <consoleintr+0xf9>
/u/a/b/abhijith/CS537/p3b/xv6-sp20/kernel/console.c:207 (discriminator 2)
  1008eb:	b8 0a 00 00 00       	mov    $0xa,%eax
/u/a/b/abhijith/CS537/p3b/xv6-sp20/kernel/console.c:207 (discriminator 4)
  1008f0:	89 45 f4             	mov    %eax,-0xc(%ebp)
/u/a/b/abhijith/CS537/p3b/xv6-sp20/kernel/console.c:208 (discriminator 4)
  1008f3:	a1 3c ed 10 00       	mov    0x10ed3c,%eax
  1008f8:	8d 50 01             	lea    0x1(%eax),%edx
  1008fb:	89 15 3c ed 10 00    	mov    %edx,0x10ed3c
  100901:	83 e0 7f             	and    $0x7f,%eax
  100904:	8b 55 f4             	mov    -0xc(%ebp),%edx
  100907:	88 90 b4 ec 10 00    	mov    %dl,0x10ecb4(%eax)
/u/a/b/abhijith/CS537/p3b/xv6-sp20/kernel/console.c:209 (discriminator 4)
  10090d:	83 ec 0c             	sub    $0xc,%esp
  100910:	ff 75 f4             	pushl  -0xc(%ebp)
  100913:	e8 78 fe ff ff       	call   100790 <consputc>
  100918:	83 c4 10             	add    $0x10,%esp
/u/a/b/abhijith/CS537/p3b/xv6-sp20/kernel/console.c:210 (discriminator 4)
  10091b:	83 7d f4 0a          	cmpl   $0xa,-0xc(%ebp)
  10091f:	74 18                	je     100939 <consoleintr+0x142>
/u/a/b/abhijith/CS537/p3b/xv6-sp20/kernel/console.c:210 (discriminator 1)
  100921:	83 7d f4 04          	cmpl   $0x4,-0xc(%ebp)
  100925:	74 12                	je     100939 <consoleintr+0x142>
/u/a/b/abhijith/CS537/p3b/xv6-sp20/kernel/console.c:210 (discriminator 2)
  100927:	a1 3c ed 10 00       	mov    0x10ed3c,%eax
  10092c:	8b 15 34 ed 10 00    	mov    0x10ed34,%edx
  100932:	83 ea 80             	sub    $0xffffff80,%edx
  100935:	39 d0                	cmp    %edx,%eax
  100937:	75 1a                	jne    100953 <consoleintr+0x15c>
/u/a/b/abhijith/CS537/p3b/xv6-sp20/kernel/console.c:211
  100939:	a1 3c ed 10 00       	mov    0x10ed3c,%eax
  10093e:	a3 38 ed 10 00       	mov    %eax,0x10ed38
/u/a/b/abhijith/CS537/p3b/xv6-sp20/kernel/console.c:212
  100943:	83 ec 0c             	sub    $0xc,%esp
  100946:	68 34 ed 10 00       	push   $0x10ed34
  10094b:	e8 67 3d 00 00       	call   1046b7 <wakeup>
  100950:	83 c4 10             	add    $0x10,%esp
/u/a/b/abhijith/CS537/p3b/xv6-sp20/kernel/console.c:215
  100953:	90                   	nop
/u/a/b/abhijith/CS537/p3b/xv6-sp20/kernel/console.c:187
  100954:	8b 45 08             	mov    0x8(%ebp),%eax
  100957:	ff d0                	call   *%eax
  100959:	89 45 f4             	mov    %eax,-0xc(%ebp)
  10095c:	83 7d f4 00          	cmpl   $0x0,-0xc(%ebp)
  100960:	0f 89 ac fe ff ff    	jns    100812 <consoleintr+0x1b>
/u/a/b/abhijith/CS537/p3b/xv6-sp20/kernel/console.c:218
  100966:	83 ec 0c             	sub    $0xc,%esp
  100969:	68 80 ec 10 00       	push   $0x10ec80
  10096e:	e8 b9 3f 00 00       	call   10492c <release>
  100973:	83 c4 10             	add    $0x10,%esp
/u/a/b/abhijith/CS537/p3b/xv6-sp20/kernel/console.c:219
  100976:	90                   	nop
  100977:	c9                   	leave  
  100978:	c3                   	ret    

00100979 <consoleread>:
consoleread():
/u/a/b/abhijith/CS537/p3b/xv6-sp20/kernel/console.c:223
  100979:	55                   	push   %ebp
  10097a:	89 e5                	mov    %esp,%ebp
  10097c:	83 ec 18             	sub    $0x18,%esp
/u/a/b/abhijith/CS537/p3b/xv6-sp20/kernel/console.c:227
  10097f:	83 ec 0c             	sub    $0xc,%esp
  100982:	ff 75 08             	pushl  0x8(%ebp)
  100985:	e8 1d 10 00 00       	call   1019a7 <iunlock>
  10098a:	83 c4 10             	add    $0x10,%esp
/u/a/b/abhijith/CS537/p3b/xv6-sp20/kernel/console.c:228
  10098d:	8b 45 10             	mov    0x10(%ebp),%eax
  100990:	89 45 f4             	mov    %eax,-0xc(%ebp)
/u/a/b/abhijith/CS537/p3b/xv6-sp20/kernel/console.c:229
  100993:	83 ec 0c             	sub    $0xc,%esp
  100996:	68 80 ec 10 00       	push   $0x10ec80
  10099b:	e8 25 3f 00 00       	call   1048c5 <acquire>
  1009a0:	83 c4 10             	add    $0x10,%esp
/u/a/b/abhijith/CS537/p3b/xv6-sp20/kernel/console.c:230
  1009a3:	e9 ac 00 00 00       	jmp    100a54 <consoleread+0xdb>
/u/a/b/abhijith/CS537/p3b/xv6-sp20/kernel/console.c:232
  1009a8:	65 a1 04 00 00 00    	mov    %gs:0x4,%eax
  1009ae:	8b 40 24             	mov    0x24(%eax),%eax
  1009b1:	85 c0                	test   %eax,%eax
  1009b3:	74 28                	je     1009dd <consoleread+0x64>
/u/a/b/abhijith/CS537/p3b/xv6-sp20/kernel/console.c:233
  1009b5:	83 ec 0c             	sub    $0xc,%esp
  1009b8:	68 80 ec 10 00       	push   $0x10ec80
  1009bd:	e8 6a 3f 00 00       	call   10492c <release>
  1009c2:	83 c4 10             	add    $0x10,%esp
/u/a/b/abhijith/CS537/p3b/xv6-sp20/kernel/console.c:234
  1009c5:	83 ec 0c             	sub    $0xc,%esp
  1009c8:	ff 75 08             	pushl  0x8(%ebp)
  1009cb:	e8 7f 0e 00 00       	call   10184f <ilock>
  1009d0:	83 c4 10             	add    $0x10,%esp
/u/a/b/abhijith/CS537/p3b/xv6-sp20/kernel/console.c:235
  1009d3:	b8 ff ff ff ff       	mov    $0xffffffff,%eax
  1009d8:	e9 ab 00 00 00       	jmp    100a88 <consoleread+0x10f>
/u/a/b/abhijith/CS537/p3b/xv6-sp20/kernel/console.c:237
  1009dd:	83 ec 08             	sub    $0x8,%esp
  1009e0:	68 80 ec 10 00       	push   $0x10ec80
  1009e5:	68 34 ed 10 00       	push   $0x10ed34
  1009ea:	e8 dd 3b 00 00       	call   1045cc <sleep>
  1009ef:	83 c4 10             	add    $0x10,%esp
/u/a/b/abhijith/CS537/p3b/xv6-sp20/kernel/console.c:231
  1009f2:	8b 15 34 ed 10 00    	mov    0x10ed34,%edx
  1009f8:	a1 38 ed 10 00       	mov    0x10ed38,%eax
  1009fd:	39 c2                	cmp    %eax,%edx
  1009ff:	74 a7                	je     1009a8 <consoleread+0x2f>
/u/a/b/abhijith/CS537/p3b/xv6-sp20/kernel/console.c:239
  100a01:	a1 34 ed 10 00       	mov    0x10ed34,%eax
  100a06:	8d 50 01             	lea    0x1(%eax),%edx
  100a09:	89 15 34 ed 10 00    	mov    %edx,0x10ed34
  100a0f:	83 e0 7f             	and    $0x7f,%eax
  100a12:	0f b6 80 b4 ec 10 00 	movzbl 0x10ecb4(%eax),%eax
  100a19:	0f be c0             	movsbl %al,%eax
  100a1c:	89 45 f0             	mov    %eax,-0x10(%ebp)
/u/a/b/abhijith/CS537/p3b/xv6-sp20/kernel/console.c:240
  100a1f:	83 7d f0 04          	cmpl   $0x4,-0x10(%ebp)
  100a23:	75 17                	jne    100a3c <consoleread+0xc3>
/u/a/b/abhijith/CS537/p3b/xv6-sp20/kernel/console.c:241
  100a25:	8b 45 10             	mov    0x10(%ebp),%eax
  100a28:	39 45 f4             	cmp    %eax,-0xc(%ebp)
  100a2b:	76 2f                	jbe    100a5c <consoleread+0xe3>
/u/a/b/abhijith/CS537/p3b/xv6-sp20/kernel/console.c:244
  100a2d:	a1 34 ed 10 00       	mov    0x10ed34,%eax
  100a32:	83 e8 01             	sub    $0x1,%eax
  100a35:	a3 34 ed 10 00       	mov    %eax,0x10ed34
/u/a/b/abhijith/CS537/p3b/xv6-sp20/kernel/console.c:246
  100a3a:	eb 20                	jmp    100a5c <consoleread+0xe3>
/u/a/b/abhijith/CS537/p3b/xv6-sp20/kernel/console.c:248
  100a3c:	8b 45 0c             	mov    0xc(%ebp),%eax
  100a3f:	8d 50 01             	lea    0x1(%eax),%edx
  100a42:	89 55 0c             	mov    %edx,0xc(%ebp)
  100a45:	8b 55 f0             	mov    -0x10(%ebp),%edx
  100a48:	88 10                	mov    %dl,(%eax)
/u/a/b/abhijith/CS537/p3b/xv6-sp20/kernel/console.c:249
  100a4a:	83 6d 10 01          	subl   $0x1,0x10(%ebp)
/u/a/b/abhijith/CS537/p3b/xv6-sp20/kernel/console.c:250
  100a4e:	83 7d f0 0a          	cmpl   $0xa,-0x10(%ebp)
  100a52:	74 0b                	je     100a5f <consoleread+0xe6>
/u/a/b/abhijith/CS537/p3b/xv6-sp20/kernel/console.c:230
  100a54:	83 7d 10 00          	cmpl   $0x0,0x10(%ebp)
  100a58:	7f 98                	jg     1009f2 <consoleread+0x79>
  100a5a:	eb 04                	jmp    100a60 <consoleread+0xe7>
/u/a/b/abhijith/CS537/p3b/xv6-sp20/kernel/console.c:246
  100a5c:	90                   	nop
  100a5d:	eb 01                	jmp    100a60 <consoleread+0xe7>
/u/a/b/abhijith/CS537/p3b/xv6-sp20/kernel/console.c:251
  100a5f:	90                   	nop
/u/a/b/abhijith/CS537/p3b/xv6-sp20/kernel/console.c:253
  100a60:	83 ec 0c             	sub    $0xc,%esp
  100a63:	68 80 ec 10 00       	push   $0x10ec80
  100a68:	e8 bf 3e 00 00       	call   10492c <release>
  100a6d:	83 c4 10             	add    $0x10,%esp
/u/a/b/abhijith/CS537/p3b/xv6-sp20/kernel/console.c:254
  100a70:	83 ec 0c             	sub    $0xc,%esp
  100a73:	ff 75 08             	pushl  0x8(%ebp)
  100a76:	e8 d4 0d 00 00       	call   10184f <ilock>
  100a7b:	83 c4 10             	add    $0x10,%esp
/u/a/b/abhijith/CS537/p3b/xv6-sp20/kernel/console.c:256
  100a7e:	8b 45 10             	mov    0x10(%ebp),%eax
  100a81:	8b 55 f4             	mov    -0xc(%ebp),%edx
  100a84:	29 c2                	sub    %eax,%edx
  100a86:	89 d0                	mov    %edx,%eax
/u/a/b/abhijith/CS537/p3b/xv6-sp20/kernel/console.c:257
  100a88:	c9                   	leave  
  100a89:	c3                   	ret    

00100a8a <consolewrite>:
consolewrite():
/u/a/b/abhijith/CS537/p3b/xv6-sp20/kernel/console.c:261
  100a8a:	55                   	push   %ebp
  100a8b:	89 e5                	mov    %esp,%ebp
  100a8d:	83 ec 18             	sub    $0x18,%esp
/u/a/b/abhijith/CS537/p3b/xv6-sp20/kernel/console.c:264
  100a90:	83 ec 0c             	sub    $0xc,%esp
  100a93:	ff 75 08             	pushl  0x8(%ebp)
  100a96:	e8 0c 0f 00 00       	call   1019a7 <iunlock>
  100a9b:	83 c4 10             	add    $0x10,%esp
/u/a/b/abhijith/CS537/p3b/xv6-sp20/kernel/console.c:265
  100a9e:	83 ec 0c             	sub    $0xc,%esp
  100aa1:	68 80 bc 10 00       	push   $0x10bc80
  100aa6:	e8 1a 3e 00 00       	call   1048c5 <acquire>
  100aab:	83 c4 10             	add    $0x10,%esp
/u/a/b/abhijith/CS537/p3b/xv6-sp20/kernel/console.c:266
  100aae:	c7 45 f4 00 00 00 00 	movl   $0x0,-0xc(%ebp)
  100ab5:	eb 21                	jmp    100ad8 <consolewrite+0x4e>
/u/a/b/abhijith/CS537/p3b/xv6-sp20/kernel/console.c:267 (discriminator 3)
  100ab7:	8b 55 f4             	mov    -0xc(%ebp),%edx
  100aba:	8b 45 0c             	mov    0xc(%ebp),%eax
  100abd:	01 d0                	add    %edx,%eax
  100abf:	0f b6 00             	movzbl (%eax),%eax
  100ac2:	0f be c0             	movsbl %al,%eax
  100ac5:	0f b6 c0             	movzbl %al,%eax
  100ac8:	83 ec 0c             	sub    $0xc,%esp
  100acb:	50                   	push   %eax
  100acc:	e8 bf fc ff ff       	call   100790 <consputc>
  100ad1:	83 c4 10             	add    $0x10,%esp
/u/a/b/abhijith/CS537/p3b/xv6-sp20/kernel/console.c:266 (discriminator 3)
  100ad4:	83 45 f4 01          	addl   $0x1,-0xc(%ebp)
/u/a/b/abhijith/CS537/p3b/xv6-sp20/kernel/console.c:266 (discriminator 1)
  100ad8:	8b 45 f4             	mov    -0xc(%ebp),%eax
  100adb:	3b 45 10             	cmp    0x10(%ebp),%eax
  100ade:	7c d7                	jl     100ab7 <consolewrite+0x2d>
/u/a/b/abhijith/CS537/p3b/xv6-sp20/kernel/console.c:268
  100ae0:	83 ec 0c             	sub    $0xc,%esp
  100ae3:	68 80 bc 10 00       	push   $0x10bc80
  100ae8:	e8 3f 3e 00 00       	call   10492c <release>
  100aed:	83 c4 10             	add    $0x10,%esp
/u/a/b/abhijith/CS537/p3b/xv6-sp20/kernel/console.c:269
  100af0:	83 ec 0c             	sub    $0xc,%esp
  100af3:	ff 75 08             	pushl  0x8(%ebp)
  100af6:	e8 54 0d 00 00       	call   10184f <ilock>
  100afb:	83 c4 10             	add    $0x10,%esp
/u/a/b/abhijith/CS537/p3b/xv6-sp20/kernel/console.c:271
  100afe:	8b 45 10             	mov    0x10(%ebp),%eax
/u/a/b/abhijith/CS537/p3b/xv6-sp20/kernel/console.c:272
  100b01:	c9                   	leave  
  100b02:	c3                   	ret    

00100b03 <consoleinit>:
consoleinit():
/u/a/b/abhijith/CS537/p3b/xv6-sp20/kernel/console.c:276
  100b03:	55                   	push   %ebp
  100b04:	89 e5                	mov    %esp,%ebp
  100b06:	83 ec 08             	sub    $0x8,%esp
/u/a/b/abhijith/CS537/p3b/xv6-sp20/kernel/console.c:277
  100b09:	83 ec 08             	sub    $0x8,%esp
  100b0c:	68 32 7f 10 00       	push   $0x107f32
  100b11:	68 80 bc 10 00       	push   $0x10bc80
  100b16:	e8 88 3d 00 00       	call   1048a3 <initlock>
  100b1b:	83 c4 10             	add    $0x10,%esp
/u/a/b/abhijith/CS537/p3b/xv6-sp20/kernel/console.c:278
  100b1e:	83 ec 08             	sub    $0x8,%esp
  100b21:	68 3a 7f 10 00       	push   $0x107f3a
  100b26:	68 80 ec 10 00       	push   $0x10ec80
  100b2b:	e8 73 3d 00 00       	call   1048a3 <initlock>
  100b30:	83 c4 10             	add    $0x10,%esp
/u/a/b/abhijith/CS537/p3b/xv6-sp20/kernel/console.c:280
  100b33:	c7 05 ec f6 10 00 8a 	movl   $0x100a8a,0x10f6ec
  100b3a:	0a 10 00 
/u/a/b/abhijith/CS537/p3b/xv6-sp20/kernel/console.c:281
  100b3d:	c7 05 e8 f6 10 00 79 	movl   $0x100979,0x10f6e8
  100b44:	09 10 00 
/u/a/b/abhijith/CS537/p3b/xv6-sp20/kernel/console.c:282
  100b47:	c7 05 b4 bc 10 00 01 	movl   $0x1,0x10bcb4
  100b4e:	00 00 00 
/u/a/b/abhijith/CS537/p3b/xv6-sp20/kernel/console.c:284
  100b51:	83 ec 0c             	sub    $0xc,%esp
  100b54:	6a 01                	push   $0x1
  100b56:	e8 c8 2c 00 00       	call   103823 <picenable>
  100b5b:	83 c4 10             	add    $0x10,%esp
/u/a/b/abhijith/CS537/p3b/xv6-sp20/kernel/console.c:285
  100b5e:	83 ec 08             	sub    $0x8,%esp
  100b61:	6a 00                	push   $0x0
  100b63:	6a 01                	push   $0x1
  100b65:	e8 71 1e 00 00       	call   1029db <ioapicenable>
  100b6a:	83 c4 10             	add    $0x10,%esp
/u/a/b/abhijith/CS537/p3b/xv6-sp20/kernel/console.c:286
  100b6d:	90                   	nop
  100b6e:	c9                   	leave  
  100b6f:	c3                   	ret    

00100b70 <exec>:
exec():
/u/a/b/abhijith/CS537/p3b/xv6-sp20/kernel/exec.c:11
  100b70:	55                   	push   %ebp
  100b71:	89 e5                	mov    %esp,%ebp
  100b73:	81 ec 18 01 00 00    	sub    $0x118,%esp
/u/a/b/abhijith/CS537/p3b/xv6-sp20/kernel/exec.c:20
  100b79:	83 ec 0c             	sub    $0xc,%esp
  100b7c:	ff 75 08             	pushl  0x8(%ebp)
  100b7f:	e8 e1 18 00 00       	call   102465 <namei>
  100b84:	83 c4 10             	add    $0x10,%esp
  100b87:	89 45 d8             	mov    %eax,-0x28(%ebp)
  100b8a:	83 7d d8 00          	cmpl   $0x0,-0x28(%ebp)
  100b8e:	75 0a                	jne    100b9a <exec+0x2a>
/u/a/b/abhijith/CS537/p3b/xv6-sp20/kernel/exec.c:21
  100b90:	b8 ff ff ff ff       	mov    $0xffffffff,%eax
  100b95:	e9 a7 03 00 00       	jmp    100f41 <exec+0x3d1>
/u/a/b/abhijith/CS537/p3b/xv6-sp20/kernel/exec.c:22
  100b9a:	83 ec 0c             	sub    $0xc,%esp
  100b9d:	ff 75 d8             	pushl  -0x28(%ebp)
  100ba0:	e8 aa 0c 00 00       	call   10184f <ilock>
  100ba5:	83 c4 10             	add    $0x10,%esp
/u/a/b/abhijith/CS537/p3b/xv6-sp20/kernel/exec.c:23
  100ba8:	c7 45 d4 00 00 00 00 	movl   $0x0,-0x2c(%ebp)
/u/a/b/abhijith/CS537/p3b/xv6-sp20/kernel/exec.c:26
  100baf:	6a 34                	push   $0x34
  100bb1:	6a 00                	push   $0x0
  100bb3:	8d 85 0c ff ff ff    	lea    -0xf4(%ebp),%eax
  100bb9:	50                   	push   %eax
  100bba:	ff 75 d8             	pushl  -0x28(%ebp)
  100bbd:	e8 f0 11 00 00       	call   101db2 <readi>
  100bc2:	83 c4 10             	add    $0x10,%esp
  100bc5:	83 f8 33             	cmp    $0x33,%eax
  100bc8:	0f 86 27 03 00 00    	jbe    100ef5 <exec+0x385>
/u/a/b/abhijith/CS537/p3b/xv6-sp20/kernel/exec.c:28
  100bce:	8b 85 0c ff ff ff    	mov    -0xf4(%ebp),%eax
  100bd4:	3d 7f 45 4c 46       	cmp    $0x464c457f,%eax
  100bd9:	0f 85 19 03 00 00    	jne    100ef8 <exec+0x388>
/u/a/b/abhijith/CS537/p3b/xv6-sp20/kernel/exec.c:32
  100bdf:	e8 58 6a 00 00       	call   10763c <setupkvm>
  100be4:	89 45 d4             	mov    %eax,-0x2c(%ebp)
  100be7:	83 7d d4 00          	cmpl   $0x0,-0x2c(%ebp)
  100beb:	0f 84 0a 03 00 00    	je     100efb <exec+0x38b>
/u/a/b/abhijith/CS537/p3b/xv6-sp20/kernel/exec.c:38
  100bf1:	c7 45 e0 00 00 00 00 	movl   $0x0,-0x20(%ebp)
/u/a/b/abhijith/CS537/p3b/xv6-sp20/kernel/exec.c:39
  100bf8:	c7 45 ec 00 00 00 00 	movl   $0x0,-0x14(%ebp)
  100bff:	8b 85 28 ff ff ff    	mov    -0xd8(%ebp),%eax
  100c05:	89 45 e8             	mov    %eax,-0x18(%ebp)
  100c08:	e9 ab 00 00 00       	jmp    100cb8 <exec+0x148>
/u/a/b/abhijith/CS537/p3b/xv6-sp20/kernel/exec.c:40
  100c0d:	8b 45 e8             	mov    -0x18(%ebp),%eax
  100c10:	6a 20                	push   $0x20
  100c12:	50                   	push   %eax
  100c13:	8d 85 ec fe ff ff    	lea    -0x114(%ebp),%eax
  100c19:	50                   	push   %eax
  100c1a:	ff 75 d8             	pushl  -0x28(%ebp)
  100c1d:	e8 90 11 00 00       	call   101db2 <readi>
  100c22:	83 c4 10             	add    $0x10,%esp
  100c25:	83 f8 20             	cmp    $0x20,%eax
  100c28:	0f 85 d0 02 00 00    	jne    100efe <exec+0x38e>
/u/a/b/abhijith/CS537/p3b/xv6-sp20/kernel/exec.c:42
  100c2e:	8b 85 ec fe ff ff    	mov    -0x114(%ebp),%eax
  100c34:	83 f8 01             	cmp    $0x1,%eax
  100c37:	75 71                	jne    100caa <exec+0x13a>
/u/a/b/abhijith/CS537/p3b/xv6-sp20/kernel/exec.c:44
  100c39:	8b 95 00 ff ff ff    	mov    -0x100(%ebp),%edx
  100c3f:	8b 85 fc fe ff ff    	mov    -0x104(%ebp),%eax
  100c45:	39 c2                	cmp    %eax,%edx
  100c47:	0f 82 b4 02 00 00    	jb     100f01 <exec+0x391>
/u/a/b/abhijith/CS537/p3b/xv6-sp20/kernel/exec.c:46
  100c4d:	8b 95 f4 fe ff ff    	mov    -0x10c(%ebp),%edx
  100c53:	8b 85 00 ff ff ff    	mov    -0x100(%ebp),%eax
  100c59:	01 d0                	add    %edx,%eax
  100c5b:	83 ec 04             	sub    $0x4,%esp
  100c5e:	50                   	push   %eax
  100c5f:	ff 75 e0             	pushl  -0x20(%ebp)
  100c62:	ff 75 d4             	pushl  -0x2c(%ebp)
  100c65:	e8 43 6d 00 00       	call   1079ad <allocuvm>
  100c6a:	83 c4 10             	add    $0x10,%esp
  100c6d:	89 45 e0             	mov    %eax,-0x20(%ebp)
  100c70:	83 7d e0 00          	cmpl   $0x0,-0x20(%ebp)
  100c74:	0f 84 8a 02 00 00    	je     100f04 <exec+0x394>
/u/a/b/abhijith/CS537/p3b/xv6-sp20/kernel/exec.c:48
  100c7a:	8b 95 fc fe ff ff    	mov    -0x104(%ebp),%edx
  100c80:	8b 85 f0 fe ff ff    	mov    -0x110(%ebp),%eax
  100c86:	8b 8d f4 fe ff ff    	mov    -0x10c(%ebp),%ecx
  100c8c:	83 ec 0c             	sub    $0xc,%esp
  100c8f:	52                   	push   %edx
  100c90:	50                   	push   %eax
  100c91:	ff 75 d8             	pushl  -0x28(%ebp)
  100c94:	51                   	push   %ecx
  100c95:	ff 75 d4             	pushl  -0x2c(%ebp)
  100c98:	e8 49 6c 00 00       	call   1078e6 <loaduvm>
  100c9d:	83 c4 20             	add    $0x20,%esp
  100ca0:	85 c0                	test   %eax,%eax
  100ca2:	0f 88 5f 02 00 00    	js     100f07 <exec+0x397>
  100ca8:	eb 01                	jmp    100cab <exec+0x13b>
/u/a/b/abhijith/CS537/p3b/xv6-sp20/kernel/exec.c:43
  100caa:	90                   	nop
/u/a/b/abhijith/CS537/p3b/xv6-sp20/kernel/exec.c:39 (discriminator 2)
  100cab:	83 45 ec 01          	addl   $0x1,-0x14(%ebp)
  100caf:	8b 45 e8             	mov    -0x18(%ebp),%eax
  100cb2:	83 c0 20             	add    $0x20,%eax
  100cb5:	89 45 e8             	mov    %eax,-0x18(%ebp)
/u/a/b/abhijith/CS537/p3b/xv6-sp20/kernel/exec.c:39 (discriminator 1)
  100cb8:	0f b7 85 38 ff ff ff 	movzwl -0xc8(%ebp),%eax
  100cbf:	0f b7 c0             	movzwl %ax,%eax
  100cc2:	39 45 ec             	cmp    %eax,-0x14(%ebp)
  100cc5:	0f 8c 42 ff ff ff    	jl     100c0d <exec+0x9d>
/u/a/b/abhijith/CS537/p3b/xv6-sp20/kernel/exec.c:51
  100ccb:	83 ec 0c             	sub    $0xc,%esp
  100cce:	ff 75 d8             	pushl  -0x28(%ebp)
  100cd1:	e8 33 0e 00 00       	call   101b09 <iunlockput>
  100cd6:	83 c4 10             	add    $0x10,%esp
/u/a/b/abhijith/CS537/p3b/xv6-sp20/kernel/exec.c:52
  100cd9:	c7 45 d8 00 00 00 00 	movl   $0x0,-0x28(%ebp)
/u/a/b/abhijith/CS537/p3b/xv6-sp20/kernel/exec.c:55
  100ce0:	8b 45 e0             	mov    -0x20(%ebp),%eax
  100ce3:	05 ff 0f 00 00       	add    $0xfff,%eax
  100ce8:	25 00 f0 ff ff       	and    $0xfffff000,%eax
  100ced:	89 45 e0             	mov    %eax,-0x20(%ebp)
/u/a/b/abhijith/CS537/p3b/xv6-sp20/kernel/exec.c:56
  100cf0:	8b 45 e0             	mov    -0x20(%ebp),%eax
  100cf3:	05 00 10 00 00       	add    $0x1000,%eax
  100cf8:	83 ec 04             	sub    $0x4,%esp
  100cfb:	50                   	push   %eax
  100cfc:	ff 75 e0             	pushl  -0x20(%ebp)
  100cff:	ff 75 d4             	pushl  -0x2c(%ebp)
  100d02:	e8 a6 6c 00 00       	call   1079ad <allocuvm>
  100d07:	83 c4 10             	add    $0x10,%esp
  100d0a:	89 45 e0             	mov    %eax,-0x20(%ebp)
  100d0d:	83 7d e0 00          	cmpl   $0x0,-0x20(%ebp)
  100d11:	0f 84 f3 01 00 00    	je     100f0a <exec+0x39a>
/u/a/b/abhijith/CS537/p3b/xv6-sp20/kernel/exec.c:60
  100d17:	8b 45 e0             	mov    -0x20(%ebp),%eax
  100d1a:	89 45 dc             	mov    %eax,-0x24(%ebp)
/u/a/b/abhijith/CS537/p3b/xv6-sp20/kernel/exec.c:61
  100d1d:	c7 45 e4 00 00 00 00 	movl   $0x0,-0x1c(%ebp)
  100d24:	e9 90 00 00 00       	jmp    100db9 <exec+0x249>
/u/a/b/abhijith/CS537/p3b/xv6-sp20/kernel/exec.c:62
  100d29:	83 7d e4 1f          	cmpl   $0x1f,-0x1c(%ebp)
  100d2d:	0f 87 da 01 00 00    	ja     100f0d <exec+0x39d>
/u/a/b/abhijith/CS537/p3b/xv6-sp20/kernel/exec.c:64
  100d33:	8b 45 e4             	mov    -0x1c(%ebp),%eax
  100d36:	8d 14 85 00 00 00 00 	lea    0x0(,%eax,4),%edx
  100d3d:	8b 45 0c             	mov    0xc(%ebp),%eax
  100d40:	01 d0                	add    %edx,%eax
  100d42:	8b 00                	mov    (%eax),%eax
  100d44:	83 ec 0c             	sub    $0xc,%esp
  100d47:	50                   	push   %eax
  100d48:	e8 b5 3f 00 00       	call   104d02 <strlen>
  100d4d:	83 c4 10             	add    $0x10,%esp
  100d50:	83 c0 01             	add    $0x1,%eax
  100d53:	29 45 dc             	sub    %eax,-0x24(%ebp)
/u/a/b/abhijith/CS537/p3b/xv6-sp20/kernel/exec.c:65
  100d56:	83 65 dc fc          	andl   $0xfffffffc,-0x24(%ebp)
/u/a/b/abhijith/CS537/p3b/xv6-sp20/kernel/exec.c:66
  100d5a:	8b 45 e4             	mov    -0x1c(%ebp),%eax
  100d5d:	8d 14 85 00 00 00 00 	lea    0x0(,%eax,4),%edx
  100d64:	8b 45 0c             	mov    0xc(%ebp),%eax
  100d67:	01 d0                	add    %edx,%eax
  100d69:	8b 00                	mov    (%eax),%eax
  100d6b:	83 ec 0c             	sub    $0xc,%esp
  100d6e:	50                   	push   %eax
  100d6f:	e8 8e 3f 00 00       	call   104d02 <strlen>
  100d74:	83 c4 10             	add    $0x10,%esp
  100d77:	83 c0 01             	add    $0x1,%eax
  100d7a:	89 c1                	mov    %eax,%ecx
  100d7c:	8b 45 e4             	mov    -0x1c(%ebp),%eax
  100d7f:	8d 14 85 00 00 00 00 	lea    0x0(,%eax,4),%edx
  100d86:	8b 45 0c             	mov    0xc(%ebp),%eax
  100d89:	01 d0                	add    %edx,%eax
  100d8b:	8b 00                	mov    (%eax),%eax
  100d8d:	51                   	push   %ecx
  100d8e:	50                   	push   %eax
  100d8f:	ff 75 dc             	pushl  -0x24(%ebp)
  100d92:	ff 75 d4             	pushl  -0x2c(%ebp)
  100d95:	e8 75 6f 00 00       	call   107d0f <copyout>
  100d9a:	83 c4 10             	add    $0x10,%esp
  100d9d:	85 c0                	test   %eax,%eax
  100d9f:	0f 88 6b 01 00 00    	js     100f10 <exec+0x3a0>
/u/a/b/abhijith/CS537/p3b/xv6-sp20/kernel/exec.c:68 (discriminator 2)
  100da5:	8b 45 e4             	mov    -0x1c(%ebp),%eax
  100da8:	8d 50 03             	lea    0x3(%eax),%edx
  100dab:	8b 45 dc             	mov    -0x24(%ebp),%eax
  100dae:	89 84 95 40 ff ff ff 	mov    %eax,-0xc0(%ebp,%edx,4)
/u/a/b/abhijith/CS537/p3b/xv6-sp20/kernel/exec.c:61 (discriminator 2)
  100db5:	83 45 e4 01          	addl   $0x1,-0x1c(%ebp)
/u/a/b/abhijith/CS537/p3b/xv6-sp20/kernel/exec.c:61 (discriminator 1)
  100db9:	8b 45 e4             	mov    -0x1c(%ebp),%eax
  100dbc:	8d 14 85 00 00 00 00 	lea    0x0(,%eax,4),%edx
  100dc3:	8b 45 0c             	mov    0xc(%ebp),%eax
  100dc6:	01 d0                	add    %edx,%eax
  100dc8:	8b 00                	mov    (%eax),%eax
  100dca:	85 c0                	test   %eax,%eax
  100dcc:	0f 85 57 ff ff ff    	jne    100d29 <exec+0x1b9>
/u/a/b/abhijith/CS537/p3b/xv6-sp20/kernel/exec.c:70
  100dd2:	8b 45 e4             	mov    -0x1c(%ebp),%eax
  100dd5:	83 c0 03             	add    $0x3,%eax
  100dd8:	c7 84 85 40 ff ff ff 	movl   $0x0,-0xc0(%ebp,%eax,4)
  100ddf:	00 00 00 00 
/u/a/b/abhijith/CS537/p3b/xv6-sp20/kernel/exec.c:72
  100de3:	c7 85 40 ff ff ff ff 	movl   $0xffffffff,-0xc0(%ebp)
  100dea:	ff ff ff 
/u/a/b/abhijith/CS537/p3b/xv6-sp20/kernel/exec.c:73
  100ded:	8b 45 e4             	mov    -0x1c(%ebp),%eax
  100df0:	89 85 44 ff ff ff    	mov    %eax,-0xbc(%ebp)
/u/a/b/abhijith/CS537/p3b/xv6-sp20/kernel/exec.c:74
  100df6:	8b 45 e4             	mov    -0x1c(%ebp),%eax
  100df9:	83 c0 01             	add    $0x1,%eax
  100dfc:	8d 14 85 00 00 00 00 	lea    0x0(,%eax,4),%edx
  100e03:	8b 45 dc             	mov    -0x24(%ebp),%eax
  100e06:	29 d0                	sub    %edx,%eax
  100e08:	89 85 48 ff ff ff    	mov    %eax,-0xb8(%ebp)
/u/a/b/abhijith/CS537/p3b/xv6-sp20/kernel/exec.c:76
  100e0e:	8b 45 e4             	mov    -0x1c(%ebp),%eax
  100e11:	83 c0 04             	add    $0x4,%eax
  100e14:	c1 e0 02             	shl    $0x2,%eax
  100e17:	29 45 dc             	sub    %eax,-0x24(%ebp)
/u/a/b/abhijith/CS537/p3b/xv6-sp20/kernel/exec.c:77
  100e1a:	8b 45 e4             	mov    -0x1c(%ebp),%eax
  100e1d:	83 c0 04             	add    $0x4,%eax
  100e20:	c1 e0 02             	shl    $0x2,%eax
  100e23:	50                   	push   %eax
  100e24:	8d 85 40 ff ff ff    	lea    -0xc0(%ebp),%eax
  100e2a:	50                   	push   %eax
  100e2b:	ff 75 dc             	pushl  -0x24(%ebp)
  100e2e:	ff 75 d4             	pushl  -0x2c(%ebp)
  100e31:	e8 d9 6e 00 00       	call   107d0f <copyout>
  100e36:	83 c4 10             	add    $0x10,%esp
  100e39:	85 c0                	test   %eax,%eax
  100e3b:	0f 88 d2 00 00 00    	js     100f13 <exec+0x3a3>
/u/a/b/abhijith/CS537/p3b/xv6-sp20/kernel/exec.c:81
  100e41:	8b 45 08             	mov    0x8(%ebp),%eax
  100e44:	89 45 f4             	mov    %eax,-0xc(%ebp)
  100e47:	8b 45 f4             	mov    -0xc(%ebp),%eax
  100e4a:	89 45 f0             	mov    %eax,-0x10(%ebp)
  100e4d:	eb 17                	jmp    100e66 <exec+0x2f6>
/u/a/b/abhijith/CS537/p3b/xv6-sp20/kernel/exec.c:82
  100e4f:	8b 45 f4             	mov    -0xc(%ebp),%eax
  100e52:	0f b6 00             	movzbl (%eax),%eax
  100e55:	3c 2f                	cmp    $0x2f,%al
  100e57:	75 09                	jne    100e62 <exec+0x2f2>
/u/a/b/abhijith/CS537/p3b/xv6-sp20/kernel/exec.c:83
  100e59:	8b 45 f4             	mov    -0xc(%ebp),%eax
  100e5c:	83 c0 01             	add    $0x1,%eax
  100e5f:	89 45 f0             	mov    %eax,-0x10(%ebp)
/u/a/b/abhijith/CS537/p3b/xv6-sp20/kernel/exec.c:81 (discriminator 2)
  100e62:	83 45 f4 01          	addl   $0x1,-0xc(%ebp)
/u/a/b/abhijith/CS537/p3b/xv6-sp20/kernel/exec.c:81 (discriminator 1)
  100e66:	8b 45 f4             	mov    -0xc(%ebp),%eax
  100e69:	0f b6 00             	movzbl (%eax),%eax
  100e6c:	84 c0                	test   %al,%al
  100e6e:	75 df                	jne    100e4f <exec+0x2df>
/u/a/b/abhijith/CS537/p3b/xv6-sp20/kernel/exec.c:84
  100e70:	65 a1 04 00 00 00    	mov    %gs:0x4,%eax
  100e76:	83 c0 6c             	add    $0x6c,%eax
  100e79:	83 ec 04             	sub    $0x4,%esp
  100e7c:	6a 10                	push   $0x10
  100e7e:	ff 75 f0             	pushl  -0x10(%ebp)
  100e81:	50                   	push   %eax
  100e82:	e8 31 3e 00 00       	call   104cb8 <safestrcpy>
  100e87:	83 c4 10             	add    $0x10,%esp
/u/a/b/abhijith/CS537/p3b/xv6-sp20/kernel/exec.c:87
  100e8a:	65 a1 04 00 00 00    	mov    %gs:0x4,%eax
  100e90:	8b 40 04             	mov    0x4(%eax),%eax
  100e93:	89 45 d0             	mov    %eax,-0x30(%ebp)
/u/a/b/abhijith/CS537/p3b/xv6-sp20/kernel/exec.c:88
  100e96:	65 a1 04 00 00 00    	mov    %gs:0x4,%eax
  100e9c:	8b 55 d4             	mov    -0x2c(%ebp),%edx
  100e9f:	89 50 04             	mov    %edx,0x4(%eax)
/u/a/b/abhijith/CS537/p3b/xv6-sp20/kernel/exec.c:89
  100ea2:	65 a1 04 00 00 00    	mov    %gs:0x4,%eax
  100ea8:	8b 55 e0             	mov    -0x20(%ebp),%edx
  100eab:	89 10                	mov    %edx,(%eax)
/u/a/b/abhijith/CS537/p3b/xv6-sp20/kernel/exec.c:90
  100ead:	65 a1 04 00 00 00    	mov    %gs:0x4,%eax
  100eb3:	8b 40 18             	mov    0x18(%eax),%eax
  100eb6:	8b 95 24 ff ff ff    	mov    -0xdc(%ebp),%edx
  100ebc:	89 50 38             	mov    %edx,0x38(%eax)
/u/a/b/abhijith/CS537/p3b/xv6-sp20/kernel/exec.c:91
  100ebf:	65 a1 04 00 00 00    	mov    %gs:0x4,%eax
  100ec5:	8b 40 18             	mov    0x18(%eax),%eax
  100ec8:	8b 55 dc             	mov    -0x24(%ebp),%edx
  100ecb:	89 50 44             	mov    %edx,0x44(%eax)
/u/a/b/abhijith/CS537/p3b/xv6-sp20/kernel/exec.c:92
  100ece:	65 a1 04 00 00 00    	mov    %gs:0x4,%eax
  100ed4:	83 ec 0c             	sub    $0xc,%esp
  100ed7:	50                   	push   %eax
  100ed8:	e8 36 68 00 00       	call   107713 <switchuvm>
  100edd:	83 c4 10             	add    $0x10,%esp
/u/a/b/abhijith/CS537/p3b/xv6-sp20/kernel/exec.c:94
  100ee0:	83 ec 0c             	sub    $0xc,%esp
  100ee3:	ff 75 d0             	pushl  -0x30(%ebp)
  100ee6:	e8 19 6c 00 00       	call   107b04 <freevm>
  100eeb:	83 c4 10             	add    $0x10,%esp
/u/a/b/abhijith/CS537/p3b/xv6-sp20/kernel/exec.c:97
  100eee:	b8 00 00 00 00       	mov    $0x0,%eax
  100ef3:	eb 4c                	jmp    100f41 <exec+0x3d1>
/u/a/b/abhijith/CS537/p3b/xv6-sp20/kernel/exec.c:27
  100ef5:	90                   	nop
  100ef6:	eb 1c                	jmp    100f14 <exec+0x3a4>
/u/a/b/abhijith/CS537/p3b/xv6-sp20/kernel/exec.c:29
  100ef8:	90                   	nop
  100ef9:	eb 19                	jmp    100f14 <exec+0x3a4>
/u/a/b/abhijith/CS537/p3b/xv6-sp20/kernel/exec.c:33
  100efb:	90                   	nop
  100efc:	eb 16                	jmp    100f14 <exec+0x3a4>
/u/a/b/abhijith/CS537/p3b/xv6-sp20/kernel/exec.c:41
  100efe:	90                   	nop
  100eff:	eb 13                	jmp    100f14 <exec+0x3a4>
/u/a/b/abhijith/CS537/p3b/xv6-sp20/kernel/exec.c:45
  100f01:	90                   	nop
  100f02:	eb 10                	jmp    100f14 <exec+0x3a4>
/u/a/b/abhijith/CS537/p3b/xv6-sp20/kernel/exec.c:47
  100f04:	90                   	nop
  100f05:	eb 0d                	jmp    100f14 <exec+0x3a4>
/u/a/b/abhijith/CS537/p3b/xv6-sp20/kernel/exec.c:49
  100f07:	90                   	nop
  100f08:	eb 0a                	jmp    100f14 <exec+0x3a4>
/u/a/b/abhijith/CS537/p3b/xv6-sp20/kernel/exec.c:57
  100f0a:	90                   	nop
  100f0b:	eb 07                	jmp    100f14 <exec+0x3a4>
/u/a/b/abhijith/CS537/p3b/xv6-sp20/kernel/exec.c:63
  100f0d:	90                   	nop
  100f0e:	eb 04                	jmp    100f14 <exec+0x3a4>
/u/a/b/abhijith/CS537/p3b/xv6-sp20/kernel/exec.c:67
  100f10:	90                   	nop
  100f11:	eb 01                	jmp    100f14 <exec+0x3a4>
/u/a/b/abhijith/CS537/p3b/xv6-sp20/kernel/exec.c:78
  100f13:	90                   	nop
/u/a/b/abhijith/CS537/p3b/xv6-sp20/kernel/exec.c:100
  100f14:	83 7d d4 00          	cmpl   $0x0,-0x2c(%ebp)
  100f18:	74 0e                	je     100f28 <exec+0x3b8>
/u/a/b/abhijith/CS537/p3b/xv6-sp20/kernel/exec.c:101
  100f1a:	83 ec 0c             	sub    $0xc,%esp
  100f1d:	ff 75 d4             	pushl  -0x2c(%ebp)
  100f20:	e8 df 6b 00 00       	call   107b04 <freevm>
  100f25:	83 c4 10             	add    $0x10,%esp
/u/a/b/abhijith/CS537/p3b/xv6-sp20/kernel/exec.c:102
  100f28:	83 7d d8 00          	cmpl   $0x0,-0x28(%ebp)
  100f2c:	74 0e                	je     100f3c <exec+0x3cc>
/u/a/b/abhijith/CS537/p3b/xv6-sp20/kernel/exec.c:103
  100f2e:	83 ec 0c             	sub    $0xc,%esp
  100f31:	ff 75 d8             	pushl  -0x28(%ebp)
  100f34:	e8 d0 0b 00 00       	call   101b09 <iunlockput>
  100f39:	83 c4 10             	add    $0x10,%esp
/u/a/b/abhijith/CS537/p3b/xv6-sp20/kernel/exec.c:104
  100f3c:	b8 ff ff ff ff       	mov    $0xffffffff,%eax
/u/a/b/abhijith/CS537/p3b/xv6-sp20/kernel/exec.c:105 (discriminator 1)
  100f41:	c9                   	leave  
  100f42:	c3                   	ret    

00100f43 <fileinit>:
fileinit():
/u/a/b/abhijith/CS537/p3b/xv6-sp20/kernel/file.c:16
  100f43:	55                   	push   %ebp
  100f44:	89 e5                	mov    %esp,%ebp
  100f46:	83 ec 08             	sub    $0x8,%esp
/u/a/b/abhijith/CS537/p3b/xv6-sp20/kernel/file.c:17
  100f49:	83 ec 08             	sub    $0x8,%esp
  100f4c:	68 40 7f 10 00       	push   $0x107f40
  100f51:	68 40 ed 10 00       	push   $0x10ed40
  100f56:	e8 48 39 00 00       	call   1048a3 <initlock>
  100f5b:	83 c4 10             	add    $0x10,%esp
/u/a/b/abhijith/CS537/p3b/xv6-sp20/kernel/file.c:18
  100f5e:	90                   	nop
  100f5f:	c9                   	leave  
  100f60:	c3                   	ret    

00100f61 <filealloc>:
filealloc():
/u/a/b/abhijith/CS537/p3b/xv6-sp20/kernel/file.c:23
  100f61:	55                   	push   %ebp
  100f62:	89 e5                	mov    %esp,%ebp
  100f64:	83 ec 18             	sub    $0x18,%esp
/u/a/b/abhijith/CS537/p3b/xv6-sp20/kernel/file.c:26
  100f67:	83 ec 0c             	sub    $0xc,%esp
  100f6a:	68 40 ed 10 00       	push   $0x10ed40
  100f6f:	e8 51 39 00 00       	call   1048c5 <acquire>
  100f74:	83 c4 10             	add    $0x10,%esp
/u/a/b/abhijith/CS537/p3b/xv6-sp20/kernel/file.c:27
  100f77:	c7 45 f4 74 ed 10 00 	movl   $0x10ed74,-0xc(%ebp)
  100f7e:	eb 2d                	jmp    100fad <filealloc+0x4c>
/u/a/b/abhijith/CS537/p3b/xv6-sp20/kernel/file.c:28
  100f80:	8b 45 f4             	mov    -0xc(%ebp),%eax
  100f83:	8b 40 04             	mov    0x4(%eax),%eax
  100f86:	85 c0                	test   %eax,%eax
  100f88:	75 1f                	jne    100fa9 <filealloc+0x48>
/u/a/b/abhijith/CS537/p3b/xv6-sp20/kernel/file.c:29
  100f8a:	8b 45 f4             	mov    -0xc(%ebp),%eax
  100f8d:	c7 40 04 01 00 00 00 	movl   $0x1,0x4(%eax)
/u/a/b/abhijith/CS537/p3b/xv6-sp20/kernel/file.c:30
  100f94:	83 ec 0c             	sub    $0xc,%esp
  100f97:	68 40 ed 10 00       	push   $0x10ed40
  100f9c:	e8 8b 39 00 00       	call   10492c <release>
  100fa1:	83 c4 10             	add    $0x10,%esp
/u/a/b/abhijith/CS537/p3b/xv6-sp20/kernel/file.c:31
  100fa4:	8b 45 f4             	mov    -0xc(%ebp),%eax
  100fa7:	eb 23                	jmp    100fcc <filealloc+0x6b>
/u/a/b/abhijith/CS537/p3b/xv6-sp20/kernel/file.c:27 (discriminator 2)
  100fa9:	83 45 f4 18          	addl   $0x18,-0xc(%ebp)
/u/a/b/abhijith/CS537/p3b/xv6-sp20/kernel/file.c:27 (discriminator 1)
  100fad:	b8 d4 f6 10 00       	mov    $0x10f6d4,%eax
  100fb2:	39 45 f4             	cmp    %eax,-0xc(%ebp)
  100fb5:	72 c9                	jb     100f80 <filealloc+0x1f>
/u/a/b/abhijith/CS537/p3b/xv6-sp20/kernel/file.c:34
  100fb7:	83 ec 0c             	sub    $0xc,%esp
  100fba:	68 40 ed 10 00       	push   $0x10ed40
  100fbf:	e8 68 39 00 00       	call   10492c <release>
  100fc4:	83 c4 10             	add    $0x10,%esp
/u/a/b/abhijith/CS537/p3b/xv6-sp20/kernel/file.c:35
  100fc7:	b8 00 00 00 00       	mov    $0x0,%eax
/u/a/b/abhijith/CS537/p3b/xv6-sp20/kernel/file.c:36
  100fcc:	c9                   	leave  
  100fcd:	c3                   	ret    

00100fce <filedup>:
filedup():
/u/a/b/abhijith/CS537/p3b/xv6-sp20/kernel/file.c:41
  100fce:	55                   	push   %ebp
  100fcf:	89 e5                	mov    %esp,%ebp
  100fd1:	83 ec 08             	sub    $0x8,%esp
/u/a/b/abhijith/CS537/p3b/xv6-sp20/kernel/file.c:42
  100fd4:	83 ec 0c             	sub    $0xc,%esp
  100fd7:	68 40 ed 10 00       	push   $0x10ed40
  100fdc:	e8 e4 38 00 00       	call   1048c5 <acquire>
  100fe1:	83 c4 10             	add    $0x10,%esp
/u/a/b/abhijith/CS537/p3b/xv6-sp20/kernel/file.c:43
  100fe4:	8b 45 08             	mov    0x8(%ebp),%eax
  100fe7:	8b 40 04             	mov    0x4(%eax),%eax
  100fea:	85 c0                	test   %eax,%eax
  100fec:	7f 0d                	jg     100ffb <filedup+0x2d>
/u/a/b/abhijith/CS537/p3b/xv6-sp20/kernel/file.c:44
  100fee:	83 ec 0c             	sub    $0xc,%esp
  100ff1:	68 47 7f 10 00       	push   $0x107f47
  100ff6:	e8 7d f5 ff ff       	call   100578 <panic>
/u/a/b/abhijith/CS537/p3b/xv6-sp20/kernel/file.c:45
  100ffb:	8b 45 08             	mov    0x8(%ebp),%eax
  100ffe:	8b 40 04             	mov    0x4(%eax),%eax
  101001:	8d 50 01             	lea    0x1(%eax),%edx
  101004:	8b 45 08             	mov    0x8(%ebp),%eax
  101007:	89 50 04             	mov    %edx,0x4(%eax)
/u/a/b/abhijith/CS537/p3b/xv6-sp20/kernel/file.c:46
  10100a:	83 ec 0c             	sub    $0xc,%esp
  10100d:	68 40 ed 10 00       	push   $0x10ed40
  101012:	e8 15 39 00 00       	call   10492c <release>
  101017:	83 c4 10             	add    $0x10,%esp
/u/a/b/abhijith/CS537/p3b/xv6-sp20/kernel/file.c:47
  10101a:	8b 45 08             	mov    0x8(%ebp),%eax
/u/a/b/abhijith/CS537/p3b/xv6-sp20/kernel/file.c:48
  10101d:	c9                   	leave  
  10101e:	c3                   	ret    

0010101f <fileclose>:
fileclose():
/u/a/b/abhijith/CS537/p3b/xv6-sp20/kernel/file.c:53
  10101f:	55                   	push   %ebp
  101020:	89 e5                	mov    %esp,%ebp
  101022:	83 ec 28             	sub    $0x28,%esp
/u/a/b/abhijith/CS537/p3b/xv6-sp20/kernel/file.c:56
  101025:	83 ec 0c             	sub    $0xc,%esp
  101028:	68 40 ed 10 00       	push   $0x10ed40
  10102d:	e8 93 38 00 00       	call   1048c5 <acquire>
  101032:	83 c4 10             	add    $0x10,%esp
/u/a/b/abhijith/CS537/p3b/xv6-sp20/kernel/file.c:57
  101035:	8b 45 08             	mov    0x8(%ebp),%eax
  101038:	8b 40 04             	mov    0x4(%eax),%eax
  10103b:	85 c0                	test   %eax,%eax
  10103d:	7f 0d                	jg     10104c <fileclose+0x2d>
/u/a/b/abhijith/CS537/p3b/xv6-sp20/kernel/file.c:58
  10103f:	83 ec 0c             	sub    $0xc,%esp
  101042:	68 4f 7f 10 00       	push   $0x107f4f
  101047:	e8 2c f5 ff ff       	call   100578 <panic>
/u/a/b/abhijith/CS537/p3b/xv6-sp20/kernel/file.c:59
  10104c:	8b 45 08             	mov    0x8(%ebp),%eax
  10104f:	8b 40 04             	mov    0x4(%eax),%eax
  101052:	8d 50 ff             	lea    -0x1(%eax),%edx
  101055:	8b 45 08             	mov    0x8(%ebp),%eax
  101058:	89 50 04             	mov    %edx,0x4(%eax)
  10105b:	8b 45 08             	mov    0x8(%ebp),%eax
  10105e:	8b 40 04             	mov    0x4(%eax),%eax
  101061:	85 c0                	test   %eax,%eax
  101063:	7e 15                	jle    10107a <fileclose+0x5b>
/u/a/b/abhijith/CS537/p3b/xv6-sp20/kernel/file.c:60
  101065:	83 ec 0c             	sub    $0xc,%esp
  101068:	68 40 ed 10 00       	push   $0x10ed40
  10106d:	e8 ba 38 00 00       	call   10492c <release>
  101072:	83 c4 10             	add    $0x10,%esp
  101075:	e9 81 00 00 00       	jmp    1010fb <fileclose+0xdc>
/u/a/b/abhijith/CS537/p3b/xv6-sp20/kernel/file.c:63
  10107a:	8b 45 08             	mov    0x8(%ebp),%eax
  10107d:	8b 10                	mov    (%eax),%edx
  10107f:	89 55 e0             	mov    %edx,-0x20(%ebp)
  101082:	8b 50 04             	mov    0x4(%eax),%edx
  101085:	89 55 e4             	mov    %edx,-0x1c(%ebp)
  101088:	8b 50 08             	mov    0x8(%eax),%edx
  10108b:	89 55 e8             	mov    %edx,-0x18(%ebp)
  10108e:	8b 50 0c             	mov    0xc(%eax),%edx
  101091:	89 55 ec             	mov    %edx,-0x14(%ebp)
  101094:	8b 50 10             	mov    0x10(%eax),%edx
  101097:	89 55 f0             	mov    %edx,-0x10(%ebp)
  10109a:	8b 40 14             	mov    0x14(%eax),%eax
  10109d:	89 45 f4             	mov    %eax,-0xc(%ebp)
/u/a/b/abhijith/CS537/p3b/xv6-sp20/kernel/file.c:64
  1010a0:	8b 45 08             	mov    0x8(%ebp),%eax
  1010a3:	c7 40 04 00 00 00 00 	movl   $0x0,0x4(%eax)
/u/a/b/abhijith/CS537/p3b/xv6-sp20/kernel/file.c:65
  1010aa:	8b 45 08             	mov    0x8(%ebp),%eax
  1010ad:	c7 00 00 00 00 00    	movl   $0x0,(%eax)
/u/a/b/abhijith/CS537/p3b/xv6-sp20/kernel/file.c:66
  1010b3:	83 ec 0c             	sub    $0xc,%esp
  1010b6:	68 40 ed 10 00       	push   $0x10ed40
  1010bb:	e8 6c 38 00 00       	call   10492c <release>
  1010c0:	83 c4 10             	add    $0x10,%esp
/u/a/b/abhijith/CS537/p3b/xv6-sp20/kernel/file.c:68
  1010c3:	8b 45 e0             	mov    -0x20(%ebp),%eax
  1010c6:	83 f8 01             	cmp    $0x1,%eax
  1010c9:	75 19                	jne    1010e4 <fileclose+0xc5>
/u/a/b/abhijith/CS537/p3b/xv6-sp20/kernel/file.c:69
  1010cb:	0f b6 45 e9          	movzbl -0x17(%ebp),%eax
  1010cf:	0f be d0             	movsbl %al,%edx
  1010d2:	8b 45 ec             	mov    -0x14(%ebp),%eax
  1010d5:	83 ec 08             	sub    $0x8,%esp
  1010d8:	52                   	push   %edx
  1010d9:	50                   	push   %eax
  1010da:	e8 b0 29 00 00       	call   103a8f <pipeclose>
  1010df:	83 c4 10             	add    $0x10,%esp
  1010e2:	eb 17                	jmp    1010fb <fileclose+0xdc>
/u/a/b/abhijith/CS537/p3b/xv6-sp20/kernel/file.c:70
  1010e4:	8b 45 e0             	mov    -0x20(%ebp),%eax
  1010e7:	83 f8 02             	cmp    $0x2,%eax
  1010ea:	75 0f                	jne    1010fb <fileclose+0xdc>
/u/a/b/abhijith/CS537/p3b/xv6-sp20/kernel/file.c:71
  1010ec:	8b 45 f0             	mov    -0x10(%ebp),%eax
  1010ef:	83 ec 0c             	sub    $0xc,%esp
  1010f2:	50                   	push   %eax
  1010f3:	e8 21 09 00 00       	call   101a19 <iput>
  1010f8:	83 c4 10             	add    $0x10,%esp
/u/a/b/abhijith/CS537/p3b/xv6-sp20/kernel/file.c:72
  1010fb:	c9                   	leave  
  1010fc:	c3                   	ret    

001010fd <filestat>:
filestat():
/u/a/b/abhijith/CS537/p3b/xv6-sp20/kernel/file.c:77
  1010fd:	55                   	push   %ebp
  1010fe:	89 e5                	mov    %esp,%ebp
  101100:	83 ec 08             	sub    $0x8,%esp
/u/a/b/abhijith/CS537/p3b/xv6-sp20/kernel/file.c:78
  101103:	8b 45 08             	mov    0x8(%ebp),%eax
  101106:	8b 00                	mov    (%eax),%eax
  101108:	83 f8 02             	cmp    $0x2,%eax
  10110b:	75 40                	jne    10114d <filestat+0x50>
/u/a/b/abhijith/CS537/p3b/xv6-sp20/kernel/file.c:79
  10110d:	8b 45 08             	mov    0x8(%ebp),%eax
  101110:	8b 40 10             	mov    0x10(%eax),%eax
  101113:	83 ec 0c             	sub    $0xc,%esp
  101116:	50                   	push   %eax
  101117:	e8 33 07 00 00       	call   10184f <ilock>
  10111c:	83 c4 10             	add    $0x10,%esp
/u/a/b/abhijith/CS537/p3b/xv6-sp20/kernel/file.c:80
  10111f:	8b 45 08             	mov    0x8(%ebp),%eax
  101122:	8b 40 10             	mov    0x10(%eax),%eax
  101125:	83 ec 08             	sub    $0x8,%esp
  101128:	ff 75 0c             	pushl  0xc(%ebp)
  10112b:	50                   	push   %eax
  10112c:	e8 3b 0c 00 00       	call   101d6c <stati>
  101131:	83 c4 10             	add    $0x10,%esp
/u/a/b/abhijith/CS537/p3b/xv6-sp20/kernel/file.c:81
  101134:	8b 45 08             	mov    0x8(%ebp),%eax
  101137:	8b 40 10             	mov    0x10(%eax),%eax
  10113a:	83 ec 0c             	sub    $0xc,%esp
  10113d:	50                   	push   %eax
  10113e:	e8 64 08 00 00       	call   1019a7 <iunlock>
  101143:	83 c4 10             	add    $0x10,%esp
/u/a/b/abhijith/CS537/p3b/xv6-sp20/kernel/file.c:82
  101146:	b8 00 00 00 00       	mov    $0x0,%eax
  10114b:	eb 05                	jmp    101152 <filestat+0x55>
/u/a/b/abhijith/CS537/p3b/xv6-sp20/kernel/file.c:84
  10114d:	b8 ff ff ff ff       	mov    $0xffffffff,%eax
/u/a/b/abhijith/CS537/p3b/xv6-sp20/kernel/file.c:85
  101152:	c9                   	leave  
  101153:	c3                   	ret    

00101154 <fileread>:
fileread():
/u/a/b/abhijith/CS537/p3b/xv6-sp20/kernel/file.c:90
  101154:	55                   	push   %ebp
  101155:	89 e5                	mov    %esp,%ebp
  101157:	83 ec 18             	sub    $0x18,%esp
/u/a/b/abhijith/CS537/p3b/xv6-sp20/kernel/file.c:93
  10115a:	8b 45 08             	mov    0x8(%ebp),%eax
  10115d:	0f b6 40 08          	movzbl 0x8(%eax),%eax
  101161:	84 c0                	test   %al,%al
  101163:	75 0a                	jne    10116f <fileread+0x1b>
/u/a/b/abhijith/CS537/p3b/xv6-sp20/kernel/file.c:94
  101165:	b8 ff ff ff ff       	mov    $0xffffffff,%eax
  10116a:	e9 9b 00 00 00       	jmp    10120a <fileread+0xb6>
/u/a/b/abhijith/CS537/p3b/xv6-sp20/kernel/file.c:95
  10116f:	8b 45 08             	mov    0x8(%ebp),%eax
  101172:	8b 00                	mov    (%eax),%eax
  101174:	83 f8 01             	cmp    $0x1,%eax
  101177:	75 1a                	jne    101193 <fileread+0x3f>
/u/a/b/abhijith/CS537/p3b/xv6-sp20/kernel/file.c:96
  101179:	8b 45 08             	mov    0x8(%ebp),%eax
  10117c:	8b 40 0c             	mov    0xc(%eax),%eax
  10117f:	83 ec 04             	sub    $0x4,%esp
  101182:	ff 75 10             	pushl  0x10(%ebp)
  101185:	ff 75 0c             	pushl  0xc(%ebp)
  101188:	50                   	push   %eax
  101189:	e8 ae 2a 00 00       	call   103c3c <piperead>
  10118e:	83 c4 10             	add    $0x10,%esp
  101191:	eb 77                	jmp    10120a <fileread+0xb6>
/u/a/b/abhijith/CS537/p3b/xv6-sp20/kernel/file.c:97
  101193:	8b 45 08             	mov    0x8(%ebp),%eax
  101196:	8b 00                	mov    (%eax),%eax
  101198:	83 f8 02             	cmp    $0x2,%eax
  10119b:	75 60                	jne    1011fd <fileread+0xa9>
/u/a/b/abhijith/CS537/p3b/xv6-sp20/kernel/file.c:98
  10119d:	8b 45 08             	mov    0x8(%ebp),%eax
  1011a0:	8b 40 10             	mov    0x10(%eax),%eax
  1011a3:	83 ec 0c             	sub    $0xc,%esp
  1011a6:	50                   	push   %eax
  1011a7:	e8 a3 06 00 00       	call   10184f <ilock>
  1011ac:	83 c4 10             	add    $0x10,%esp
/u/a/b/abhijith/CS537/p3b/xv6-sp20/kernel/file.c:99
  1011af:	8b 4d 10             	mov    0x10(%ebp),%ecx
  1011b2:	8b 45 08             	mov    0x8(%ebp),%eax
  1011b5:	8b 50 14             	mov    0x14(%eax),%edx
  1011b8:	8b 45 08             	mov    0x8(%ebp),%eax
  1011bb:	8b 40 10             	mov    0x10(%eax),%eax
  1011be:	51                   	push   %ecx
  1011bf:	52                   	push   %edx
  1011c0:	ff 75 0c             	pushl  0xc(%ebp)
  1011c3:	50                   	push   %eax
  1011c4:	e8 e9 0b 00 00       	call   101db2 <readi>
  1011c9:	83 c4 10             	add    $0x10,%esp
  1011cc:	89 45 f4             	mov    %eax,-0xc(%ebp)
  1011cf:	83 7d f4 00          	cmpl   $0x0,-0xc(%ebp)
  1011d3:	7e 11                	jle    1011e6 <fileread+0x92>
/u/a/b/abhijith/CS537/p3b/xv6-sp20/kernel/file.c:100
  1011d5:	8b 45 08             	mov    0x8(%ebp),%eax
  1011d8:	8b 50 14             	mov    0x14(%eax),%edx
  1011db:	8b 45 f4             	mov    -0xc(%ebp),%eax
  1011de:	01 c2                	add    %eax,%edx
  1011e0:	8b 45 08             	mov    0x8(%ebp),%eax
  1011e3:	89 50 14             	mov    %edx,0x14(%eax)
/u/a/b/abhijith/CS537/p3b/xv6-sp20/kernel/file.c:101
  1011e6:	8b 45 08             	mov    0x8(%ebp),%eax
  1011e9:	8b 40 10             	mov    0x10(%eax),%eax
  1011ec:	83 ec 0c             	sub    $0xc,%esp
  1011ef:	50                   	push   %eax
  1011f0:	e8 b2 07 00 00       	call   1019a7 <iunlock>
  1011f5:	83 c4 10             	add    $0x10,%esp
/u/a/b/abhijith/CS537/p3b/xv6-sp20/kernel/file.c:102
  1011f8:	8b 45 f4             	mov    -0xc(%ebp),%eax
  1011fb:	eb 0d                	jmp    10120a <fileread+0xb6>
/u/a/b/abhijith/CS537/p3b/xv6-sp20/kernel/file.c:104
  1011fd:	83 ec 0c             	sub    $0xc,%esp
  101200:	68 59 7f 10 00       	push   $0x107f59
  101205:	e8 6e f3 ff ff       	call   100578 <panic>
/u/a/b/abhijith/CS537/p3b/xv6-sp20/kernel/file.c:105
  10120a:	c9                   	leave  
  10120b:	c3                   	ret    

0010120c <filewrite>:
filewrite():
/u/a/b/abhijith/CS537/p3b/xv6-sp20/kernel/file.c:110
  10120c:	55                   	push   %ebp
  10120d:	89 e5                	mov    %esp,%ebp
  10120f:	83 ec 18             	sub    $0x18,%esp
/u/a/b/abhijith/CS537/p3b/xv6-sp20/kernel/file.c:113
  101212:	8b 45 08             	mov    0x8(%ebp),%eax
  101215:	0f b6 40 09          	movzbl 0x9(%eax),%eax
  101219:	84 c0                	test   %al,%al
  10121b:	75 0a                	jne    101227 <filewrite+0x1b>
/u/a/b/abhijith/CS537/p3b/xv6-sp20/kernel/file.c:114
  10121d:	b8 ff ff ff ff       	mov    $0xffffffff,%eax
  101222:	e9 9b 00 00 00       	jmp    1012c2 <filewrite+0xb6>
/u/a/b/abhijith/CS537/p3b/xv6-sp20/kernel/file.c:115
  101227:	8b 45 08             	mov    0x8(%ebp),%eax
  10122a:	8b 00                	mov    (%eax),%eax
  10122c:	83 f8 01             	cmp    $0x1,%eax
  10122f:	75 1a                	jne    10124b <filewrite+0x3f>
/u/a/b/abhijith/CS537/p3b/xv6-sp20/kernel/file.c:116
  101231:	8b 45 08             	mov    0x8(%ebp),%eax
  101234:	8b 40 0c             	mov    0xc(%eax),%eax
  101237:	83 ec 04             	sub    $0x4,%esp
  10123a:	ff 75 10             	pushl  0x10(%ebp)
  10123d:	ff 75 0c             	pushl  0xc(%ebp)
  101240:	50                   	push   %eax
  101241:	e8 f3 28 00 00       	call   103b39 <pipewrite>
  101246:	83 c4 10             	add    $0x10,%esp
  101249:	eb 77                	jmp    1012c2 <filewrite+0xb6>
/u/a/b/abhijith/CS537/p3b/xv6-sp20/kernel/file.c:117
  10124b:	8b 45 08             	mov    0x8(%ebp),%eax
  10124e:	8b 00                	mov    (%eax),%eax
  101250:	83 f8 02             	cmp    $0x2,%eax
  101253:	75 60                	jne    1012b5 <filewrite+0xa9>
/u/a/b/abhijith/CS537/p3b/xv6-sp20/kernel/file.c:118
  101255:	8b 45 08             	mov    0x8(%ebp),%eax
  101258:	8b 40 10             	mov    0x10(%eax),%eax
  10125b:	83 ec 0c             	sub    $0xc,%esp
  10125e:	50                   	push   %eax
  10125f:	e8 eb 05 00 00       	call   10184f <ilock>
  101264:	83 c4 10             	add    $0x10,%esp
/u/a/b/abhijith/CS537/p3b/xv6-sp20/kernel/file.c:119
  101267:	8b 4d 10             	mov    0x10(%ebp),%ecx
  10126a:	8b 45 08             	mov    0x8(%ebp),%eax
  10126d:	8b 50 14             	mov    0x14(%eax),%edx
  101270:	8b 45 08             	mov    0x8(%ebp),%eax
  101273:	8b 40 10             	mov    0x10(%eax),%eax
  101276:	51                   	push   %ecx
  101277:	52                   	push   %edx
  101278:	ff 75 0c             	pushl  0xc(%ebp)
  10127b:	50                   	push   %eax
  10127c:	e8 88 0c 00 00       	call   101f09 <writei>
  101281:	83 c4 10             	add    $0x10,%esp
  101284:	89 45 f4             	mov    %eax,-0xc(%ebp)
  101287:	83 7d f4 00          	cmpl   $0x0,-0xc(%ebp)
  10128b:	7e 11                	jle    10129e <filewrite+0x92>
/u/a/b/abhijith/CS537/p3b/xv6-sp20/kernel/file.c:120
  10128d:	8b 45 08             	mov    0x8(%ebp),%eax
  101290:	8b 50 14             	mov    0x14(%eax),%edx
  101293:	8b 45 f4             	mov    -0xc(%ebp),%eax
  101296:	01 c2                	add    %eax,%edx
  101298:	8b 45 08             	mov    0x8(%ebp),%eax
  10129b:	89 50 14             	mov    %edx,0x14(%eax)
/u/a/b/abhijith/CS537/p3b/xv6-sp20/kernel/file.c:121
  10129e:	8b 45 08             	mov    0x8(%ebp),%eax
  1012a1:	8b 40 10             	mov    0x10(%eax),%eax
  1012a4:	83 ec 0c             	sub    $0xc,%esp
  1012a7:	50                   	push   %eax
  1012a8:	e8 fa 06 00 00       	call   1019a7 <iunlock>
  1012ad:	83 c4 10             	add    $0x10,%esp
/u/a/b/abhijith/CS537/p3b/xv6-sp20/kernel/file.c:122
  1012b0:	8b 45 f4             	mov    -0xc(%ebp),%eax
  1012b3:	eb 0d                	jmp    1012c2 <filewrite+0xb6>
/u/a/b/abhijith/CS537/p3b/xv6-sp20/kernel/file.c:124
  1012b5:	83 ec 0c             	sub    $0xc,%esp
  1012b8:	68 62 7f 10 00       	push   $0x107f62
  1012bd:	e8 b6 f2 ff ff       	call   100578 <panic>
/u/a/b/abhijith/CS537/p3b/xv6-sp20/kernel/file.c:125
  1012c2:	c9                   	leave  
  1012c3:	c3                   	ret    

001012c4 <readsb>:
readsb():
/u/a/b/abhijith/CS537/p3b/xv6-sp20/kernel/fs.c:30
  1012c4:	55                   	push   %ebp
  1012c5:	89 e5                	mov    %esp,%ebp
  1012c7:	83 ec 18             	sub    $0x18,%esp
/u/a/b/abhijith/CS537/p3b/xv6-sp20/kernel/fs.c:33
  1012ca:	8b 45 08             	mov    0x8(%ebp),%eax
  1012cd:	83 ec 08             	sub    $0x8,%esp
  1012d0:	6a 01                	push   $0x1
  1012d2:	50                   	push   %eax
  1012d3:	e8 08 ef ff ff       	call   1001e0 <bread>
  1012d8:	83 c4 10             	add    $0x10,%esp
  1012db:	89 45 f4             	mov    %eax,-0xc(%ebp)
/u/a/b/abhijith/CS537/p3b/xv6-sp20/kernel/fs.c:34
  1012de:	8b 45 f4             	mov    -0xc(%ebp),%eax
  1012e1:	83 c0 18             	add    $0x18,%eax
  1012e4:	83 ec 04             	sub    $0x4,%esp
  1012e7:	6a 0c                	push   $0xc
  1012e9:	50                   	push   %eax
  1012ea:	ff 75 0c             	pushl  0xc(%ebp)
  1012ed:	e8 82 38 00 00       	call   104b74 <memmove>
  1012f2:	83 c4 10             	add    $0x10,%esp
/u/a/b/abhijith/CS537/p3b/xv6-sp20/kernel/fs.c:35
  1012f5:	83 ec 0c             	sub    $0xc,%esp
  1012f8:	ff 75 f4             	pushl  -0xc(%ebp)
  1012fb:	e8 58 ef ff ff       	call   100258 <brelse>
  101300:	83 c4 10             	add    $0x10,%esp
/u/a/b/abhijith/CS537/p3b/xv6-sp20/kernel/fs.c:36
  101303:	90                   	nop
  101304:	c9                   	leave  
  101305:	c3                   	ret    

00101306 <bzero>:
bzero():
/u/a/b/abhijith/CS537/p3b/xv6-sp20/kernel/fs.c:41
  101306:	55                   	push   %ebp
  101307:	89 e5                	mov    %esp,%ebp
  101309:	83 ec 18             	sub    $0x18,%esp
/u/a/b/abhijith/CS537/p3b/xv6-sp20/kernel/fs.c:44
  10130c:	8b 55 0c             	mov    0xc(%ebp),%edx
  10130f:	8b 45 08             	mov    0x8(%ebp),%eax
  101312:	83 ec 08             	sub    $0x8,%esp
  101315:	52                   	push   %edx
  101316:	50                   	push   %eax
  101317:	e8 c4 ee ff ff       	call   1001e0 <bread>
  10131c:	83 c4 10             	add    $0x10,%esp
  10131f:	89 45 f4             	mov    %eax,-0xc(%ebp)
/u/a/b/abhijith/CS537/p3b/xv6-sp20/kernel/fs.c:45
  101322:	8b 45 f4             	mov    -0xc(%ebp),%eax
  101325:	83 c0 18             	add    $0x18,%eax
  101328:	83 ec 04             	sub    $0x4,%esp
  10132b:	68 00 02 00 00       	push   $0x200
  101330:	6a 00                	push   $0x0
  101332:	50                   	push   %eax
  101333:	e8 ca 37 00 00       	call   104b02 <memset>
  101338:	83 c4 10             	add    $0x10,%esp
/u/a/b/abhijith/CS537/p3b/xv6-sp20/kernel/fs.c:46
  10133b:	83 ec 0c             	sub    $0xc,%esp
  10133e:	ff 75 f4             	pushl  -0xc(%ebp)
  101341:	e8 d3 ee ff ff       	call   100219 <bwrite>
  101346:	83 c4 10             	add    $0x10,%esp
/u/a/b/abhijith/CS537/p3b/xv6-sp20/kernel/fs.c:47
  101349:	83 ec 0c             	sub    $0xc,%esp
  10134c:	ff 75 f4             	pushl  -0xc(%ebp)
  10134f:	e8 04 ef ff ff       	call   100258 <brelse>
  101354:	83 c4 10             	add    $0x10,%esp
/u/a/b/abhijith/CS537/p3b/xv6-sp20/kernel/fs.c:48
  101357:	90                   	nop
  101358:	c9                   	leave  
  101359:	c3                   	ret    

0010135a <balloc>:
balloc():
/u/a/b/abhijith/CS537/p3b/xv6-sp20/kernel/fs.c:55
  10135a:	55                   	push   %ebp
  10135b:	89 e5                	mov    %esp,%ebp
  10135d:	83 ec 28             	sub    $0x28,%esp
/u/a/b/abhijith/CS537/p3b/xv6-sp20/kernel/fs.c:60
  101360:	c7 45 ec 00 00 00 00 	movl   $0x0,-0x14(%ebp)
/u/a/b/abhijith/CS537/p3b/xv6-sp20/kernel/fs.c:61
  101367:	8b 45 08             	mov    0x8(%ebp),%eax
  10136a:	83 ec 08             	sub    $0x8,%esp
  10136d:	8d 55 dc             	lea    -0x24(%ebp),%edx
  101370:	52                   	push   %edx
  101371:	50                   	push   %eax
  101372:	e8 4d ff ff ff       	call   1012c4 <readsb>
  101377:	83 c4 10             	add    $0x10,%esp
/u/a/b/abhijith/CS537/p3b/xv6-sp20/kernel/fs.c:62
  10137a:	c7 45 f4 00 00 00 00 	movl   $0x0,-0xc(%ebp)
  101381:	e9 ec 00 00 00       	jmp    101472 <balloc+0x118>
/u/a/b/abhijith/CS537/p3b/xv6-sp20/kernel/fs.c:63
  101386:	8b 45 f4             	mov    -0xc(%ebp),%eax
  101389:	8d 90 ff 0f 00 00    	lea    0xfff(%eax),%edx
  10138f:	85 c0                	test   %eax,%eax
  101391:	0f 48 c2             	cmovs  %edx,%eax
  101394:	c1 f8 0c             	sar    $0xc,%eax
  101397:	89 c2                	mov    %eax,%edx
  101399:	8b 45 e4             	mov    -0x1c(%ebp),%eax
  10139c:	c1 e8 03             	shr    $0x3,%eax
  10139f:	01 d0                	add    %edx,%eax
  1013a1:	83 c0 03             	add    $0x3,%eax
  1013a4:	83 ec 08             	sub    $0x8,%esp
  1013a7:	50                   	push   %eax
  1013a8:	ff 75 08             	pushl  0x8(%ebp)
  1013ab:	e8 30 ee ff ff       	call   1001e0 <bread>
  1013b0:	83 c4 10             	add    $0x10,%esp
  1013b3:	89 45 ec             	mov    %eax,-0x14(%ebp)
/u/a/b/abhijith/CS537/p3b/xv6-sp20/kernel/fs.c:64
  1013b6:	c7 45 f0 00 00 00 00 	movl   $0x0,-0x10(%ebp)
  1013bd:	e9 8e 00 00 00       	jmp    101450 <balloc+0xf6>
/u/a/b/abhijith/CS537/p3b/xv6-sp20/kernel/fs.c:65
  1013c2:	8b 45 f0             	mov    -0x10(%ebp),%eax
  1013c5:	99                   	cltd   
  1013c6:	c1 ea 1d             	shr    $0x1d,%edx
  1013c9:	01 d0                	add    %edx,%eax
  1013cb:	83 e0 07             	and    $0x7,%eax
  1013ce:	29 d0                	sub    %edx,%eax
  1013d0:	ba 01 00 00 00       	mov    $0x1,%edx
  1013d5:	89 c1                	mov    %eax,%ecx
  1013d7:	d3 e2                	shl    %cl,%edx
  1013d9:	89 d0                	mov    %edx,%eax
  1013db:	89 45 e8             	mov    %eax,-0x18(%ebp)
/u/a/b/abhijith/CS537/p3b/xv6-sp20/kernel/fs.c:66
  1013de:	8b 45 f0             	mov    -0x10(%ebp),%eax
  1013e1:	8d 50 07             	lea    0x7(%eax),%edx
  1013e4:	85 c0                	test   %eax,%eax
  1013e6:	0f 48 c2             	cmovs  %edx,%eax
  1013e9:	c1 f8 03             	sar    $0x3,%eax
  1013ec:	89 c2                	mov    %eax,%edx
  1013ee:	8b 45 ec             	mov    -0x14(%ebp),%eax
  1013f1:	0f b6 44 10 18       	movzbl 0x18(%eax,%edx,1),%eax
  1013f6:	0f b6 c0             	movzbl %al,%eax
  1013f9:	23 45 e8             	and    -0x18(%ebp),%eax
  1013fc:	85 c0                	test   %eax,%eax
  1013fe:	75 4c                	jne    10144c <balloc+0xf2>
/u/a/b/abhijith/CS537/p3b/xv6-sp20/kernel/fs.c:67
  101400:	8b 45 f0             	mov    -0x10(%ebp),%eax
  101403:	8d 50 07             	lea    0x7(%eax),%edx
  101406:	85 c0                	test   %eax,%eax
  101408:	0f 48 c2             	cmovs  %edx,%eax
  10140b:	c1 f8 03             	sar    $0x3,%eax
  10140e:	8b 55 ec             	mov    -0x14(%ebp),%edx
  101411:	0f b6 54 02 18       	movzbl 0x18(%edx,%eax,1),%edx
  101416:	89 d1                	mov    %edx,%ecx
  101418:	8b 55 e8             	mov    -0x18(%ebp),%edx
  10141b:	09 ca                	or     %ecx,%edx
  10141d:	89 d1                	mov    %edx,%ecx
  10141f:	8b 55 ec             	mov    -0x14(%ebp),%edx
  101422:	88 4c 02 18          	mov    %cl,0x18(%edx,%eax,1)
/u/a/b/abhijith/CS537/p3b/xv6-sp20/kernel/fs.c:68
  101426:	83 ec 0c             	sub    $0xc,%esp
  101429:	ff 75 ec             	pushl  -0x14(%ebp)
  10142c:	e8 e8 ed ff ff       	call   100219 <bwrite>
  101431:	83 c4 10             	add    $0x10,%esp
/u/a/b/abhijith/CS537/p3b/xv6-sp20/kernel/fs.c:69
  101434:	83 ec 0c             	sub    $0xc,%esp
  101437:	ff 75 ec             	pushl  -0x14(%ebp)
  10143a:	e8 19 ee ff ff       	call   100258 <brelse>
  10143f:	83 c4 10             	add    $0x10,%esp
/u/a/b/abhijith/CS537/p3b/xv6-sp20/kernel/fs.c:70
  101442:	8b 55 f4             	mov    -0xc(%ebp),%edx
  101445:	8b 45 f0             	mov    -0x10(%ebp),%eax
  101448:	01 d0                	add    %edx,%eax
  10144a:	eb 41                	jmp    10148d <balloc+0x133>
/u/a/b/abhijith/CS537/p3b/xv6-sp20/kernel/fs.c:64 (discriminator 2)
  10144c:	83 45 f0 01          	addl   $0x1,-0x10(%ebp)
/u/a/b/abhijith/CS537/p3b/xv6-sp20/kernel/fs.c:64 (discriminator 1)
  101450:	81 7d f0 ff 0f 00 00 	cmpl   $0xfff,-0x10(%ebp)
  101457:	0f 8e 65 ff ff ff    	jle    1013c2 <balloc+0x68>
/u/a/b/abhijith/CS537/p3b/xv6-sp20/kernel/fs.c:73 (discriminator 2)
  10145d:	83 ec 0c             	sub    $0xc,%esp
  101460:	ff 75 ec             	pushl  -0x14(%ebp)
  101463:	e8 f0 ed ff ff       	call   100258 <brelse>
  101468:	83 c4 10             	add    $0x10,%esp
/u/a/b/abhijith/CS537/p3b/xv6-sp20/kernel/fs.c:62 (discriminator 2)
  10146b:	81 45 f4 00 10 00 00 	addl   $0x1000,-0xc(%ebp)
/u/a/b/abhijith/CS537/p3b/xv6-sp20/kernel/fs.c:62 (discriminator 1)
  101472:	8b 55 dc             	mov    -0x24(%ebp),%edx
  101475:	8b 45 f4             	mov    -0xc(%ebp),%eax
  101478:	39 c2                	cmp    %eax,%edx
  10147a:	0f 87 06 ff ff ff    	ja     101386 <balloc+0x2c>
/u/a/b/abhijith/CS537/p3b/xv6-sp20/kernel/fs.c:75
  101480:	83 ec 0c             	sub    $0xc,%esp
  101483:	68 6c 7f 10 00       	push   $0x107f6c
  101488:	e8 eb f0 ff ff       	call   100578 <panic>
/u/a/b/abhijith/CS537/p3b/xv6-sp20/kernel/fs.c:76
  10148d:	c9                   	leave  
  10148e:	c3                   	ret    

0010148f <bfree>:
bfree():
/u/a/b/abhijith/CS537/p3b/xv6-sp20/kernel/fs.c:81
  10148f:	55                   	push   %ebp
  101490:	89 e5                	mov    %esp,%ebp
  101492:	83 ec 28             	sub    $0x28,%esp
/u/a/b/abhijith/CS537/p3b/xv6-sp20/kernel/fs.c:86
  101495:	8b 45 0c             	mov    0xc(%ebp),%eax
  101498:	83 ec 08             	sub    $0x8,%esp
  10149b:	50                   	push   %eax
  10149c:	ff 75 08             	pushl  0x8(%ebp)
  10149f:	e8 62 fe ff ff       	call   101306 <bzero>
  1014a4:	83 c4 10             	add    $0x10,%esp
/u/a/b/abhijith/CS537/p3b/xv6-sp20/kernel/fs.c:88
  1014a7:	83 ec 08             	sub    $0x8,%esp
  1014aa:	8d 45 e0             	lea    -0x20(%ebp),%eax
  1014ad:	50                   	push   %eax
  1014ae:	ff 75 08             	pushl  0x8(%ebp)
  1014b1:	e8 0e fe ff ff       	call   1012c4 <readsb>
  1014b6:	83 c4 10             	add    $0x10,%esp
/u/a/b/abhijith/CS537/p3b/xv6-sp20/kernel/fs.c:89
  1014b9:	8b 45 0c             	mov    0xc(%ebp),%eax
  1014bc:	c1 e8 0c             	shr    $0xc,%eax
  1014bf:	89 c2                	mov    %eax,%edx
  1014c1:	8b 45 e8             	mov    -0x18(%ebp),%eax
  1014c4:	c1 e8 03             	shr    $0x3,%eax
  1014c7:	01 d0                	add    %edx,%eax
  1014c9:	8d 50 03             	lea    0x3(%eax),%edx
  1014cc:	8b 45 08             	mov    0x8(%ebp),%eax
  1014cf:	83 ec 08             	sub    $0x8,%esp
  1014d2:	52                   	push   %edx
  1014d3:	50                   	push   %eax
  1014d4:	e8 07 ed ff ff       	call   1001e0 <bread>
  1014d9:	83 c4 10             	add    $0x10,%esp
  1014dc:	89 45 f4             	mov    %eax,-0xc(%ebp)
/u/a/b/abhijith/CS537/p3b/xv6-sp20/kernel/fs.c:90
  1014df:	8b 45 0c             	mov    0xc(%ebp),%eax
  1014e2:	25 ff 0f 00 00       	and    $0xfff,%eax
  1014e7:	89 45 f0             	mov    %eax,-0x10(%ebp)
/u/a/b/abhijith/CS537/p3b/xv6-sp20/kernel/fs.c:91
  1014ea:	8b 45 f0             	mov    -0x10(%ebp),%eax
  1014ed:	99                   	cltd   
  1014ee:	c1 ea 1d             	shr    $0x1d,%edx
  1014f1:	01 d0                	add    %edx,%eax
  1014f3:	83 e0 07             	and    $0x7,%eax
  1014f6:	29 d0                	sub    %edx,%eax
  1014f8:	ba 01 00 00 00       	mov    $0x1,%edx
  1014fd:	89 c1                	mov    %eax,%ecx
  1014ff:	d3 e2                	shl    %cl,%edx
  101501:	89 d0                	mov    %edx,%eax
  101503:	89 45 ec             	mov    %eax,-0x14(%ebp)
/u/a/b/abhijith/CS537/p3b/xv6-sp20/kernel/fs.c:92
  101506:	8b 45 f0             	mov    -0x10(%ebp),%eax
  101509:	8d 50 07             	lea    0x7(%eax),%edx
  10150c:	85 c0                	test   %eax,%eax
  10150e:	0f 48 c2             	cmovs  %edx,%eax
  101511:	c1 f8 03             	sar    $0x3,%eax
  101514:	89 c2                	mov    %eax,%edx
  101516:	8b 45 f4             	mov    -0xc(%ebp),%eax
  101519:	0f b6 44 10 18       	movzbl 0x18(%eax,%edx,1),%eax
  10151e:	0f b6 c0             	movzbl %al,%eax
  101521:	23 45 ec             	and    -0x14(%ebp),%eax
  101524:	85 c0                	test   %eax,%eax
  101526:	75 0d                	jne    101535 <bfree+0xa6>
/u/a/b/abhijith/CS537/p3b/xv6-sp20/kernel/fs.c:93
  101528:	83 ec 0c             	sub    $0xc,%esp
  10152b:	68 82 7f 10 00       	push   $0x107f82
  101530:	e8 43 f0 ff ff       	call   100578 <panic>
/u/a/b/abhijith/CS537/p3b/xv6-sp20/kernel/fs.c:94
  101535:	8b 45 f0             	mov    -0x10(%ebp),%eax
  101538:	8d 50 07             	lea    0x7(%eax),%edx
  10153b:	85 c0                	test   %eax,%eax
  10153d:	0f 48 c2             	cmovs  %edx,%eax
  101540:	c1 f8 03             	sar    $0x3,%eax
  101543:	8b 55 f4             	mov    -0xc(%ebp),%edx
  101546:	0f b6 54 02 18       	movzbl 0x18(%edx,%eax,1),%edx
  10154b:	89 d1                	mov    %edx,%ecx
  10154d:	8b 55 ec             	mov    -0x14(%ebp),%edx
  101550:	f7 d2                	not    %edx
  101552:	21 ca                	and    %ecx,%edx
  101554:	89 d1                	mov    %edx,%ecx
  101556:	8b 55 f4             	mov    -0xc(%ebp),%edx
  101559:	88 4c 02 18          	mov    %cl,0x18(%edx,%eax,1)
/u/a/b/abhijith/CS537/p3b/xv6-sp20/kernel/fs.c:95
  10155d:	83 ec 0c             	sub    $0xc,%esp
  101560:	ff 75 f4             	pushl  -0xc(%ebp)
  101563:	e8 b1 ec ff ff       	call   100219 <bwrite>
  101568:	83 c4 10             	add    $0x10,%esp
/u/a/b/abhijith/CS537/p3b/xv6-sp20/kernel/fs.c:96
  10156b:	83 ec 0c             	sub    $0xc,%esp
  10156e:	ff 75 f4             	pushl  -0xc(%ebp)
  101571:	e8 e2 ec ff ff       	call   100258 <brelse>
  101576:	83 c4 10             	add    $0x10,%esp
/u/a/b/abhijith/CS537/p3b/xv6-sp20/kernel/fs.c:97
  101579:	90                   	nop
  10157a:	c9                   	leave  
  10157b:	c3                   	ret    

0010157c <iinit>:
iinit():
/u/a/b/abhijith/CS537/p3b/xv6-sp20/kernel/fs.c:139
  10157c:	55                   	push   %ebp
  10157d:	89 e5                	mov    %esp,%ebp
  10157f:	83 ec 08             	sub    $0x8,%esp
/u/a/b/abhijith/CS537/p3b/xv6-sp20/kernel/fs.c:140
  101582:	83 ec 08             	sub    $0x8,%esp
  101585:	68 95 7f 10 00       	push   $0x107f95
  10158a:	68 40 f7 10 00       	push   $0x10f740
  10158f:	e8 0f 33 00 00       	call   1048a3 <initlock>
  101594:	83 c4 10             	add    $0x10,%esp
/u/a/b/abhijith/CS537/p3b/xv6-sp20/kernel/fs.c:141
  101597:	90                   	nop
  101598:	c9                   	leave  
  101599:	c3                   	ret    

0010159a <ialloc>:
ialloc():
/u/a/b/abhijith/CS537/p3b/xv6-sp20/kernel/fs.c:148
  10159a:	55                   	push   %ebp
  10159b:	89 e5                	mov    %esp,%ebp
  10159d:	83 ec 38             	sub    $0x38,%esp
  1015a0:	8b 45 0c             	mov    0xc(%ebp),%eax
  1015a3:	66 89 45 d4          	mov    %ax,-0x2c(%ebp)
/u/a/b/abhijith/CS537/p3b/xv6-sp20/kernel/fs.c:154
  1015a7:	8b 45 08             	mov    0x8(%ebp),%eax
  1015aa:	83 ec 08             	sub    $0x8,%esp
  1015ad:	8d 55 e0             	lea    -0x20(%ebp),%edx
  1015b0:	52                   	push   %edx
  1015b1:	50                   	push   %eax
  1015b2:	e8 0d fd ff ff       	call   1012c4 <readsb>
  1015b7:	83 c4 10             	add    $0x10,%esp
/u/a/b/abhijith/CS537/p3b/xv6-sp20/kernel/fs.c:155
  1015ba:	c7 45 f4 01 00 00 00 	movl   $0x1,-0xc(%ebp)
  1015c1:	e9 98 00 00 00       	jmp    10165e <ialloc+0xc4>
/u/a/b/abhijith/CS537/p3b/xv6-sp20/kernel/fs.c:156
  1015c6:	8b 45 f4             	mov    -0xc(%ebp),%eax
  1015c9:	c1 e8 03             	shr    $0x3,%eax
  1015cc:	83 c0 02             	add    $0x2,%eax
  1015cf:	83 ec 08             	sub    $0x8,%esp
  1015d2:	50                   	push   %eax
  1015d3:	ff 75 08             	pushl  0x8(%ebp)
  1015d6:	e8 05 ec ff ff       	call   1001e0 <bread>
  1015db:	83 c4 10             	add    $0x10,%esp
  1015de:	89 45 f0             	mov    %eax,-0x10(%ebp)
/u/a/b/abhijith/CS537/p3b/xv6-sp20/kernel/fs.c:157
  1015e1:	8b 45 f0             	mov    -0x10(%ebp),%eax
  1015e4:	8d 50 18             	lea    0x18(%eax),%edx
  1015e7:	8b 45 f4             	mov    -0xc(%ebp),%eax
  1015ea:	83 e0 07             	and    $0x7,%eax
  1015ed:	c1 e0 06             	shl    $0x6,%eax
  1015f0:	01 d0                	add    %edx,%eax
  1015f2:	89 45 ec             	mov    %eax,-0x14(%ebp)
/u/a/b/abhijith/CS537/p3b/xv6-sp20/kernel/fs.c:158
  1015f5:	8b 45 ec             	mov    -0x14(%ebp),%eax
  1015f8:	0f b7 00             	movzwl (%eax),%eax
  1015fb:	66 85 c0             	test   %ax,%ax
  1015fe:	75 4c                	jne    10164c <ialloc+0xb2>
/u/a/b/abhijith/CS537/p3b/xv6-sp20/kernel/fs.c:159
  101600:	83 ec 04             	sub    $0x4,%esp
  101603:	6a 40                	push   $0x40
  101605:	6a 00                	push   $0x0
  101607:	ff 75 ec             	pushl  -0x14(%ebp)
  10160a:	e8 f3 34 00 00       	call   104b02 <memset>
  10160f:	83 c4 10             	add    $0x10,%esp
/u/a/b/abhijith/CS537/p3b/xv6-sp20/kernel/fs.c:160
  101612:	8b 45 ec             	mov    -0x14(%ebp),%eax
  101615:	0f b7 55 d4          	movzwl -0x2c(%ebp),%edx
  101619:	66 89 10             	mov    %dx,(%eax)
/u/a/b/abhijith/CS537/p3b/xv6-sp20/kernel/fs.c:161
  10161c:	83 ec 0c             	sub    $0xc,%esp
  10161f:	ff 75 f0             	pushl  -0x10(%ebp)
  101622:	e8 f2 eb ff ff       	call   100219 <bwrite>
  101627:	83 c4 10             	add    $0x10,%esp
/u/a/b/abhijith/CS537/p3b/xv6-sp20/kernel/fs.c:162
  10162a:	83 ec 0c             	sub    $0xc,%esp
  10162d:	ff 75 f0             	pushl  -0x10(%ebp)
  101630:	e8 23 ec ff ff       	call   100258 <brelse>
  101635:	83 c4 10             	add    $0x10,%esp
/u/a/b/abhijith/CS537/p3b/xv6-sp20/kernel/fs.c:163
  101638:	8b 45 f4             	mov    -0xc(%ebp),%eax
  10163b:	83 ec 08             	sub    $0x8,%esp
  10163e:	50                   	push   %eax
  10163f:	ff 75 08             	pushl  0x8(%ebp)
  101642:	e8 ef 00 00 00       	call   101736 <iget>
  101647:	83 c4 10             	add    $0x10,%esp
  10164a:	eb 2d                	jmp    101679 <ialloc+0xdf>
/u/a/b/abhijith/CS537/p3b/xv6-sp20/kernel/fs.c:165 (discriminator 2)
  10164c:	83 ec 0c             	sub    $0xc,%esp
  10164f:	ff 75 f0             	pushl  -0x10(%ebp)
  101652:	e8 01 ec ff ff       	call   100258 <brelse>
  101657:	83 c4 10             	add    $0x10,%esp
/u/a/b/abhijith/CS537/p3b/xv6-sp20/kernel/fs.c:155 (discriminator 2)
  10165a:	83 45 f4 01          	addl   $0x1,-0xc(%ebp)
/u/a/b/abhijith/CS537/p3b/xv6-sp20/kernel/fs.c:155 (discriminator 1)
  10165e:	8b 55 e8             	mov    -0x18(%ebp),%edx
  101661:	8b 45 f4             	mov    -0xc(%ebp),%eax
  101664:	39 c2                	cmp    %eax,%edx
  101666:	0f 87 5a ff ff ff    	ja     1015c6 <ialloc+0x2c>
/u/a/b/abhijith/CS537/p3b/xv6-sp20/kernel/fs.c:167
  10166c:	83 ec 0c             	sub    $0xc,%esp
  10166f:	68 9c 7f 10 00       	push   $0x107f9c
  101674:	e8 ff ee ff ff       	call   100578 <panic>
/u/a/b/abhijith/CS537/p3b/xv6-sp20/kernel/fs.c:168
  101679:	c9                   	leave  
  10167a:	c3                   	ret    

0010167b <iupdate>:
iupdate():
/u/a/b/abhijith/CS537/p3b/xv6-sp20/kernel/fs.c:173
  10167b:	55                   	push   %ebp
  10167c:	89 e5                	mov    %esp,%ebp
  10167e:	83 ec 18             	sub    $0x18,%esp
/u/a/b/abhijith/CS537/p3b/xv6-sp20/kernel/fs.c:177
  101681:	8b 45 08             	mov    0x8(%ebp),%eax
  101684:	8b 40 04             	mov    0x4(%eax),%eax
  101687:	c1 e8 03             	shr    $0x3,%eax
  10168a:	8d 50 02             	lea    0x2(%eax),%edx
  10168d:	8b 45 08             	mov    0x8(%ebp),%eax
  101690:	8b 00                	mov    (%eax),%eax
  101692:	83 ec 08             	sub    $0x8,%esp
  101695:	52                   	push   %edx
  101696:	50                   	push   %eax
  101697:	e8 44 eb ff ff       	call   1001e0 <bread>
  10169c:	83 c4 10             	add    $0x10,%esp
  10169f:	89 45 f4             	mov    %eax,-0xc(%ebp)
/u/a/b/abhijith/CS537/p3b/xv6-sp20/kernel/fs.c:178
  1016a2:	8b 45 f4             	mov    -0xc(%ebp),%eax
  1016a5:	8d 50 18             	lea    0x18(%eax),%edx
  1016a8:	8b 45 08             	mov    0x8(%ebp),%eax
  1016ab:	8b 40 04             	mov    0x4(%eax),%eax
  1016ae:	83 e0 07             	and    $0x7,%eax
  1016b1:	c1 e0 06             	shl    $0x6,%eax
  1016b4:	01 d0                	add    %edx,%eax
  1016b6:	89 45 f0             	mov    %eax,-0x10(%ebp)
/u/a/b/abhijith/CS537/p3b/xv6-sp20/kernel/fs.c:179
  1016b9:	8b 45 08             	mov    0x8(%ebp),%eax
  1016bc:	0f b7 50 10          	movzwl 0x10(%eax),%edx
  1016c0:	8b 45 f0             	mov    -0x10(%ebp),%eax
  1016c3:	66 89 10             	mov    %dx,(%eax)
/u/a/b/abhijith/CS537/p3b/xv6-sp20/kernel/fs.c:180
  1016c6:	8b 45 08             	mov    0x8(%ebp),%eax
  1016c9:	0f b7 50 12          	movzwl 0x12(%eax),%edx
  1016cd:	8b 45 f0             	mov    -0x10(%ebp),%eax
  1016d0:	66 89 50 02          	mov    %dx,0x2(%eax)
/u/a/b/abhijith/CS537/p3b/xv6-sp20/kernel/fs.c:181
  1016d4:	8b 45 08             	mov    0x8(%ebp),%eax
  1016d7:	0f b7 50 14          	movzwl 0x14(%eax),%edx
  1016db:	8b 45 f0             	mov    -0x10(%ebp),%eax
  1016de:	66 89 50 04          	mov    %dx,0x4(%eax)
/u/a/b/abhijith/CS537/p3b/xv6-sp20/kernel/fs.c:182
  1016e2:	8b 45 08             	mov    0x8(%ebp),%eax
  1016e5:	0f b7 50 16          	movzwl 0x16(%eax),%edx
  1016e9:	8b 45 f0             	mov    -0x10(%ebp),%eax
  1016ec:	66 89 50 06          	mov    %dx,0x6(%eax)
/u/a/b/abhijith/CS537/p3b/xv6-sp20/kernel/fs.c:183
  1016f0:	8b 45 08             	mov    0x8(%ebp),%eax
  1016f3:	8b 50 18             	mov    0x18(%eax),%edx
  1016f6:	8b 45 f0             	mov    -0x10(%ebp),%eax
  1016f9:	89 50 08             	mov    %edx,0x8(%eax)
/u/a/b/abhijith/CS537/p3b/xv6-sp20/kernel/fs.c:184
  1016fc:	8b 45 08             	mov    0x8(%ebp),%eax
  1016ff:	8d 50 1c             	lea    0x1c(%eax),%edx
  101702:	8b 45 f0             	mov    -0x10(%ebp),%eax
  101705:	83 c0 0c             	add    $0xc,%eax
  101708:	83 ec 04             	sub    $0x4,%esp
  10170b:	6a 34                	push   $0x34
  10170d:	52                   	push   %edx
  10170e:	50                   	push   %eax
  10170f:	e8 60 34 00 00       	call   104b74 <memmove>
  101714:	83 c4 10             	add    $0x10,%esp
/u/a/b/abhijith/CS537/p3b/xv6-sp20/kernel/fs.c:185
  101717:	83 ec 0c             	sub    $0xc,%esp
  10171a:	ff 75 f4             	pushl  -0xc(%ebp)
  10171d:	e8 f7 ea ff ff       	call   100219 <bwrite>
  101722:	83 c4 10             	add    $0x10,%esp
/u/a/b/abhijith/CS537/p3b/xv6-sp20/kernel/fs.c:186
  101725:	83 ec 0c             	sub    $0xc,%esp
  101728:	ff 75 f4             	pushl  -0xc(%ebp)
  10172b:	e8 28 eb ff ff       	call   100258 <brelse>
  101730:	83 c4 10             	add    $0x10,%esp
/u/a/b/abhijith/CS537/p3b/xv6-sp20/kernel/fs.c:187
  101733:	90                   	nop
  101734:	c9                   	leave  
  101735:	c3                   	ret    

00101736 <iget>:
iget():
/u/a/b/abhijith/CS537/p3b/xv6-sp20/kernel/fs.c:193
  101736:	55                   	push   %ebp
  101737:	89 e5                	mov    %esp,%ebp
  101739:	83 ec 18             	sub    $0x18,%esp
/u/a/b/abhijith/CS537/p3b/xv6-sp20/kernel/fs.c:196
  10173c:	83 ec 0c             	sub    $0xc,%esp
  10173f:	68 40 f7 10 00       	push   $0x10f740
  101744:	e8 7c 31 00 00       	call   1048c5 <acquire>
  101749:	83 c4 10             	add    $0x10,%esp
/u/a/b/abhijith/CS537/p3b/xv6-sp20/kernel/fs.c:199
  10174c:	c7 45 f0 00 00 00 00 	movl   $0x0,-0x10(%ebp)
/u/a/b/abhijith/CS537/p3b/xv6-sp20/kernel/fs.c:200
  101753:	c7 45 f4 74 f7 10 00 	movl   $0x10f774,-0xc(%ebp)
  10175a:	eb 5d                	jmp    1017b9 <iget+0x83>
/u/a/b/abhijith/CS537/p3b/xv6-sp20/kernel/fs.c:201
  10175c:	8b 45 f4             	mov    -0xc(%ebp),%eax
  10175f:	8b 40 08             	mov    0x8(%eax),%eax
  101762:	85 c0                	test   %eax,%eax
  101764:	7e 39                	jle    10179f <iget+0x69>
/u/a/b/abhijith/CS537/p3b/xv6-sp20/kernel/fs.c:201 (discriminator 1)
  101766:	8b 45 f4             	mov    -0xc(%ebp),%eax
  101769:	8b 00                	mov    (%eax),%eax
  10176b:	39 45 08             	cmp    %eax,0x8(%ebp)
  10176e:	75 2f                	jne    10179f <iget+0x69>
/u/a/b/abhijith/CS537/p3b/xv6-sp20/kernel/fs.c:201 (discriminator 2)
  101770:	8b 45 f4             	mov    -0xc(%ebp),%eax
  101773:	8b 40 04             	mov    0x4(%eax),%eax
  101776:	39 45 0c             	cmp    %eax,0xc(%ebp)
  101779:	75 24                	jne    10179f <iget+0x69>
/u/a/b/abhijith/CS537/p3b/xv6-sp20/kernel/fs.c:202
  10177b:	8b 45 f4             	mov    -0xc(%ebp),%eax
  10177e:	8b 40 08             	mov    0x8(%eax),%eax
  101781:	8d 50 01             	lea    0x1(%eax),%edx
  101784:	8b 45 f4             	mov    -0xc(%ebp),%eax
  101787:	89 50 08             	mov    %edx,0x8(%eax)
/u/a/b/abhijith/CS537/p3b/xv6-sp20/kernel/fs.c:203
  10178a:	83 ec 0c             	sub    $0xc,%esp
  10178d:	68 40 f7 10 00       	push   $0x10f740
  101792:	e8 95 31 00 00       	call   10492c <release>
  101797:	83 c4 10             	add    $0x10,%esp
/u/a/b/abhijith/CS537/p3b/xv6-sp20/kernel/fs.c:204
  10179a:	8b 45 f4             	mov    -0xc(%ebp),%eax
  10179d:	eb 74                	jmp    101813 <iget+0xdd>
/u/a/b/abhijith/CS537/p3b/xv6-sp20/kernel/fs.c:206
  10179f:	83 7d f0 00          	cmpl   $0x0,-0x10(%ebp)
  1017a3:	75 10                	jne    1017b5 <iget+0x7f>
/u/a/b/abhijith/CS537/p3b/xv6-sp20/kernel/fs.c:206 (discriminator 1)
  1017a5:	8b 45 f4             	mov    -0xc(%ebp),%eax
  1017a8:	8b 40 08             	mov    0x8(%eax),%eax
  1017ab:	85 c0                	test   %eax,%eax
  1017ad:	75 06                	jne    1017b5 <iget+0x7f>
/u/a/b/abhijith/CS537/p3b/xv6-sp20/kernel/fs.c:207
  1017af:	8b 45 f4             	mov    -0xc(%ebp),%eax
  1017b2:	89 45 f0             	mov    %eax,-0x10(%ebp)
/u/a/b/abhijith/CS537/p3b/xv6-sp20/kernel/fs.c:200 (discriminator 2)
  1017b5:	83 45 f4 50          	addl   $0x50,-0xc(%ebp)
/u/a/b/abhijith/CS537/p3b/xv6-sp20/kernel/fs.c:200 (discriminator 1)
  1017b9:	81 7d f4 14 07 11 00 	cmpl   $0x110714,-0xc(%ebp)
  1017c0:	72 9a                	jb     10175c <iget+0x26>
/u/a/b/abhijith/CS537/p3b/xv6-sp20/kernel/fs.c:211
  1017c2:	83 7d f0 00          	cmpl   $0x0,-0x10(%ebp)
  1017c6:	75 0d                	jne    1017d5 <iget+0x9f>
/u/a/b/abhijith/CS537/p3b/xv6-sp20/kernel/fs.c:212
  1017c8:	83 ec 0c             	sub    $0xc,%esp
  1017cb:	68 ae 7f 10 00       	push   $0x107fae
  1017d0:	e8 a3 ed ff ff       	call   100578 <panic>
/u/a/b/abhijith/CS537/p3b/xv6-sp20/kernel/fs.c:214
  1017d5:	8b 45 f0             	mov    -0x10(%ebp),%eax
  1017d8:	89 45 f4             	mov    %eax,-0xc(%ebp)
/u/a/b/abhijith/CS537/p3b/xv6-sp20/kernel/fs.c:215
  1017db:	8b 45 f4             	mov    -0xc(%ebp),%eax
  1017de:	8b 55 08             	mov    0x8(%ebp),%edx
  1017e1:	89 10                	mov    %edx,(%eax)
/u/a/b/abhijith/CS537/p3b/xv6-sp20/kernel/fs.c:216
  1017e3:	8b 45 f4             	mov    -0xc(%ebp),%eax
  1017e6:	8b 55 0c             	mov    0xc(%ebp),%edx
  1017e9:	89 50 04             	mov    %edx,0x4(%eax)
/u/a/b/abhijith/CS537/p3b/xv6-sp20/kernel/fs.c:217
  1017ec:	8b 45 f4             	mov    -0xc(%ebp),%eax
  1017ef:	c7 40 08 01 00 00 00 	movl   $0x1,0x8(%eax)
/u/a/b/abhijith/CS537/p3b/xv6-sp20/kernel/fs.c:218
  1017f6:	8b 45 f4             	mov    -0xc(%ebp),%eax
  1017f9:	c7 40 0c 00 00 00 00 	movl   $0x0,0xc(%eax)
/u/a/b/abhijith/CS537/p3b/xv6-sp20/kernel/fs.c:219
  101800:	83 ec 0c             	sub    $0xc,%esp
  101803:	68 40 f7 10 00       	push   $0x10f740
  101808:	e8 1f 31 00 00       	call   10492c <release>
  10180d:	83 c4 10             	add    $0x10,%esp
/u/a/b/abhijith/CS537/p3b/xv6-sp20/kernel/fs.c:221
  101810:	8b 45 f4             	mov    -0xc(%ebp),%eax
/u/a/b/abhijith/CS537/p3b/xv6-sp20/kernel/fs.c:222
  101813:	c9                   	leave  
  101814:	c3                   	ret    

00101815 <idup>:
idup():
/u/a/b/abhijith/CS537/p3b/xv6-sp20/kernel/fs.c:228
  101815:	55                   	push   %ebp
  101816:	89 e5                	mov    %esp,%ebp
  101818:	83 ec 08             	sub    $0x8,%esp
/u/a/b/abhijith/CS537/p3b/xv6-sp20/kernel/fs.c:229
  10181b:	83 ec 0c             	sub    $0xc,%esp
  10181e:	68 40 f7 10 00       	push   $0x10f740
  101823:	e8 9d 30 00 00       	call   1048c5 <acquire>
  101828:	83 c4 10             	add    $0x10,%esp
/u/a/b/abhijith/CS537/p3b/xv6-sp20/kernel/fs.c:230
  10182b:	8b 45 08             	mov    0x8(%ebp),%eax
  10182e:	8b 40 08             	mov    0x8(%eax),%eax
  101831:	8d 50 01             	lea    0x1(%eax),%edx
  101834:	8b 45 08             	mov    0x8(%ebp),%eax
  101837:	89 50 08             	mov    %edx,0x8(%eax)
/u/a/b/abhijith/CS537/p3b/xv6-sp20/kernel/fs.c:231
  10183a:	83 ec 0c             	sub    $0xc,%esp
  10183d:	68 40 f7 10 00       	push   $0x10f740
  101842:	e8 e5 30 00 00       	call   10492c <release>
  101847:	83 c4 10             	add    $0x10,%esp
/u/a/b/abhijith/CS537/p3b/xv6-sp20/kernel/fs.c:232
  10184a:	8b 45 08             	mov    0x8(%ebp),%eax
/u/a/b/abhijith/CS537/p3b/xv6-sp20/kernel/fs.c:233
  10184d:	c9                   	leave  
  10184e:	c3                   	ret    

0010184f <ilock>:
ilock():
/u/a/b/abhijith/CS537/p3b/xv6-sp20/kernel/fs.c:238
  10184f:	55                   	push   %ebp
  101850:	89 e5                	mov    %esp,%ebp
  101852:	83 ec 18             	sub    $0x18,%esp
/u/a/b/abhijith/CS537/p3b/xv6-sp20/kernel/fs.c:242
  101855:	83 7d 08 00          	cmpl   $0x0,0x8(%ebp)
  101859:	74 0a                	je     101865 <ilock+0x16>
/u/a/b/abhijith/CS537/p3b/xv6-sp20/kernel/fs.c:242 (discriminator 1)
  10185b:	8b 45 08             	mov    0x8(%ebp),%eax
  10185e:	8b 40 08             	mov    0x8(%eax),%eax
  101861:	85 c0                	test   %eax,%eax
  101863:	7f 0d                	jg     101872 <ilock+0x23>
/u/a/b/abhijith/CS537/p3b/xv6-sp20/kernel/fs.c:243
  101865:	83 ec 0c             	sub    $0xc,%esp
  101868:	68 be 7f 10 00       	push   $0x107fbe
  10186d:	e8 06 ed ff ff       	call   100578 <panic>
/u/a/b/abhijith/CS537/p3b/xv6-sp20/kernel/fs.c:245
  101872:	83 ec 0c             	sub    $0xc,%esp
  101875:	68 40 f7 10 00       	push   $0x10f740
  10187a:	e8 46 30 00 00       	call   1048c5 <acquire>
  10187f:	83 c4 10             	add    $0x10,%esp
/u/a/b/abhijith/CS537/p3b/xv6-sp20/kernel/fs.c:246
  101882:	eb 13                	jmp    101897 <ilock+0x48>
/u/a/b/abhijith/CS537/p3b/xv6-sp20/kernel/fs.c:247
  101884:	83 ec 08             	sub    $0x8,%esp
  101887:	68 40 f7 10 00       	push   $0x10f740
  10188c:	ff 75 08             	pushl  0x8(%ebp)
  10188f:	e8 38 2d 00 00       	call   1045cc <sleep>
  101894:	83 c4 10             	add    $0x10,%esp
/u/a/b/abhijith/CS537/p3b/xv6-sp20/kernel/fs.c:246
  101897:	8b 45 08             	mov    0x8(%ebp),%eax
  10189a:	8b 40 0c             	mov    0xc(%eax),%eax
  10189d:	83 e0 01             	and    $0x1,%eax
  1018a0:	85 c0                	test   %eax,%eax
  1018a2:	75 e0                	jne    101884 <ilock+0x35>
/u/a/b/abhijith/CS537/p3b/xv6-sp20/kernel/fs.c:248
  1018a4:	8b 45 08             	mov    0x8(%ebp),%eax
  1018a7:	8b 40 0c             	mov    0xc(%eax),%eax
  1018aa:	83 c8 01             	or     $0x1,%eax
  1018ad:	89 c2                	mov    %eax,%edx
  1018af:	8b 45 08             	mov    0x8(%ebp),%eax
  1018b2:	89 50 0c             	mov    %edx,0xc(%eax)
/u/a/b/abhijith/CS537/p3b/xv6-sp20/kernel/fs.c:249
  1018b5:	83 ec 0c             	sub    $0xc,%esp
  1018b8:	68 40 f7 10 00       	push   $0x10f740
  1018bd:	e8 6a 30 00 00       	call   10492c <release>
  1018c2:	83 c4 10             	add    $0x10,%esp
/u/a/b/abhijith/CS537/p3b/xv6-sp20/kernel/fs.c:251
  1018c5:	8b 45 08             	mov    0x8(%ebp),%eax
  1018c8:	8b 40 0c             	mov    0xc(%eax),%eax
  1018cb:	83 e0 02             	and    $0x2,%eax
  1018ce:	85 c0                	test   %eax,%eax
  1018d0:	0f 85 ce 00 00 00    	jne    1019a4 <ilock+0x155>
/u/a/b/abhijith/CS537/p3b/xv6-sp20/kernel/fs.c:252
  1018d6:	8b 45 08             	mov    0x8(%ebp),%eax
  1018d9:	8b 40 04             	mov    0x4(%eax),%eax
  1018dc:	c1 e8 03             	shr    $0x3,%eax
  1018df:	8d 50 02             	lea    0x2(%eax),%edx
  1018e2:	8b 45 08             	mov    0x8(%ebp),%eax
  1018e5:	8b 00                	mov    (%eax),%eax
  1018e7:	83 ec 08             	sub    $0x8,%esp
  1018ea:	52                   	push   %edx
  1018eb:	50                   	push   %eax
  1018ec:	e8 ef e8 ff ff       	call   1001e0 <bread>
  1018f1:	83 c4 10             	add    $0x10,%esp
  1018f4:	89 45 f4             	mov    %eax,-0xc(%ebp)
/u/a/b/abhijith/CS537/p3b/xv6-sp20/kernel/fs.c:253
  1018f7:	8b 45 f4             	mov    -0xc(%ebp),%eax
  1018fa:	8d 50 18             	lea    0x18(%eax),%edx
  1018fd:	8b 45 08             	mov    0x8(%ebp),%eax
  101900:	8b 40 04             	mov    0x4(%eax),%eax
  101903:	83 e0 07             	and    $0x7,%eax
  101906:	c1 e0 06             	shl    $0x6,%eax
  101909:	01 d0                	add    %edx,%eax
  10190b:	89 45 f0             	mov    %eax,-0x10(%ebp)
/u/a/b/abhijith/CS537/p3b/xv6-sp20/kernel/fs.c:254
  10190e:	8b 45 f0             	mov    -0x10(%ebp),%eax
  101911:	0f b7 10             	movzwl (%eax),%edx
  101914:	8b 45 08             	mov    0x8(%ebp),%eax
  101917:	66 89 50 10          	mov    %dx,0x10(%eax)
/u/a/b/abhijith/CS537/p3b/xv6-sp20/kernel/fs.c:255
  10191b:	8b 45 f0             	mov    -0x10(%ebp),%eax
  10191e:	0f b7 50 02          	movzwl 0x2(%eax),%edx
  101922:	8b 45 08             	mov    0x8(%ebp),%eax
  101925:	66 89 50 12          	mov    %dx,0x12(%eax)
/u/a/b/abhijith/CS537/p3b/xv6-sp20/kernel/fs.c:256
  101929:	8b 45 f0             	mov    -0x10(%ebp),%eax
  10192c:	0f b7 50 04          	movzwl 0x4(%eax),%edx
  101930:	8b 45 08             	mov    0x8(%ebp),%eax
  101933:	66 89 50 14          	mov    %dx,0x14(%eax)
/u/a/b/abhijith/CS537/p3b/xv6-sp20/kernel/fs.c:257
  101937:	8b 45 f0             	mov    -0x10(%ebp),%eax
  10193a:	0f b7 50 06          	movzwl 0x6(%eax),%edx
  10193e:	8b 45 08             	mov    0x8(%ebp),%eax
  101941:	66 89 50 16          	mov    %dx,0x16(%eax)
/u/a/b/abhijith/CS537/p3b/xv6-sp20/kernel/fs.c:258
  101945:	8b 45 f0             	mov    -0x10(%ebp),%eax
  101948:	8b 50 08             	mov    0x8(%eax),%edx
  10194b:	8b 45 08             	mov    0x8(%ebp),%eax
  10194e:	89 50 18             	mov    %edx,0x18(%eax)
/u/a/b/abhijith/CS537/p3b/xv6-sp20/kernel/fs.c:259
  101951:	8b 45 f0             	mov    -0x10(%ebp),%eax
  101954:	8d 50 0c             	lea    0xc(%eax),%edx
  101957:	8b 45 08             	mov    0x8(%ebp),%eax
  10195a:	83 c0 1c             	add    $0x1c,%eax
  10195d:	83 ec 04             	sub    $0x4,%esp
  101960:	6a 34                	push   $0x34
  101962:	52                   	push   %edx
  101963:	50                   	push   %eax
  101964:	e8 0b 32 00 00       	call   104b74 <memmove>
  101969:	83 c4 10             	add    $0x10,%esp
/u/a/b/abhijith/CS537/p3b/xv6-sp20/kernel/fs.c:260
  10196c:	83 ec 0c             	sub    $0xc,%esp
  10196f:	ff 75 f4             	pushl  -0xc(%ebp)
  101972:	e8 e1 e8 ff ff       	call   100258 <brelse>
  101977:	83 c4 10             	add    $0x10,%esp
/u/a/b/abhijith/CS537/p3b/xv6-sp20/kernel/fs.c:261
  10197a:	8b 45 08             	mov    0x8(%ebp),%eax
  10197d:	8b 40 0c             	mov    0xc(%eax),%eax
  101980:	83 c8 02             	or     $0x2,%eax
  101983:	89 c2                	mov    %eax,%edx
  101985:	8b 45 08             	mov    0x8(%ebp),%eax
  101988:	89 50 0c             	mov    %edx,0xc(%eax)
/u/a/b/abhijith/CS537/p3b/xv6-sp20/kernel/fs.c:262
  10198b:	8b 45 08             	mov    0x8(%ebp),%eax
  10198e:	0f b7 40 10          	movzwl 0x10(%eax),%eax
  101992:	66 85 c0             	test   %ax,%ax
  101995:	75 0d                	jne    1019a4 <ilock+0x155>
/u/a/b/abhijith/CS537/p3b/xv6-sp20/kernel/fs.c:263
  101997:	83 ec 0c             	sub    $0xc,%esp
  10199a:	68 c4 7f 10 00       	push   $0x107fc4
  10199f:	e8 d4 eb ff ff       	call   100578 <panic>
/u/a/b/abhijith/CS537/p3b/xv6-sp20/kernel/fs.c:265
  1019a4:	90                   	nop
  1019a5:	c9                   	leave  
  1019a6:	c3                   	ret    

001019a7 <iunlock>:
iunlock():
/u/a/b/abhijith/CS537/p3b/xv6-sp20/kernel/fs.c:270
  1019a7:	55                   	push   %ebp
  1019a8:	89 e5                	mov    %esp,%ebp
  1019aa:	83 ec 08             	sub    $0x8,%esp
/u/a/b/abhijith/CS537/p3b/xv6-sp20/kernel/fs.c:271
  1019ad:	83 7d 08 00          	cmpl   $0x0,0x8(%ebp)
  1019b1:	74 17                	je     1019ca <iunlock+0x23>
/u/a/b/abhijith/CS537/p3b/xv6-sp20/kernel/fs.c:271 (discriminator 1)
  1019b3:	8b 45 08             	mov    0x8(%ebp),%eax
  1019b6:	8b 40 0c             	mov    0xc(%eax),%eax
  1019b9:	83 e0 01             	and    $0x1,%eax
  1019bc:	85 c0                	test   %eax,%eax
  1019be:	74 0a                	je     1019ca <iunlock+0x23>
/u/a/b/abhijith/CS537/p3b/xv6-sp20/kernel/fs.c:271 (discriminator 2)
  1019c0:	8b 45 08             	mov    0x8(%ebp),%eax
  1019c3:	8b 40 08             	mov    0x8(%eax),%eax
  1019c6:	85 c0                	test   %eax,%eax
  1019c8:	7f 0d                	jg     1019d7 <iunlock+0x30>
/u/a/b/abhijith/CS537/p3b/xv6-sp20/kernel/fs.c:272
  1019ca:	83 ec 0c             	sub    $0xc,%esp
  1019cd:	68 d3 7f 10 00       	push   $0x107fd3
  1019d2:	e8 a1 eb ff ff       	call   100578 <panic>
/u/a/b/abhijith/CS537/p3b/xv6-sp20/kernel/fs.c:274
  1019d7:	83 ec 0c             	sub    $0xc,%esp
  1019da:	68 40 f7 10 00       	push   $0x10f740
  1019df:	e8 e1 2e 00 00       	call   1048c5 <acquire>
  1019e4:	83 c4 10             	add    $0x10,%esp
/u/a/b/abhijith/CS537/p3b/xv6-sp20/kernel/fs.c:275
  1019e7:	8b 45 08             	mov    0x8(%ebp),%eax
  1019ea:	8b 40 0c             	mov    0xc(%eax),%eax
  1019ed:	83 e0 fe             	and    $0xfffffffe,%eax
  1019f0:	89 c2                	mov    %eax,%edx
  1019f2:	8b 45 08             	mov    0x8(%ebp),%eax
  1019f5:	89 50 0c             	mov    %edx,0xc(%eax)
/u/a/b/abhijith/CS537/p3b/xv6-sp20/kernel/fs.c:276
  1019f8:	83 ec 0c             	sub    $0xc,%esp
  1019fb:	ff 75 08             	pushl  0x8(%ebp)
  1019fe:	e8 b4 2c 00 00       	call   1046b7 <wakeup>
  101a03:	83 c4 10             	add    $0x10,%esp
/u/a/b/abhijith/CS537/p3b/xv6-sp20/kernel/fs.c:277
  101a06:	83 ec 0c             	sub    $0xc,%esp
  101a09:	68 40 f7 10 00       	push   $0x10f740
  101a0e:	e8 19 2f 00 00       	call   10492c <release>
  101a13:	83 c4 10             	add    $0x10,%esp
/u/a/b/abhijith/CS537/p3b/xv6-sp20/kernel/fs.c:278
  101a16:	90                   	nop
  101a17:	c9                   	leave  
  101a18:	c3                   	ret    

00101a19 <iput>:
iput():
/u/a/b/abhijith/CS537/p3b/xv6-sp20/kernel/fs.c:283
  101a19:	55                   	push   %ebp
  101a1a:	89 e5                	mov    %esp,%ebp
  101a1c:	83 ec 08             	sub    $0x8,%esp
/u/a/b/abhijith/CS537/p3b/xv6-sp20/kernel/fs.c:284
  101a1f:	83 ec 0c             	sub    $0xc,%esp
  101a22:	68 40 f7 10 00       	push   $0x10f740
  101a27:	e8 99 2e 00 00       	call   1048c5 <acquire>
  101a2c:	83 c4 10             	add    $0x10,%esp
/u/a/b/abhijith/CS537/p3b/xv6-sp20/kernel/fs.c:285
  101a2f:	8b 45 08             	mov    0x8(%ebp),%eax
  101a32:	8b 40 08             	mov    0x8(%eax),%eax
  101a35:	83 f8 01             	cmp    $0x1,%eax
  101a38:	0f 85 a9 00 00 00    	jne    101ae7 <iput+0xce>
/u/a/b/abhijith/CS537/p3b/xv6-sp20/kernel/fs.c:285 (discriminator 1)
  101a3e:	8b 45 08             	mov    0x8(%ebp),%eax
  101a41:	8b 40 0c             	mov    0xc(%eax),%eax
  101a44:	83 e0 02             	and    $0x2,%eax
  101a47:	85 c0                	test   %eax,%eax
  101a49:	0f 84 98 00 00 00    	je     101ae7 <iput+0xce>
/u/a/b/abhijith/CS537/p3b/xv6-sp20/kernel/fs.c:285 (discriminator 2)
  101a4f:	8b 45 08             	mov    0x8(%ebp),%eax
  101a52:	0f b7 40 16          	movzwl 0x16(%eax),%eax
  101a56:	66 85 c0             	test   %ax,%ax
  101a59:	0f 85 88 00 00 00    	jne    101ae7 <iput+0xce>
/u/a/b/abhijith/CS537/p3b/xv6-sp20/kernel/fs.c:287
  101a5f:	8b 45 08             	mov    0x8(%ebp),%eax
  101a62:	8b 40 0c             	mov    0xc(%eax),%eax
  101a65:	83 e0 01             	and    $0x1,%eax
  101a68:	85 c0                	test   %eax,%eax
  101a6a:	74 0d                	je     101a79 <iput+0x60>
/u/a/b/abhijith/CS537/p3b/xv6-sp20/kernel/fs.c:288
  101a6c:	83 ec 0c             	sub    $0xc,%esp
  101a6f:	68 db 7f 10 00       	push   $0x107fdb
  101a74:	e8 ff ea ff ff       	call   100578 <panic>
/u/a/b/abhijith/CS537/p3b/xv6-sp20/kernel/fs.c:289
  101a79:	8b 45 08             	mov    0x8(%ebp),%eax
  101a7c:	8b 40 0c             	mov    0xc(%eax),%eax
  101a7f:	83 c8 01             	or     $0x1,%eax
  101a82:	89 c2                	mov    %eax,%edx
  101a84:	8b 45 08             	mov    0x8(%ebp),%eax
  101a87:	89 50 0c             	mov    %edx,0xc(%eax)
/u/a/b/abhijith/CS537/p3b/xv6-sp20/kernel/fs.c:290
  101a8a:	83 ec 0c             	sub    $0xc,%esp
  101a8d:	68 40 f7 10 00       	push   $0x10f740
  101a92:	e8 95 2e 00 00       	call   10492c <release>
  101a97:	83 c4 10             	add    $0x10,%esp
/u/a/b/abhijith/CS537/p3b/xv6-sp20/kernel/fs.c:291
  101a9a:	83 ec 0c             	sub    $0xc,%esp
  101a9d:	ff 75 08             	pushl  0x8(%ebp)
  101aa0:	e8 a3 01 00 00       	call   101c48 <itrunc>
  101aa5:	83 c4 10             	add    $0x10,%esp
/u/a/b/abhijith/CS537/p3b/xv6-sp20/kernel/fs.c:292
  101aa8:	8b 45 08             	mov    0x8(%ebp),%eax
  101aab:	66 c7 40 10 00 00    	movw   $0x0,0x10(%eax)
/u/a/b/abhijith/CS537/p3b/xv6-sp20/kernel/fs.c:293
  101ab1:	83 ec 0c             	sub    $0xc,%esp
  101ab4:	ff 75 08             	pushl  0x8(%ebp)
  101ab7:	e8 bf fb ff ff       	call   10167b <iupdate>
  101abc:	83 c4 10             	add    $0x10,%esp
/u/a/b/abhijith/CS537/p3b/xv6-sp20/kernel/fs.c:294
  101abf:	83 ec 0c             	sub    $0xc,%esp
  101ac2:	68 40 f7 10 00       	push   $0x10f740
  101ac7:	e8 f9 2d 00 00       	call   1048c5 <acquire>
  101acc:	83 c4 10             	add    $0x10,%esp
/u/a/b/abhijith/CS537/p3b/xv6-sp20/kernel/fs.c:295
  101acf:	8b 45 08             	mov    0x8(%ebp),%eax
  101ad2:	c7 40 0c 00 00 00 00 	movl   $0x0,0xc(%eax)
/u/a/b/abhijith/CS537/p3b/xv6-sp20/kernel/fs.c:296
  101ad9:	83 ec 0c             	sub    $0xc,%esp
  101adc:	ff 75 08             	pushl  0x8(%ebp)
  101adf:	e8 d3 2b 00 00       	call   1046b7 <wakeup>
  101ae4:	83 c4 10             	add    $0x10,%esp
/u/a/b/abhijith/CS537/p3b/xv6-sp20/kernel/fs.c:298
  101ae7:	8b 45 08             	mov    0x8(%ebp),%eax
  101aea:	8b 40 08             	mov    0x8(%eax),%eax
  101aed:	8d 50 ff             	lea    -0x1(%eax),%edx
  101af0:	8b 45 08             	mov    0x8(%ebp),%eax
  101af3:	89 50 08             	mov    %edx,0x8(%eax)
/u/a/b/abhijith/CS537/p3b/xv6-sp20/kernel/fs.c:299
  101af6:	83 ec 0c             	sub    $0xc,%esp
  101af9:	68 40 f7 10 00       	push   $0x10f740
  101afe:	e8 29 2e 00 00       	call   10492c <release>
  101b03:	83 c4 10             	add    $0x10,%esp
/u/a/b/abhijith/CS537/p3b/xv6-sp20/kernel/fs.c:300
  101b06:	90                   	nop
  101b07:	c9                   	leave  
  101b08:	c3                   	ret    

00101b09 <iunlockput>:
iunlockput():
/u/a/b/abhijith/CS537/p3b/xv6-sp20/kernel/fs.c:305
  101b09:	55                   	push   %ebp
  101b0a:	89 e5                	mov    %esp,%ebp
  101b0c:	83 ec 08             	sub    $0x8,%esp
/u/a/b/abhijith/CS537/p3b/xv6-sp20/kernel/fs.c:306
  101b0f:	83 ec 0c             	sub    $0xc,%esp
  101b12:	ff 75 08             	pushl  0x8(%ebp)
  101b15:	e8 8d fe ff ff       	call   1019a7 <iunlock>
  101b1a:	83 c4 10             	add    $0x10,%esp
/u/a/b/abhijith/CS537/p3b/xv6-sp20/kernel/fs.c:307
  101b1d:	83 ec 0c             	sub    $0xc,%esp
  101b20:	ff 75 08             	pushl  0x8(%ebp)
  101b23:	e8 f1 fe ff ff       	call   101a19 <iput>
  101b28:	83 c4 10             	add    $0x10,%esp
/u/a/b/abhijith/CS537/p3b/xv6-sp20/kernel/fs.c:308
  101b2b:	90                   	nop
  101b2c:	c9                   	leave  
  101b2d:	c3                   	ret    

00101b2e <bmap>:
bmap():
/u/a/b/abhijith/CS537/p3b/xv6-sp20/kernel/fs.c:321
  101b2e:	55                   	push   %ebp
  101b2f:	89 e5                	mov    %esp,%ebp
  101b31:	83 ec 18             	sub    $0x18,%esp
/u/a/b/abhijith/CS537/p3b/xv6-sp20/kernel/fs.c:325
  101b34:	83 7d 0c 0b          	cmpl   $0xb,0xc(%ebp)
  101b38:	77 42                	ja     101b7c <bmap+0x4e>
/u/a/b/abhijith/CS537/p3b/xv6-sp20/kernel/fs.c:326
  101b3a:	8b 45 08             	mov    0x8(%ebp),%eax
  101b3d:	8b 55 0c             	mov    0xc(%ebp),%edx
  101b40:	83 c2 04             	add    $0x4,%edx
  101b43:	8b 44 90 0c          	mov    0xc(%eax,%edx,4),%eax
  101b47:	89 45 f4             	mov    %eax,-0xc(%ebp)
  101b4a:	83 7d f4 00          	cmpl   $0x0,-0xc(%ebp)
  101b4e:	75 24                	jne    101b74 <bmap+0x46>
/u/a/b/abhijith/CS537/p3b/xv6-sp20/kernel/fs.c:327
  101b50:	8b 45 08             	mov    0x8(%ebp),%eax
  101b53:	8b 00                	mov    (%eax),%eax
  101b55:	83 ec 0c             	sub    $0xc,%esp
  101b58:	50                   	push   %eax
  101b59:	e8 fc f7 ff ff       	call   10135a <balloc>
  101b5e:	83 c4 10             	add    $0x10,%esp
  101b61:	89 45 f4             	mov    %eax,-0xc(%ebp)
  101b64:	8b 45 08             	mov    0x8(%ebp),%eax
  101b67:	8b 55 0c             	mov    0xc(%ebp),%edx
  101b6a:	8d 4a 04             	lea    0x4(%edx),%ecx
  101b6d:	8b 55 f4             	mov    -0xc(%ebp),%edx
  101b70:	89 54 88 0c          	mov    %edx,0xc(%eax,%ecx,4)
/u/a/b/abhijith/CS537/p3b/xv6-sp20/kernel/fs.c:328
  101b74:	8b 45 f4             	mov    -0xc(%ebp),%eax
  101b77:	e9 ca 00 00 00       	jmp    101c46 <bmap+0x118>
/u/a/b/abhijith/CS537/p3b/xv6-sp20/kernel/fs.c:330
  101b7c:	83 6d 0c 0c          	subl   $0xc,0xc(%ebp)
/u/a/b/abhijith/CS537/p3b/xv6-sp20/kernel/fs.c:332
  101b80:	83 7d 0c 7f          	cmpl   $0x7f,0xc(%ebp)
  101b84:	0f 87 af 00 00 00    	ja     101c39 <bmap+0x10b>
/u/a/b/abhijith/CS537/p3b/xv6-sp20/kernel/fs.c:334
  101b8a:	8b 45 08             	mov    0x8(%ebp),%eax
  101b8d:	8b 40 4c             	mov    0x4c(%eax),%eax
  101b90:	89 45 f4             	mov    %eax,-0xc(%ebp)
  101b93:	83 7d f4 00          	cmpl   $0x0,-0xc(%ebp)
  101b97:	75 1d                	jne    101bb6 <bmap+0x88>
/u/a/b/abhijith/CS537/p3b/xv6-sp20/kernel/fs.c:335
  101b99:	8b 45 08             	mov    0x8(%ebp),%eax
  101b9c:	8b 00                	mov    (%eax),%eax
  101b9e:	83 ec 0c             	sub    $0xc,%esp
  101ba1:	50                   	push   %eax
  101ba2:	e8 b3 f7 ff ff       	call   10135a <balloc>
  101ba7:	83 c4 10             	add    $0x10,%esp
  101baa:	89 45 f4             	mov    %eax,-0xc(%ebp)
  101bad:	8b 45 08             	mov    0x8(%ebp),%eax
  101bb0:	8b 55 f4             	mov    -0xc(%ebp),%edx
  101bb3:	89 50 4c             	mov    %edx,0x4c(%eax)
/u/a/b/abhijith/CS537/p3b/xv6-sp20/kernel/fs.c:336
  101bb6:	8b 45 08             	mov    0x8(%ebp),%eax
  101bb9:	8b 00                	mov    (%eax),%eax
  101bbb:	83 ec 08             	sub    $0x8,%esp
  101bbe:	ff 75 f4             	pushl  -0xc(%ebp)
  101bc1:	50                   	push   %eax
  101bc2:	e8 19 e6 ff ff       	call   1001e0 <bread>
  101bc7:	83 c4 10             	add    $0x10,%esp
  101bca:	89 45 f0             	mov    %eax,-0x10(%ebp)
/u/a/b/abhijith/CS537/p3b/xv6-sp20/kernel/fs.c:337
  101bcd:	8b 45 f0             	mov    -0x10(%ebp),%eax
  101bd0:	83 c0 18             	add    $0x18,%eax
  101bd3:	89 45 ec             	mov    %eax,-0x14(%ebp)
/u/a/b/abhijith/CS537/p3b/xv6-sp20/kernel/fs.c:338
  101bd6:	8b 45 0c             	mov    0xc(%ebp),%eax
  101bd9:	8d 14 85 00 00 00 00 	lea    0x0(,%eax,4),%edx
  101be0:	8b 45 ec             	mov    -0x14(%ebp),%eax
  101be3:	01 d0                	add    %edx,%eax
  101be5:	8b 00                	mov    (%eax),%eax
  101be7:	89 45 f4             	mov    %eax,-0xc(%ebp)
  101bea:	83 7d f4 00          	cmpl   $0x0,-0xc(%ebp)
  101bee:	75 36                	jne    101c26 <bmap+0xf8>
/u/a/b/abhijith/CS537/p3b/xv6-sp20/kernel/fs.c:339
  101bf0:	8b 45 08             	mov    0x8(%ebp),%eax
  101bf3:	8b 00                	mov    (%eax),%eax
  101bf5:	83 ec 0c             	sub    $0xc,%esp
  101bf8:	50                   	push   %eax
  101bf9:	e8 5c f7 ff ff       	call   10135a <balloc>
  101bfe:	83 c4 10             	add    $0x10,%esp
  101c01:	89 45 f4             	mov    %eax,-0xc(%ebp)
  101c04:	8b 45 0c             	mov    0xc(%ebp),%eax
  101c07:	8d 14 85 00 00 00 00 	lea    0x0(,%eax,4),%edx
  101c0e:	8b 45 ec             	mov    -0x14(%ebp),%eax
  101c11:	01 c2                	add    %eax,%edx
  101c13:	8b 45 f4             	mov    -0xc(%ebp),%eax
  101c16:	89 02                	mov    %eax,(%edx)
/u/a/b/abhijith/CS537/p3b/xv6-sp20/kernel/fs.c:340
  101c18:	83 ec 0c             	sub    $0xc,%esp
  101c1b:	ff 75 f0             	pushl  -0x10(%ebp)
  101c1e:	e8 f6 e5 ff ff       	call   100219 <bwrite>
  101c23:	83 c4 10             	add    $0x10,%esp
/u/a/b/abhijith/CS537/p3b/xv6-sp20/kernel/fs.c:342
  101c26:	83 ec 0c             	sub    $0xc,%esp
  101c29:	ff 75 f0             	pushl  -0x10(%ebp)
  101c2c:	e8 27 e6 ff ff       	call   100258 <brelse>
  101c31:	83 c4 10             	add    $0x10,%esp
/u/a/b/abhijith/CS537/p3b/xv6-sp20/kernel/fs.c:343
  101c34:	8b 45 f4             	mov    -0xc(%ebp),%eax
  101c37:	eb 0d                	jmp    101c46 <bmap+0x118>
/u/a/b/abhijith/CS537/p3b/xv6-sp20/kernel/fs.c:346
  101c39:	83 ec 0c             	sub    $0xc,%esp
  101c3c:	68 e5 7f 10 00       	push   $0x107fe5
  101c41:	e8 32 e9 ff ff       	call   100578 <panic>
/u/a/b/abhijith/CS537/p3b/xv6-sp20/kernel/fs.c:347
  101c46:	c9                   	leave  
  101c47:	c3                   	ret    

00101c48 <itrunc>:
itrunc():
/u/a/b/abhijith/CS537/p3b/xv6-sp20/kernel/fs.c:354
  101c48:	55                   	push   %ebp
  101c49:	89 e5                	mov    %esp,%ebp
  101c4b:	83 ec 18             	sub    $0x18,%esp
/u/a/b/abhijith/CS537/p3b/xv6-sp20/kernel/fs.c:359
  101c4e:	c7 45 f4 00 00 00 00 	movl   $0x0,-0xc(%ebp)
  101c55:	eb 45                	jmp    101c9c <itrunc+0x54>
/u/a/b/abhijith/CS537/p3b/xv6-sp20/kernel/fs.c:360
  101c57:	8b 45 08             	mov    0x8(%ebp),%eax
  101c5a:	8b 55 f4             	mov    -0xc(%ebp),%edx
  101c5d:	83 c2 04             	add    $0x4,%edx
  101c60:	8b 44 90 0c          	mov    0xc(%eax,%edx,4),%eax
  101c64:	85 c0                	test   %eax,%eax
  101c66:	74 30                	je     101c98 <itrunc+0x50>
/u/a/b/abhijith/CS537/p3b/xv6-sp20/kernel/fs.c:361
  101c68:	8b 45 08             	mov    0x8(%ebp),%eax
  101c6b:	8b 55 f4             	mov    -0xc(%ebp),%edx
  101c6e:	83 c2 04             	add    $0x4,%edx
  101c71:	8b 44 90 0c          	mov    0xc(%eax,%edx,4),%eax
  101c75:	8b 55 08             	mov    0x8(%ebp),%edx
  101c78:	8b 12                	mov    (%edx),%edx
  101c7a:	83 ec 08             	sub    $0x8,%esp
  101c7d:	50                   	push   %eax
  101c7e:	52                   	push   %edx
  101c7f:	e8 0b f8 ff ff       	call   10148f <bfree>
  101c84:	83 c4 10             	add    $0x10,%esp
/u/a/b/abhijith/CS537/p3b/xv6-sp20/kernel/fs.c:362
  101c87:	8b 45 08             	mov    0x8(%ebp),%eax
  101c8a:	8b 55 f4             	mov    -0xc(%ebp),%edx
  101c8d:	83 c2 04             	add    $0x4,%edx
  101c90:	c7 44 90 0c 00 00 00 	movl   $0x0,0xc(%eax,%edx,4)
  101c97:	00 
/u/a/b/abhijith/CS537/p3b/xv6-sp20/kernel/fs.c:359 (discriminator 2)
  101c98:	83 45 f4 01          	addl   $0x1,-0xc(%ebp)
/u/a/b/abhijith/CS537/p3b/xv6-sp20/kernel/fs.c:359 (discriminator 1)
  101c9c:	83 7d f4 0b          	cmpl   $0xb,-0xc(%ebp)
  101ca0:	7e b5                	jle    101c57 <itrunc+0xf>
/u/a/b/abhijith/CS537/p3b/xv6-sp20/kernel/fs.c:366
  101ca2:	8b 45 08             	mov    0x8(%ebp),%eax
  101ca5:	8b 40 4c             	mov    0x4c(%eax),%eax
  101ca8:	85 c0                	test   %eax,%eax
  101caa:	0f 84 a1 00 00 00    	je     101d51 <itrunc+0x109>
/u/a/b/abhijith/CS537/p3b/xv6-sp20/kernel/fs.c:367
  101cb0:	8b 45 08             	mov    0x8(%ebp),%eax
  101cb3:	8b 50 4c             	mov    0x4c(%eax),%edx
  101cb6:	8b 45 08             	mov    0x8(%ebp),%eax
  101cb9:	8b 00                	mov    (%eax),%eax
  101cbb:	83 ec 08             	sub    $0x8,%esp
  101cbe:	52                   	push   %edx
  101cbf:	50                   	push   %eax
  101cc0:	e8 1b e5 ff ff       	call   1001e0 <bread>
  101cc5:	83 c4 10             	add    $0x10,%esp
  101cc8:	89 45 ec             	mov    %eax,-0x14(%ebp)
/u/a/b/abhijith/CS537/p3b/xv6-sp20/kernel/fs.c:368
  101ccb:	8b 45 ec             	mov    -0x14(%ebp),%eax
  101cce:	83 c0 18             	add    $0x18,%eax
  101cd1:	89 45 e8             	mov    %eax,-0x18(%ebp)
/u/a/b/abhijith/CS537/p3b/xv6-sp20/kernel/fs.c:369
  101cd4:	c7 45 f0 00 00 00 00 	movl   $0x0,-0x10(%ebp)
  101cdb:	eb 3c                	jmp    101d19 <itrunc+0xd1>
/u/a/b/abhijith/CS537/p3b/xv6-sp20/kernel/fs.c:370
  101cdd:	8b 45 f0             	mov    -0x10(%ebp),%eax
  101ce0:	8d 14 85 00 00 00 00 	lea    0x0(,%eax,4),%edx
  101ce7:	8b 45 e8             	mov    -0x18(%ebp),%eax
  101cea:	01 d0                	add    %edx,%eax
  101cec:	8b 00                	mov    (%eax),%eax
  101cee:	85 c0                	test   %eax,%eax
  101cf0:	74 23                	je     101d15 <itrunc+0xcd>
/u/a/b/abhijith/CS537/p3b/xv6-sp20/kernel/fs.c:371
  101cf2:	8b 45 f0             	mov    -0x10(%ebp),%eax
  101cf5:	8d 14 85 00 00 00 00 	lea    0x0(,%eax,4),%edx
  101cfc:	8b 45 e8             	mov    -0x18(%ebp),%eax
  101cff:	01 d0                	add    %edx,%eax
  101d01:	8b 00                	mov    (%eax),%eax
  101d03:	8b 55 08             	mov    0x8(%ebp),%edx
  101d06:	8b 12                	mov    (%edx),%edx
  101d08:	83 ec 08             	sub    $0x8,%esp
  101d0b:	50                   	push   %eax
  101d0c:	52                   	push   %edx
  101d0d:	e8 7d f7 ff ff       	call   10148f <bfree>
  101d12:	83 c4 10             	add    $0x10,%esp
/u/a/b/abhijith/CS537/p3b/xv6-sp20/kernel/fs.c:369 (discriminator 2)
  101d15:	83 45 f0 01          	addl   $0x1,-0x10(%ebp)
/u/a/b/abhijith/CS537/p3b/xv6-sp20/kernel/fs.c:369 (discriminator 1)
  101d19:	8b 45 f0             	mov    -0x10(%ebp),%eax
  101d1c:	83 f8 7f             	cmp    $0x7f,%eax
  101d1f:	76 bc                	jbe    101cdd <itrunc+0x95>
/u/a/b/abhijith/CS537/p3b/xv6-sp20/kernel/fs.c:373
  101d21:	83 ec 0c             	sub    $0xc,%esp
  101d24:	ff 75 ec             	pushl  -0x14(%ebp)
  101d27:	e8 2c e5 ff ff       	call   100258 <brelse>
  101d2c:	83 c4 10             	add    $0x10,%esp
/u/a/b/abhijith/CS537/p3b/xv6-sp20/kernel/fs.c:374
  101d2f:	8b 45 08             	mov    0x8(%ebp),%eax
  101d32:	8b 40 4c             	mov    0x4c(%eax),%eax
  101d35:	8b 55 08             	mov    0x8(%ebp),%edx
  101d38:	8b 12                	mov    (%edx),%edx
  101d3a:	83 ec 08             	sub    $0x8,%esp
  101d3d:	50                   	push   %eax
  101d3e:	52                   	push   %edx
  101d3f:	e8 4b f7 ff ff       	call   10148f <bfree>
  101d44:	83 c4 10             	add    $0x10,%esp
/u/a/b/abhijith/CS537/p3b/xv6-sp20/kernel/fs.c:375
  101d47:	8b 45 08             	mov    0x8(%ebp),%eax
  101d4a:	c7 40 4c 00 00 00 00 	movl   $0x0,0x4c(%eax)
/u/a/b/abhijith/CS537/p3b/xv6-sp20/kernel/fs.c:378
  101d51:	8b 45 08             	mov    0x8(%ebp),%eax
  101d54:	c7 40 18 00 00 00 00 	movl   $0x0,0x18(%eax)
/u/a/b/abhijith/CS537/p3b/xv6-sp20/kernel/fs.c:379
  101d5b:	83 ec 0c             	sub    $0xc,%esp
  101d5e:	ff 75 08             	pushl  0x8(%ebp)
  101d61:	e8 15 f9 ff ff       	call   10167b <iupdate>
  101d66:	83 c4 10             	add    $0x10,%esp
/u/a/b/abhijith/CS537/p3b/xv6-sp20/kernel/fs.c:380
  101d69:	90                   	nop
  101d6a:	c9                   	leave  
  101d6b:	c3                   	ret    

00101d6c <stati>:
stati():
/u/a/b/abhijith/CS537/p3b/xv6-sp20/kernel/fs.c:385
  101d6c:	55                   	push   %ebp
  101d6d:	89 e5                	mov    %esp,%ebp
/u/a/b/abhijith/CS537/p3b/xv6-sp20/kernel/fs.c:386
  101d6f:	8b 45 08             	mov    0x8(%ebp),%eax
  101d72:	8b 00                	mov    (%eax),%eax
  101d74:	89 c2                	mov    %eax,%edx
  101d76:	8b 45 0c             	mov    0xc(%ebp),%eax
  101d79:	89 50 04             	mov    %edx,0x4(%eax)
/u/a/b/abhijith/CS537/p3b/xv6-sp20/kernel/fs.c:387
  101d7c:	8b 45 08             	mov    0x8(%ebp),%eax
  101d7f:	8b 50 04             	mov    0x4(%eax),%edx
  101d82:	8b 45 0c             	mov    0xc(%ebp),%eax
  101d85:	89 50 08             	mov    %edx,0x8(%eax)
/u/a/b/abhijith/CS537/p3b/xv6-sp20/kernel/fs.c:388
  101d88:	8b 45 08             	mov    0x8(%ebp),%eax
  101d8b:	0f b7 50 10          	movzwl 0x10(%eax),%edx
  101d8f:	8b 45 0c             	mov    0xc(%ebp),%eax
  101d92:	66 89 10             	mov    %dx,(%eax)
/u/a/b/abhijith/CS537/p3b/xv6-sp20/kernel/fs.c:389
  101d95:	8b 45 08             	mov    0x8(%ebp),%eax
  101d98:	0f b7 50 16          	movzwl 0x16(%eax),%edx
  101d9c:	8b 45 0c             	mov    0xc(%ebp),%eax
  101d9f:	66 89 50 0c          	mov    %dx,0xc(%eax)
/u/a/b/abhijith/CS537/p3b/xv6-sp20/kernel/fs.c:390
  101da3:	8b 45 08             	mov    0x8(%ebp),%eax
  101da6:	8b 50 18             	mov    0x18(%eax),%edx
  101da9:	8b 45 0c             	mov    0xc(%ebp),%eax
  101dac:	89 50 10             	mov    %edx,0x10(%eax)
/u/a/b/abhijith/CS537/p3b/xv6-sp20/kernel/fs.c:391
  101daf:	90                   	nop
  101db0:	5d                   	pop    %ebp
  101db1:	c3                   	ret    

00101db2 <readi>:
readi():
/u/a/b/abhijith/CS537/p3b/xv6-sp20/kernel/fs.c:396
  101db2:	55                   	push   %ebp
  101db3:	89 e5                	mov    %esp,%ebp
  101db5:	83 ec 18             	sub    $0x18,%esp
/u/a/b/abhijith/CS537/p3b/xv6-sp20/kernel/fs.c:400
  101db8:	8b 45 08             	mov    0x8(%ebp),%eax
  101dbb:	0f b7 40 10          	movzwl 0x10(%eax),%eax
  101dbf:	66 83 f8 03          	cmp    $0x3,%ax
  101dc3:	75 5c                	jne    101e21 <readi+0x6f>
/u/a/b/abhijith/CS537/p3b/xv6-sp20/kernel/fs.c:401
  101dc5:	8b 45 08             	mov    0x8(%ebp),%eax
  101dc8:	0f b7 40 12          	movzwl 0x12(%eax),%eax
  101dcc:	66 85 c0             	test   %ax,%ax
  101dcf:	78 20                	js     101df1 <readi+0x3f>
/u/a/b/abhijith/CS537/p3b/xv6-sp20/kernel/fs.c:401 (discriminator 1)
  101dd1:	8b 45 08             	mov    0x8(%ebp),%eax
  101dd4:	0f b7 40 12          	movzwl 0x12(%eax),%eax
  101dd8:	66 83 f8 09          	cmp    $0x9,%ax
  101ddc:	7f 13                	jg     101df1 <readi+0x3f>
/u/a/b/abhijith/CS537/p3b/xv6-sp20/kernel/fs.c:401 (discriminator 2)
  101dde:	8b 45 08             	mov    0x8(%ebp),%eax
  101de1:	0f b7 40 12          	movzwl 0x12(%eax),%eax
  101de5:	98                   	cwtl   
  101de6:	8b 04 c5 e0 f6 10 00 	mov    0x10f6e0(,%eax,8),%eax
  101ded:	85 c0                	test   %eax,%eax
  101def:	75 0a                	jne    101dfb <readi+0x49>
/u/a/b/abhijith/CS537/p3b/xv6-sp20/kernel/fs.c:402
  101df1:	b8 ff ff ff ff       	mov    $0xffffffff,%eax
  101df6:	e9 0c 01 00 00       	jmp    101f07 <readi+0x155>
/u/a/b/abhijith/CS537/p3b/xv6-sp20/kernel/fs.c:403
  101dfb:	8b 45 08             	mov    0x8(%ebp),%eax
  101dfe:	0f b7 40 12          	movzwl 0x12(%eax),%eax
  101e02:	98                   	cwtl   
  101e03:	8b 04 c5 e0 f6 10 00 	mov    0x10f6e0(,%eax,8),%eax
  101e0a:	8b 55 14             	mov    0x14(%ebp),%edx
  101e0d:	83 ec 04             	sub    $0x4,%esp
  101e10:	52                   	push   %edx
  101e11:	ff 75 0c             	pushl  0xc(%ebp)
  101e14:	ff 75 08             	pushl  0x8(%ebp)
  101e17:	ff d0                	call   *%eax
  101e19:	83 c4 10             	add    $0x10,%esp
  101e1c:	e9 e6 00 00 00       	jmp    101f07 <readi+0x155>
/u/a/b/abhijith/CS537/p3b/xv6-sp20/kernel/fs.c:406
  101e21:	8b 45 08             	mov    0x8(%ebp),%eax
  101e24:	8b 40 18             	mov    0x18(%eax),%eax
  101e27:	39 45 10             	cmp    %eax,0x10(%ebp)
  101e2a:	77 0d                	ja     101e39 <readi+0x87>
/u/a/b/abhijith/CS537/p3b/xv6-sp20/kernel/fs.c:406 (discriminator 1)
  101e2c:	8b 55 10             	mov    0x10(%ebp),%edx
  101e2f:	8b 45 14             	mov    0x14(%ebp),%eax
  101e32:	01 d0                	add    %edx,%eax
  101e34:	39 45 10             	cmp    %eax,0x10(%ebp)
  101e37:	76 0a                	jbe    101e43 <readi+0x91>
/u/a/b/abhijith/CS537/p3b/xv6-sp20/kernel/fs.c:407
  101e39:	b8 ff ff ff ff       	mov    $0xffffffff,%eax
  101e3e:	e9 c4 00 00 00       	jmp    101f07 <readi+0x155>
/u/a/b/abhijith/CS537/p3b/xv6-sp20/kernel/fs.c:408
  101e43:	8b 55 10             	mov    0x10(%ebp),%edx
  101e46:	8b 45 14             	mov    0x14(%ebp),%eax
  101e49:	01 c2                	add    %eax,%edx
  101e4b:	8b 45 08             	mov    0x8(%ebp),%eax
  101e4e:	8b 40 18             	mov    0x18(%eax),%eax
  101e51:	39 c2                	cmp    %eax,%edx
  101e53:	76 0c                	jbe    101e61 <readi+0xaf>
/u/a/b/abhijith/CS537/p3b/xv6-sp20/kernel/fs.c:409
  101e55:	8b 45 08             	mov    0x8(%ebp),%eax
  101e58:	8b 40 18             	mov    0x18(%eax),%eax
  101e5b:	2b 45 10             	sub    0x10(%ebp),%eax
  101e5e:	89 45 14             	mov    %eax,0x14(%ebp)
/u/a/b/abhijith/CS537/p3b/xv6-sp20/kernel/fs.c:411
  101e61:	c7 45 f4 00 00 00 00 	movl   $0x0,-0xc(%ebp)
  101e68:	e9 8b 00 00 00       	jmp    101ef8 <readi+0x146>
/u/a/b/abhijith/CS537/p3b/xv6-sp20/kernel/fs.c:412 (discriminator 3)
  101e6d:	8b 45 10             	mov    0x10(%ebp),%eax
  101e70:	c1 e8 09             	shr    $0x9,%eax
  101e73:	83 ec 08             	sub    $0x8,%esp
  101e76:	50                   	push   %eax
  101e77:	ff 75 08             	pushl  0x8(%ebp)
  101e7a:	e8 af fc ff ff       	call   101b2e <bmap>
  101e7f:	83 c4 10             	add    $0x10,%esp
  101e82:	89 c2                	mov    %eax,%edx
  101e84:	8b 45 08             	mov    0x8(%ebp),%eax
  101e87:	8b 00                	mov    (%eax),%eax
  101e89:	83 ec 08             	sub    $0x8,%esp
  101e8c:	52                   	push   %edx
  101e8d:	50                   	push   %eax
  101e8e:	e8 4d e3 ff ff       	call   1001e0 <bread>
  101e93:	83 c4 10             	add    $0x10,%esp
  101e96:	89 45 f0             	mov    %eax,-0x10(%ebp)
/u/a/b/abhijith/CS537/p3b/xv6-sp20/kernel/fs.c:413 (discriminator 3)
  101e99:	8b 45 10             	mov    0x10(%ebp),%eax
  101e9c:	25 ff 01 00 00       	and    $0x1ff,%eax
  101ea1:	ba 00 02 00 00       	mov    $0x200,%edx
  101ea6:	29 c2                	sub    %eax,%edx
  101ea8:	8b 45 14             	mov    0x14(%ebp),%eax
  101eab:	2b 45 f4             	sub    -0xc(%ebp),%eax
  101eae:	39 c2                	cmp    %eax,%edx
  101eb0:	0f 46 c2             	cmovbe %edx,%eax
  101eb3:	89 45 ec             	mov    %eax,-0x14(%ebp)
/u/a/b/abhijith/CS537/p3b/xv6-sp20/kernel/fs.c:414 (discriminator 3)
  101eb6:	8b 45 f0             	mov    -0x10(%ebp),%eax
  101eb9:	8d 50 18             	lea    0x18(%eax),%edx
  101ebc:	8b 45 10             	mov    0x10(%ebp),%eax
  101ebf:	25 ff 01 00 00       	and    $0x1ff,%eax
  101ec4:	01 d0                	add    %edx,%eax
  101ec6:	83 ec 04             	sub    $0x4,%esp
  101ec9:	ff 75 ec             	pushl  -0x14(%ebp)
  101ecc:	50                   	push   %eax
  101ecd:	ff 75 0c             	pushl  0xc(%ebp)
  101ed0:	e8 9f 2c 00 00       	call   104b74 <memmove>
  101ed5:	83 c4 10             	add    $0x10,%esp
/u/a/b/abhijith/CS537/p3b/xv6-sp20/kernel/fs.c:415 (discriminator 3)
  101ed8:	83 ec 0c             	sub    $0xc,%esp
  101edb:	ff 75 f0             	pushl  -0x10(%ebp)
  101ede:	e8 75 e3 ff ff       	call   100258 <brelse>
  101ee3:	83 c4 10             	add    $0x10,%esp
/u/a/b/abhijith/CS537/p3b/xv6-sp20/kernel/fs.c:411 (discriminator 3)
  101ee6:	8b 45 ec             	mov    -0x14(%ebp),%eax
  101ee9:	01 45 f4             	add    %eax,-0xc(%ebp)
  101eec:	8b 45 ec             	mov    -0x14(%ebp),%eax
  101eef:	01 45 10             	add    %eax,0x10(%ebp)
  101ef2:	8b 45 ec             	mov    -0x14(%ebp),%eax
  101ef5:	01 45 0c             	add    %eax,0xc(%ebp)
/u/a/b/abhijith/CS537/p3b/xv6-sp20/kernel/fs.c:411 (discriminator 1)
  101ef8:	8b 45 f4             	mov    -0xc(%ebp),%eax
  101efb:	3b 45 14             	cmp    0x14(%ebp),%eax
  101efe:	0f 82 69 ff ff ff    	jb     101e6d <readi+0xbb>
/u/a/b/abhijith/CS537/p3b/xv6-sp20/kernel/fs.c:417
  101f04:	8b 45 14             	mov    0x14(%ebp),%eax
/u/a/b/abhijith/CS537/p3b/xv6-sp20/kernel/fs.c:418
  101f07:	c9                   	leave  
  101f08:	c3                   	ret    

00101f09 <writei>:
writei():
/u/a/b/abhijith/CS537/p3b/xv6-sp20/kernel/fs.c:423
  101f09:	55                   	push   %ebp
  101f0a:	89 e5                	mov    %esp,%ebp
  101f0c:	83 ec 18             	sub    $0x18,%esp
/u/a/b/abhijith/CS537/p3b/xv6-sp20/kernel/fs.c:427
  101f0f:	8b 45 08             	mov    0x8(%ebp),%eax
  101f12:	0f b7 40 10          	movzwl 0x10(%eax),%eax
  101f16:	66 83 f8 03          	cmp    $0x3,%ax
  101f1a:	75 5c                	jne    101f78 <writei+0x6f>
/u/a/b/abhijith/CS537/p3b/xv6-sp20/kernel/fs.c:428
  101f1c:	8b 45 08             	mov    0x8(%ebp),%eax
  101f1f:	0f b7 40 12          	movzwl 0x12(%eax),%eax
  101f23:	66 85 c0             	test   %ax,%ax
  101f26:	78 20                	js     101f48 <writei+0x3f>
/u/a/b/abhijith/CS537/p3b/xv6-sp20/kernel/fs.c:428 (discriminator 1)
  101f28:	8b 45 08             	mov    0x8(%ebp),%eax
  101f2b:	0f b7 40 12          	movzwl 0x12(%eax),%eax
  101f2f:	66 83 f8 09          	cmp    $0x9,%ax
  101f33:	7f 13                	jg     101f48 <writei+0x3f>
/u/a/b/abhijith/CS537/p3b/xv6-sp20/kernel/fs.c:428 (discriminator 2)
  101f35:	8b 45 08             	mov    0x8(%ebp),%eax
  101f38:	0f b7 40 12          	movzwl 0x12(%eax),%eax
  101f3c:	98                   	cwtl   
  101f3d:	8b 04 c5 e4 f6 10 00 	mov    0x10f6e4(,%eax,8),%eax
  101f44:	85 c0                	test   %eax,%eax
  101f46:	75 0a                	jne    101f52 <writei+0x49>
/u/a/b/abhijith/CS537/p3b/xv6-sp20/kernel/fs.c:429
  101f48:	b8 ff ff ff ff       	mov    $0xffffffff,%eax
  101f4d:	e9 3e 01 00 00       	jmp    102090 <writei+0x187>
/u/a/b/abhijith/CS537/p3b/xv6-sp20/kernel/fs.c:430
  101f52:	8b 45 08             	mov    0x8(%ebp),%eax
  101f55:	0f b7 40 12          	movzwl 0x12(%eax),%eax
  101f59:	98                   	cwtl   
  101f5a:	8b 04 c5 e4 f6 10 00 	mov    0x10f6e4(,%eax,8),%eax
  101f61:	8b 55 14             	mov    0x14(%ebp),%edx
  101f64:	83 ec 04             	sub    $0x4,%esp
  101f67:	52                   	push   %edx
  101f68:	ff 75 0c             	pushl  0xc(%ebp)
  101f6b:	ff 75 08             	pushl  0x8(%ebp)
  101f6e:	ff d0                	call   *%eax
  101f70:	83 c4 10             	add    $0x10,%esp
  101f73:	e9 18 01 00 00       	jmp    102090 <writei+0x187>
/u/a/b/abhijith/CS537/p3b/xv6-sp20/kernel/fs.c:433
  101f78:	8b 45 08             	mov    0x8(%ebp),%eax
  101f7b:	8b 40 18             	mov    0x18(%eax),%eax
  101f7e:	39 45 10             	cmp    %eax,0x10(%ebp)
  101f81:	77 0d                	ja     101f90 <writei+0x87>
/u/a/b/abhijith/CS537/p3b/xv6-sp20/kernel/fs.c:433 (discriminator 1)
  101f83:	8b 55 10             	mov    0x10(%ebp),%edx
  101f86:	8b 45 14             	mov    0x14(%ebp),%eax
  101f89:	01 d0                	add    %edx,%eax
  101f8b:	39 45 10             	cmp    %eax,0x10(%ebp)
  101f8e:	76 0a                	jbe    101f9a <writei+0x91>
/u/a/b/abhijith/CS537/p3b/xv6-sp20/kernel/fs.c:434
  101f90:	b8 ff ff ff ff       	mov    $0xffffffff,%eax
  101f95:	e9 f6 00 00 00       	jmp    102090 <writei+0x187>
/u/a/b/abhijith/CS537/p3b/xv6-sp20/kernel/fs.c:435
  101f9a:	8b 55 10             	mov    0x10(%ebp),%edx
  101f9d:	8b 45 14             	mov    0x14(%ebp),%eax
  101fa0:	01 d0                	add    %edx,%eax
  101fa2:	3d 00 18 01 00       	cmp    $0x11800,%eax
  101fa7:	76 0b                	jbe    101fb4 <writei+0xab>
/u/a/b/abhijith/CS537/p3b/xv6-sp20/kernel/fs.c:436
  101fa9:	b8 00 18 01 00       	mov    $0x11800,%eax
  101fae:	2b 45 10             	sub    0x10(%ebp),%eax
  101fb1:	89 45 14             	mov    %eax,0x14(%ebp)
/u/a/b/abhijith/CS537/p3b/xv6-sp20/kernel/fs.c:438
  101fb4:	c7 45 f4 00 00 00 00 	movl   $0x0,-0xc(%ebp)
  101fbb:	e9 99 00 00 00       	jmp    102059 <writei+0x150>
/u/a/b/abhijith/CS537/p3b/xv6-sp20/kernel/fs.c:439 (discriminator 3)
  101fc0:	8b 45 10             	mov    0x10(%ebp),%eax
  101fc3:	c1 e8 09             	shr    $0x9,%eax
  101fc6:	83 ec 08             	sub    $0x8,%esp
  101fc9:	50                   	push   %eax
  101fca:	ff 75 08             	pushl  0x8(%ebp)
  101fcd:	e8 5c fb ff ff       	call   101b2e <bmap>
  101fd2:	83 c4 10             	add    $0x10,%esp
  101fd5:	89 c2                	mov    %eax,%edx
  101fd7:	8b 45 08             	mov    0x8(%ebp),%eax
  101fda:	8b 00                	mov    (%eax),%eax
  101fdc:	83 ec 08             	sub    $0x8,%esp
  101fdf:	52                   	push   %edx
  101fe0:	50                   	push   %eax
  101fe1:	e8 fa e1 ff ff       	call   1001e0 <bread>
  101fe6:	83 c4 10             	add    $0x10,%esp
  101fe9:	89 45 f0             	mov    %eax,-0x10(%ebp)
/u/a/b/abhijith/CS537/p3b/xv6-sp20/kernel/fs.c:440 (discriminator 3)
  101fec:	8b 45 10             	mov    0x10(%ebp),%eax
  101fef:	25 ff 01 00 00       	and    $0x1ff,%eax
  101ff4:	ba 00 02 00 00       	mov    $0x200,%edx
  101ff9:	29 c2                	sub    %eax,%edx
  101ffb:	8b 45 14             	mov    0x14(%ebp),%eax
  101ffe:	2b 45 f4             	sub    -0xc(%ebp),%eax
  102001:	39 c2                	cmp    %eax,%edx
  102003:	0f 46 c2             	cmovbe %edx,%eax
  102006:	89 45 ec             	mov    %eax,-0x14(%ebp)
/u/a/b/abhijith/CS537/p3b/xv6-sp20/kernel/fs.c:441 (discriminator 3)
  102009:	8b 45 f0             	mov    -0x10(%ebp),%eax
  10200c:	8d 50 18             	lea    0x18(%eax),%edx
  10200f:	8b 45 10             	mov    0x10(%ebp),%eax
  102012:	25 ff 01 00 00       	and    $0x1ff,%eax
  102017:	01 d0                	add    %edx,%eax
  102019:	83 ec 04             	sub    $0x4,%esp
  10201c:	ff 75 ec             	pushl  -0x14(%ebp)
  10201f:	ff 75 0c             	pushl  0xc(%ebp)
  102022:	50                   	push   %eax
  102023:	e8 4c 2b 00 00       	call   104b74 <memmove>
  102028:	83 c4 10             	add    $0x10,%esp
/u/a/b/abhijith/CS537/p3b/xv6-sp20/kernel/fs.c:442 (discriminator 3)
  10202b:	83 ec 0c             	sub    $0xc,%esp
  10202e:	ff 75 f0             	pushl  -0x10(%ebp)
  102031:	e8 e3 e1 ff ff       	call   100219 <bwrite>
  102036:	83 c4 10             	add    $0x10,%esp
/u/a/b/abhijith/CS537/p3b/xv6-sp20/kernel/fs.c:443 (discriminator 3)
  102039:	83 ec 0c             	sub    $0xc,%esp
  10203c:	ff 75 f0             	pushl  -0x10(%ebp)
  10203f:	e8 14 e2 ff ff       	call   100258 <brelse>
  102044:	83 c4 10             	add    $0x10,%esp
/u/a/b/abhijith/CS537/p3b/xv6-sp20/kernel/fs.c:438 (discriminator 3)
  102047:	8b 45 ec             	mov    -0x14(%ebp),%eax
  10204a:	01 45 f4             	add    %eax,-0xc(%ebp)
  10204d:	8b 45 ec             	mov    -0x14(%ebp),%eax
  102050:	01 45 10             	add    %eax,0x10(%ebp)
  102053:	8b 45 ec             	mov    -0x14(%ebp),%eax
  102056:	01 45 0c             	add    %eax,0xc(%ebp)
/u/a/b/abhijith/CS537/p3b/xv6-sp20/kernel/fs.c:438 (discriminator 1)
  102059:	8b 45 f4             	mov    -0xc(%ebp),%eax
  10205c:	3b 45 14             	cmp    0x14(%ebp),%eax
  10205f:	0f 82 5b ff ff ff    	jb     101fc0 <writei+0xb7>
/u/a/b/abhijith/CS537/p3b/xv6-sp20/kernel/fs.c:446
  102065:	83 7d 14 00          	cmpl   $0x0,0x14(%ebp)
  102069:	74 22                	je     10208d <writei+0x184>
/u/a/b/abhijith/CS537/p3b/xv6-sp20/kernel/fs.c:446 (discriminator 1)
  10206b:	8b 45 08             	mov    0x8(%ebp),%eax
  10206e:	8b 40 18             	mov    0x18(%eax),%eax
  102071:	39 45 10             	cmp    %eax,0x10(%ebp)
  102074:	76 17                	jbe    10208d <writei+0x184>
/u/a/b/abhijith/CS537/p3b/xv6-sp20/kernel/fs.c:447
  102076:	8b 45 08             	mov    0x8(%ebp),%eax
  102079:	8b 55 10             	mov    0x10(%ebp),%edx
  10207c:	89 50 18             	mov    %edx,0x18(%eax)
/u/a/b/abhijith/CS537/p3b/xv6-sp20/kernel/fs.c:448
  10207f:	83 ec 0c             	sub    $0xc,%esp
  102082:	ff 75 08             	pushl  0x8(%ebp)
  102085:	e8 f1 f5 ff ff       	call   10167b <iupdate>
  10208a:	83 c4 10             	add    $0x10,%esp
/u/a/b/abhijith/CS537/p3b/xv6-sp20/kernel/fs.c:450
  10208d:	8b 45 14             	mov    0x14(%ebp),%eax
/u/a/b/abhijith/CS537/p3b/xv6-sp20/kernel/fs.c:451
  102090:	c9                   	leave  
  102091:	c3                   	ret    

00102092 <namecmp>:
namecmp():
/u/a/b/abhijith/CS537/p3b/xv6-sp20/kernel/fs.c:457
  102092:	55                   	push   %ebp
  102093:	89 e5                	mov    %esp,%ebp
  102095:	83 ec 08             	sub    $0x8,%esp
/u/a/b/abhijith/CS537/p3b/xv6-sp20/kernel/fs.c:458
  102098:	83 ec 04             	sub    $0x4,%esp
  10209b:	6a 0e                	push   $0xe
  10209d:	ff 75 0c             	pushl  0xc(%ebp)
  1020a0:	ff 75 08             	pushl  0x8(%ebp)
  1020a3:	e8 62 2b 00 00       	call   104c0a <strncmp>
  1020a8:	83 c4 10             	add    $0x10,%esp
/u/a/b/abhijith/CS537/p3b/xv6-sp20/kernel/fs.c:459
  1020ab:	c9                   	leave  
  1020ac:	c3                   	ret    

001020ad <dirlookup>:
dirlookup():
/u/a/b/abhijith/CS537/p3b/xv6-sp20/kernel/fs.c:466
  1020ad:	55                   	push   %ebp
  1020ae:	89 e5                	mov    %esp,%ebp
  1020b0:	83 ec 18             	sub    $0x18,%esp
/u/a/b/abhijith/CS537/p3b/xv6-sp20/kernel/fs.c:471
  1020b3:	8b 45 08             	mov    0x8(%ebp),%eax
  1020b6:	0f b7 40 10          	movzwl 0x10(%eax),%eax
  1020ba:	66 83 f8 01          	cmp    $0x1,%ax
  1020be:	74 0d                	je     1020cd <dirlookup+0x20>
/u/a/b/abhijith/CS537/p3b/xv6-sp20/kernel/fs.c:472
  1020c0:	83 ec 0c             	sub    $0xc,%esp
  1020c3:	68 f8 7f 10 00       	push   $0x107ff8
  1020c8:	e8 ab e4 ff ff       	call   100578 <panic>
/u/a/b/abhijith/CS537/p3b/xv6-sp20/kernel/fs.c:474
  1020cd:	c7 45 f4 00 00 00 00 	movl   $0x0,-0xc(%ebp)
  1020d4:	e9 da 00 00 00       	jmp    1021b3 <dirlookup+0x106>
/u/a/b/abhijith/CS537/p3b/xv6-sp20/kernel/fs.c:475
  1020d9:	8b 45 f4             	mov    -0xc(%ebp),%eax
  1020dc:	c1 e8 09             	shr    $0x9,%eax
  1020df:	83 ec 08             	sub    $0x8,%esp
  1020e2:	50                   	push   %eax
  1020e3:	ff 75 08             	pushl  0x8(%ebp)
  1020e6:	e8 43 fa ff ff       	call   101b2e <bmap>
  1020eb:	83 c4 10             	add    $0x10,%esp
  1020ee:	89 c2                	mov    %eax,%edx
  1020f0:	8b 45 08             	mov    0x8(%ebp),%eax
  1020f3:	8b 00                	mov    (%eax),%eax
  1020f5:	83 ec 08             	sub    $0x8,%esp
  1020f8:	52                   	push   %edx
  1020f9:	50                   	push   %eax
  1020fa:	e8 e1 e0 ff ff       	call   1001e0 <bread>
  1020ff:	83 c4 10             	add    $0x10,%esp
  102102:	89 45 ec             	mov    %eax,-0x14(%ebp)
/u/a/b/abhijith/CS537/p3b/xv6-sp20/kernel/fs.c:476
  102105:	8b 45 ec             	mov    -0x14(%ebp),%eax
  102108:	83 c0 18             	add    $0x18,%eax
  10210b:	89 45 f0             	mov    %eax,-0x10(%ebp)
  10210e:	eb 7a                	jmp    10218a <dirlookup+0xdd>
/u/a/b/abhijith/CS537/p3b/xv6-sp20/kernel/fs.c:479
  102110:	8b 45 f0             	mov    -0x10(%ebp),%eax
  102113:	0f b7 00             	movzwl (%eax),%eax
  102116:	66 85 c0             	test   %ax,%ax
  102119:	74 6a                	je     102185 <dirlookup+0xd8>
/u/a/b/abhijith/CS537/p3b/xv6-sp20/kernel/fs.c:481
  10211b:	8b 45 f0             	mov    -0x10(%ebp),%eax
  10211e:	83 c0 02             	add    $0x2,%eax
  102121:	83 ec 08             	sub    $0x8,%esp
  102124:	50                   	push   %eax
  102125:	ff 75 0c             	pushl  0xc(%ebp)
  102128:	e8 65 ff ff ff       	call   102092 <namecmp>
  10212d:	83 c4 10             	add    $0x10,%esp
  102130:	85 c0                	test   %eax,%eax
  102132:	75 52                	jne    102186 <dirlookup+0xd9>
/u/a/b/abhijith/CS537/p3b/xv6-sp20/kernel/fs.c:483
  102134:	83 7d 10 00          	cmpl   $0x0,0x10(%ebp)
  102138:	74 1b                	je     102155 <dirlookup+0xa8>
/u/a/b/abhijith/CS537/p3b/xv6-sp20/kernel/fs.c:484
  10213a:	8b 55 f0             	mov    -0x10(%ebp),%edx
  10213d:	8b 45 f4             	mov    -0xc(%ebp),%eax
  102140:	01 d0                	add    %edx,%eax
  102142:	89 c2                	mov    %eax,%edx
  102144:	8b 45 ec             	mov    -0x14(%ebp),%eax
  102147:	83 c0 18             	add    $0x18,%eax
  10214a:	29 c2                	sub    %eax,%edx
  10214c:	89 d0                	mov    %edx,%eax
  10214e:	89 c2                	mov    %eax,%edx
  102150:	8b 45 10             	mov    0x10(%ebp),%eax
  102153:	89 10                	mov    %edx,(%eax)
/u/a/b/abhijith/CS537/p3b/xv6-sp20/kernel/fs.c:485
  102155:	8b 45 f0             	mov    -0x10(%ebp),%eax
  102158:	0f b7 00             	movzwl (%eax),%eax
  10215b:	0f b7 c0             	movzwl %ax,%eax
  10215e:	89 45 e8             	mov    %eax,-0x18(%ebp)
/u/a/b/abhijith/CS537/p3b/xv6-sp20/kernel/fs.c:486
  102161:	83 ec 0c             	sub    $0xc,%esp
  102164:	ff 75 ec             	pushl  -0x14(%ebp)
  102167:	e8 ec e0 ff ff       	call   100258 <brelse>
  10216c:	83 c4 10             	add    $0x10,%esp
/u/a/b/abhijith/CS537/p3b/xv6-sp20/kernel/fs.c:487
  10216f:	8b 45 08             	mov    0x8(%ebp),%eax
  102172:	8b 00                	mov    (%eax),%eax
  102174:	83 ec 08             	sub    $0x8,%esp
  102177:	ff 75 e8             	pushl  -0x18(%ebp)
  10217a:	50                   	push   %eax
  10217b:	e8 b6 f5 ff ff       	call   101736 <iget>
  102180:	83 c4 10             	add    $0x10,%esp
  102183:	eb 42                	jmp    1021c7 <dirlookup+0x11a>
/u/a/b/abhijith/CS537/p3b/xv6-sp20/kernel/fs.c:480
  102185:	90                   	nop
/u/a/b/abhijith/CS537/p3b/xv6-sp20/kernel/fs.c:478
  102186:	83 45 f0 10          	addl   $0x10,-0x10(%ebp)
/u/a/b/abhijith/CS537/p3b/xv6-sp20/kernel/fs.c:477 (discriminator 1)
  10218a:	8b 45 ec             	mov    -0x14(%ebp),%eax
  10218d:	83 c0 18             	add    $0x18,%eax
  102190:	05 00 02 00 00       	add    $0x200,%eax
/u/a/b/abhijith/CS537/p3b/xv6-sp20/kernel/fs.c:476 (discriminator 1)
  102195:	39 45 f0             	cmp    %eax,-0x10(%ebp)
  102198:	0f 82 72 ff ff ff    	jb     102110 <dirlookup+0x63>
/u/a/b/abhijith/CS537/p3b/xv6-sp20/kernel/fs.c:490 (discriminator 2)
  10219e:	83 ec 0c             	sub    $0xc,%esp
  1021a1:	ff 75 ec             	pushl  -0x14(%ebp)
  1021a4:	e8 af e0 ff ff       	call   100258 <brelse>
  1021a9:	83 c4 10             	add    $0x10,%esp
/u/a/b/abhijith/CS537/p3b/xv6-sp20/kernel/fs.c:474 (discriminator 2)
  1021ac:	81 45 f4 00 02 00 00 	addl   $0x200,-0xc(%ebp)
/u/a/b/abhijith/CS537/p3b/xv6-sp20/kernel/fs.c:474 (discriminator 1)
  1021b3:	8b 45 08             	mov    0x8(%ebp),%eax
  1021b6:	8b 40 18             	mov    0x18(%eax),%eax
  1021b9:	39 45 f4             	cmp    %eax,-0xc(%ebp)
  1021bc:	0f 82 17 ff ff ff    	jb     1020d9 <dirlookup+0x2c>
/u/a/b/abhijith/CS537/p3b/xv6-sp20/kernel/fs.c:492
  1021c2:	b8 00 00 00 00       	mov    $0x0,%eax
/u/a/b/abhijith/CS537/p3b/xv6-sp20/kernel/fs.c:493
  1021c7:	c9                   	leave  
  1021c8:	c3                   	ret    

001021c9 <dirlink>:
dirlink():
/u/a/b/abhijith/CS537/p3b/xv6-sp20/kernel/fs.c:498
  1021c9:	55                   	push   %ebp
  1021ca:	89 e5                	mov    %esp,%ebp
  1021cc:	83 ec 28             	sub    $0x28,%esp
/u/a/b/abhijith/CS537/p3b/xv6-sp20/kernel/fs.c:504
  1021cf:	83 ec 04             	sub    $0x4,%esp
  1021d2:	6a 00                	push   $0x0
  1021d4:	ff 75 0c             	pushl  0xc(%ebp)
  1021d7:	ff 75 08             	pushl  0x8(%ebp)
  1021da:	e8 ce fe ff ff       	call   1020ad <dirlookup>
  1021df:	83 c4 10             	add    $0x10,%esp
  1021e2:	89 45 f0             	mov    %eax,-0x10(%ebp)
  1021e5:	83 7d f0 00          	cmpl   $0x0,-0x10(%ebp)
  1021e9:	74 18                	je     102203 <dirlink+0x3a>
/u/a/b/abhijith/CS537/p3b/xv6-sp20/kernel/fs.c:505
  1021eb:	83 ec 0c             	sub    $0xc,%esp
  1021ee:	ff 75 f0             	pushl  -0x10(%ebp)
  1021f1:	e8 23 f8 ff ff       	call   101a19 <iput>
  1021f6:	83 c4 10             	add    $0x10,%esp
/u/a/b/abhijith/CS537/p3b/xv6-sp20/kernel/fs.c:506
  1021f9:	b8 ff ff ff ff       	mov    $0xffffffff,%eax
  1021fe:	e9 9c 00 00 00       	jmp    10229f <dirlink+0xd6>
/u/a/b/abhijith/CS537/p3b/xv6-sp20/kernel/fs.c:510
  102203:	c7 45 f4 00 00 00 00 	movl   $0x0,-0xc(%ebp)
  10220a:	eb 39                	jmp    102245 <dirlink+0x7c>
/u/a/b/abhijith/CS537/p3b/xv6-sp20/kernel/fs.c:511
  10220c:	8b 45 f4             	mov    -0xc(%ebp),%eax
  10220f:	6a 10                	push   $0x10
  102211:	50                   	push   %eax
  102212:	8d 45 e0             	lea    -0x20(%ebp),%eax
  102215:	50                   	push   %eax
  102216:	ff 75 08             	pushl  0x8(%ebp)
  102219:	e8 94 fb ff ff       	call   101db2 <readi>
  10221e:	83 c4 10             	add    $0x10,%esp
  102221:	83 f8 10             	cmp    $0x10,%eax
  102224:	74 0d                	je     102233 <dirlink+0x6a>
/u/a/b/abhijith/CS537/p3b/xv6-sp20/kernel/fs.c:512
  102226:	83 ec 0c             	sub    $0xc,%esp
  102229:	68 0a 80 10 00       	push   $0x10800a
  10222e:	e8 45 e3 ff ff       	call   100578 <panic>
/u/a/b/abhijith/CS537/p3b/xv6-sp20/kernel/fs.c:513
  102233:	0f b7 45 e0          	movzwl -0x20(%ebp),%eax
  102237:	66 85 c0             	test   %ax,%ax
  10223a:	74 18                	je     102254 <dirlink+0x8b>
/u/a/b/abhijith/CS537/p3b/xv6-sp20/kernel/fs.c:510 (discriminator 2)
  10223c:	8b 45 f4             	mov    -0xc(%ebp),%eax
  10223f:	83 c0 10             	add    $0x10,%eax
  102242:	89 45 f4             	mov    %eax,-0xc(%ebp)
/u/a/b/abhijith/CS537/p3b/xv6-sp20/kernel/fs.c:510 (discriminator 1)
  102245:	8b 45 08             	mov    0x8(%ebp),%eax
  102248:	8b 50 18             	mov    0x18(%eax),%edx
  10224b:	8b 45 f4             	mov    -0xc(%ebp),%eax
  10224e:	39 c2                	cmp    %eax,%edx
  102250:	77 ba                	ja     10220c <dirlink+0x43>
  102252:	eb 01                	jmp    102255 <dirlink+0x8c>
/u/a/b/abhijith/CS537/p3b/xv6-sp20/kernel/fs.c:514
  102254:	90                   	nop
/u/a/b/abhijith/CS537/p3b/xv6-sp20/kernel/fs.c:517
  102255:	83 ec 04             	sub    $0x4,%esp
  102258:	6a 0e                	push   $0xe
  10225a:	ff 75 0c             	pushl  0xc(%ebp)
  10225d:	8d 45 e0             	lea    -0x20(%ebp),%eax
  102260:	83 c0 02             	add    $0x2,%eax
  102263:	50                   	push   %eax
  102264:	e8 f7 29 00 00       	call   104c60 <strncpy>
  102269:	83 c4 10             	add    $0x10,%esp
/u/a/b/abhijith/CS537/p3b/xv6-sp20/kernel/fs.c:518
  10226c:	8b 45 10             	mov    0x10(%ebp),%eax
  10226f:	66 89 45 e0          	mov    %ax,-0x20(%ebp)
/u/a/b/abhijith/CS537/p3b/xv6-sp20/kernel/fs.c:519
  102273:	8b 45 f4             	mov    -0xc(%ebp),%eax
  102276:	6a 10                	push   $0x10
  102278:	50                   	push   %eax
  102279:	8d 45 e0             	lea    -0x20(%ebp),%eax
  10227c:	50                   	push   %eax
  10227d:	ff 75 08             	pushl  0x8(%ebp)
  102280:	e8 84 fc ff ff       	call   101f09 <writei>
  102285:	83 c4 10             	add    $0x10,%esp
  102288:	83 f8 10             	cmp    $0x10,%eax
  10228b:	74 0d                	je     10229a <dirlink+0xd1>
/u/a/b/abhijith/CS537/p3b/xv6-sp20/kernel/fs.c:520
  10228d:	83 ec 0c             	sub    $0xc,%esp
  102290:	68 17 80 10 00       	push   $0x108017
  102295:	e8 de e2 ff ff       	call   100578 <panic>
/u/a/b/abhijith/CS537/p3b/xv6-sp20/kernel/fs.c:522
  10229a:	b8 00 00 00 00       	mov    $0x0,%eax
/u/a/b/abhijith/CS537/p3b/xv6-sp20/kernel/fs.c:523 (discriminator 1)
  10229f:	c9                   	leave  
  1022a0:	c3                   	ret    

001022a1 <skipelem>:
skipelem():
/u/a/b/abhijith/CS537/p3b/xv6-sp20/kernel/fs.c:541
  1022a1:	55                   	push   %ebp
  1022a2:	89 e5                	mov    %esp,%ebp
  1022a4:	83 ec 18             	sub    $0x18,%esp
/u/a/b/abhijith/CS537/p3b/xv6-sp20/kernel/fs.c:545
  1022a7:	eb 04                	jmp    1022ad <skipelem+0xc>
/u/a/b/abhijith/CS537/p3b/xv6-sp20/kernel/fs.c:546
  1022a9:	83 45 08 01          	addl   $0x1,0x8(%ebp)
/u/a/b/abhijith/CS537/p3b/xv6-sp20/kernel/fs.c:545
  1022ad:	8b 45 08             	mov    0x8(%ebp),%eax
  1022b0:	0f b6 00             	movzbl (%eax),%eax
  1022b3:	3c 2f                	cmp    $0x2f,%al
  1022b5:	74 f2                	je     1022a9 <skipelem+0x8>
/u/a/b/abhijith/CS537/p3b/xv6-sp20/kernel/fs.c:547
  1022b7:	8b 45 08             	mov    0x8(%ebp),%eax
  1022ba:	0f b6 00             	movzbl (%eax),%eax
  1022bd:	84 c0                	test   %al,%al
  1022bf:	75 07                	jne    1022c8 <skipelem+0x27>
/u/a/b/abhijith/CS537/p3b/xv6-sp20/kernel/fs.c:548
  1022c1:	b8 00 00 00 00       	mov    $0x0,%eax
  1022c6:	eb 7b                	jmp    102343 <skipelem+0xa2>
/u/a/b/abhijith/CS537/p3b/xv6-sp20/kernel/fs.c:549
  1022c8:	8b 45 08             	mov    0x8(%ebp),%eax
  1022cb:	89 45 f4             	mov    %eax,-0xc(%ebp)
/u/a/b/abhijith/CS537/p3b/xv6-sp20/kernel/fs.c:550
  1022ce:	eb 04                	jmp    1022d4 <skipelem+0x33>
/u/a/b/abhijith/CS537/p3b/xv6-sp20/kernel/fs.c:551
  1022d0:	83 45 08 01          	addl   $0x1,0x8(%ebp)
/u/a/b/abhijith/CS537/p3b/xv6-sp20/kernel/fs.c:550
  1022d4:	8b 45 08             	mov    0x8(%ebp),%eax
  1022d7:	0f b6 00             	movzbl (%eax),%eax
  1022da:	3c 2f                	cmp    $0x2f,%al
  1022dc:	74 0a                	je     1022e8 <skipelem+0x47>
/u/a/b/abhijith/CS537/p3b/xv6-sp20/kernel/fs.c:550 (discriminator 1)
  1022de:	8b 45 08             	mov    0x8(%ebp),%eax
  1022e1:	0f b6 00             	movzbl (%eax),%eax
  1022e4:	84 c0                	test   %al,%al
  1022e6:	75 e8                	jne    1022d0 <skipelem+0x2f>
/u/a/b/abhijith/CS537/p3b/xv6-sp20/kernel/fs.c:552
  1022e8:	8b 55 08             	mov    0x8(%ebp),%edx
  1022eb:	8b 45 f4             	mov    -0xc(%ebp),%eax
  1022ee:	29 c2                	sub    %eax,%edx
  1022f0:	89 d0                	mov    %edx,%eax
  1022f2:	89 45 f0             	mov    %eax,-0x10(%ebp)
/u/a/b/abhijith/CS537/p3b/xv6-sp20/kernel/fs.c:553
  1022f5:	83 7d f0 0d          	cmpl   $0xd,-0x10(%ebp)
  1022f9:	7e 15                	jle    102310 <skipelem+0x6f>
/u/a/b/abhijith/CS537/p3b/xv6-sp20/kernel/fs.c:554
  1022fb:	83 ec 04             	sub    $0x4,%esp
  1022fe:	6a 0e                	push   $0xe
  102300:	ff 75 f4             	pushl  -0xc(%ebp)
  102303:	ff 75 0c             	pushl  0xc(%ebp)
  102306:	e8 69 28 00 00       	call   104b74 <memmove>
  10230b:	83 c4 10             	add    $0x10,%esp
  10230e:	eb 26                	jmp    102336 <skipelem+0x95>
/u/a/b/abhijith/CS537/p3b/xv6-sp20/kernel/fs.c:556
  102310:	8b 45 f0             	mov    -0x10(%ebp),%eax
  102313:	83 ec 04             	sub    $0x4,%esp
  102316:	50                   	push   %eax
  102317:	ff 75 f4             	pushl  -0xc(%ebp)
  10231a:	ff 75 0c             	pushl  0xc(%ebp)
  10231d:	e8 52 28 00 00       	call   104b74 <memmove>
  102322:	83 c4 10             	add    $0x10,%esp
/u/a/b/abhijith/CS537/p3b/xv6-sp20/kernel/fs.c:557
  102325:	8b 55 f0             	mov    -0x10(%ebp),%edx
  102328:	8b 45 0c             	mov    0xc(%ebp),%eax
  10232b:	01 d0                	add    %edx,%eax
  10232d:	c6 00 00             	movb   $0x0,(%eax)
/u/a/b/abhijith/CS537/p3b/xv6-sp20/kernel/fs.c:559
  102330:	eb 04                	jmp    102336 <skipelem+0x95>
/u/a/b/abhijith/CS537/p3b/xv6-sp20/kernel/fs.c:560
  102332:	83 45 08 01          	addl   $0x1,0x8(%ebp)
/u/a/b/abhijith/CS537/p3b/xv6-sp20/kernel/fs.c:559
  102336:	8b 45 08             	mov    0x8(%ebp),%eax
  102339:	0f b6 00             	movzbl (%eax),%eax
  10233c:	3c 2f                	cmp    $0x2f,%al
  10233e:	74 f2                	je     102332 <skipelem+0x91>
/u/a/b/abhijith/CS537/p3b/xv6-sp20/kernel/fs.c:561
  102340:	8b 45 08             	mov    0x8(%ebp),%eax
/u/a/b/abhijith/CS537/p3b/xv6-sp20/kernel/fs.c:562
  102343:	c9                   	leave  
  102344:	c3                   	ret    

00102345 <namex>:
namex():
/u/a/b/abhijith/CS537/p3b/xv6-sp20/kernel/fs.c:569
  102345:	55                   	push   %ebp
  102346:	89 e5                	mov    %esp,%ebp
  102348:	83 ec 18             	sub    $0x18,%esp
/u/a/b/abhijith/CS537/p3b/xv6-sp20/kernel/fs.c:572
  10234b:	8b 45 08             	mov    0x8(%ebp),%eax
  10234e:	0f b6 00             	movzbl (%eax),%eax
  102351:	3c 2f                	cmp    $0x2f,%al
  102353:	75 17                	jne    10236c <namex+0x27>
/u/a/b/abhijith/CS537/p3b/xv6-sp20/kernel/fs.c:573
  102355:	83 ec 08             	sub    $0x8,%esp
  102358:	6a 01                	push   $0x1
  10235a:	6a 01                	push   $0x1
  10235c:	e8 d5 f3 ff ff       	call   101736 <iget>
  102361:	83 c4 10             	add    $0x10,%esp
  102364:	89 45 f4             	mov    %eax,-0xc(%ebp)
  102367:	e9 bb 00 00 00       	jmp    102427 <namex+0xe2>
/u/a/b/abhijith/CS537/p3b/xv6-sp20/kernel/fs.c:575
  10236c:	65 a1 04 00 00 00    	mov    %gs:0x4,%eax
  102372:	8b 40 68             	mov    0x68(%eax),%eax
  102375:	83 ec 0c             	sub    $0xc,%esp
  102378:	50                   	push   %eax
  102379:	e8 97 f4 ff ff       	call   101815 <idup>
  10237e:	83 c4 10             	add    $0x10,%esp
  102381:	89 45 f4             	mov    %eax,-0xc(%ebp)
/u/a/b/abhijith/CS537/p3b/xv6-sp20/kernel/fs.c:577
  102384:	e9 9e 00 00 00       	jmp    102427 <namex+0xe2>
/u/a/b/abhijith/CS537/p3b/xv6-sp20/kernel/fs.c:578
  102389:	83 ec 0c             	sub    $0xc,%esp
  10238c:	ff 75 f4             	pushl  -0xc(%ebp)
  10238f:	e8 bb f4 ff ff       	call   10184f <ilock>
  102394:	83 c4 10             	add    $0x10,%esp
/u/a/b/abhijith/CS537/p3b/xv6-sp20/kernel/fs.c:579
  102397:	8b 45 f4             	mov    -0xc(%ebp),%eax
  10239a:	0f b7 40 10          	movzwl 0x10(%eax),%eax
  10239e:	66 83 f8 01          	cmp    $0x1,%ax
  1023a2:	74 18                	je     1023bc <namex+0x77>
/u/a/b/abhijith/CS537/p3b/xv6-sp20/kernel/fs.c:580
  1023a4:	83 ec 0c             	sub    $0xc,%esp
  1023a7:	ff 75 f4             	pushl  -0xc(%ebp)
  1023aa:	e8 5a f7 ff ff       	call   101b09 <iunlockput>
  1023af:	83 c4 10             	add    $0x10,%esp
/u/a/b/abhijith/CS537/p3b/xv6-sp20/kernel/fs.c:581
  1023b2:	b8 00 00 00 00       	mov    $0x0,%eax
  1023b7:	e9 a7 00 00 00       	jmp    102463 <namex+0x11e>
/u/a/b/abhijith/CS537/p3b/xv6-sp20/kernel/fs.c:583
  1023bc:	83 7d 0c 00          	cmpl   $0x0,0xc(%ebp)
  1023c0:	74 20                	je     1023e2 <namex+0x9d>
/u/a/b/abhijith/CS537/p3b/xv6-sp20/kernel/fs.c:583 (discriminator 1)
  1023c2:	8b 45 08             	mov    0x8(%ebp),%eax
  1023c5:	0f b6 00             	movzbl (%eax),%eax
  1023c8:	84 c0                	test   %al,%al
  1023ca:	75 16                	jne    1023e2 <namex+0x9d>
/u/a/b/abhijith/CS537/p3b/xv6-sp20/kernel/fs.c:585
  1023cc:	83 ec 0c             	sub    $0xc,%esp
  1023cf:	ff 75 f4             	pushl  -0xc(%ebp)
  1023d2:	e8 d0 f5 ff ff       	call   1019a7 <iunlock>
  1023d7:	83 c4 10             	add    $0x10,%esp
/u/a/b/abhijith/CS537/p3b/xv6-sp20/kernel/fs.c:586
  1023da:	8b 45 f4             	mov    -0xc(%ebp),%eax
  1023dd:	e9 81 00 00 00       	jmp    102463 <namex+0x11e>
/u/a/b/abhijith/CS537/p3b/xv6-sp20/kernel/fs.c:588
  1023e2:	83 ec 04             	sub    $0x4,%esp
  1023e5:	6a 00                	push   $0x0
  1023e7:	ff 75 10             	pushl  0x10(%ebp)
  1023ea:	ff 75 f4             	pushl  -0xc(%ebp)
  1023ed:	e8 bb fc ff ff       	call   1020ad <dirlookup>
  1023f2:	83 c4 10             	add    $0x10,%esp
  1023f5:	89 45 f0             	mov    %eax,-0x10(%ebp)
  1023f8:	83 7d f0 00          	cmpl   $0x0,-0x10(%ebp)
  1023fc:	75 15                	jne    102413 <namex+0xce>
/u/a/b/abhijith/CS537/p3b/xv6-sp20/kernel/fs.c:589
  1023fe:	83 ec 0c             	sub    $0xc,%esp
  102401:	ff 75 f4             	pushl  -0xc(%ebp)
  102404:	e8 00 f7 ff ff       	call   101b09 <iunlockput>
  102409:	83 c4 10             	add    $0x10,%esp
/u/a/b/abhijith/CS537/p3b/xv6-sp20/kernel/fs.c:590
  10240c:	b8 00 00 00 00       	mov    $0x0,%eax
  102411:	eb 50                	jmp    102463 <namex+0x11e>
/u/a/b/abhijith/CS537/p3b/xv6-sp20/kernel/fs.c:592
  102413:	83 ec 0c             	sub    $0xc,%esp
  102416:	ff 75 f4             	pushl  -0xc(%ebp)
  102419:	e8 eb f6 ff ff       	call   101b09 <iunlockput>
  10241e:	83 c4 10             	add    $0x10,%esp
/u/a/b/abhijith/CS537/p3b/xv6-sp20/kernel/fs.c:593
  102421:	8b 45 f0             	mov    -0x10(%ebp),%eax
  102424:	89 45 f4             	mov    %eax,-0xc(%ebp)
/u/a/b/abhijith/CS537/p3b/xv6-sp20/kernel/fs.c:577
  102427:	83 ec 08             	sub    $0x8,%esp
  10242a:	ff 75 10             	pushl  0x10(%ebp)
  10242d:	ff 75 08             	pushl  0x8(%ebp)
  102430:	e8 6c fe ff ff       	call   1022a1 <skipelem>
  102435:	83 c4 10             	add    $0x10,%esp
  102438:	89 45 08             	mov    %eax,0x8(%ebp)
  10243b:	83 7d 08 00          	cmpl   $0x0,0x8(%ebp)
  10243f:	0f 85 44 ff ff ff    	jne    102389 <namex+0x44>
/u/a/b/abhijith/CS537/p3b/xv6-sp20/kernel/fs.c:595
  102445:	83 7d 0c 00          	cmpl   $0x0,0xc(%ebp)
  102449:	74 15                	je     102460 <namex+0x11b>
/u/a/b/abhijith/CS537/p3b/xv6-sp20/kernel/fs.c:596
  10244b:	83 ec 0c             	sub    $0xc,%esp
  10244e:	ff 75 f4             	pushl  -0xc(%ebp)
  102451:	e8 c3 f5 ff ff       	call   101a19 <iput>
  102456:	83 c4 10             	add    $0x10,%esp
/u/a/b/abhijith/CS537/p3b/xv6-sp20/kernel/fs.c:597
  102459:	b8 00 00 00 00       	mov    $0x0,%eax
  10245e:	eb 03                	jmp    102463 <namex+0x11e>
/u/a/b/abhijith/CS537/p3b/xv6-sp20/kernel/fs.c:599
  102460:	8b 45 f4             	mov    -0xc(%ebp),%eax
/u/a/b/abhijith/CS537/p3b/xv6-sp20/kernel/fs.c:600
  102463:	c9                   	leave  
  102464:	c3                   	ret    

00102465 <namei>:
namei():
/u/a/b/abhijith/CS537/p3b/xv6-sp20/kernel/fs.c:604
  102465:	55                   	push   %ebp
  102466:	89 e5                	mov    %esp,%ebp
  102468:	83 ec 18             	sub    $0x18,%esp
/u/a/b/abhijith/CS537/p3b/xv6-sp20/kernel/fs.c:606
  10246b:	83 ec 04             	sub    $0x4,%esp
  10246e:	8d 45 ea             	lea    -0x16(%ebp),%eax
  102471:	50                   	push   %eax
  102472:	6a 00                	push   $0x0
  102474:	ff 75 08             	pushl  0x8(%ebp)
  102477:	e8 c9 fe ff ff       	call   102345 <namex>
  10247c:	83 c4 10             	add    $0x10,%esp
/u/a/b/abhijith/CS537/p3b/xv6-sp20/kernel/fs.c:607
  10247f:	c9                   	leave  
  102480:	c3                   	ret    

00102481 <nameiparent>:
nameiparent():
/u/a/b/abhijith/CS537/p3b/xv6-sp20/kernel/fs.c:611
  102481:	55                   	push   %ebp
  102482:	89 e5                	mov    %esp,%ebp
  102484:	83 ec 08             	sub    $0x8,%esp
/u/a/b/abhijith/CS537/p3b/xv6-sp20/kernel/fs.c:612
  102487:	83 ec 04             	sub    $0x4,%esp
  10248a:	ff 75 0c             	pushl  0xc(%ebp)
  10248d:	6a 01                	push   $0x1
  10248f:	ff 75 08             	pushl  0x8(%ebp)
  102492:	e8 ae fe ff ff       	call   102345 <namex>
  102497:	83 c4 10             	add    $0x10,%esp
/u/a/b/abhijith/CS537/p3b/xv6-sp20/kernel/fs.c:613
  10249a:	c9                   	leave  
  10249b:	c3                   	ret    

0010249c <inb>:
inb():
/u/a/b/abhijith/CS537/p3b/xv6-sp20/include/x86.h:7
  10249c:	55                   	push   %ebp
  10249d:	89 e5                	mov    %esp,%ebp
  10249f:	83 ec 14             	sub    $0x14,%esp
  1024a2:	8b 45 08             	mov    0x8(%ebp),%eax
  1024a5:	66 89 45 ec          	mov    %ax,-0x14(%ebp)
/u/a/b/abhijith/CS537/p3b/xv6-sp20/include/x86.h:10
  1024a9:	0f b7 45 ec          	movzwl -0x14(%ebp),%eax
  1024ad:	89 c2                	mov    %eax,%edx
  1024af:	ec                   	in     (%dx),%al
  1024b0:	88 45 ff             	mov    %al,-0x1(%ebp)
/u/a/b/abhijith/CS537/p3b/xv6-sp20/include/x86.h:11
  1024b3:	0f b6 45 ff          	movzbl -0x1(%ebp),%eax
/u/a/b/abhijith/CS537/p3b/xv6-sp20/include/x86.h:12
  1024b7:	c9                   	leave  
  1024b8:	c3                   	ret    

001024b9 <insl>:
insl():
/u/a/b/abhijith/CS537/p3b/xv6-sp20/include/x86.h:16
  1024b9:	55                   	push   %ebp
  1024ba:	89 e5                	mov    %esp,%ebp
  1024bc:	57                   	push   %edi
  1024bd:	53                   	push   %ebx
/u/a/b/abhijith/CS537/p3b/xv6-sp20/include/x86.h:17
  1024be:	8b 55 08             	mov    0x8(%ebp),%edx
  1024c1:	8b 4d 0c             	mov    0xc(%ebp),%ecx
  1024c4:	8b 45 10             	mov    0x10(%ebp),%eax
  1024c7:	89 cb                	mov    %ecx,%ebx
  1024c9:	89 df                	mov    %ebx,%edi
  1024cb:	89 c1                	mov    %eax,%ecx
  1024cd:	fc                   	cld    
  1024ce:	f3 6d                	rep insl (%dx),%es:(%edi)
  1024d0:	89 c8                	mov    %ecx,%eax
  1024d2:	89 fb                	mov    %edi,%ebx
  1024d4:	89 5d 0c             	mov    %ebx,0xc(%ebp)
  1024d7:	89 45 10             	mov    %eax,0x10(%ebp)
/u/a/b/abhijith/CS537/p3b/xv6-sp20/include/x86.h:21
  1024da:	90                   	nop
  1024db:	5b                   	pop    %ebx
  1024dc:	5f                   	pop    %edi
  1024dd:	5d                   	pop    %ebp
  1024de:	c3                   	ret    

001024df <outb>:
outb():
/u/a/b/abhijith/CS537/p3b/xv6-sp20/include/x86.h:25
  1024df:	55                   	push   %ebp
  1024e0:	89 e5                	mov    %esp,%ebp
  1024e2:	83 ec 08             	sub    $0x8,%esp
  1024e5:	8b 55 08             	mov    0x8(%ebp),%edx
  1024e8:	8b 45 0c             	mov    0xc(%ebp),%eax
  1024eb:	66 89 55 fc          	mov    %dx,-0x4(%ebp)
  1024ef:	88 45 f8             	mov    %al,-0x8(%ebp)
/u/a/b/abhijith/CS537/p3b/xv6-sp20/include/x86.h:26
  1024f2:	0f b6 45 f8          	movzbl -0x8(%ebp),%eax
  1024f6:	0f b7 55 fc          	movzwl -0x4(%ebp),%edx
  1024fa:	ee                   	out    %al,(%dx)
/u/a/b/abhijith/CS537/p3b/xv6-sp20/include/x86.h:27
  1024fb:	90                   	nop
  1024fc:	c9                   	leave  
  1024fd:	c3                   	ret    

001024fe <outsl>:
outsl():
/u/a/b/abhijith/CS537/p3b/xv6-sp20/include/x86.h:37
  1024fe:	55                   	push   %ebp
  1024ff:	89 e5                	mov    %esp,%ebp
  102501:	56                   	push   %esi
  102502:	53                   	push   %ebx
/u/a/b/abhijith/CS537/p3b/xv6-sp20/include/x86.h:38
  102503:	8b 55 08             	mov    0x8(%ebp),%edx
  102506:	8b 4d 0c             	mov    0xc(%ebp),%ecx
  102509:	8b 45 10             	mov    0x10(%ebp),%eax
  10250c:	89 cb                	mov    %ecx,%ebx
  10250e:	89 de                	mov    %ebx,%esi
  102510:	89 c1                	mov    %eax,%ecx
  102512:	fc                   	cld    
  102513:	f3 6f                	rep outsl %ds:(%esi),(%dx)
  102515:	89 c8                	mov    %ecx,%eax
  102517:	89 f3                	mov    %esi,%ebx
  102519:	89 5d 0c             	mov    %ebx,0xc(%ebp)
  10251c:	89 45 10             	mov    %eax,0x10(%ebp)
/u/a/b/abhijith/CS537/p3b/xv6-sp20/include/x86.h:42
  10251f:	90                   	nop
  102520:	5b                   	pop    %ebx
  102521:	5e                   	pop    %esi
  102522:	5d                   	pop    %ebp
  102523:	c3                   	ret    

00102524 <idewait>:
idewait():
/u/a/b/abhijith/CS537/p3b/xv6-sp20/kernel/ide.c:34
  102524:	55                   	push   %ebp
  102525:	89 e5                	mov    %esp,%ebp
  102527:	83 ec 10             	sub    $0x10,%esp
/u/a/b/abhijith/CS537/p3b/xv6-sp20/kernel/ide.c:37
  10252a:	90                   	nop
/u/a/b/abhijith/CS537/p3b/xv6-sp20/kernel/ide.c:37 (discriminator 1)
  10252b:	68 f7 01 00 00       	push   $0x1f7
  102530:	e8 67 ff ff ff       	call   10249c <inb>
  102535:	83 c4 04             	add    $0x4,%esp
  102538:	0f b6 c0             	movzbl %al,%eax
  10253b:	89 45 fc             	mov    %eax,-0x4(%ebp)
  10253e:	8b 45 fc             	mov    -0x4(%ebp),%eax
  102541:	25 c0 00 00 00       	and    $0xc0,%eax
  102546:	83 f8 40             	cmp    $0x40,%eax
  102549:	75 e0                	jne    10252b <idewait+0x7>
/u/a/b/abhijith/CS537/p3b/xv6-sp20/kernel/ide.c:39
  10254b:	83 7d 08 00          	cmpl   $0x0,0x8(%ebp)
  10254f:	74 11                	je     102562 <idewait+0x3e>
/u/a/b/abhijith/CS537/p3b/xv6-sp20/kernel/ide.c:39 (discriminator 1)
  102551:	8b 45 fc             	mov    -0x4(%ebp),%eax
  102554:	83 e0 21             	and    $0x21,%eax
  102557:	85 c0                	test   %eax,%eax
  102559:	74 07                	je     102562 <idewait+0x3e>
/u/a/b/abhijith/CS537/p3b/xv6-sp20/kernel/ide.c:40
  10255b:	b8 ff ff ff ff       	mov    $0xffffffff,%eax
  102560:	eb 05                	jmp    102567 <idewait+0x43>
/u/a/b/abhijith/CS537/p3b/xv6-sp20/kernel/ide.c:41
  102562:	b8 00 00 00 00       	mov    $0x0,%eax
/u/a/b/abhijith/CS537/p3b/xv6-sp20/kernel/ide.c:42
  102567:	c9                   	leave  
  102568:	c3                   	ret    

00102569 <ideinit>:
ideinit():
/u/a/b/abhijith/CS537/p3b/xv6-sp20/kernel/ide.c:46
  102569:	55                   	push   %ebp
  10256a:	89 e5                	mov    %esp,%ebp
  10256c:	83 ec 18             	sub    $0x18,%esp
/u/a/b/abhijith/CS537/p3b/xv6-sp20/kernel/ide.c:49
  10256f:	83 ec 08             	sub    $0x8,%esp
  102572:	68 1f 80 10 00       	push   $0x10801f
  102577:	68 c0 bc 10 00       	push   $0x10bcc0
  10257c:	e8 22 23 00 00       	call   1048a3 <initlock>
  102581:	83 c4 10             	add    $0x10,%esp
/u/a/b/abhijith/CS537/p3b/xv6-sp20/kernel/ide.c:50
  102584:	83 ec 0c             	sub    $0xc,%esp
  102587:	6a 0e                	push   $0xe
  102589:	e8 95 12 00 00       	call   103823 <picenable>
  10258e:	83 c4 10             	add    $0x10,%esp
/u/a/b/abhijith/CS537/p3b/xv6-sp20/kernel/ide.c:51
  102591:	a1 60 0d 11 00       	mov    0x110d60,%eax
  102596:	83 e8 01             	sub    $0x1,%eax
  102599:	83 ec 08             	sub    $0x8,%esp
  10259c:	50                   	push   %eax
  10259d:	6a 0e                	push   $0xe
  10259f:	e8 37 04 00 00       	call   1029db <ioapicenable>
  1025a4:	83 c4 10             	add    $0x10,%esp
/u/a/b/abhijith/CS537/p3b/xv6-sp20/kernel/ide.c:52
  1025a7:	83 ec 0c             	sub    $0xc,%esp
  1025aa:	6a 00                	push   $0x0
  1025ac:	e8 73 ff ff ff       	call   102524 <idewait>
  1025b1:	83 c4 10             	add    $0x10,%esp
/u/a/b/abhijith/CS537/p3b/xv6-sp20/kernel/ide.c:55
  1025b4:	83 ec 08             	sub    $0x8,%esp
  1025b7:	68 f0 00 00 00       	push   $0xf0
  1025bc:	68 f6 01 00 00       	push   $0x1f6
  1025c1:	e8 19 ff ff ff       	call   1024df <outb>
  1025c6:	83 c4 10             	add    $0x10,%esp
/u/a/b/abhijith/CS537/p3b/xv6-sp20/kernel/ide.c:56
  1025c9:	c7 45 f4 00 00 00 00 	movl   $0x0,-0xc(%ebp)
  1025d0:	eb 24                	jmp    1025f6 <ideinit+0x8d>
/u/a/b/abhijith/CS537/p3b/xv6-sp20/kernel/ide.c:57
  1025d2:	83 ec 0c             	sub    $0xc,%esp
  1025d5:	68 f7 01 00 00       	push   $0x1f7
  1025da:	e8 bd fe ff ff       	call   10249c <inb>
  1025df:	83 c4 10             	add    $0x10,%esp
  1025e2:	84 c0                	test   %al,%al
  1025e4:	74 0c                	je     1025f2 <ideinit+0x89>
/u/a/b/abhijith/CS537/p3b/xv6-sp20/kernel/ide.c:58
  1025e6:	c7 05 f8 bc 10 00 01 	movl   $0x1,0x10bcf8
  1025ed:	00 00 00 
/u/a/b/abhijith/CS537/p3b/xv6-sp20/kernel/ide.c:59
  1025f0:	eb 0d                	jmp    1025ff <ideinit+0x96>
/u/a/b/abhijith/CS537/p3b/xv6-sp20/kernel/ide.c:56 (discriminator 2)
  1025f2:	83 45 f4 01          	addl   $0x1,-0xc(%ebp)
/u/a/b/abhijith/CS537/p3b/xv6-sp20/kernel/ide.c:56 (discriminator 1)
  1025f6:	81 7d f4 e7 03 00 00 	cmpl   $0x3e7,-0xc(%ebp)
  1025fd:	7e d3                	jle    1025d2 <ideinit+0x69>
/u/a/b/abhijith/CS537/p3b/xv6-sp20/kernel/ide.c:64
  1025ff:	83 ec 08             	sub    $0x8,%esp
  102602:	68 e0 00 00 00       	push   $0xe0
  102607:	68 f6 01 00 00       	push   $0x1f6
  10260c:	e8 ce fe ff ff       	call   1024df <outb>
  102611:	83 c4 10             	add    $0x10,%esp
/u/a/b/abhijith/CS537/p3b/xv6-sp20/kernel/ide.c:65
  102614:	90                   	nop
  102615:	c9                   	leave  
  102616:	c3                   	ret    

00102617 <idestart>:
idestart():
/u/a/b/abhijith/CS537/p3b/xv6-sp20/kernel/ide.c:70
  102617:	55                   	push   %ebp
  102618:	89 e5                	mov    %esp,%ebp
  10261a:	83 ec 08             	sub    $0x8,%esp
/u/a/b/abhijith/CS537/p3b/xv6-sp20/kernel/ide.c:71
  10261d:	83 7d 08 00          	cmpl   $0x0,0x8(%ebp)
  102621:	75 0d                	jne    102630 <idestart+0x19>
/u/a/b/abhijith/CS537/p3b/xv6-sp20/kernel/ide.c:72
  102623:	83 ec 0c             	sub    $0xc,%esp
  102626:	68 23 80 10 00       	push   $0x108023
  10262b:	e8 48 df ff ff       	call   100578 <panic>
/u/a/b/abhijith/CS537/p3b/xv6-sp20/kernel/ide.c:74
  102630:	83 ec 0c             	sub    $0xc,%esp
  102633:	6a 00                	push   $0x0
  102635:	e8 ea fe ff ff       	call   102524 <idewait>
  10263a:	83 c4 10             	add    $0x10,%esp
/u/a/b/abhijith/CS537/p3b/xv6-sp20/kernel/ide.c:75
  10263d:	83 ec 08             	sub    $0x8,%esp
  102640:	6a 00                	push   $0x0
  102642:	68 f6 03 00 00       	push   $0x3f6
  102647:	e8 93 fe ff ff       	call   1024df <outb>
  10264c:	83 c4 10             	add    $0x10,%esp
/u/a/b/abhijith/CS537/p3b/xv6-sp20/kernel/ide.c:76
  10264f:	83 ec 08             	sub    $0x8,%esp
  102652:	6a 01                	push   $0x1
  102654:	68 f2 01 00 00       	push   $0x1f2
  102659:	e8 81 fe ff ff       	call   1024df <outb>
  10265e:	83 c4 10             	add    $0x10,%esp
/u/a/b/abhijith/CS537/p3b/xv6-sp20/kernel/ide.c:77
  102661:	8b 45 08             	mov    0x8(%ebp),%eax
  102664:	8b 40 08             	mov    0x8(%eax),%eax
  102667:	0f b6 c0             	movzbl %al,%eax
  10266a:	83 ec 08             	sub    $0x8,%esp
  10266d:	50                   	push   %eax
  10266e:	68 f3 01 00 00       	push   $0x1f3
  102673:	e8 67 fe ff ff       	call   1024df <outb>
  102678:	83 c4 10             	add    $0x10,%esp
/u/a/b/abhijith/CS537/p3b/xv6-sp20/kernel/ide.c:78
  10267b:	8b 45 08             	mov    0x8(%ebp),%eax
  10267e:	8b 40 08             	mov    0x8(%eax),%eax
  102681:	c1 e8 08             	shr    $0x8,%eax
  102684:	0f b6 c0             	movzbl %al,%eax
  102687:	83 ec 08             	sub    $0x8,%esp
  10268a:	50                   	push   %eax
  10268b:	68 f4 01 00 00       	push   $0x1f4
  102690:	e8 4a fe ff ff       	call   1024df <outb>
  102695:	83 c4 10             	add    $0x10,%esp
/u/a/b/abhijith/CS537/p3b/xv6-sp20/kernel/ide.c:79
  102698:	8b 45 08             	mov    0x8(%ebp),%eax
  10269b:	8b 40 08             	mov    0x8(%eax),%eax
  10269e:	c1 e8 10             	shr    $0x10,%eax
  1026a1:	0f b6 c0             	movzbl %al,%eax
  1026a4:	83 ec 08             	sub    $0x8,%esp
  1026a7:	50                   	push   %eax
  1026a8:	68 f5 01 00 00       	push   $0x1f5
  1026ad:	e8 2d fe ff ff       	call   1024df <outb>
  1026b2:	83 c4 10             	add    $0x10,%esp
/u/a/b/abhijith/CS537/p3b/xv6-sp20/kernel/ide.c:80
  1026b5:	8b 45 08             	mov    0x8(%ebp),%eax
  1026b8:	8b 40 04             	mov    0x4(%eax),%eax
  1026bb:	c1 e0 04             	shl    $0x4,%eax
  1026be:	83 e0 10             	and    $0x10,%eax
  1026c1:	89 c2                	mov    %eax,%edx
  1026c3:	8b 45 08             	mov    0x8(%ebp),%eax
  1026c6:	8b 40 08             	mov    0x8(%eax),%eax
  1026c9:	c1 e8 18             	shr    $0x18,%eax
  1026cc:	83 e0 0f             	and    $0xf,%eax
  1026cf:	09 d0                	or     %edx,%eax
  1026d1:	83 c8 e0             	or     $0xffffffe0,%eax
  1026d4:	0f b6 c0             	movzbl %al,%eax
  1026d7:	83 ec 08             	sub    $0x8,%esp
  1026da:	50                   	push   %eax
  1026db:	68 f6 01 00 00       	push   $0x1f6
  1026e0:	e8 fa fd ff ff       	call   1024df <outb>
  1026e5:	83 c4 10             	add    $0x10,%esp
/u/a/b/abhijith/CS537/p3b/xv6-sp20/kernel/ide.c:81
  1026e8:	8b 45 08             	mov    0x8(%ebp),%eax
  1026eb:	8b 00                	mov    (%eax),%eax
  1026ed:	83 e0 04             	and    $0x4,%eax
  1026f0:	85 c0                	test   %eax,%eax
  1026f2:	74 30                	je     102724 <idestart+0x10d>
/u/a/b/abhijith/CS537/p3b/xv6-sp20/kernel/ide.c:82
  1026f4:	83 ec 08             	sub    $0x8,%esp
  1026f7:	6a 30                	push   $0x30
  1026f9:	68 f7 01 00 00       	push   $0x1f7
  1026fe:	e8 dc fd ff ff       	call   1024df <outb>
  102703:	83 c4 10             	add    $0x10,%esp
/u/a/b/abhijith/CS537/p3b/xv6-sp20/kernel/ide.c:83
  102706:	8b 45 08             	mov    0x8(%ebp),%eax
  102709:	83 c0 18             	add    $0x18,%eax
  10270c:	83 ec 04             	sub    $0x4,%esp
  10270f:	68 80 00 00 00       	push   $0x80
  102714:	50                   	push   %eax
  102715:	68 f0 01 00 00       	push   $0x1f0
  10271a:	e8 df fd ff ff       	call   1024fe <outsl>
  10271f:	83 c4 10             	add    $0x10,%esp
/u/a/b/abhijith/CS537/p3b/xv6-sp20/kernel/ide.c:87
  102722:	eb 12                	jmp    102736 <idestart+0x11f>
/u/a/b/abhijith/CS537/p3b/xv6-sp20/kernel/ide.c:85
  102724:	83 ec 08             	sub    $0x8,%esp
  102727:	6a 20                	push   $0x20
  102729:	68 f7 01 00 00       	push   $0x1f7
  10272e:	e8 ac fd ff ff       	call   1024df <outb>
  102733:	83 c4 10             	add    $0x10,%esp
/u/a/b/abhijith/CS537/p3b/xv6-sp20/kernel/ide.c:87
  102736:	90                   	nop
  102737:	c9                   	leave  
  102738:	c3                   	ret    

00102739 <ideintr>:
ideintr():
/u/a/b/abhijith/CS537/p3b/xv6-sp20/kernel/ide.c:92
  102739:	55                   	push   %ebp
  10273a:	89 e5                	mov    %esp,%ebp
  10273c:	83 ec 18             	sub    $0x18,%esp
/u/a/b/abhijith/CS537/p3b/xv6-sp20/kernel/ide.c:96
  10273f:	83 ec 0c             	sub    $0xc,%esp
  102742:	68 c0 bc 10 00       	push   $0x10bcc0
  102747:	e8 79 21 00 00       	call   1048c5 <acquire>
  10274c:	83 c4 10             	add    $0x10,%esp
/u/a/b/abhijith/CS537/p3b/xv6-sp20/kernel/ide.c:97
  10274f:	a1 f4 bc 10 00       	mov    0x10bcf4,%eax
  102754:	89 45 f4             	mov    %eax,-0xc(%ebp)
  102757:	83 7d f4 00          	cmpl   $0x0,-0xc(%ebp)
  10275b:	75 15                	jne    102772 <ideintr+0x39>
/u/a/b/abhijith/CS537/p3b/xv6-sp20/kernel/ide.c:98
  10275d:	83 ec 0c             	sub    $0xc,%esp
  102760:	68 c0 bc 10 00       	push   $0x10bcc0
  102765:	e8 c2 21 00 00       	call   10492c <release>
  10276a:	83 c4 10             	add    $0x10,%esp
/u/a/b/abhijith/CS537/p3b/xv6-sp20/kernel/ide.c:100
  10276d:	e9 9a 00 00 00       	jmp    10280c <ideintr+0xd3>
/u/a/b/abhijith/CS537/p3b/xv6-sp20/kernel/ide.c:102
  102772:	8b 45 f4             	mov    -0xc(%ebp),%eax
  102775:	8b 40 14             	mov    0x14(%eax),%eax
  102778:	a3 f4 bc 10 00       	mov    %eax,0x10bcf4
/u/a/b/abhijith/CS537/p3b/xv6-sp20/kernel/ide.c:105
  10277d:	8b 45 f4             	mov    -0xc(%ebp),%eax
  102780:	8b 00                	mov    (%eax),%eax
  102782:	83 e0 04             	and    $0x4,%eax
  102785:	85 c0                	test   %eax,%eax
  102787:	75 2d                	jne    1027b6 <ideintr+0x7d>
/u/a/b/abhijith/CS537/p3b/xv6-sp20/kernel/ide.c:105 (discriminator 1)
  102789:	83 ec 0c             	sub    $0xc,%esp
  10278c:	6a 01                	push   $0x1
  10278e:	e8 91 fd ff ff       	call   102524 <idewait>
  102793:	83 c4 10             	add    $0x10,%esp
  102796:	85 c0                	test   %eax,%eax
  102798:	78 1c                	js     1027b6 <ideintr+0x7d>
/u/a/b/abhijith/CS537/p3b/xv6-sp20/kernel/ide.c:106
  10279a:	8b 45 f4             	mov    -0xc(%ebp),%eax
  10279d:	83 c0 18             	add    $0x18,%eax
  1027a0:	83 ec 04             	sub    $0x4,%esp
  1027a3:	68 80 00 00 00       	push   $0x80
  1027a8:	50                   	push   %eax
  1027a9:	68 f0 01 00 00       	push   $0x1f0
  1027ae:	e8 06 fd ff ff       	call   1024b9 <insl>
  1027b3:	83 c4 10             	add    $0x10,%esp
/u/a/b/abhijith/CS537/p3b/xv6-sp20/kernel/ide.c:109
  1027b6:	8b 45 f4             	mov    -0xc(%ebp),%eax
  1027b9:	8b 00                	mov    (%eax),%eax
  1027bb:	83 c8 02             	or     $0x2,%eax
  1027be:	89 c2                	mov    %eax,%edx
  1027c0:	8b 45 f4             	mov    -0xc(%ebp),%eax
  1027c3:	89 10                	mov    %edx,(%eax)
/u/a/b/abhijith/CS537/p3b/xv6-sp20/kernel/ide.c:110
  1027c5:	8b 45 f4             	mov    -0xc(%ebp),%eax
  1027c8:	8b 00                	mov    (%eax),%eax
  1027ca:	83 e0 fb             	and    $0xfffffffb,%eax
  1027cd:	89 c2                	mov    %eax,%edx
  1027cf:	8b 45 f4             	mov    -0xc(%ebp),%eax
  1027d2:	89 10                	mov    %edx,(%eax)
/u/a/b/abhijith/CS537/p3b/xv6-sp20/kernel/ide.c:111
  1027d4:	83 ec 0c             	sub    $0xc,%esp
  1027d7:	ff 75 f4             	pushl  -0xc(%ebp)
  1027da:	e8 d8 1e 00 00       	call   1046b7 <wakeup>
  1027df:	83 c4 10             	add    $0x10,%esp
/u/a/b/abhijith/CS537/p3b/xv6-sp20/kernel/ide.c:114
  1027e2:	a1 f4 bc 10 00       	mov    0x10bcf4,%eax
  1027e7:	85 c0                	test   %eax,%eax
  1027e9:	74 11                	je     1027fc <ideintr+0xc3>
/u/a/b/abhijith/CS537/p3b/xv6-sp20/kernel/ide.c:115
  1027eb:	a1 f4 bc 10 00       	mov    0x10bcf4,%eax
  1027f0:	83 ec 0c             	sub    $0xc,%esp
  1027f3:	50                   	push   %eax
  1027f4:	e8 1e fe ff ff       	call   102617 <idestart>
  1027f9:	83 c4 10             	add    $0x10,%esp
/u/a/b/abhijith/CS537/p3b/xv6-sp20/kernel/ide.c:117
  1027fc:	83 ec 0c             	sub    $0xc,%esp
  1027ff:	68 c0 bc 10 00       	push   $0x10bcc0
  102804:	e8 23 21 00 00       	call   10492c <release>
  102809:	83 c4 10             	add    $0x10,%esp
/u/a/b/abhijith/CS537/p3b/xv6-sp20/kernel/ide.c:118
  10280c:	c9                   	leave  
  10280d:	c3                   	ret    

0010280e <iderw>:
iderw():
/u/a/b/abhijith/CS537/p3b/xv6-sp20/kernel/ide.c:125
  10280e:	55                   	push   %ebp
  10280f:	89 e5                	mov    %esp,%ebp
  102811:	83 ec 18             	sub    $0x18,%esp
/u/a/b/abhijith/CS537/p3b/xv6-sp20/kernel/ide.c:128
  102814:	8b 45 08             	mov    0x8(%ebp),%eax
  102817:	8b 00                	mov    (%eax),%eax
  102819:	83 e0 01             	and    $0x1,%eax
  10281c:	85 c0                	test   %eax,%eax
  10281e:	75 0d                	jne    10282d <iderw+0x1f>
/u/a/b/abhijith/CS537/p3b/xv6-sp20/kernel/ide.c:129
  102820:	83 ec 0c             	sub    $0xc,%esp
  102823:	68 2c 80 10 00       	push   $0x10802c
  102828:	e8 4b dd ff ff       	call   100578 <panic>
/u/a/b/abhijith/CS537/p3b/xv6-sp20/kernel/ide.c:130
  10282d:	8b 45 08             	mov    0x8(%ebp),%eax
  102830:	8b 00                	mov    (%eax),%eax
  102832:	83 e0 06             	and    $0x6,%eax
  102835:	83 f8 02             	cmp    $0x2,%eax
  102838:	75 0d                	jne    102847 <iderw+0x39>
/u/a/b/abhijith/CS537/p3b/xv6-sp20/kernel/ide.c:131
  10283a:	83 ec 0c             	sub    $0xc,%esp
  10283d:	68 40 80 10 00       	push   $0x108040
  102842:	e8 31 dd ff ff       	call   100578 <panic>
/u/a/b/abhijith/CS537/p3b/xv6-sp20/kernel/ide.c:132
  102847:	8b 45 08             	mov    0x8(%ebp),%eax
  10284a:	8b 40 04             	mov    0x4(%eax),%eax
  10284d:	85 c0                	test   %eax,%eax
  10284f:	74 16                	je     102867 <iderw+0x59>
/u/a/b/abhijith/CS537/p3b/xv6-sp20/kernel/ide.c:132 (discriminator 1)
  102851:	a1 f8 bc 10 00       	mov    0x10bcf8,%eax
  102856:	85 c0                	test   %eax,%eax
  102858:	75 0d                	jne    102867 <iderw+0x59>
/u/a/b/abhijith/CS537/p3b/xv6-sp20/kernel/ide.c:133
  10285a:	83 ec 0c             	sub    $0xc,%esp
  10285d:	68 55 80 10 00       	push   $0x108055
  102862:	e8 11 dd ff ff       	call   100578 <panic>
/u/a/b/abhijith/CS537/p3b/xv6-sp20/kernel/ide.c:135
  102867:	83 ec 0c             	sub    $0xc,%esp
  10286a:	68 c0 bc 10 00       	push   $0x10bcc0
  10286f:	e8 51 20 00 00       	call   1048c5 <acquire>
  102874:	83 c4 10             	add    $0x10,%esp
/u/a/b/abhijith/CS537/p3b/xv6-sp20/kernel/ide.c:138
  102877:	8b 45 08             	mov    0x8(%ebp),%eax
  10287a:	c7 40 14 00 00 00 00 	movl   $0x0,0x14(%eax)
/u/a/b/abhijith/CS537/p3b/xv6-sp20/kernel/ide.c:139
  102881:	c7 45 f4 f4 bc 10 00 	movl   $0x10bcf4,-0xc(%ebp)
  102888:	eb 0b                	jmp    102895 <iderw+0x87>
/u/a/b/abhijith/CS537/p3b/xv6-sp20/kernel/ide.c:139 (discriminator 3)
  10288a:	8b 45 f4             	mov    -0xc(%ebp),%eax
  10288d:	8b 00                	mov    (%eax),%eax
  10288f:	83 c0 14             	add    $0x14,%eax
  102892:	89 45 f4             	mov    %eax,-0xc(%ebp)
/u/a/b/abhijith/CS537/p3b/xv6-sp20/kernel/ide.c:139 (discriminator 1)
  102895:	8b 45 f4             	mov    -0xc(%ebp),%eax
  102898:	8b 00                	mov    (%eax),%eax
  10289a:	85 c0                	test   %eax,%eax
  10289c:	75 ec                	jne    10288a <iderw+0x7c>
/u/a/b/abhijith/CS537/p3b/xv6-sp20/kernel/ide.c:141
  10289e:	8b 45 f4             	mov    -0xc(%ebp),%eax
  1028a1:	8b 55 08             	mov    0x8(%ebp),%edx
  1028a4:	89 10                	mov    %edx,(%eax)
/u/a/b/abhijith/CS537/p3b/xv6-sp20/kernel/ide.c:144
  1028a6:	a1 f4 bc 10 00       	mov    0x10bcf4,%eax
  1028ab:	39 45 08             	cmp    %eax,0x8(%ebp)
  1028ae:	75 23                	jne    1028d3 <iderw+0xc5>
/u/a/b/abhijith/CS537/p3b/xv6-sp20/kernel/ide.c:145
  1028b0:	83 ec 0c             	sub    $0xc,%esp
  1028b3:	ff 75 08             	pushl  0x8(%ebp)
  1028b6:	e8 5c fd ff ff       	call   102617 <idestart>
  1028bb:	83 c4 10             	add    $0x10,%esp
/u/a/b/abhijith/CS537/p3b/xv6-sp20/kernel/ide.c:149
  1028be:	eb 13                	jmp    1028d3 <iderw+0xc5>
/u/a/b/abhijith/CS537/p3b/xv6-sp20/kernel/ide.c:150
  1028c0:	83 ec 08             	sub    $0x8,%esp
  1028c3:	68 c0 bc 10 00       	push   $0x10bcc0
  1028c8:	ff 75 08             	pushl  0x8(%ebp)
  1028cb:	e8 fc 1c 00 00       	call   1045cc <sleep>
  1028d0:	83 c4 10             	add    $0x10,%esp
/u/a/b/abhijith/CS537/p3b/xv6-sp20/kernel/ide.c:149
  1028d3:	8b 45 08             	mov    0x8(%ebp),%eax
  1028d6:	8b 00                	mov    (%eax),%eax
  1028d8:	83 e0 06             	and    $0x6,%eax
  1028db:	83 f8 02             	cmp    $0x2,%eax
  1028de:	75 e0                	jne    1028c0 <iderw+0xb2>
/u/a/b/abhijith/CS537/p3b/xv6-sp20/kernel/ide.c:153
  1028e0:	83 ec 0c             	sub    $0xc,%esp
  1028e3:	68 c0 bc 10 00       	push   $0x10bcc0
  1028e8:	e8 3f 20 00 00       	call   10492c <release>
  1028ed:	83 c4 10             	add    $0x10,%esp
/u/a/b/abhijith/CS537/p3b/xv6-sp20/kernel/ide.c:154
  1028f0:	90                   	nop
  1028f1:	c9                   	leave  
  1028f2:	c3                   	ret    

001028f3 <ioapicread>:
ioapicread():
/u/a/b/abhijith/CS537/p3b/xv6-sp20/kernel/ioapic.c:36
  1028f3:	55                   	push   %ebp
  1028f4:	89 e5                	mov    %esp,%ebp
/u/a/b/abhijith/CS537/p3b/xv6-sp20/kernel/ioapic.c:37
  1028f6:	a1 14 07 11 00       	mov    0x110714,%eax
  1028fb:	8b 55 08             	mov    0x8(%ebp),%edx
  1028fe:	89 10                	mov    %edx,(%eax)
/u/a/b/abhijith/CS537/p3b/xv6-sp20/kernel/ioapic.c:38
  102900:	a1 14 07 11 00       	mov    0x110714,%eax
  102905:	8b 40 10             	mov    0x10(%eax),%eax
/u/a/b/abhijith/CS537/p3b/xv6-sp20/kernel/ioapic.c:39
  102908:	5d                   	pop    %ebp
  102909:	c3                   	ret    

0010290a <ioapicwrite>:
ioapicwrite():
/u/a/b/abhijith/CS537/p3b/xv6-sp20/kernel/ioapic.c:43
  10290a:	55                   	push   %ebp
  10290b:	89 e5                	mov    %esp,%ebp
/u/a/b/abhijith/CS537/p3b/xv6-sp20/kernel/ioapic.c:44
  10290d:	a1 14 07 11 00       	mov    0x110714,%eax
  102912:	8b 55 08             	mov    0x8(%ebp),%edx
  102915:	89 10                	mov    %edx,(%eax)
/u/a/b/abhijith/CS537/p3b/xv6-sp20/kernel/ioapic.c:45
  102917:	a1 14 07 11 00       	mov    0x110714,%eax
  10291c:	8b 55 0c             	mov    0xc(%ebp),%edx
  10291f:	89 50 10             	mov    %edx,0x10(%eax)
/u/a/b/abhijith/CS537/p3b/xv6-sp20/kernel/ioapic.c:46
  102922:	90                   	nop
  102923:	5d                   	pop    %ebp
  102924:	c3                   	ret    

00102925 <ioapicinit>:
ioapicinit():
/u/a/b/abhijith/CS537/p3b/xv6-sp20/kernel/ioapic.c:50
  102925:	55                   	push   %ebp
  102926:	89 e5                	mov    %esp,%ebp
  102928:	83 ec 18             	sub    $0x18,%esp
/u/a/b/abhijith/CS537/p3b/xv6-sp20/kernel/ioapic.c:53
  10292b:	a1 64 07 11 00       	mov    0x110764,%eax
  102930:	85 c0                	test   %eax,%eax
  102932:	0f 84 a0 00 00 00    	je     1029d8 <ioapicinit+0xb3>
/u/a/b/abhijith/CS537/p3b/xv6-sp20/kernel/ioapic.c:56
  102938:	c7 05 14 07 11 00 00 	movl   $0xfec00000,0x110714
  10293f:	00 c0 fe 
/u/a/b/abhijith/CS537/p3b/xv6-sp20/kernel/ioapic.c:57
  102942:	6a 01                	push   $0x1
  102944:	e8 aa ff ff ff       	call   1028f3 <ioapicread>
  102949:	83 c4 04             	add    $0x4,%esp
  10294c:	c1 e8 10             	shr    $0x10,%eax
  10294f:	25 ff 00 00 00       	and    $0xff,%eax
  102954:	89 45 f0             	mov    %eax,-0x10(%ebp)
/u/a/b/abhijith/CS537/p3b/xv6-sp20/kernel/ioapic.c:58
  102957:	6a 00                	push   $0x0
  102959:	e8 95 ff ff ff       	call   1028f3 <ioapicread>
  10295e:	83 c4 04             	add    $0x4,%esp
  102961:	c1 e8 18             	shr    $0x18,%eax
  102964:	89 45 ec             	mov    %eax,-0x14(%ebp)
/u/a/b/abhijith/CS537/p3b/xv6-sp20/kernel/ioapic.c:59
  102967:	0f b6 05 60 07 11 00 	movzbl 0x110760,%eax
  10296e:	0f b6 c0             	movzbl %al,%eax
  102971:	39 45 ec             	cmp    %eax,-0x14(%ebp)
  102974:	74 10                	je     102986 <ioapicinit+0x61>
/u/a/b/abhijith/CS537/p3b/xv6-sp20/kernel/ioapic.c:60
  102976:	83 ec 0c             	sub    $0xc,%esp
  102979:	68 74 80 10 00       	push   $0x108074
  10297e:	e8 69 da ff ff       	call   1003ec <cprintf>
  102983:	83 c4 10             	add    $0x10,%esp
/u/a/b/abhijith/CS537/p3b/xv6-sp20/kernel/ioapic.c:64
  102986:	c7 45 f4 00 00 00 00 	movl   $0x0,-0xc(%ebp)
  10298d:	eb 3f                	jmp    1029ce <ioapicinit+0xa9>
/u/a/b/abhijith/CS537/p3b/xv6-sp20/kernel/ioapic.c:65 (discriminator 3)
  10298f:	8b 45 f4             	mov    -0xc(%ebp),%eax
  102992:	83 c0 20             	add    $0x20,%eax
  102995:	0d 00 00 01 00       	or     $0x10000,%eax
  10299a:	89 c2                	mov    %eax,%edx
  10299c:	8b 45 f4             	mov    -0xc(%ebp),%eax
  10299f:	83 c0 08             	add    $0x8,%eax
  1029a2:	01 c0                	add    %eax,%eax
  1029a4:	83 ec 08             	sub    $0x8,%esp
  1029a7:	52                   	push   %edx
  1029a8:	50                   	push   %eax
  1029a9:	e8 5c ff ff ff       	call   10290a <ioapicwrite>
  1029ae:	83 c4 10             	add    $0x10,%esp
/u/a/b/abhijith/CS537/p3b/xv6-sp20/kernel/ioapic.c:66 (discriminator 3)
  1029b1:	8b 45 f4             	mov    -0xc(%ebp),%eax
  1029b4:	83 c0 08             	add    $0x8,%eax
  1029b7:	01 c0                	add    %eax,%eax
  1029b9:	83 c0 01             	add    $0x1,%eax
  1029bc:	83 ec 08             	sub    $0x8,%esp
  1029bf:	6a 00                	push   $0x0
  1029c1:	50                   	push   %eax
  1029c2:	e8 43 ff ff ff       	call   10290a <ioapicwrite>
  1029c7:	83 c4 10             	add    $0x10,%esp
/u/a/b/abhijith/CS537/p3b/xv6-sp20/kernel/ioapic.c:64 (discriminator 3)
  1029ca:	83 45 f4 01          	addl   $0x1,-0xc(%ebp)
/u/a/b/abhijith/CS537/p3b/xv6-sp20/kernel/ioapic.c:64 (discriminator 1)
  1029ce:	8b 45 f4             	mov    -0xc(%ebp),%eax
  1029d1:	3b 45 f0             	cmp    -0x10(%ebp),%eax
  1029d4:	7e b9                	jle    10298f <ioapicinit+0x6a>
  1029d6:	eb 01                	jmp    1029d9 <ioapicinit+0xb4>
/u/a/b/abhijith/CS537/p3b/xv6-sp20/kernel/ioapic.c:54
  1029d8:	90                   	nop
/u/a/b/abhijith/CS537/p3b/xv6-sp20/kernel/ioapic.c:68
  1029d9:	c9                   	leave  
  1029da:	c3                   	ret    

001029db <ioapicenable>:
ioapicenable():
/u/a/b/abhijith/CS537/p3b/xv6-sp20/kernel/ioapic.c:72
  1029db:	55                   	push   %ebp
  1029dc:	89 e5                	mov    %esp,%ebp
/u/a/b/abhijith/CS537/p3b/xv6-sp20/kernel/ioapic.c:73
  1029de:	a1 64 07 11 00       	mov    0x110764,%eax
  1029e3:	85 c0                	test   %eax,%eax
  1029e5:	74 39                	je     102a20 <ioapicenable+0x45>
/u/a/b/abhijith/CS537/p3b/xv6-sp20/kernel/ioapic.c:79
  1029e7:	8b 45 08             	mov    0x8(%ebp),%eax
  1029ea:	83 c0 20             	add    $0x20,%eax
  1029ed:	89 c2                	mov    %eax,%edx
  1029ef:	8b 45 08             	mov    0x8(%ebp),%eax
  1029f2:	83 c0 08             	add    $0x8,%eax
  1029f5:	01 c0                	add    %eax,%eax
  1029f7:	52                   	push   %edx
  1029f8:	50                   	push   %eax
  1029f9:	e8 0c ff ff ff       	call   10290a <ioapicwrite>
  1029fe:	83 c4 08             	add    $0x8,%esp
/u/a/b/abhijith/CS537/p3b/xv6-sp20/kernel/ioapic.c:80
  102a01:	8b 45 0c             	mov    0xc(%ebp),%eax
  102a04:	c1 e0 18             	shl    $0x18,%eax
  102a07:	89 c2                	mov    %eax,%edx
  102a09:	8b 45 08             	mov    0x8(%ebp),%eax
  102a0c:	83 c0 08             	add    $0x8,%eax
  102a0f:	01 c0                	add    %eax,%eax
  102a11:	83 c0 01             	add    $0x1,%eax
  102a14:	52                   	push   %edx
  102a15:	50                   	push   %eax
  102a16:	e8 ef fe ff ff       	call   10290a <ioapicwrite>
  102a1b:	83 c4 08             	add    $0x8,%esp
  102a1e:	eb 01                	jmp    102a21 <ioapicenable+0x46>
/u/a/b/abhijith/CS537/p3b/xv6-sp20/kernel/ioapic.c:74
  102a20:	90                   	nop
/u/a/b/abhijith/CS537/p3b/xv6-sp20/kernel/ioapic.c:81
  102a21:	c9                   	leave  
  102a22:	c3                   	ret    

00102a23 <remove_alloc_page>:
remove_alloc_page():
/u/a/b/abhijith/CS537/p3b/xv6-sp20/kernel/kalloc.c:29
  102a23:	55                   	push   %ebp
  102a24:	89 e5                	mov    %esp,%ebp
  102a26:	83 ec 10             	sub    $0x10,%esp
/u/a/b/abhijith/CS537/p3b/xv6-sp20/kernel/kalloc.c:30
  102a29:	c7 45 fc 00 00 00 00 	movl   $0x0,-0x4(%ebp)
/u/a/b/abhijith/CS537/p3b/xv6-sp20/kernel/kalloc.c:31
  102a30:	c7 45 f8 ff ff ff ff 	movl   $0xffffffff,-0x8(%ebp)
/u/a/b/abhijith/CS537/p3b/xv6-sp20/kernel/kalloc.c:33
  102a37:	a1 00 c5 10 00       	mov    0x10c500,%eax
  102a3c:	85 c0                	test   %eax,%eax
  102a3e:	0f 84 86 00 00 00    	je     102aca <remove_alloc_page+0xa7>
/u/a/b/abhijith/CS537/p3b/xv6-sp20/kernel/kalloc.c:36
  102a44:	c7 45 fc 00 00 00 00 	movl   $0x0,-0x4(%ebp)
  102a4b:	eb 1b                	jmp    102a68 <remove_alloc_page+0x45>
/u/a/b/abhijith/CS537/p3b/xv6-sp20/kernel/kalloc.c:38
  102a4d:	8b 45 fc             	mov    -0x4(%ebp),%eax
  102a50:	8b 04 85 00 bd 10 00 	mov    0x10bd00(,%eax,4),%eax
  102a57:	39 45 08             	cmp    %eax,0x8(%ebp)
  102a5a:	75 08                	jne    102a64 <remove_alloc_page+0x41>
/u/a/b/abhijith/CS537/p3b/xv6-sp20/kernel/kalloc.c:40
  102a5c:	8b 45 fc             	mov    -0x4(%ebp),%eax
  102a5f:	89 45 f8             	mov    %eax,-0x8(%ebp)
/u/a/b/abhijith/CS537/p3b/xv6-sp20/kernel/kalloc.c:41
  102a62:	eb 0e                	jmp    102a72 <remove_alloc_page+0x4f>
/u/a/b/abhijith/CS537/p3b/xv6-sp20/kernel/kalloc.c:36 (discriminator 2)
  102a64:	83 45 fc 01          	addl   $0x1,-0x4(%ebp)
/u/a/b/abhijith/CS537/p3b/xv6-sp20/kernel/kalloc.c:36 (discriminator 1)
  102a68:	a1 00 c5 10 00       	mov    0x10c500,%eax
  102a6d:	39 45 fc             	cmp    %eax,-0x4(%ebp)
  102a70:	7c db                	jl     102a4d <remove_alloc_page+0x2a>
/u/a/b/abhijith/CS537/p3b/xv6-sp20/kernel/kalloc.c:45
  102a72:	83 7d f8 ff          	cmpl   $0xffffffff,-0x8(%ebp)
  102a76:	74 53                	je     102acb <remove_alloc_page+0xa8>
/u/a/b/abhijith/CS537/p3b/xv6-sp20/kernel/kalloc.c:47
  102a78:	8b 45 f8             	mov    -0x8(%ebp),%eax
  102a7b:	89 45 fc             	mov    %eax,-0x4(%ebp)
  102a7e:	eb 1b                	jmp    102a9b <remove_alloc_page+0x78>
/u/a/b/abhijith/CS537/p3b/xv6-sp20/kernel/kalloc.c:49 (discriminator 3)
  102a80:	8b 45 fc             	mov    -0x4(%ebp),%eax
  102a83:	83 c0 01             	add    $0x1,%eax
  102a86:	8b 14 85 00 bd 10 00 	mov    0x10bd00(,%eax,4),%edx
  102a8d:	8b 45 fc             	mov    -0x4(%ebp),%eax
  102a90:	89 14 85 00 bd 10 00 	mov    %edx,0x10bd00(,%eax,4)
/u/a/b/abhijith/CS537/p3b/xv6-sp20/kernel/kalloc.c:47 (discriminator 3)
  102a97:	83 45 fc 01          	addl   $0x1,-0x4(%ebp)
/u/a/b/abhijith/CS537/p3b/xv6-sp20/kernel/kalloc.c:47 (discriminator 1)
  102a9b:	a1 00 c5 10 00       	mov    0x10c500,%eax
  102aa0:	83 e8 01             	sub    $0x1,%eax
  102aa3:	39 45 fc             	cmp    %eax,-0x4(%ebp)
  102aa6:	7c d8                	jl     102a80 <remove_alloc_page+0x5d>
/u/a/b/abhijith/CS537/p3b/xv6-sp20/kernel/kalloc.c:51
  102aa8:	a1 00 c5 10 00       	mov    0x10c500,%eax
  102aad:	83 e8 01             	sub    $0x1,%eax
  102ab0:	c7 04 85 00 bd 10 00 	movl   $0x0,0x10bd00(,%eax,4)
  102ab7:	00 00 00 00 
/u/a/b/abhijith/CS537/p3b/xv6-sp20/kernel/kalloc.c:52
  102abb:	a1 00 c5 10 00       	mov    0x10c500,%eax
  102ac0:	83 e8 01             	sub    $0x1,%eax
  102ac3:	a3 00 c5 10 00       	mov    %eax,0x10c500
  102ac8:	eb 01                	jmp    102acb <remove_alloc_page+0xa8>
/u/a/b/abhijith/CS537/p3b/xv6-sp20/kernel/kalloc.c:34
  102aca:	90                   	nop
/u/a/b/abhijith/CS537/p3b/xv6-sp20/kernel/kalloc.c:54
  102acb:	c9                   	leave  
  102acc:	c3                   	ret    

00102acd <kinit>:
kinit():
/u/a/b/abhijith/CS537/p3b/xv6-sp20/kernel/kalloc.c:60
  102acd:	55                   	push   %ebp
  102ace:	89 e5                	mov    %esp,%ebp
  102ad0:	83 ec 18             	sub    $0x18,%esp
/u/a/b/abhijith/CS537/p3b/xv6-sp20/kernel/kalloc.c:63
  102ad3:	c7 05 00 c5 10 00 00 	movl   $0x0,0x10c500
  102ada:	00 00 00 
/u/a/b/abhijith/CS537/p3b/xv6-sp20/kernel/kalloc.c:65
  102add:	83 ec 08             	sub    $0x8,%esp
  102ae0:	68 a6 80 10 00       	push   $0x1080a6
  102ae5:	68 20 07 11 00       	push   $0x110720
  102aea:	e8 b4 1d 00 00       	call   1048a3 <initlock>
  102aef:	83 c4 10             	add    $0x10,%esp
/u/a/b/abhijith/CS537/p3b/xv6-sp20/kernel/kalloc.c:66
  102af2:	b8 04 35 11 00       	mov    $0x113504,%eax
  102af7:	05 ff 0f 00 00       	add    $0xfff,%eax
  102afc:	25 00 f0 ff ff       	and    $0xfffff000,%eax
  102b01:	89 45 f4             	mov    %eax,-0xc(%ebp)
/u/a/b/abhijith/CS537/p3b/xv6-sp20/kernel/kalloc.c:67
  102b04:	eb 15                	jmp    102b1b <kinit+0x4e>
/u/a/b/abhijith/CS537/p3b/xv6-sp20/kernel/kalloc.c:68 (discriminator 2)
  102b06:	83 ec 0c             	sub    $0xc,%esp
  102b09:	ff 75 f4             	pushl  -0xc(%ebp)
  102b0c:	e8 1c 00 00 00       	call   102b2d <kfree>
  102b11:	83 c4 10             	add    $0x10,%esp
/u/a/b/abhijith/CS537/p3b/xv6-sp20/kernel/kalloc.c:67 (discriminator 2)
  102b14:	81 45 f4 00 10 00 00 	addl   $0x1000,-0xc(%ebp)
/u/a/b/abhijith/CS537/p3b/xv6-sp20/kernel/kalloc.c:67 (discriminator 1)
  102b1b:	8b 45 f4             	mov    -0xc(%ebp),%eax
  102b1e:	05 00 10 00 00       	add    $0x1000,%eax
  102b23:	3d 00 00 00 01       	cmp    $0x1000000,%eax
  102b28:	76 dc                	jbe    102b06 <kinit+0x39>
/u/a/b/abhijith/CS537/p3b/xv6-sp20/kernel/kalloc.c:69
  102b2a:	90                   	nop
  102b2b:	c9                   	leave  
  102b2c:	c3                   	ret    

00102b2d <kfree>:
kfree():
/u/a/b/abhijith/CS537/p3b/xv6-sp20/kernel/kalloc.c:77
  102b2d:	55                   	push   %ebp
  102b2e:	89 e5                	mov    %esp,%ebp
  102b30:	83 ec 18             	sub    $0x18,%esp
/u/a/b/abhijith/CS537/p3b/xv6-sp20/kernel/kalloc.c:80
  102b33:	8b 45 08             	mov    0x8(%ebp),%eax
  102b36:	25 ff 0f 00 00       	and    $0xfff,%eax
  102b3b:	85 c0                	test   %eax,%eax
  102b3d:	75 13                	jne    102b52 <kfree+0x25>
/u/a/b/abhijith/CS537/p3b/xv6-sp20/kernel/kalloc.c:80 (discriminator 1)
  102b3f:	81 7d 08 04 35 11 00 	cmpl   $0x113504,0x8(%ebp)
  102b46:	72 0a                	jb     102b52 <kfree+0x25>
/u/a/b/abhijith/CS537/p3b/xv6-sp20/kernel/kalloc.c:80 (discriminator 2)
  102b48:	8b 45 08             	mov    0x8(%ebp),%eax
  102b4b:	3d ff ff ff 00       	cmp    $0xffffff,%eax
  102b50:	76 0d                	jbe    102b5f <kfree+0x32>
/u/a/b/abhijith/CS537/p3b/xv6-sp20/kernel/kalloc.c:81
  102b52:	83 ec 0c             	sub    $0xc,%esp
  102b55:	68 ab 80 10 00       	push   $0x1080ab
  102b5a:	e8 19 da ff ff       	call   100578 <panic>
/u/a/b/abhijith/CS537/p3b/xv6-sp20/kernel/kalloc.c:84
  102b5f:	83 ec 04             	sub    $0x4,%esp
  102b62:	68 00 10 00 00       	push   $0x1000
  102b67:	6a 01                	push   $0x1
  102b69:	ff 75 08             	pushl  0x8(%ebp)
  102b6c:	e8 91 1f 00 00       	call   104b02 <memset>
  102b71:	83 c4 10             	add    $0x10,%esp
/u/a/b/abhijith/CS537/p3b/xv6-sp20/kernel/kalloc.c:86
  102b74:	83 ec 0c             	sub    $0xc,%esp
  102b77:	68 20 07 11 00       	push   $0x110720
  102b7c:	e8 44 1d 00 00       	call   1048c5 <acquire>
  102b81:	83 c4 10             	add    $0x10,%esp
/u/a/b/abhijith/CS537/p3b/xv6-sp20/kernel/kalloc.c:88
  102b84:	8b 45 08             	mov    0x8(%ebp),%eax
  102b87:	89 45 f4             	mov    %eax,-0xc(%ebp)
/u/a/b/abhijith/CS537/p3b/xv6-sp20/kernel/kalloc.c:89
  102b8a:	83 ec 0c             	sub    $0xc,%esp
  102b8d:	ff 75 f4             	pushl  -0xc(%ebp)
  102b90:	e8 8e fe ff ff       	call   102a23 <remove_alloc_page>
  102b95:	83 c4 10             	add    $0x10,%esp
/u/a/b/abhijith/CS537/p3b/xv6-sp20/kernel/kalloc.c:90
  102b98:	8b 15 54 07 11 00    	mov    0x110754,%edx
  102b9e:	8b 45 f4             	mov    -0xc(%ebp),%eax
  102ba1:	89 10                	mov    %edx,(%eax)
/u/a/b/abhijith/CS537/p3b/xv6-sp20/kernel/kalloc.c:91
  102ba3:	8b 45 f4             	mov    -0xc(%ebp),%eax
  102ba6:	a3 54 07 11 00       	mov    %eax,0x110754
/u/a/b/abhijith/CS537/p3b/xv6-sp20/kernel/kalloc.c:92
  102bab:	a1 04 c5 10 00       	mov    0x10c504,%eax
  102bb0:	83 c0 01             	add    $0x1,%eax
  102bb3:	a3 04 c5 10 00       	mov    %eax,0x10c504
/u/a/b/abhijith/CS537/p3b/xv6-sp20/kernel/kalloc.c:94
  102bb8:	83 ec 0c             	sub    $0xc,%esp
  102bbb:	68 20 07 11 00       	push   $0x110720
  102bc0:	e8 67 1d 00 00       	call   10492c <release>
  102bc5:	83 c4 10             	add    $0x10,%esp
/u/a/b/abhijith/CS537/p3b/xv6-sp20/kernel/kalloc.c:95
  102bc8:	90                   	nop
  102bc9:	c9                   	leave  
  102bca:	c3                   	ret    

00102bcb <kalloc>:
kalloc():
/u/a/b/abhijith/CS537/p3b/xv6-sp20/kernel/kalloc.c:102
  102bcb:	55                   	push   %ebp
  102bcc:	89 e5                	mov    %esp,%ebp
  102bce:	83 ec 18             	sub    $0x18,%esp
/u/a/b/abhijith/CS537/p3b/xv6-sp20/kernel/kalloc.c:105
  102bd1:	83 ec 0c             	sub    $0xc,%esp
  102bd4:	68 20 07 11 00       	push   $0x110720
  102bd9:	e8 e7 1c 00 00       	call   1048c5 <acquire>
  102bde:	83 c4 10             	add    $0x10,%esp
/u/a/b/abhijith/CS537/p3b/xv6-sp20/kernel/kalloc.c:107
  102be1:	e8 c0 52 00 00       	call   107ea6 <xv6_rand>
  102be6:	8b 0d 04 c5 10 00    	mov    0x10c504,%ecx
  102bec:	99                   	cltd   
  102bed:	f7 f9                	idiv   %ecx
  102bef:	89 55 e8             	mov    %edx,-0x18(%ebp)
/u/a/b/abhijith/CS537/p3b/xv6-sp20/kernel/kalloc.c:109
  102bf2:	a1 54 07 11 00       	mov    0x110754,%eax
  102bf7:	89 45 f4             	mov    %eax,-0xc(%ebp)
/u/a/b/abhijith/CS537/p3b/xv6-sp20/kernel/kalloc.c:110
  102bfa:	c7 45 f0 00 00 00 00 	movl   $0x0,-0x10(%ebp)
/u/a/b/abhijith/CS537/p3b/xv6-sp20/kernel/kalloc.c:112
  102c01:	c7 45 ec 00 00 00 00 	movl   $0x0,-0x14(%ebp)
  102c08:	eb 12                	jmp    102c1c <kalloc+0x51>
/u/a/b/abhijith/CS537/p3b/xv6-sp20/kernel/kalloc.c:114 (discriminator 3)
  102c0a:	8b 45 f4             	mov    -0xc(%ebp),%eax
  102c0d:	89 45 f0             	mov    %eax,-0x10(%ebp)
/u/a/b/abhijith/CS537/p3b/xv6-sp20/kernel/kalloc.c:115 (discriminator 3)
  102c10:	8b 45 f4             	mov    -0xc(%ebp),%eax
  102c13:	8b 00                	mov    (%eax),%eax
  102c15:	89 45 f4             	mov    %eax,-0xc(%ebp)
/u/a/b/abhijith/CS537/p3b/xv6-sp20/kernel/kalloc.c:112 (discriminator 3)
  102c18:	83 45 ec 01          	addl   $0x1,-0x14(%ebp)
/u/a/b/abhijith/CS537/p3b/xv6-sp20/kernel/kalloc.c:112 (discriminator 1)
  102c1c:	8b 45 ec             	mov    -0x14(%ebp),%eax
  102c1f:	3b 45 e8             	cmp    -0x18(%ebp),%eax
  102c22:	7c e6                	jl     102c0a <kalloc+0x3f>
/u/a/b/abhijith/CS537/p3b/xv6-sp20/kernel/kalloc.c:118
  102c24:	8b 45 f4             	mov    -0xc(%ebp),%eax
  102c27:	8b 10                	mov    (%eax),%edx
  102c29:	8b 45 f0             	mov    -0x10(%ebp),%eax
  102c2c:	89 10                	mov    %edx,(%eax)
/u/a/b/abhijith/CS537/p3b/xv6-sp20/kernel/kalloc.c:120
  102c2e:	83 7d f4 00          	cmpl   $0x0,-0xc(%ebp)
  102c32:	74 25                	je     102c59 <kalloc+0x8e>
/u/a/b/abhijith/CS537/p3b/xv6-sp20/kernel/kalloc.c:121
  102c34:	a1 04 c5 10 00       	mov    0x10c504,%eax
  102c39:	83 e8 01             	sub    $0x1,%eax
  102c3c:	a3 04 c5 10 00       	mov    %eax,0x10c504
/u/a/b/abhijith/CS537/p3b/xv6-sp20/kernel/kalloc.c:122
  102c41:	a1 00 c5 10 00       	mov    0x10c500,%eax
  102c46:	8d 50 01             	lea    0x1(%eax),%edx
  102c49:	89 15 00 c5 10 00    	mov    %edx,0x10c500
  102c4f:	8b 55 f4             	mov    -0xc(%ebp),%edx
  102c52:	89 14 85 00 bd 10 00 	mov    %edx,0x10bd00(,%eax,4)
/u/a/b/abhijith/CS537/p3b/xv6-sp20/kernel/kalloc.c:124
  102c59:	83 ec 0c             	sub    $0xc,%esp
  102c5c:	68 20 07 11 00       	push   $0x110720
  102c61:	e8 c6 1c 00 00       	call   10492c <release>
  102c66:	83 c4 10             	add    $0x10,%esp
/u/a/b/abhijith/CS537/p3b/xv6-sp20/kernel/kalloc.c:126
  102c69:	8b 45 f4             	mov    -0xc(%ebp),%eax
/u/a/b/abhijith/CS537/p3b/xv6-sp20/kernel/kalloc.c:128
  102c6c:	c9                   	leave  
  102c6d:	c3                   	ret    

00102c6e <kalloc_dump_allocated>:
kalloc_dump_allocated():
/u/a/b/abhijith/CS537/p3b/xv6-sp20/kernel/kalloc.c:131
  102c6e:	55                   	push   %ebp
  102c6f:	89 e5                	mov    %esp,%ebp
  102c71:	83 ec 10             	sub    $0x10,%esp
/u/a/b/abhijith/CS537/p3b/xv6-sp20/kernel/kalloc.c:133
  102c74:	a1 00 c5 10 00       	mov    0x10c500,%eax
  102c79:	39 45 0c             	cmp    %eax,0xc(%ebp)
  102c7c:	7f 06                	jg     102c84 <kalloc_dump_allocated+0x16>
/u/a/b/abhijith/CS537/p3b/xv6-sp20/kernel/kalloc.c:133 (discriminator 1)
  102c7e:	83 7d 08 00          	cmpl   $0x0,0x8(%ebp)
  102c82:	75 07                	jne    102c8b <kalloc_dump_allocated+0x1d>
/u/a/b/abhijith/CS537/p3b/xv6-sp20/kernel/kalloc.c:134
  102c84:	b8 ff ff ff ff       	mov    $0xffffffff,%eax
  102c89:	eb 3d                	jmp    102cc8 <kalloc_dump_allocated+0x5a>
/u/a/b/abhijith/CS537/p3b/xv6-sp20/kernel/kalloc.c:137
  102c8b:	c7 45 fc 00 00 00 00 	movl   $0x0,-0x4(%ebp)
  102c92:	eb 27                	jmp    102cbb <kalloc_dump_allocated+0x4d>
/u/a/b/abhijith/CS537/p3b/xv6-sp20/kernel/kalloc.c:139 (discriminator 3)
  102c94:	a1 00 c5 10 00       	mov    0x10c500,%eax
  102c99:	83 e8 01             	sub    $0x1,%eax
  102c9c:	2b 45 fc             	sub    -0x4(%ebp),%eax
  102c9f:	8b 14 85 00 bd 10 00 	mov    0x10bd00(,%eax,4),%edx
  102ca6:	8b 45 fc             	mov    -0x4(%ebp),%eax
  102ca9:	8d 0c 85 00 00 00 00 	lea    0x0(,%eax,4),%ecx
  102cb0:	8b 45 08             	mov    0x8(%ebp),%eax
  102cb3:	01 c8                	add    %ecx,%eax
  102cb5:	89 10                	mov    %edx,(%eax)
/u/a/b/abhijith/CS537/p3b/xv6-sp20/kernel/kalloc.c:137 (discriminator 3)
  102cb7:	83 45 fc 01          	addl   $0x1,-0x4(%ebp)
/u/a/b/abhijith/CS537/p3b/xv6-sp20/kernel/kalloc.c:137 (discriminator 1)
  102cbb:	8b 45 fc             	mov    -0x4(%ebp),%eax
  102cbe:	3b 45 0c             	cmp    0xc(%ebp),%eax
  102cc1:	7c d1                	jl     102c94 <kalloc_dump_allocated+0x26>
/u/a/b/abhijith/CS537/p3b/xv6-sp20/kernel/kalloc.c:142
  102cc3:	b8 00 00 00 00       	mov    $0x0,%eax
/u/a/b/abhijith/CS537/p3b/xv6-sp20/kernel/kalloc.c:144
  102cc8:	c9                   	leave  
  102cc9:	c3                   	ret    

00102cca <inb>:
inb():
/u/a/b/abhijith/CS537/p3b/xv6-sp20/include/x86.h:7
  102cca:	55                   	push   %ebp
  102ccb:	89 e5                	mov    %esp,%ebp
  102ccd:	83 ec 14             	sub    $0x14,%esp
  102cd0:	8b 45 08             	mov    0x8(%ebp),%eax
  102cd3:	66 89 45 ec          	mov    %ax,-0x14(%ebp)
/u/a/b/abhijith/CS537/p3b/xv6-sp20/include/x86.h:10
  102cd7:	0f b7 45 ec          	movzwl -0x14(%ebp),%eax
  102cdb:	89 c2                	mov    %eax,%edx
  102cdd:	ec                   	in     (%dx),%al
  102cde:	88 45 ff             	mov    %al,-0x1(%ebp)
/u/a/b/abhijith/CS537/p3b/xv6-sp20/include/x86.h:11
  102ce1:	0f b6 45 ff          	movzbl -0x1(%ebp),%eax
/u/a/b/abhijith/CS537/p3b/xv6-sp20/include/x86.h:12
  102ce5:	c9                   	leave  
  102ce6:	c3                   	ret    

00102ce7 <kbdgetc>:
kbdgetc():
/u/a/b/abhijith/CS537/p3b/xv6-sp20/kernel/kbd.c:8
  102ce7:	55                   	push   %ebp
  102ce8:	89 e5                	mov    %esp,%ebp
  102cea:	83 ec 10             	sub    $0x10,%esp
/u/a/b/abhijith/CS537/p3b/xv6-sp20/kernel/kbd.c:15
  102ced:	6a 64                	push   $0x64
  102cef:	e8 d6 ff ff ff       	call   102cca <inb>
  102cf4:	83 c4 04             	add    $0x4,%esp
  102cf7:	0f b6 c0             	movzbl %al,%eax
  102cfa:	89 45 f4             	mov    %eax,-0xc(%ebp)
/u/a/b/abhijith/CS537/p3b/xv6-sp20/kernel/kbd.c:16
  102cfd:	8b 45 f4             	mov    -0xc(%ebp),%eax
  102d00:	83 e0 01             	and    $0x1,%eax
  102d03:	85 c0                	test   %eax,%eax
  102d05:	75 0a                	jne    102d11 <kbdgetc+0x2a>
/u/a/b/abhijith/CS537/p3b/xv6-sp20/kernel/kbd.c:17
  102d07:	b8 ff ff ff ff       	mov    $0xffffffff,%eax
  102d0c:	e9 23 01 00 00       	jmp    102e34 <kbdgetc+0x14d>
/u/a/b/abhijith/CS537/p3b/xv6-sp20/kernel/kbd.c:18
  102d11:	6a 60                	push   $0x60
  102d13:	e8 b2 ff ff ff       	call   102cca <inb>
  102d18:	83 c4 04             	add    $0x4,%esp
  102d1b:	0f b6 c0             	movzbl %al,%eax
  102d1e:	89 45 fc             	mov    %eax,-0x4(%ebp)
/u/a/b/abhijith/CS537/p3b/xv6-sp20/kernel/kbd.c:20
  102d21:	81 7d fc e0 00 00 00 	cmpl   $0xe0,-0x4(%ebp)
  102d28:	75 17                	jne    102d41 <kbdgetc+0x5a>
/u/a/b/abhijith/CS537/p3b/xv6-sp20/kernel/kbd.c:21
  102d2a:	a1 08 c5 10 00       	mov    0x10c508,%eax
  102d2f:	83 c8 40             	or     $0x40,%eax
  102d32:	a3 08 c5 10 00       	mov    %eax,0x10c508
/u/a/b/abhijith/CS537/p3b/xv6-sp20/kernel/kbd.c:22
  102d37:	b8 00 00 00 00       	mov    $0x0,%eax
  102d3c:	e9 f3 00 00 00       	jmp    102e34 <kbdgetc+0x14d>
/u/a/b/abhijith/CS537/p3b/xv6-sp20/kernel/kbd.c:23
  102d41:	8b 45 fc             	mov    -0x4(%ebp),%eax
  102d44:	25 80 00 00 00       	and    $0x80,%eax
  102d49:	85 c0                	test   %eax,%eax
  102d4b:	74 45                	je     102d92 <kbdgetc+0xab>
/u/a/b/abhijith/CS537/p3b/xv6-sp20/kernel/kbd.c:25
  102d4d:	a1 08 c5 10 00       	mov    0x10c508,%eax
  102d52:	83 e0 40             	and    $0x40,%eax
  102d55:	85 c0                	test   %eax,%eax
  102d57:	75 08                	jne    102d61 <kbdgetc+0x7a>
/u/a/b/abhijith/CS537/p3b/xv6-sp20/kernel/kbd.c:25 (discriminator 1)
  102d59:	8b 45 fc             	mov    -0x4(%ebp),%eax
  102d5c:	83 e0 7f             	and    $0x7f,%eax
  102d5f:	eb 03                	jmp    102d64 <kbdgetc+0x7d>
/u/a/b/abhijith/CS537/p3b/xv6-sp20/kernel/kbd.c:25 (discriminator 2)
  102d61:	8b 45 fc             	mov    -0x4(%ebp),%eax
/u/a/b/abhijith/CS537/p3b/xv6-sp20/kernel/kbd.c:25 (discriminator 4)
  102d64:	89 45 fc             	mov    %eax,-0x4(%ebp)
/u/a/b/abhijith/CS537/p3b/xv6-sp20/kernel/kbd.c:26 (discriminator 4)
  102d67:	8b 45 fc             	mov    -0x4(%ebp),%eax
  102d6a:	05 20 b0 10 00       	add    $0x10b020,%eax
  102d6f:	0f b6 00             	movzbl (%eax),%eax
  102d72:	83 c8 40             	or     $0x40,%eax
  102d75:	0f b6 c0             	movzbl %al,%eax
  102d78:	f7 d0                	not    %eax
  102d7a:	89 c2                	mov    %eax,%edx
  102d7c:	a1 08 c5 10 00       	mov    0x10c508,%eax
  102d81:	21 d0                	and    %edx,%eax
  102d83:	a3 08 c5 10 00       	mov    %eax,0x10c508
/u/a/b/abhijith/CS537/p3b/xv6-sp20/kernel/kbd.c:27 (discriminator 4)
  102d88:	b8 00 00 00 00       	mov    $0x0,%eax
  102d8d:	e9 a2 00 00 00       	jmp    102e34 <kbdgetc+0x14d>
/u/a/b/abhijith/CS537/p3b/xv6-sp20/kernel/kbd.c:28
  102d92:	a1 08 c5 10 00       	mov    0x10c508,%eax
  102d97:	83 e0 40             	and    $0x40,%eax
  102d9a:	85 c0                	test   %eax,%eax
  102d9c:	74 14                	je     102db2 <kbdgetc+0xcb>
/u/a/b/abhijith/CS537/p3b/xv6-sp20/kernel/kbd.c:30
  102d9e:	81 4d fc 80 00 00 00 	orl    $0x80,-0x4(%ebp)
/u/a/b/abhijith/CS537/p3b/xv6-sp20/kernel/kbd.c:31
  102da5:	a1 08 c5 10 00       	mov    0x10c508,%eax
  102daa:	83 e0 bf             	and    $0xffffffbf,%eax
  102dad:	a3 08 c5 10 00       	mov    %eax,0x10c508
/u/a/b/abhijith/CS537/p3b/xv6-sp20/kernel/kbd.c:34
  102db2:	8b 45 fc             	mov    -0x4(%ebp),%eax
  102db5:	05 20 b0 10 00       	add    $0x10b020,%eax
  102dba:	0f b6 00             	movzbl (%eax),%eax
  102dbd:	0f b6 d0             	movzbl %al,%edx
  102dc0:	a1 08 c5 10 00       	mov    0x10c508,%eax
  102dc5:	09 d0                	or     %edx,%eax
  102dc7:	a3 08 c5 10 00       	mov    %eax,0x10c508
/u/a/b/abhijith/CS537/p3b/xv6-sp20/kernel/kbd.c:35
  102dcc:	8b 45 fc             	mov    -0x4(%ebp),%eax
  102dcf:	05 20 b1 10 00       	add    $0x10b120,%eax
  102dd4:	0f b6 00             	movzbl (%eax),%eax
  102dd7:	0f b6 d0             	movzbl %al,%edx
  102dda:	a1 08 c5 10 00       	mov    0x10c508,%eax
  102ddf:	31 d0                	xor    %edx,%eax
  102de1:	a3 08 c5 10 00       	mov    %eax,0x10c508
/u/a/b/abhijith/CS537/p3b/xv6-sp20/kernel/kbd.c:36
  102de6:	a1 08 c5 10 00       	mov    0x10c508,%eax
  102deb:	83 e0 03             	and    $0x3,%eax
  102dee:	8b 14 85 20 b5 10 00 	mov    0x10b520(,%eax,4),%edx
  102df5:	8b 45 fc             	mov    -0x4(%ebp),%eax
  102df8:	01 d0                	add    %edx,%eax
  102dfa:	0f b6 00             	movzbl (%eax),%eax
  102dfd:	0f b6 c0             	movzbl %al,%eax
  102e00:	89 45 f8             	mov    %eax,-0x8(%ebp)
/u/a/b/abhijith/CS537/p3b/xv6-sp20/kernel/kbd.c:37
  102e03:	a1 08 c5 10 00       	mov    0x10c508,%eax
  102e08:	83 e0 08             	and    $0x8,%eax
  102e0b:	85 c0                	test   %eax,%eax
  102e0d:	74 22                	je     102e31 <kbdgetc+0x14a>
/u/a/b/abhijith/CS537/p3b/xv6-sp20/kernel/kbd.c:38
  102e0f:	83 7d f8 60          	cmpl   $0x60,-0x8(%ebp)
  102e13:	76 0c                	jbe    102e21 <kbdgetc+0x13a>
/u/a/b/abhijith/CS537/p3b/xv6-sp20/kernel/kbd.c:38 (discriminator 1)
  102e15:	83 7d f8 7a          	cmpl   $0x7a,-0x8(%ebp)
  102e19:	77 06                	ja     102e21 <kbdgetc+0x13a>
/u/a/b/abhijith/CS537/p3b/xv6-sp20/kernel/kbd.c:39
  102e1b:	83 6d f8 20          	subl   $0x20,-0x8(%ebp)
  102e1f:	eb 10                	jmp    102e31 <kbdgetc+0x14a>
/u/a/b/abhijith/CS537/p3b/xv6-sp20/kernel/kbd.c:40
  102e21:	83 7d f8 40          	cmpl   $0x40,-0x8(%ebp)
  102e25:	76 0a                	jbe    102e31 <kbdgetc+0x14a>
/u/a/b/abhijith/CS537/p3b/xv6-sp20/kernel/kbd.c:40 (discriminator 1)
  102e27:	83 7d f8 5a          	cmpl   $0x5a,-0x8(%ebp)
  102e2b:	77 04                	ja     102e31 <kbdgetc+0x14a>
/u/a/b/abhijith/CS537/p3b/xv6-sp20/kernel/kbd.c:41
  102e2d:	83 45 f8 20          	addl   $0x20,-0x8(%ebp)
/u/a/b/abhijith/CS537/p3b/xv6-sp20/kernel/kbd.c:43
  102e31:	8b 45 f8             	mov    -0x8(%ebp),%eax
/u/a/b/abhijith/CS537/p3b/xv6-sp20/kernel/kbd.c:44
  102e34:	c9                   	leave  
  102e35:	c3                   	ret    

00102e36 <kbdintr>:
kbdintr():
/u/a/b/abhijith/CS537/p3b/xv6-sp20/kernel/kbd.c:48
  102e36:	55                   	push   %ebp
  102e37:	89 e5                	mov    %esp,%ebp
  102e39:	83 ec 08             	sub    $0x8,%esp
/u/a/b/abhijith/CS537/p3b/xv6-sp20/kernel/kbd.c:49
  102e3c:	83 ec 0c             	sub    $0xc,%esp
  102e3f:	68 e7 2c 10 00       	push   $0x102ce7
  102e44:	e8 ae d9 ff ff       	call   1007f7 <consoleintr>
  102e49:	83 c4 10             	add    $0x10,%esp
/u/a/b/abhijith/CS537/p3b/xv6-sp20/kernel/kbd.c:50
  102e4c:	90                   	nop
  102e4d:	c9                   	leave  
  102e4e:	c3                   	ret    

00102e4f <outb>:
outb():
/u/a/b/abhijith/CS537/p3b/xv6-sp20/include/x86.h:25
  102e4f:	55                   	push   %ebp
  102e50:	89 e5                	mov    %esp,%ebp
  102e52:	83 ec 08             	sub    $0x8,%esp
  102e55:	8b 55 08             	mov    0x8(%ebp),%edx
  102e58:	8b 45 0c             	mov    0xc(%ebp),%eax
  102e5b:	66 89 55 fc          	mov    %dx,-0x4(%ebp)
  102e5f:	88 45 f8             	mov    %al,-0x8(%ebp)
/u/a/b/abhijith/CS537/p3b/xv6-sp20/include/x86.h:26
  102e62:	0f b6 45 f8          	movzbl -0x8(%ebp),%eax
  102e66:	0f b7 55 fc          	movzwl -0x4(%ebp),%edx
  102e6a:	ee                   	out    %al,(%dx)
/u/a/b/abhijith/CS537/p3b/xv6-sp20/include/x86.h:27
  102e6b:	90                   	nop
  102e6c:	c9                   	leave  
  102e6d:	c3                   	ret    

00102e6e <readeflags>:
readeflags():
/u/a/b/abhijith/CS537/p3b/xv6-sp20/include/x86.h:89
  102e6e:	55                   	push   %ebp
  102e6f:	89 e5                	mov    %esp,%ebp
  102e71:	83 ec 10             	sub    $0x10,%esp
/u/a/b/abhijith/CS537/p3b/xv6-sp20/include/x86.h:91
  102e74:	9c                   	pushf  
  102e75:	58                   	pop    %eax
  102e76:	89 45 fc             	mov    %eax,-0x4(%ebp)
/u/a/b/abhijith/CS537/p3b/xv6-sp20/include/x86.h:92
  102e79:	8b 45 fc             	mov    -0x4(%ebp),%eax
/u/a/b/abhijith/CS537/p3b/xv6-sp20/include/x86.h:93
  102e7c:	c9                   	leave  
  102e7d:	c3                   	ret    

00102e7e <lapicw>:
lapicw():
/u/a/b/abhijith/CS537/p3b/xv6-sp20/kernel/lapic.c:45
  102e7e:	55                   	push   %ebp
  102e7f:	89 e5                	mov    %esp,%ebp
/u/a/b/abhijith/CS537/p3b/xv6-sp20/kernel/lapic.c:46
  102e81:	a1 58 07 11 00       	mov    0x110758,%eax
  102e86:	8b 55 08             	mov    0x8(%ebp),%edx
  102e89:	c1 e2 02             	shl    $0x2,%edx
  102e8c:	01 c2                	add    %eax,%edx
  102e8e:	8b 45 0c             	mov    0xc(%ebp),%eax
  102e91:	89 02                	mov    %eax,(%edx)
/u/a/b/abhijith/CS537/p3b/xv6-sp20/kernel/lapic.c:47
  102e93:	a1 58 07 11 00       	mov    0x110758,%eax
  102e98:	83 c0 20             	add    $0x20,%eax
  102e9b:	8b 00                	mov    (%eax),%eax
/u/a/b/abhijith/CS537/p3b/xv6-sp20/kernel/lapic.c:48
  102e9d:	90                   	nop
  102e9e:	5d                   	pop    %ebp
  102e9f:	c3                   	ret    

00102ea0 <lapicinit>:
lapicinit():
/u/a/b/abhijith/CS537/p3b/xv6-sp20/kernel/lapic.c:52
  102ea0:	55                   	push   %ebp
  102ea1:	89 e5                	mov    %esp,%ebp
  102ea3:	83 ec 08             	sub    $0x8,%esp
/u/a/b/abhijith/CS537/p3b/xv6-sp20/kernel/lapic.c:53
  102ea6:	a1 58 07 11 00       	mov    0x110758,%eax
  102eab:	83 ec 04             	sub    $0x4,%esp
  102eae:	50                   	push   %eax
  102eaf:	ff 75 08             	pushl  0x8(%ebp)
  102eb2:	68 b4 80 10 00       	push   $0x1080b4
  102eb7:	e8 30 d5 ff ff       	call   1003ec <cprintf>
  102ebc:	83 c4 10             	add    $0x10,%esp
/u/a/b/abhijith/CS537/p3b/xv6-sp20/kernel/lapic.c:54
  102ebf:	a1 58 07 11 00       	mov    0x110758,%eax
  102ec4:	85 c0                	test   %eax,%eax
  102ec6:	0f 84 35 01 00 00    	je     103001 <lapicinit+0x161>
/u/a/b/abhijith/CS537/p3b/xv6-sp20/kernel/lapic.c:58
  102ecc:	83 ec 08             	sub    $0x8,%esp
  102ecf:	68 3f 01 00 00       	push   $0x13f
  102ed4:	6a 3c                	push   $0x3c
  102ed6:	e8 a3 ff ff ff       	call   102e7e <lapicw>
  102edb:	83 c4 10             	add    $0x10,%esp
/u/a/b/abhijith/CS537/p3b/xv6-sp20/kernel/lapic.c:64
  102ede:	83 ec 08             	sub    $0x8,%esp
  102ee1:	6a 0b                	push   $0xb
  102ee3:	68 f8 00 00 00       	push   $0xf8
  102ee8:	e8 91 ff ff ff       	call   102e7e <lapicw>
  102eed:	83 c4 10             	add    $0x10,%esp
/u/a/b/abhijith/CS537/p3b/xv6-sp20/kernel/lapic.c:65
  102ef0:	83 ec 08             	sub    $0x8,%esp
  102ef3:	68 20 00 02 00       	push   $0x20020
  102ef8:	68 c8 00 00 00       	push   $0xc8
  102efd:	e8 7c ff ff ff       	call   102e7e <lapicw>
  102f02:	83 c4 10             	add    $0x10,%esp
/u/a/b/abhijith/CS537/p3b/xv6-sp20/kernel/lapic.c:66
  102f05:	83 ec 08             	sub    $0x8,%esp
  102f08:	68 80 96 98 00       	push   $0x989680
  102f0d:	68 e0 00 00 00       	push   $0xe0
  102f12:	e8 67 ff ff ff       	call   102e7e <lapicw>
  102f17:	83 c4 10             	add    $0x10,%esp
/u/a/b/abhijith/CS537/p3b/xv6-sp20/kernel/lapic.c:69
  102f1a:	83 ec 08             	sub    $0x8,%esp
  102f1d:	68 00 00 01 00       	push   $0x10000
  102f22:	68 d4 00 00 00       	push   $0xd4
  102f27:	e8 52 ff ff ff       	call   102e7e <lapicw>
  102f2c:	83 c4 10             	add    $0x10,%esp
/u/a/b/abhijith/CS537/p3b/xv6-sp20/kernel/lapic.c:70
  102f2f:	83 ec 08             	sub    $0x8,%esp
  102f32:	68 00 00 01 00       	push   $0x10000
  102f37:	68 d8 00 00 00       	push   $0xd8
  102f3c:	e8 3d ff ff ff       	call   102e7e <lapicw>
  102f41:	83 c4 10             	add    $0x10,%esp
/u/a/b/abhijith/CS537/p3b/xv6-sp20/kernel/lapic.c:74
  102f44:	a1 58 07 11 00       	mov    0x110758,%eax
  102f49:	83 c0 30             	add    $0x30,%eax
  102f4c:	8b 00                	mov    (%eax),%eax
  102f4e:	c1 e8 10             	shr    $0x10,%eax
  102f51:	0f b6 c0             	movzbl %al,%eax
  102f54:	83 f8 03             	cmp    $0x3,%eax
  102f57:	76 15                	jbe    102f6e <lapicinit+0xce>
/u/a/b/abhijith/CS537/p3b/xv6-sp20/kernel/lapic.c:75
  102f59:	83 ec 08             	sub    $0x8,%esp
  102f5c:	68 00 00 01 00       	push   $0x10000
  102f61:	68 d0 00 00 00       	push   $0xd0
  102f66:	e8 13 ff ff ff       	call   102e7e <lapicw>
  102f6b:	83 c4 10             	add    $0x10,%esp
/u/a/b/abhijith/CS537/p3b/xv6-sp20/kernel/lapic.c:78
  102f6e:	83 ec 08             	sub    $0x8,%esp
  102f71:	6a 33                	push   $0x33
  102f73:	68 dc 00 00 00       	push   $0xdc
  102f78:	e8 01 ff ff ff       	call   102e7e <lapicw>
  102f7d:	83 c4 10             	add    $0x10,%esp
/u/a/b/abhijith/CS537/p3b/xv6-sp20/kernel/lapic.c:81
  102f80:	83 ec 08             	sub    $0x8,%esp
  102f83:	6a 00                	push   $0x0
  102f85:	68 a0 00 00 00       	push   $0xa0
  102f8a:	e8 ef fe ff ff       	call   102e7e <lapicw>
  102f8f:	83 c4 10             	add    $0x10,%esp
/u/a/b/abhijith/CS537/p3b/xv6-sp20/kernel/lapic.c:82
  102f92:	83 ec 08             	sub    $0x8,%esp
  102f95:	6a 00                	push   $0x0
  102f97:	68 a0 00 00 00       	push   $0xa0
  102f9c:	e8 dd fe ff ff       	call   102e7e <lapicw>
  102fa1:	83 c4 10             	add    $0x10,%esp
/u/a/b/abhijith/CS537/p3b/xv6-sp20/kernel/lapic.c:85
  102fa4:	83 ec 08             	sub    $0x8,%esp
  102fa7:	6a 00                	push   $0x0
  102fa9:	6a 2c                	push   $0x2c
  102fab:	e8 ce fe ff ff       	call   102e7e <lapicw>
  102fb0:	83 c4 10             	add    $0x10,%esp
/u/a/b/abhijith/CS537/p3b/xv6-sp20/kernel/lapic.c:88
  102fb3:	83 ec 08             	sub    $0x8,%esp
  102fb6:	6a 00                	push   $0x0
  102fb8:	68 c4 00 00 00       	push   $0xc4
  102fbd:	e8 bc fe ff ff       	call   102e7e <lapicw>
  102fc2:	83 c4 10             	add    $0x10,%esp
/u/a/b/abhijith/CS537/p3b/xv6-sp20/kernel/lapic.c:89
  102fc5:	83 ec 08             	sub    $0x8,%esp
  102fc8:	68 00 85 08 00       	push   $0x88500
  102fcd:	68 c0 00 00 00       	push   $0xc0
  102fd2:	e8 a7 fe ff ff       	call   102e7e <lapicw>
  102fd7:	83 c4 10             	add    $0x10,%esp
/u/a/b/abhijith/CS537/p3b/xv6-sp20/kernel/lapic.c:90
  102fda:	90                   	nop
/u/a/b/abhijith/CS537/p3b/xv6-sp20/kernel/lapic.c:90 (discriminator 1)
  102fdb:	a1 58 07 11 00       	mov    0x110758,%eax
  102fe0:	05 00 03 00 00       	add    $0x300,%eax
  102fe5:	8b 00                	mov    (%eax),%eax
  102fe7:	25 00 10 00 00       	and    $0x1000,%eax
  102fec:	85 c0                	test   %eax,%eax
  102fee:	75 eb                	jne    102fdb <lapicinit+0x13b>
/u/a/b/abhijith/CS537/p3b/xv6-sp20/kernel/lapic.c:94
  102ff0:	83 ec 08             	sub    $0x8,%esp
  102ff3:	6a 00                	push   $0x0
  102ff5:	6a 20                	push   $0x20
  102ff7:	e8 82 fe ff ff       	call   102e7e <lapicw>
  102ffc:	83 c4 10             	add    $0x10,%esp
  102fff:	eb 01                	jmp    103002 <lapicinit+0x162>
/u/a/b/abhijith/CS537/p3b/xv6-sp20/kernel/lapic.c:55
  103001:	90                   	nop
/u/a/b/abhijith/CS537/p3b/xv6-sp20/kernel/lapic.c:95
  103002:	c9                   	leave  
  103003:	c3                   	ret    

00103004 <cpunum>:
cpunum():
/u/a/b/abhijith/CS537/p3b/xv6-sp20/kernel/lapic.c:99
  103004:	55                   	push   %ebp
  103005:	89 e5                	mov    %esp,%ebp
  103007:	83 ec 08             	sub    $0x8,%esp
/u/a/b/abhijith/CS537/p3b/xv6-sp20/kernel/lapic.c:105
  10300a:	e8 5f fe ff ff       	call   102e6e <readeflags>
  10300f:	25 00 02 00 00       	and    $0x200,%eax
  103014:	85 c0                	test   %eax,%eax
  103016:	74 26                	je     10303e <cpunum+0x3a>
/u/a/b/abhijith/CS537/p3b/xv6-sp20/kernel/lapic.c:107
  103018:	a1 0c c5 10 00       	mov    0x10c50c,%eax
  10301d:	8d 50 01             	lea    0x1(%eax),%edx
  103020:	89 15 0c c5 10 00    	mov    %edx,0x10c50c
  103026:	85 c0                	test   %eax,%eax
  103028:	75 14                	jne    10303e <cpunum+0x3a>
/u/a/b/abhijith/CS537/p3b/xv6-sp20/kernel/lapic.c:108
  10302a:	8b 45 04             	mov    0x4(%ebp),%eax
  10302d:	83 ec 08             	sub    $0x8,%esp
  103030:	50                   	push   %eax
  103031:	68 c8 80 10 00       	push   $0x1080c8
  103036:	e8 b1 d3 ff ff       	call   1003ec <cprintf>
  10303b:	83 c4 10             	add    $0x10,%esp
/u/a/b/abhijith/CS537/p3b/xv6-sp20/kernel/lapic.c:112
  10303e:	a1 58 07 11 00       	mov    0x110758,%eax
  103043:	85 c0                	test   %eax,%eax
  103045:	74 0f                	je     103056 <cpunum+0x52>
/u/a/b/abhijith/CS537/p3b/xv6-sp20/kernel/lapic.c:113
  103047:	a1 58 07 11 00       	mov    0x110758,%eax
  10304c:	83 c0 20             	add    $0x20,%eax
  10304f:	8b 00                	mov    (%eax),%eax
  103051:	c1 e8 18             	shr    $0x18,%eax
  103054:	eb 05                	jmp    10305b <cpunum+0x57>
/u/a/b/abhijith/CS537/p3b/xv6-sp20/kernel/lapic.c:114
  103056:	b8 00 00 00 00       	mov    $0x0,%eax
/u/a/b/abhijith/CS537/p3b/xv6-sp20/kernel/lapic.c:115
  10305b:	c9                   	leave  
  10305c:	c3                   	ret    

0010305d <lapiceoi>:
lapiceoi():
/u/a/b/abhijith/CS537/p3b/xv6-sp20/kernel/lapic.c:120
  10305d:	55                   	push   %ebp
  10305e:	89 e5                	mov    %esp,%ebp
/u/a/b/abhijith/CS537/p3b/xv6-sp20/kernel/lapic.c:121
  103060:	a1 58 07 11 00       	mov    0x110758,%eax
  103065:	85 c0                	test   %eax,%eax
  103067:	74 0c                	je     103075 <lapiceoi+0x18>
/u/a/b/abhijith/CS537/p3b/xv6-sp20/kernel/lapic.c:122
  103069:	6a 00                	push   $0x0
  10306b:	6a 2c                	push   $0x2c
  10306d:	e8 0c fe ff ff       	call   102e7e <lapicw>
  103072:	83 c4 08             	add    $0x8,%esp
/u/a/b/abhijith/CS537/p3b/xv6-sp20/kernel/lapic.c:123
  103075:	90                   	nop
  103076:	c9                   	leave  
  103077:	c3                   	ret    

00103078 <microdelay>:
microdelay():
/u/a/b/abhijith/CS537/p3b/xv6-sp20/kernel/lapic.c:129
  103078:	55                   	push   %ebp
  103079:	89 e5                	mov    %esp,%ebp
/u/a/b/abhijith/CS537/p3b/xv6-sp20/kernel/lapic.c:130
  10307b:	90                   	nop
  10307c:	5d                   	pop    %ebp
  10307d:	c3                   	ret    

0010307e <lapicstartap>:
lapicstartap():
/u/a/b/abhijith/CS537/p3b/xv6-sp20/kernel/lapic.c:138
  10307e:	55                   	push   %ebp
  10307f:	89 e5                	mov    %esp,%ebp
  103081:	83 ec 14             	sub    $0x14,%esp
  103084:	8b 45 08             	mov    0x8(%ebp),%eax
  103087:	88 45 ec             	mov    %al,-0x14(%ebp)
/u/a/b/abhijith/CS537/p3b/xv6-sp20/kernel/lapic.c:145
  10308a:	6a 0f                	push   $0xf
  10308c:	6a 70                	push   $0x70
  10308e:	e8 bc fd ff ff       	call   102e4f <outb>
  103093:	83 c4 08             	add    $0x8,%esp
/u/a/b/abhijith/CS537/p3b/xv6-sp20/kernel/lapic.c:146
  103096:	6a 0a                	push   $0xa
  103098:	6a 71                	push   $0x71
  10309a:	e8 b0 fd ff ff       	call   102e4f <outb>
  10309f:	83 c4 08             	add    $0x8,%esp
/u/a/b/abhijith/CS537/p3b/xv6-sp20/kernel/lapic.c:147
  1030a2:	c7 45 f8 67 04 00 00 	movl   $0x467,-0x8(%ebp)
/u/a/b/abhijith/CS537/p3b/xv6-sp20/kernel/lapic.c:148
  1030a9:	8b 45 f8             	mov    -0x8(%ebp),%eax
  1030ac:	66 c7 00 00 00       	movw   $0x0,(%eax)
/u/a/b/abhijith/CS537/p3b/xv6-sp20/kernel/lapic.c:149
  1030b1:	8b 45 0c             	mov    0xc(%ebp),%eax
  1030b4:	c1 e8 04             	shr    $0x4,%eax
  1030b7:	89 c2                	mov    %eax,%edx
  1030b9:	8b 45 f8             	mov    -0x8(%ebp),%eax
  1030bc:	83 c0 02             	add    $0x2,%eax
  1030bf:	66 89 10             	mov    %dx,(%eax)
/u/a/b/abhijith/CS537/p3b/xv6-sp20/kernel/lapic.c:153
  1030c2:	0f b6 45 ec          	movzbl -0x14(%ebp),%eax
  1030c6:	c1 e0 18             	shl    $0x18,%eax
  1030c9:	50                   	push   %eax
  1030ca:	68 c4 00 00 00       	push   $0xc4
  1030cf:	e8 aa fd ff ff       	call   102e7e <lapicw>
  1030d4:	83 c4 08             	add    $0x8,%esp
/u/a/b/abhijith/CS537/p3b/xv6-sp20/kernel/lapic.c:154
  1030d7:	68 00 c5 00 00       	push   $0xc500
  1030dc:	68 c0 00 00 00       	push   $0xc0
  1030e1:	e8 98 fd ff ff       	call   102e7e <lapicw>
  1030e6:	83 c4 08             	add    $0x8,%esp
/u/a/b/abhijith/CS537/p3b/xv6-sp20/kernel/lapic.c:155
  1030e9:	68 c8 00 00 00       	push   $0xc8
  1030ee:	e8 85 ff ff ff       	call   103078 <microdelay>
  1030f3:	83 c4 04             	add    $0x4,%esp
/u/a/b/abhijith/CS537/p3b/xv6-sp20/kernel/lapic.c:156
  1030f6:	68 00 85 00 00       	push   $0x8500
  1030fb:	68 c0 00 00 00       	push   $0xc0
  103100:	e8 79 fd ff ff       	call   102e7e <lapicw>
  103105:	83 c4 08             	add    $0x8,%esp
/u/a/b/abhijith/CS537/p3b/xv6-sp20/kernel/lapic.c:157
  103108:	6a 64                	push   $0x64
  10310a:	e8 69 ff ff ff       	call   103078 <microdelay>
  10310f:	83 c4 04             	add    $0x4,%esp
/u/a/b/abhijith/CS537/p3b/xv6-sp20/kernel/lapic.c:164
  103112:	c7 45 fc 00 00 00 00 	movl   $0x0,-0x4(%ebp)
  103119:	eb 3d                	jmp    103158 <lapicstartap+0xda>
/u/a/b/abhijith/CS537/p3b/xv6-sp20/kernel/lapic.c:165 (discriminator 3)
  10311b:	0f b6 45 ec          	movzbl -0x14(%ebp),%eax
  10311f:	c1 e0 18             	shl    $0x18,%eax
  103122:	50                   	push   %eax
  103123:	68 c4 00 00 00       	push   $0xc4
  103128:	e8 51 fd ff ff       	call   102e7e <lapicw>
  10312d:	83 c4 08             	add    $0x8,%esp
/u/a/b/abhijith/CS537/p3b/xv6-sp20/kernel/lapic.c:166 (discriminator 3)
  103130:	8b 45 0c             	mov    0xc(%ebp),%eax
  103133:	c1 e8 0c             	shr    $0xc,%eax
  103136:	80 cc 06             	or     $0x6,%ah
  103139:	50                   	push   %eax
  10313a:	68 c0 00 00 00       	push   $0xc0
  10313f:	e8 3a fd ff ff       	call   102e7e <lapicw>
  103144:	83 c4 08             	add    $0x8,%esp
/u/a/b/abhijith/CS537/p3b/xv6-sp20/kernel/lapic.c:167 (discriminator 3)
  103147:	68 c8 00 00 00       	push   $0xc8
  10314c:	e8 27 ff ff ff       	call   103078 <microdelay>
  103151:	83 c4 04             	add    $0x4,%esp
/u/a/b/abhijith/CS537/p3b/xv6-sp20/kernel/lapic.c:164 (discriminator 3)
  103154:	83 45 fc 01          	addl   $0x1,-0x4(%ebp)
/u/a/b/abhijith/CS537/p3b/xv6-sp20/kernel/lapic.c:164 (discriminator 1)
  103158:	83 7d fc 01          	cmpl   $0x1,-0x4(%ebp)
  10315c:	7e bd                	jle    10311b <lapicstartap+0x9d>
/u/a/b/abhijith/CS537/p3b/xv6-sp20/kernel/lapic.c:169
  10315e:	90                   	nop
  10315f:	c9                   	leave  
  103160:	c3                   	ret    

00103161 <sti>:
sti():
/u/a/b/abhijith/CS537/p3b/xv6-sp20/include/x86.h:125
  103161:	55                   	push   %ebp
  103162:	89 e5                	mov    %esp,%ebp
/u/a/b/abhijith/CS537/p3b/xv6-sp20/include/x86.h:126
  103164:	fb                   	sti    
/u/a/b/abhijith/CS537/p3b/xv6-sp20/include/x86.h:127
  103165:	90                   	nop
  103166:	5d                   	pop    %ebp
  103167:	c3                   	ret    

00103168 <xchg>:
xchg():
/u/a/b/abhijith/CS537/p3b/xv6-sp20/include/x86.h:131
  103168:	55                   	push   %ebp
  103169:	89 e5                	mov    %esp,%ebp
  10316b:	83 ec 10             	sub    $0x10,%esp
/u/a/b/abhijith/CS537/p3b/xv6-sp20/include/x86.h:135
  10316e:	8b 55 08             	mov    0x8(%ebp),%edx
  103171:	8b 45 0c             	mov    0xc(%ebp),%eax
  103174:	8b 4d 08             	mov    0x8(%ebp),%ecx
  103177:	f0 87 02             	lock xchg %eax,(%edx)
  10317a:	89 45 fc             	mov    %eax,-0x4(%ebp)
/u/a/b/abhijith/CS537/p3b/xv6-sp20/include/x86.h:139
  10317d:	8b 45 fc             	mov    -0x4(%ebp),%eax
/u/a/b/abhijith/CS537/p3b/xv6-sp20/include/x86.h:140
  103180:	c9                   	leave  
  103181:	c3                   	ret    

00103182 <main>:
main():
/u/a/b/abhijith/CS537/p3b/xv6-sp20/kernel/main.c:19
  103182:	8d 4c 24 04          	lea    0x4(%esp),%ecx
  103186:	83 e4 f0             	and    $0xfffffff0,%esp
  103189:	ff 71 fc             	pushl  -0x4(%ecx)
  10318c:	55                   	push   %ebp
  10318d:	89 e5                	mov    %esp,%ebp
  10318f:	51                   	push   %ecx
  103190:	83 ec 04             	sub    $0x4,%esp
/u/a/b/abhijith/CS537/p3b/xv6-sp20/kernel/main.c:20
  103193:	e8 62 04 00 00       	call   1035fa <mpinit>
/u/a/b/abhijith/CS537/p3b/xv6-sp20/kernel/main.c:21
  103198:	e8 50 02 00 00       	call   1033ed <mpbcpu>
  10319d:	83 ec 0c             	sub    $0xc,%esp
  1031a0:	50                   	push   %eax
  1031a1:	e8 fa fc ff ff       	call   102ea0 <lapicinit>
  1031a6:	83 c4 10             	add    $0x10,%esp
/u/a/b/abhijith/CS537/p3b/xv6-sp20/kernel/main.c:22
  1031a9:	e8 fd 3e 00 00       	call   1070ab <seginit>
/u/a/b/abhijith/CS537/p3b/xv6-sp20/kernel/main.c:23
  1031ae:	e8 1a f9 ff ff       	call   102acd <kinit>
/u/a/b/abhijith/CS537/p3b/xv6-sp20/kernel/main.c:24
  1031b3:	e8 00 00 00 00       	call   1031b8 <jmpkstack>

001031b8 <jmpkstack>:
jmpkstack():
/u/a/b/abhijith/CS537/p3b/xv6-sp20/kernel/main.c:29
  1031b8:	55                   	push   %ebp
  1031b9:	89 e5                	mov    %esp,%ebp
  1031bb:	83 ec 18             	sub    $0x18,%esp
/u/a/b/abhijith/CS537/p3b/xv6-sp20/kernel/main.c:32
  1031be:	e8 08 fa ff ff       	call   102bcb <kalloc>
  1031c3:	89 45 f4             	mov    %eax,-0xc(%ebp)
/u/a/b/abhijith/CS537/p3b/xv6-sp20/kernel/main.c:33
  1031c6:	83 7d f4 00          	cmpl   $0x0,-0xc(%ebp)
  1031ca:	75 0d                	jne    1031d9 <jmpkstack+0x21>
/u/a/b/abhijith/CS537/p3b/xv6-sp20/kernel/main.c:34
  1031cc:	83 ec 0c             	sub    $0xc,%esp
  1031cf:	68 f4 80 10 00       	push   $0x1080f4
  1031d4:	e8 9f d3 ff ff       	call   100578 <panic>
/u/a/b/abhijith/CS537/p3b/xv6-sp20/kernel/main.c:35
  1031d9:	8b 45 f4             	mov    -0xc(%ebp),%eax
  1031dc:	05 00 10 00 00       	add    $0x1000,%eax
  1031e1:	89 45 f0             	mov    %eax,-0x10(%ebp)
/u/a/b/abhijith/CS537/p3b/xv6-sp20/kernel/main.c:36
  1031e4:	8b 45 f0             	mov    -0x10(%ebp),%eax
  1031e7:	89 c4                	mov    %eax,%esp
  1031e9:	e8 0d 00 00 00       	call   1031fb <mainc>
/u/a/b/abhijith/CS537/p3b/xv6-sp20/kernel/main.c:37
  1031ee:	83 ec 0c             	sub    $0xc,%esp
  1031f1:	68 05 81 10 00       	push   $0x108105
  1031f6:	e8 7d d3 ff ff       	call   100578 <panic>

001031fb <mainc>:
mainc():
/u/a/b/abhijith/CS537/p3b/xv6-sp20/kernel/main.c:44
  1031fb:	55                   	push   %ebp
  1031fc:	89 e5                	mov    %esp,%ebp
  1031fe:	83 ec 08             	sub    $0x8,%esp
/u/a/b/abhijith/CS537/p3b/xv6-sp20/kernel/main.c:45
  103201:	65 a1 00 00 00 00    	mov    %gs:0x0,%eax
  103207:	0f b6 00             	movzbl (%eax),%eax
  10320a:	0f b6 c0             	movzbl %al,%eax
  10320d:	83 ec 08             	sub    $0x8,%esp
  103210:	50                   	push   %eax
  103211:	68 0f 81 10 00       	push   $0x10810f
  103216:	e8 d1 d1 ff ff       	call   1003ec <cprintf>
  10321b:	83 c4 10             	add    $0x10,%esp
/u/a/b/abhijith/CS537/p3b/xv6-sp20/kernel/main.c:46
  10321e:	e8 2d 06 00 00       	call   103850 <picinit>
/u/a/b/abhijith/CS537/p3b/xv6-sp20/kernel/main.c:47
  103223:	e8 fd f6 ff ff       	call   102925 <ioapicinit>
/u/a/b/abhijith/CS537/p3b/xv6-sp20/kernel/main.c:48
  103228:	e8 d6 d8 ff ff       	call   100b03 <consoleinit>
/u/a/b/abhijith/CS537/p3b/xv6-sp20/kernel/main.c:49
  10322d:	e8 bf 31 00 00       	call   1063f1 <uartinit>
/u/a/b/abhijith/CS537/p3b/xv6-sp20/kernel/main.c:50
  103232:	e8 61 3e 00 00       	call   107098 <kvmalloc>
/u/a/b/abhijith/CS537/p3b/xv6-sp20/kernel/main.c:51
  103237:	e8 14 0b 00 00       	call   103d50 <pinit>
/u/a/b/abhijith/CS537/p3b/xv6-sp20/kernel/main.c:52
  10323c:	e8 7a 2d 00 00       	call   105fbb <tvinit>
/u/a/b/abhijith/CS537/p3b/xv6-sp20/kernel/main.c:53
  103241:	e8 24 ce ff ff       	call   10006a <binit>
/u/a/b/abhijith/CS537/p3b/xv6-sp20/kernel/main.c:54
  103246:	e8 f8 dc ff ff       	call   100f43 <fileinit>
/u/a/b/abhijith/CS537/p3b/xv6-sp20/kernel/main.c:55
  10324b:	e8 2c e3 ff ff       	call   10157c <iinit>
/u/a/b/abhijith/CS537/p3b/xv6-sp20/kernel/main.c:56
  103250:	e8 14 f3 ff ff       	call   102569 <ideinit>
/u/a/b/abhijith/CS537/p3b/xv6-sp20/kernel/main.c:57
  103255:	a1 64 07 11 00       	mov    0x110764,%eax
  10325a:	85 c0                	test   %eax,%eax
  10325c:	75 05                	jne    103263 <mainc+0x68>
/u/a/b/abhijith/CS537/p3b/xv6-sp20/kernel/main.c:58
  10325e:	e8 b5 2c 00 00       	call   105f18 <timerinit>
/u/a/b/abhijith/CS537/p3b/xv6-sp20/kernel/main.c:59
  103263:	e8 97 00 00 00       	call   1032ff <bootothers>
/u/a/b/abhijith/CS537/p3b/xv6-sp20/kernel/main.c:62
  103268:	e8 0f 00 00 00       	call   10327c <cinit>
/u/a/b/abhijith/CS537/p3b/xv6-sp20/kernel/main.c:63
  10326d:	e8 ef fe ff ff       	call   103161 <sti>
/u/a/b/abhijith/CS537/p3b/xv6-sp20/kernel/main.c:64
  103272:	e8 fd 0b 00 00       	call   103e74 <userinit>
/u/a/b/abhijith/CS537/p3b/xv6-sp20/kernel/main.c:65
  103277:	e8 9b 11 00 00       	call   104417 <scheduler>

0010327c <cinit>:
cinit():
/u/a/b/abhijith/CS537/p3b/xv6-sp20/kernel/main.c:70
  10327c:	55                   	push   %ebp
  10327d:	89 e5                	mov    %esp,%ebp
  10327f:	53                   	push   %ebx
  103280:	83 ec 04             	sub    $0x4,%esp
/u/a/b/abhijith/CS537/p3b/xv6-sp20/kernel/main.c:71
  103283:	e8 7c fd ff ff       	call   103004 <cpunum>
  103288:	89 c3                	mov    %eax,%ebx
  10328a:	e8 5e 01 00 00       	call   1033ed <mpbcpu>
  10328f:	39 c3                	cmp    %eax,%ebx
  103291:	74 16                	je     1032a9 <cinit+0x2d>
/u/a/b/abhijith/CS537/p3b/xv6-sp20/kernel/main.c:72
  103293:	e8 13 3e 00 00       	call   1070ab <seginit>
/u/a/b/abhijith/CS537/p3b/xv6-sp20/kernel/main.c:73
  103298:	e8 67 fd ff ff       	call   103004 <cpunum>
  10329d:	83 ec 0c             	sub    $0xc,%esp
  1032a0:	50                   	push   %eax
  1032a1:	e8 fa fb ff ff       	call   102ea0 <lapicinit>
  1032a6:	83 c4 10             	add    $0x10,%esp
/u/a/b/abhijith/CS537/p3b/xv6-sp20/kernel/main.c:75
  1032a9:	e8 26 44 00 00       	call   1076d4 <vmenable>
/u/a/b/abhijith/CS537/p3b/xv6-sp20/kernel/main.c:76
  1032ae:	65 a1 00 00 00 00    	mov    %gs:0x0,%eax
  1032b4:	0f b6 00             	movzbl (%eax),%eax
  1032b7:	0f b6 c0             	movzbl %al,%eax
  1032ba:	83 ec 08             	sub    $0x8,%esp
  1032bd:	50                   	push   %eax
  1032be:	68 26 81 10 00       	push   $0x108126
  1032c3:	e8 24 d1 ff ff       	call   1003ec <cprintf>
  1032c8:	83 c4 10             	add    $0x10,%esp
/u/a/b/abhijith/CS537/p3b/xv6-sp20/kernel/main.c:77
  1032cb:	e8 61 2e 00 00       	call   106131 <idtinit>
/u/a/b/abhijith/CS537/p3b/xv6-sp20/kernel/main.c:78
  1032d0:	65 a1 00 00 00 00    	mov    %gs:0x0,%eax
  1032d6:	05 a8 00 00 00       	add    $0xa8,%eax
  1032db:	83 ec 08             	sub    $0x8,%esp
  1032de:	6a 01                	push   $0x1
  1032e0:	50                   	push   %eax
  1032e1:	e8 82 fe ff ff       	call   103168 <xchg>
  1032e6:	83 c4 10             	add    $0x10,%esp
/u/a/b/abhijith/CS537/p3b/xv6-sp20/kernel/main.c:79
  1032e9:	90                   	nop
  1032ea:	8b 5d fc             	mov    -0x4(%ebp),%ebx
  1032ed:	c9                   	leave  
  1032ee:	c3                   	ret    

001032ef <mpmain>:
mpmain():
/u/a/b/abhijith/CS537/p3b/xv6-sp20/kernel/main.c:86
  1032ef:	55                   	push   %ebp
  1032f0:	89 e5                	mov    %esp,%ebp
  1032f2:	83 ec 08             	sub    $0x8,%esp
/u/a/b/abhijith/CS537/p3b/xv6-sp20/kernel/main.c:87
  1032f5:	e8 82 ff ff ff       	call   10327c <cinit>
/u/a/b/abhijith/CS537/p3b/xv6-sp20/kernel/main.c:88
  1032fa:	e8 18 11 00 00       	call   104417 <scheduler>

001032ff <bootothers>:
bootothers():
/u/a/b/abhijith/CS537/p3b/xv6-sp20/kernel/main.c:94
  1032ff:	55                   	push   %ebp
  103300:	89 e5                	mov    %esp,%ebp
  103302:	83 ec 18             	sub    $0x18,%esp
/u/a/b/abhijith/CS537/p3b/xv6-sp20/kernel/main.c:103
  103305:	c7 45 f0 00 70 00 00 	movl   $0x7000,-0x10(%ebp)
/u/a/b/abhijith/CS537/p3b/xv6-sp20/kernel/main.c:104
  10330c:	b8 6a 00 00 00       	mov    $0x6a,%eax
  103311:	83 ec 04             	sub    $0x4,%esp
  103314:	50                   	push   %eax
  103315:	68 dc bb 10 00       	push   $0x10bbdc
  10331a:	ff 75 f0             	pushl  -0x10(%ebp)
  10331d:	e8 52 18 00 00       	call   104b74 <memmove>
  103322:	83 c4 10             	add    $0x10,%esp
/u/a/b/abhijith/CS537/p3b/xv6-sp20/kernel/main.c:106
  103325:	c7 45 f4 80 07 11 00 	movl   $0x110780,-0xc(%ebp)
  10332c:	eb 6b                	jmp    103399 <bootothers+0x9a>
/u/a/b/abhijith/CS537/p3b/xv6-sp20/kernel/main.c:107
  10332e:	e8 d1 fc ff ff       	call   103004 <cpunum>
  103333:	69 c0 bc 00 00 00    	imul   $0xbc,%eax,%eax
  103339:	05 80 07 11 00       	add    $0x110780,%eax
  10333e:	39 45 f4             	cmp    %eax,-0xc(%ebp)
  103341:	74 4e                	je     103391 <bootothers+0x92>
/u/a/b/abhijith/CS537/p3b/xv6-sp20/kernel/main.c:113
  103343:	e8 83 f8 ff ff       	call   102bcb <kalloc>
  103348:	89 45 ec             	mov    %eax,-0x14(%ebp)
/u/a/b/abhijith/CS537/p3b/xv6-sp20/kernel/main.c:114
  10334b:	8b 45 f0             	mov    -0x10(%ebp),%eax
  10334e:	83 e8 04             	sub    $0x4,%eax
  103351:	8b 55 ec             	mov    -0x14(%ebp),%edx
  103354:	81 c2 00 10 00 00    	add    $0x1000,%edx
  10335a:	89 10                	mov    %edx,(%eax)
/u/a/b/abhijith/CS537/p3b/xv6-sp20/kernel/main.c:115
  10335c:	8b 45 f0             	mov    -0x10(%ebp),%eax
  10335f:	83 e8 08             	sub    $0x8,%eax
  103362:	c7 00 ef 32 10 00    	movl   $0x1032ef,(%eax)
/u/a/b/abhijith/CS537/p3b/xv6-sp20/kernel/main.c:117
  103368:	8b 55 f0             	mov    -0x10(%ebp),%edx
  10336b:	8b 45 f4             	mov    -0xc(%ebp),%eax
  10336e:	0f b6 00             	movzbl (%eax),%eax
  103371:	0f b6 c0             	movzbl %al,%eax
  103374:	83 ec 08             	sub    $0x8,%esp
  103377:	52                   	push   %edx
  103378:	50                   	push   %eax
  103379:	e8 00 fd ff ff       	call   10307e <lapicstartap>
  10337e:	83 c4 10             	add    $0x10,%esp
/u/a/b/abhijith/CS537/p3b/xv6-sp20/kernel/main.c:120
  103381:	90                   	nop
/u/a/b/abhijith/CS537/p3b/xv6-sp20/kernel/main.c:120 (discriminator 1)
  103382:	8b 45 f4             	mov    -0xc(%ebp),%eax
  103385:	8b 80 a8 00 00 00    	mov    0xa8(%eax),%eax
  10338b:	85 c0                	test   %eax,%eax
  10338d:	74 f3                	je     103382 <bootothers+0x83>
  10338f:	eb 01                	jmp    103392 <bootothers+0x93>
/u/a/b/abhijith/CS537/p3b/xv6-sp20/kernel/main.c:108
  103391:	90                   	nop
/u/a/b/abhijith/CS537/p3b/xv6-sp20/kernel/main.c:106 (discriminator 2)
  103392:	81 45 f4 bc 00 00 00 	addl   $0xbc,-0xc(%ebp)
/u/a/b/abhijith/CS537/p3b/xv6-sp20/kernel/main.c:106 (discriminator 1)
  103399:	a1 60 0d 11 00       	mov    0x110d60,%eax
  10339e:	69 c0 bc 00 00 00    	imul   $0xbc,%eax,%eax
  1033a4:	05 80 07 11 00       	add    $0x110780,%eax
  1033a9:	39 45 f4             	cmp    %eax,-0xc(%ebp)
  1033ac:	72 80                	jb     10332e <bootothers+0x2f>
/u/a/b/abhijith/CS537/p3b/xv6-sp20/kernel/main.c:123
  1033ae:	90                   	nop
  1033af:	c9                   	leave  
  1033b0:	c3                   	ret    

001033b1 <inb>:
inb():
/u/a/b/abhijith/CS537/p3b/xv6-sp20/include/x86.h:7
  1033b1:	55                   	push   %ebp
  1033b2:	89 e5                	mov    %esp,%ebp
  1033b4:	83 ec 14             	sub    $0x14,%esp
  1033b7:	8b 45 08             	mov    0x8(%ebp),%eax
  1033ba:	66 89 45 ec          	mov    %ax,-0x14(%ebp)
/u/a/b/abhijith/CS537/p3b/xv6-sp20/include/x86.h:10
  1033be:	0f b7 45 ec          	movzwl -0x14(%ebp),%eax
  1033c2:	89 c2                	mov    %eax,%edx
  1033c4:	ec                   	in     (%dx),%al
  1033c5:	88 45 ff             	mov    %al,-0x1(%ebp)
/u/a/b/abhijith/CS537/p3b/xv6-sp20/include/x86.h:11
  1033c8:	0f b6 45 ff          	movzbl -0x1(%ebp),%eax
/u/a/b/abhijith/CS537/p3b/xv6-sp20/include/x86.h:12
  1033cc:	c9                   	leave  
  1033cd:	c3                   	ret    

001033ce <outb>:
outb():
/u/a/b/abhijith/CS537/p3b/xv6-sp20/include/x86.h:25
  1033ce:	55                   	push   %ebp
  1033cf:	89 e5                	mov    %esp,%ebp
  1033d1:	83 ec 08             	sub    $0x8,%esp
  1033d4:	8b 55 08             	mov    0x8(%ebp),%edx
  1033d7:	8b 45 0c             	mov    0xc(%ebp),%eax
  1033da:	66 89 55 fc          	mov    %dx,-0x4(%ebp)
  1033de:	88 45 f8             	mov    %al,-0x8(%ebp)
/u/a/b/abhijith/CS537/p3b/xv6-sp20/include/x86.h:26
  1033e1:	0f b6 45 f8          	movzbl -0x8(%ebp),%eax
  1033e5:	0f b7 55 fc          	movzwl -0x4(%ebp),%edx
  1033e9:	ee                   	out    %al,(%dx)
/u/a/b/abhijith/CS537/p3b/xv6-sp20/include/x86.h:27
  1033ea:	90                   	nop
  1033eb:	c9                   	leave  
  1033ec:	c3                   	ret    

001033ed <mpbcpu>:
mpbcpu():
/u/a/b/abhijith/CS537/p3b/xv6-sp20/kernel/mp.c:21
  1033ed:	55                   	push   %ebp
  1033ee:	89 e5                	mov    %esp,%ebp
/u/a/b/abhijith/CS537/p3b/xv6-sp20/kernel/mp.c:22
  1033f0:	a1 10 c5 10 00       	mov    0x10c510,%eax
  1033f5:	89 c2                	mov    %eax,%edx
  1033f7:	b8 80 07 11 00       	mov    $0x110780,%eax
  1033fc:	29 c2                	sub    %eax,%edx
  1033fe:	89 d0                	mov    %edx,%eax
  103400:	c1 f8 02             	sar    $0x2,%eax
  103403:	69 c0 cf 46 7d 67    	imul   $0x677d46cf,%eax,%eax
/u/a/b/abhijith/CS537/p3b/xv6-sp20/kernel/mp.c:23
  103409:	5d                   	pop    %ebp
  10340a:	c3                   	ret    

0010340b <sum>:
sum():
/u/a/b/abhijith/CS537/p3b/xv6-sp20/kernel/mp.c:27
  10340b:	55                   	push   %ebp
  10340c:	89 e5                	mov    %esp,%ebp
  10340e:	83 ec 10             	sub    $0x10,%esp
/u/a/b/abhijith/CS537/p3b/xv6-sp20/kernel/mp.c:30
  103411:	c7 45 f8 00 00 00 00 	movl   $0x0,-0x8(%ebp)
/u/a/b/abhijith/CS537/p3b/xv6-sp20/kernel/mp.c:31
  103418:	c7 45 fc 00 00 00 00 	movl   $0x0,-0x4(%ebp)
  10341f:	eb 15                	jmp    103436 <sum+0x2b>
/u/a/b/abhijith/CS537/p3b/xv6-sp20/kernel/mp.c:32 (discriminator 3)
  103421:	8b 55 fc             	mov    -0x4(%ebp),%edx
  103424:	8b 45 08             	mov    0x8(%ebp),%eax
  103427:	01 d0                	add    %edx,%eax
  103429:	0f b6 00             	movzbl (%eax),%eax
  10342c:	0f b6 c0             	movzbl %al,%eax
  10342f:	01 45 f8             	add    %eax,-0x8(%ebp)
/u/a/b/abhijith/CS537/p3b/xv6-sp20/kernel/mp.c:31 (discriminator 3)
  103432:	83 45 fc 01          	addl   $0x1,-0x4(%ebp)
/u/a/b/abhijith/CS537/p3b/xv6-sp20/kernel/mp.c:31 (discriminator 1)
  103436:	8b 45 fc             	mov    -0x4(%ebp),%eax
  103439:	3b 45 0c             	cmp    0xc(%ebp),%eax
  10343c:	7c e3                	jl     103421 <sum+0x16>
/u/a/b/abhijith/CS537/p3b/xv6-sp20/kernel/mp.c:33
  10343e:	8b 45 f8             	mov    -0x8(%ebp),%eax
/u/a/b/abhijith/CS537/p3b/xv6-sp20/kernel/mp.c:34
  103441:	c9                   	leave  
  103442:	c3                   	ret    

00103443 <mpsearch1>:
mpsearch1():
/u/a/b/abhijith/CS537/p3b/xv6-sp20/kernel/mp.c:39
  103443:	55                   	push   %ebp
  103444:	89 e5                	mov    %esp,%ebp
  103446:	83 ec 18             	sub    $0x18,%esp
/u/a/b/abhijith/CS537/p3b/xv6-sp20/kernel/mp.c:42
  103449:	8b 55 0c             	mov    0xc(%ebp),%edx
  10344c:	8b 45 08             	mov    0x8(%ebp),%eax
  10344f:	01 d0                	add    %edx,%eax
  103451:	89 45 f0             	mov    %eax,-0x10(%ebp)
/u/a/b/abhijith/CS537/p3b/xv6-sp20/kernel/mp.c:43
  103454:	8b 45 08             	mov    0x8(%ebp),%eax
  103457:	89 45 f4             	mov    %eax,-0xc(%ebp)
  10345a:	eb 36                	jmp    103492 <mpsearch1+0x4f>
/u/a/b/abhijith/CS537/p3b/xv6-sp20/kernel/mp.c:44
  10345c:	83 ec 04             	sub    $0x4,%esp
  10345f:	6a 04                	push   $0x4
  103461:	68 38 81 10 00       	push   $0x108138
  103466:	ff 75 f4             	pushl  -0xc(%ebp)
  103469:	e8 ae 16 00 00       	call   104b1c <memcmp>
  10346e:	83 c4 10             	add    $0x10,%esp
  103471:	85 c0                	test   %eax,%eax
  103473:	75 19                	jne    10348e <mpsearch1+0x4b>
/u/a/b/abhijith/CS537/p3b/xv6-sp20/kernel/mp.c:44 (discriminator 1)
  103475:	83 ec 08             	sub    $0x8,%esp
  103478:	6a 10                	push   $0x10
  10347a:	ff 75 f4             	pushl  -0xc(%ebp)
  10347d:	e8 89 ff ff ff       	call   10340b <sum>
  103482:	83 c4 10             	add    $0x10,%esp
  103485:	84 c0                	test   %al,%al
  103487:	75 05                	jne    10348e <mpsearch1+0x4b>
/u/a/b/abhijith/CS537/p3b/xv6-sp20/kernel/mp.c:45
  103489:	8b 45 f4             	mov    -0xc(%ebp),%eax
  10348c:	eb 11                	jmp    10349f <mpsearch1+0x5c>
/u/a/b/abhijith/CS537/p3b/xv6-sp20/kernel/mp.c:43 (discriminator 2)
  10348e:	83 45 f4 10          	addl   $0x10,-0xc(%ebp)
/u/a/b/abhijith/CS537/p3b/xv6-sp20/kernel/mp.c:43 (discriminator 1)
  103492:	8b 45 f4             	mov    -0xc(%ebp),%eax
  103495:	3b 45 f0             	cmp    -0x10(%ebp),%eax
  103498:	72 c2                	jb     10345c <mpsearch1+0x19>
/u/a/b/abhijith/CS537/p3b/xv6-sp20/kernel/mp.c:46
  10349a:	b8 00 00 00 00       	mov    $0x0,%eax
/u/a/b/abhijith/CS537/p3b/xv6-sp20/kernel/mp.c:47
  10349f:	c9                   	leave  
  1034a0:	c3                   	ret    

001034a1 <mpsearch>:
mpsearch():
/u/a/b/abhijith/CS537/p3b/xv6-sp20/kernel/mp.c:56
  1034a1:	55                   	push   %ebp
  1034a2:	89 e5                	mov    %esp,%ebp
  1034a4:	83 ec 18             	sub    $0x18,%esp
/u/a/b/abhijith/CS537/p3b/xv6-sp20/kernel/mp.c:61
  1034a7:	c7 45 f4 00 04 00 00 	movl   $0x400,-0xc(%ebp)
/u/a/b/abhijith/CS537/p3b/xv6-sp20/kernel/mp.c:62
  1034ae:	8b 45 f4             	mov    -0xc(%ebp),%eax
  1034b1:	83 c0 0f             	add    $0xf,%eax
  1034b4:	0f b6 00             	movzbl (%eax),%eax
  1034b7:	0f b6 c0             	movzbl %al,%eax
  1034ba:	c1 e0 08             	shl    $0x8,%eax
  1034bd:	89 c2                	mov    %eax,%edx
  1034bf:	8b 45 f4             	mov    -0xc(%ebp),%eax
  1034c2:	83 c0 0e             	add    $0xe,%eax
  1034c5:	0f b6 00             	movzbl (%eax),%eax
  1034c8:	0f b6 c0             	movzbl %al,%eax
  1034cb:	09 d0                	or     %edx,%eax
  1034cd:	c1 e0 04             	shl    $0x4,%eax
  1034d0:	89 45 f0             	mov    %eax,-0x10(%ebp)
  1034d3:	83 7d f0 00          	cmpl   $0x0,-0x10(%ebp)
  1034d7:	74 22                	je     1034fb <mpsearch+0x5a>
/u/a/b/abhijith/CS537/p3b/xv6-sp20/kernel/mp.c:63
  1034d9:	8b 45 f0             	mov    -0x10(%ebp),%eax
  1034dc:	83 ec 08             	sub    $0x8,%esp
  1034df:	68 00 04 00 00       	push   $0x400
  1034e4:	50                   	push   %eax
  1034e5:	e8 59 ff ff ff       	call   103443 <mpsearch1>
  1034ea:	83 c4 10             	add    $0x10,%esp
  1034ed:	89 45 ec             	mov    %eax,-0x14(%ebp)
  1034f0:	83 7d ec 00          	cmpl   $0x0,-0x14(%ebp)
  1034f4:	74 51                	je     103547 <mpsearch+0xa6>
/u/a/b/abhijith/CS537/p3b/xv6-sp20/kernel/mp.c:64
  1034f6:	8b 45 ec             	mov    -0x14(%ebp),%eax
  1034f9:	eb 61                	jmp    10355c <mpsearch+0xbb>
/u/a/b/abhijith/CS537/p3b/xv6-sp20/kernel/mp.c:66
  1034fb:	8b 45 f4             	mov    -0xc(%ebp),%eax
  1034fe:	83 c0 14             	add    $0x14,%eax
  103501:	0f b6 00             	movzbl (%eax),%eax
  103504:	0f b6 c0             	movzbl %al,%eax
  103507:	c1 e0 08             	shl    $0x8,%eax
  10350a:	89 c2                	mov    %eax,%edx
  10350c:	8b 45 f4             	mov    -0xc(%ebp),%eax
  10350f:	83 c0 13             	add    $0x13,%eax
  103512:	0f b6 00             	movzbl (%eax),%eax
  103515:	0f b6 c0             	movzbl %al,%eax
  103518:	09 d0                	or     %edx,%eax
  10351a:	c1 e0 0a             	shl    $0xa,%eax
  10351d:	89 45 f0             	mov    %eax,-0x10(%ebp)
/u/a/b/abhijith/CS537/p3b/xv6-sp20/kernel/mp.c:67
  103520:	8b 45 f0             	mov    -0x10(%ebp),%eax
  103523:	2d 00 04 00 00       	sub    $0x400,%eax
  103528:	83 ec 08             	sub    $0x8,%esp
  10352b:	68 00 04 00 00       	push   $0x400
  103530:	50                   	push   %eax
  103531:	e8 0d ff ff ff       	call   103443 <mpsearch1>
  103536:	83 c4 10             	add    $0x10,%esp
  103539:	89 45 ec             	mov    %eax,-0x14(%ebp)
  10353c:	83 7d ec 00          	cmpl   $0x0,-0x14(%ebp)
  103540:	74 05                	je     103547 <mpsearch+0xa6>
/u/a/b/abhijith/CS537/p3b/xv6-sp20/kernel/mp.c:68
  103542:	8b 45 ec             	mov    -0x14(%ebp),%eax
  103545:	eb 15                	jmp    10355c <mpsearch+0xbb>
/u/a/b/abhijith/CS537/p3b/xv6-sp20/kernel/mp.c:70
  103547:	83 ec 08             	sub    $0x8,%esp
  10354a:	68 00 00 01 00       	push   $0x10000
  10354f:	68 00 00 0f 00       	push   $0xf0000
  103554:	e8 ea fe ff ff       	call   103443 <mpsearch1>
  103559:	83 c4 10             	add    $0x10,%esp
/u/a/b/abhijith/CS537/p3b/xv6-sp20/kernel/mp.c:71
  10355c:	c9                   	leave  
  10355d:	c3                   	ret    

0010355e <mpconfig>:
mpconfig():
/u/a/b/abhijith/CS537/p3b/xv6-sp20/kernel/mp.c:80
  10355e:	55                   	push   %ebp
  10355f:	89 e5                	mov    %esp,%ebp
  103561:	83 ec 18             	sub    $0x18,%esp
/u/a/b/abhijith/CS537/p3b/xv6-sp20/kernel/mp.c:84
  103564:	e8 38 ff ff ff       	call   1034a1 <mpsearch>
  103569:	89 45 f4             	mov    %eax,-0xc(%ebp)
  10356c:	83 7d f4 00          	cmpl   $0x0,-0xc(%ebp)
  103570:	74 0a                	je     10357c <mpconfig+0x1e>
/u/a/b/abhijith/CS537/p3b/xv6-sp20/kernel/mp.c:84 (discriminator 1)
  103572:	8b 45 f4             	mov    -0xc(%ebp),%eax
  103575:	8b 40 04             	mov    0x4(%eax),%eax
  103578:	85 c0                	test   %eax,%eax
  10357a:	75 07                	jne    103583 <mpconfig+0x25>
/u/a/b/abhijith/CS537/p3b/xv6-sp20/kernel/mp.c:85
  10357c:	b8 00 00 00 00       	mov    $0x0,%eax
  103581:	eb 75                	jmp    1035f8 <mpconfig+0x9a>
/u/a/b/abhijith/CS537/p3b/xv6-sp20/kernel/mp.c:86
  103583:	8b 45 f4             	mov    -0xc(%ebp),%eax
  103586:	8b 40 04             	mov    0x4(%eax),%eax
  103589:	89 45 f0             	mov    %eax,-0x10(%ebp)
/u/a/b/abhijith/CS537/p3b/xv6-sp20/kernel/mp.c:87
  10358c:	83 ec 04             	sub    $0x4,%esp
  10358f:	6a 04                	push   $0x4
  103591:	68 3d 81 10 00       	push   $0x10813d
  103596:	ff 75 f0             	pushl  -0x10(%ebp)
  103599:	e8 7e 15 00 00       	call   104b1c <memcmp>
  10359e:	83 c4 10             	add    $0x10,%esp
  1035a1:	85 c0                	test   %eax,%eax
  1035a3:	74 07                	je     1035ac <mpconfig+0x4e>
/u/a/b/abhijith/CS537/p3b/xv6-sp20/kernel/mp.c:88
  1035a5:	b8 00 00 00 00       	mov    $0x0,%eax
  1035aa:	eb 4c                	jmp    1035f8 <mpconfig+0x9a>
/u/a/b/abhijith/CS537/p3b/xv6-sp20/kernel/mp.c:89
  1035ac:	8b 45 f0             	mov    -0x10(%ebp),%eax
  1035af:	0f b6 40 06          	movzbl 0x6(%eax),%eax
  1035b3:	3c 01                	cmp    $0x1,%al
  1035b5:	74 12                	je     1035c9 <mpconfig+0x6b>
/u/a/b/abhijith/CS537/p3b/xv6-sp20/kernel/mp.c:89 (discriminator 1)
  1035b7:	8b 45 f0             	mov    -0x10(%ebp),%eax
  1035ba:	0f b6 40 06          	movzbl 0x6(%eax),%eax
  1035be:	3c 04                	cmp    $0x4,%al
  1035c0:	74 07                	je     1035c9 <mpconfig+0x6b>
/u/a/b/abhijith/CS537/p3b/xv6-sp20/kernel/mp.c:90
  1035c2:	b8 00 00 00 00       	mov    $0x0,%eax
  1035c7:	eb 2f                	jmp    1035f8 <mpconfig+0x9a>
/u/a/b/abhijith/CS537/p3b/xv6-sp20/kernel/mp.c:91
  1035c9:	8b 45 f0             	mov    -0x10(%ebp),%eax
  1035cc:	0f b7 40 04          	movzwl 0x4(%eax),%eax
  1035d0:	0f b7 c0             	movzwl %ax,%eax
  1035d3:	83 ec 08             	sub    $0x8,%esp
  1035d6:	50                   	push   %eax
  1035d7:	ff 75 f0             	pushl  -0x10(%ebp)
  1035da:	e8 2c fe ff ff       	call   10340b <sum>
  1035df:	83 c4 10             	add    $0x10,%esp
  1035e2:	84 c0                	test   %al,%al
  1035e4:	74 07                	je     1035ed <mpconfig+0x8f>
/u/a/b/abhijith/CS537/p3b/xv6-sp20/kernel/mp.c:92
  1035e6:	b8 00 00 00 00       	mov    $0x0,%eax
  1035eb:	eb 0b                	jmp    1035f8 <mpconfig+0x9a>
/u/a/b/abhijith/CS537/p3b/xv6-sp20/kernel/mp.c:93
  1035ed:	8b 45 08             	mov    0x8(%ebp),%eax
  1035f0:	8b 55 f4             	mov    -0xc(%ebp),%edx
  1035f3:	89 10                	mov    %edx,(%eax)
/u/a/b/abhijith/CS537/p3b/xv6-sp20/kernel/mp.c:94
  1035f5:	8b 45 f0             	mov    -0x10(%ebp),%eax
/u/a/b/abhijith/CS537/p3b/xv6-sp20/kernel/mp.c:95
  1035f8:	c9                   	leave  
  1035f9:	c3                   	ret    

001035fa <mpinit>:
mpinit():
/u/a/b/abhijith/CS537/p3b/xv6-sp20/kernel/mp.c:99
  1035fa:	55                   	push   %ebp
  1035fb:	89 e5                	mov    %esp,%ebp
  1035fd:	83 ec 28             	sub    $0x28,%esp
/u/a/b/abhijith/CS537/p3b/xv6-sp20/kernel/mp.c:106
  103600:	c7 05 10 c5 10 00 80 	movl   $0x110780,0x10c510
  103607:	07 11 00 
/u/a/b/abhijith/CS537/p3b/xv6-sp20/kernel/mp.c:107
  10360a:	83 ec 0c             	sub    $0xc,%esp
  10360d:	8d 45 e0             	lea    -0x20(%ebp),%eax
  103610:	50                   	push   %eax
  103611:	e8 48 ff ff ff       	call   10355e <mpconfig>
  103616:	83 c4 10             	add    $0x10,%esp
  103619:	89 45 f0             	mov    %eax,-0x10(%ebp)
  10361c:	83 7d f0 00          	cmpl   $0x0,-0x10(%ebp)
  103620:	0f 84 96 01 00 00    	je     1037bc <mpinit+0x1c2>
/u/a/b/abhijith/CS537/p3b/xv6-sp20/kernel/mp.c:109
  103626:	c7 05 64 07 11 00 01 	movl   $0x1,0x110764
  10362d:	00 00 00 
/u/a/b/abhijith/CS537/p3b/xv6-sp20/kernel/mp.c:110
  103630:	8b 45 f0             	mov    -0x10(%ebp),%eax
  103633:	8b 40 24             	mov    0x24(%eax),%eax
  103636:	a3 58 07 11 00       	mov    %eax,0x110758
/u/a/b/abhijith/CS537/p3b/xv6-sp20/kernel/mp.c:111
  10363b:	8b 45 f0             	mov    -0x10(%ebp),%eax
  10363e:	83 c0 2c             	add    $0x2c,%eax
  103641:	89 45 f4             	mov    %eax,-0xc(%ebp)
  103644:	8b 45 f0             	mov    -0x10(%ebp),%eax
  103647:	0f b7 40 04          	movzwl 0x4(%eax),%eax
  10364b:	0f b7 d0             	movzwl %ax,%edx
  10364e:	8b 45 f0             	mov    -0x10(%ebp),%eax
  103651:	01 d0                	add    %edx,%eax
  103653:	89 45 ec             	mov    %eax,-0x14(%ebp)
  103656:	e9 f2 00 00 00       	jmp    10374d <mpinit+0x153>
/u/a/b/abhijith/CS537/p3b/xv6-sp20/kernel/mp.c:112
  10365b:	8b 45 f4             	mov    -0xc(%ebp),%eax
  10365e:	0f b6 00             	movzbl (%eax),%eax
  103661:	0f b6 c0             	movzbl %al,%eax
  103664:	83 f8 04             	cmp    $0x4,%eax
  103667:	0f 87 bc 00 00 00    	ja     103729 <mpinit+0x12f>
  10366d:	8b 04 85 80 81 10 00 	mov    0x108180(,%eax,4),%eax
  103674:	ff e0                	jmp    *%eax
/u/a/b/abhijith/CS537/p3b/xv6-sp20/kernel/mp.c:114
  103676:	8b 45 f4             	mov    -0xc(%ebp),%eax
  103679:	89 45 e4             	mov    %eax,-0x1c(%ebp)
/u/a/b/abhijith/CS537/p3b/xv6-sp20/kernel/mp.c:115
  10367c:	8b 45 e4             	mov    -0x1c(%ebp),%eax
  10367f:	0f b6 40 01          	movzbl 0x1(%eax),%eax
  103683:	0f b6 d0             	movzbl %al,%edx
  103686:	a1 60 0d 11 00       	mov    0x110d60,%eax
  10368b:	39 c2                	cmp    %eax,%edx
  10368d:	74 2b                	je     1036ba <mpinit+0xc0>
/u/a/b/abhijith/CS537/p3b/xv6-sp20/kernel/mp.c:116
  10368f:	8b 45 e4             	mov    -0x1c(%ebp),%eax
  103692:	0f b6 40 01          	movzbl 0x1(%eax),%eax
  103696:	0f b6 d0             	movzbl %al,%edx
  103699:	a1 60 0d 11 00       	mov    0x110d60,%eax
  10369e:	83 ec 04             	sub    $0x4,%esp
  1036a1:	52                   	push   %edx
  1036a2:	50                   	push   %eax
  1036a3:	68 42 81 10 00       	push   $0x108142
  1036a8:	e8 3f cd ff ff       	call   1003ec <cprintf>
  1036ad:	83 c4 10             	add    $0x10,%esp
/u/a/b/abhijith/CS537/p3b/xv6-sp20/kernel/mp.c:117
  1036b0:	c7 05 64 07 11 00 00 	movl   $0x0,0x110764
  1036b7:	00 00 00 
/u/a/b/abhijith/CS537/p3b/xv6-sp20/kernel/mp.c:119
  1036ba:	8b 45 e4             	mov    -0x1c(%ebp),%eax
  1036bd:	0f b6 40 03          	movzbl 0x3(%eax),%eax
  1036c1:	0f b6 c0             	movzbl %al,%eax
  1036c4:	83 e0 02             	and    $0x2,%eax
  1036c7:	85 c0                	test   %eax,%eax
  1036c9:	74 15                	je     1036e0 <mpinit+0xe6>
/u/a/b/abhijith/CS537/p3b/xv6-sp20/kernel/mp.c:120
  1036cb:	a1 60 0d 11 00       	mov    0x110d60,%eax
  1036d0:	69 c0 bc 00 00 00    	imul   $0xbc,%eax,%eax
  1036d6:	05 80 07 11 00       	add    $0x110780,%eax
  1036db:	a3 10 c5 10 00       	mov    %eax,0x10c510
/u/a/b/abhijith/CS537/p3b/xv6-sp20/kernel/mp.c:121
  1036e0:	8b 15 60 0d 11 00    	mov    0x110d60,%edx
  1036e6:	a1 60 0d 11 00       	mov    0x110d60,%eax
  1036eb:	69 c0 bc 00 00 00    	imul   $0xbc,%eax,%eax
  1036f1:	05 80 07 11 00       	add    $0x110780,%eax
  1036f6:	88 10                	mov    %dl,(%eax)
/u/a/b/abhijith/CS537/p3b/xv6-sp20/kernel/mp.c:122
  1036f8:	a1 60 0d 11 00       	mov    0x110d60,%eax
  1036fd:	83 c0 01             	add    $0x1,%eax
  103700:	a3 60 0d 11 00       	mov    %eax,0x110d60
/u/a/b/abhijith/CS537/p3b/xv6-sp20/kernel/mp.c:123
  103705:	83 45 f4 14          	addl   $0x14,-0xc(%ebp)
/u/a/b/abhijith/CS537/p3b/xv6-sp20/kernel/mp.c:124
  103709:	eb 42                	jmp    10374d <mpinit+0x153>
/u/a/b/abhijith/CS537/p3b/xv6-sp20/kernel/mp.c:126
  10370b:	8b 45 f4             	mov    -0xc(%ebp),%eax
  10370e:	89 45 e8             	mov    %eax,-0x18(%ebp)
/u/a/b/abhijith/CS537/p3b/xv6-sp20/kernel/mp.c:127
  103711:	8b 45 e8             	mov    -0x18(%ebp),%eax
  103714:	0f b6 40 01          	movzbl 0x1(%eax),%eax
  103718:	a2 60 07 11 00       	mov    %al,0x110760
/u/a/b/abhijith/CS537/p3b/xv6-sp20/kernel/mp.c:128
  10371d:	83 45 f4 08          	addl   $0x8,-0xc(%ebp)
/u/a/b/abhijith/CS537/p3b/xv6-sp20/kernel/mp.c:129
  103721:	eb 2a                	jmp    10374d <mpinit+0x153>
/u/a/b/abhijith/CS537/p3b/xv6-sp20/kernel/mp.c:133
  103723:	83 45 f4 08          	addl   $0x8,-0xc(%ebp)
/u/a/b/abhijith/CS537/p3b/xv6-sp20/kernel/mp.c:134
  103727:	eb 24                	jmp    10374d <mpinit+0x153>
/u/a/b/abhijith/CS537/p3b/xv6-sp20/kernel/mp.c:136
  103729:	8b 45 f4             	mov    -0xc(%ebp),%eax
  10372c:	0f b6 00             	movzbl (%eax),%eax
  10372f:	0f b6 c0             	movzbl %al,%eax
  103732:	83 ec 08             	sub    $0x8,%esp
  103735:	50                   	push   %eax
  103736:	68 60 81 10 00       	push   $0x108160
  10373b:	e8 ac cc ff ff       	call   1003ec <cprintf>
  103740:	83 c4 10             	add    $0x10,%esp
/u/a/b/abhijith/CS537/p3b/xv6-sp20/kernel/mp.c:137
  103743:	c7 05 64 07 11 00 00 	movl   $0x0,0x110764
  10374a:	00 00 00 
/u/a/b/abhijith/CS537/p3b/xv6-sp20/kernel/mp.c:111 (discriminator 1)
  10374d:	8b 45 f4             	mov    -0xc(%ebp),%eax
  103750:	3b 45 ec             	cmp    -0x14(%ebp),%eax
  103753:	0f 82 02 ff ff ff    	jb     10365b <mpinit+0x61>
/u/a/b/abhijith/CS537/p3b/xv6-sp20/kernel/mp.c:140
  103759:	a1 64 07 11 00       	mov    0x110764,%eax
  10375e:	85 c0                	test   %eax,%eax
  103760:	75 1d                	jne    10377f <mpinit+0x185>
/u/a/b/abhijith/CS537/p3b/xv6-sp20/kernel/mp.c:142
  103762:	c7 05 60 0d 11 00 01 	movl   $0x1,0x110d60
  103769:	00 00 00 
/u/a/b/abhijith/CS537/p3b/xv6-sp20/kernel/mp.c:143
  10376c:	c7 05 58 07 11 00 00 	movl   $0x0,0x110758
  103773:	00 00 00 
/u/a/b/abhijith/CS537/p3b/xv6-sp20/kernel/mp.c:144
  103776:	c6 05 60 07 11 00 00 	movb   $0x0,0x110760
/u/a/b/abhijith/CS537/p3b/xv6-sp20/kernel/mp.c:145
  10377d:	eb 3e                	jmp    1037bd <mpinit+0x1c3>
/u/a/b/abhijith/CS537/p3b/xv6-sp20/kernel/mp.c:148
  10377f:	8b 45 e0             	mov    -0x20(%ebp),%eax
  103782:	0f b6 40 0c          	movzbl 0xc(%eax),%eax
  103786:	84 c0                	test   %al,%al
  103788:	74 33                	je     1037bd <mpinit+0x1c3>
/u/a/b/abhijith/CS537/p3b/xv6-sp20/kernel/mp.c:151
  10378a:	83 ec 08             	sub    $0x8,%esp
  10378d:	6a 70                	push   $0x70
  10378f:	6a 22                	push   $0x22
  103791:	e8 38 fc ff ff       	call   1033ce <outb>
  103796:	83 c4 10             	add    $0x10,%esp
/u/a/b/abhijith/CS537/p3b/xv6-sp20/kernel/mp.c:152
  103799:	83 ec 0c             	sub    $0xc,%esp
  10379c:	6a 23                	push   $0x23
  10379e:	e8 0e fc ff ff       	call   1033b1 <inb>
  1037a3:	83 c4 10             	add    $0x10,%esp
  1037a6:	83 c8 01             	or     $0x1,%eax
  1037a9:	0f b6 c0             	movzbl %al,%eax
  1037ac:	83 ec 08             	sub    $0x8,%esp
  1037af:	50                   	push   %eax
  1037b0:	6a 23                	push   $0x23
  1037b2:	e8 17 fc ff ff       	call   1033ce <outb>
  1037b7:	83 c4 10             	add    $0x10,%esp
  1037ba:	eb 01                	jmp    1037bd <mpinit+0x1c3>
/u/a/b/abhijith/CS537/p3b/xv6-sp20/kernel/mp.c:108
  1037bc:	90                   	nop
/u/a/b/abhijith/CS537/p3b/xv6-sp20/kernel/mp.c:154
  1037bd:	c9                   	leave  
  1037be:	c3                   	ret    

001037bf <outb>:
outb():
/u/a/b/abhijith/CS537/p3b/xv6-sp20/include/x86.h:25
  1037bf:	55                   	push   %ebp
  1037c0:	89 e5                	mov    %esp,%ebp
  1037c2:	83 ec 08             	sub    $0x8,%esp
  1037c5:	8b 55 08             	mov    0x8(%ebp),%edx
  1037c8:	8b 45 0c             	mov    0xc(%ebp),%eax
  1037cb:	66 89 55 fc          	mov    %dx,-0x4(%ebp)
  1037cf:	88 45 f8             	mov    %al,-0x8(%ebp)
/u/a/b/abhijith/CS537/p3b/xv6-sp20/include/x86.h:26
  1037d2:	0f b6 45 f8          	movzbl -0x8(%ebp),%eax
  1037d6:	0f b7 55 fc          	movzwl -0x4(%ebp),%edx
  1037da:	ee                   	out    %al,(%dx)
/u/a/b/abhijith/CS537/p3b/xv6-sp20/include/x86.h:27
  1037db:	90                   	nop
  1037dc:	c9                   	leave  
  1037dd:	c3                   	ret    

001037de <picsetmask>:
picsetmask():
/u/a/b/abhijith/CS537/p3b/xv6-sp20/kernel/picirq.c:19
  1037de:	55                   	push   %ebp
  1037df:	89 e5                	mov    %esp,%ebp
  1037e1:	83 ec 04             	sub    $0x4,%esp
  1037e4:	8b 45 08             	mov    0x8(%ebp),%eax
  1037e7:	66 89 45 fc          	mov    %ax,-0x4(%ebp)
/u/a/b/abhijith/CS537/p3b/xv6-sp20/kernel/picirq.c:20
  1037eb:	0f b7 45 fc          	movzwl -0x4(%ebp),%eax
  1037ef:	66 a3 30 b5 10 00    	mov    %ax,0x10b530
/u/a/b/abhijith/CS537/p3b/xv6-sp20/kernel/picirq.c:21
  1037f5:	0f b7 45 fc          	movzwl -0x4(%ebp),%eax
  1037f9:	0f b6 c0             	movzbl %al,%eax
  1037fc:	50                   	push   %eax
  1037fd:	6a 21                	push   $0x21
  1037ff:	e8 bb ff ff ff       	call   1037bf <outb>
  103804:	83 c4 08             	add    $0x8,%esp
/u/a/b/abhijith/CS537/p3b/xv6-sp20/kernel/picirq.c:22
  103807:	0f b7 45 fc          	movzwl -0x4(%ebp),%eax
  10380b:	66 c1 e8 08          	shr    $0x8,%ax
  10380f:	0f b6 c0             	movzbl %al,%eax
  103812:	50                   	push   %eax
  103813:	68 a1 00 00 00       	push   $0xa1
  103818:	e8 a2 ff ff ff       	call   1037bf <outb>
  10381d:	83 c4 08             	add    $0x8,%esp
/u/a/b/abhijith/CS537/p3b/xv6-sp20/kernel/picirq.c:23
  103820:	90                   	nop
  103821:	c9                   	leave  
  103822:	c3                   	ret    

00103823 <picenable>:
picenable():
/u/a/b/abhijith/CS537/p3b/xv6-sp20/kernel/picirq.c:27
  103823:	55                   	push   %ebp
  103824:	89 e5                	mov    %esp,%ebp
/u/a/b/abhijith/CS537/p3b/xv6-sp20/kernel/picirq.c:28
  103826:	8b 45 08             	mov    0x8(%ebp),%eax
  103829:	ba 01 00 00 00       	mov    $0x1,%edx
  10382e:	89 c1                	mov    %eax,%ecx
  103830:	d3 e2                	shl    %cl,%edx
  103832:	89 d0                	mov    %edx,%eax
  103834:	f7 d0                	not    %eax
  103836:	89 c2                	mov    %eax,%edx
  103838:	0f b7 05 30 b5 10 00 	movzwl 0x10b530,%eax
  10383f:	21 d0                	and    %edx,%eax
  103841:	0f b7 c0             	movzwl %ax,%eax
  103844:	50                   	push   %eax
  103845:	e8 94 ff ff ff       	call   1037de <picsetmask>
  10384a:	83 c4 04             	add    $0x4,%esp
/u/a/b/abhijith/CS537/p3b/xv6-sp20/kernel/picirq.c:29
  10384d:	90                   	nop
  10384e:	c9                   	leave  
  10384f:	c3                   	ret    

00103850 <picinit>:
picinit():
/u/a/b/abhijith/CS537/p3b/xv6-sp20/kernel/picirq.c:34
  103850:	55                   	push   %ebp
  103851:	89 e5                	mov    %esp,%ebp
/u/a/b/abhijith/CS537/p3b/xv6-sp20/kernel/picirq.c:36
  103853:	68 ff 00 00 00       	push   $0xff
  103858:	6a 21                	push   $0x21
  10385a:	e8 60 ff ff ff       	call   1037bf <outb>
  10385f:	83 c4 08             	add    $0x8,%esp
/u/a/b/abhijith/CS537/p3b/xv6-sp20/kernel/picirq.c:37
  103862:	68 ff 00 00 00       	push   $0xff
  103867:	68 a1 00 00 00       	push   $0xa1
  10386c:	e8 4e ff ff ff       	call   1037bf <outb>
  103871:	83 c4 08             	add    $0x8,%esp
/u/a/b/abhijith/CS537/p3b/xv6-sp20/kernel/picirq.c:45
  103874:	6a 11                	push   $0x11
  103876:	6a 20                	push   $0x20
  103878:	e8 42 ff ff ff       	call   1037bf <outb>
  10387d:	83 c4 08             	add    $0x8,%esp
/u/a/b/abhijith/CS537/p3b/xv6-sp20/kernel/picirq.c:48
  103880:	6a 20                	push   $0x20
  103882:	6a 21                	push   $0x21
  103884:	e8 36 ff ff ff       	call   1037bf <outb>
  103889:	83 c4 08             	add    $0x8,%esp
/u/a/b/abhijith/CS537/p3b/xv6-sp20/kernel/picirq.c:52
  10388c:	6a 04                	push   $0x4
  10388e:	6a 21                	push   $0x21
  103890:	e8 2a ff ff ff       	call   1037bf <outb>
  103895:	83 c4 08             	add    $0x8,%esp
/u/a/b/abhijith/CS537/p3b/xv6-sp20/kernel/picirq.c:62
  103898:	6a 03                	push   $0x3
  10389a:	6a 21                	push   $0x21
  10389c:	e8 1e ff ff ff       	call   1037bf <outb>
  1038a1:	83 c4 08             	add    $0x8,%esp
/u/a/b/abhijith/CS537/p3b/xv6-sp20/kernel/picirq.c:65
  1038a4:	6a 11                	push   $0x11
  1038a6:	68 a0 00 00 00       	push   $0xa0
  1038ab:	e8 0f ff ff ff       	call   1037bf <outb>
  1038b0:	83 c4 08             	add    $0x8,%esp
/u/a/b/abhijith/CS537/p3b/xv6-sp20/kernel/picirq.c:66
  1038b3:	6a 28                	push   $0x28
  1038b5:	68 a1 00 00 00       	push   $0xa1
  1038ba:	e8 00 ff ff ff       	call   1037bf <outb>
  1038bf:	83 c4 08             	add    $0x8,%esp
/u/a/b/abhijith/CS537/p3b/xv6-sp20/kernel/picirq.c:67
  1038c2:	6a 02                	push   $0x2
  1038c4:	68 a1 00 00 00       	push   $0xa1
  1038c9:	e8 f1 fe ff ff       	call   1037bf <outb>
  1038ce:	83 c4 08             	add    $0x8,%esp
/u/a/b/abhijith/CS537/p3b/xv6-sp20/kernel/picirq.c:70
  1038d1:	6a 03                	push   $0x3
  1038d3:	68 a1 00 00 00       	push   $0xa1
  1038d8:	e8 e2 fe ff ff       	call   1037bf <outb>
  1038dd:	83 c4 08             	add    $0x8,%esp
/u/a/b/abhijith/CS537/p3b/xv6-sp20/kernel/picirq.c:76
  1038e0:	6a 68                	push   $0x68
  1038e2:	6a 20                	push   $0x20
  1038e4:	e8 d6 fe ff ff       	call   1037bf <outb>
  1038e9:	83 c4 08             	add    $0x8,%esp
/u/a/b/abhijith/CS537/p3b/xv6-sp20/kernel/picirq.c:77
  1038ec:	6a 0a                	push   $0xa
  1038ee:	6a 20                	push   $0x20
  1038f0:	e8 ca fe ff ff       	call   1037bf <outb>
  1038f5:	83 c4 08             	add    $0x8,%esp
/u/a/b/abhijith/CS537/p3b/xv6-sp20/kernel/picirq.c:79
  1038f8:	6a 68                	push   $0x68
  1038fa:	68 a0 00 00 00       	push   $0xa0
  1038ff:	e8 bb fe ff ff       	call   1037bf <outb>
  103904:	83 c4 08             	add    $0x8,%esp
/u/a/b/abhijith/CS537/p3b/xv6-sp20/kernel/picirq.c:80
  103907:	6a 0a                	push   $0xa
  103909:	68 a0 00 00 00       	push   $0xa0
  10390e:	e8 ac fe ff ff       	call   1037bf <outb>
  103913:	83 c4 08             	add    $0x8,%esp
/u/a/b/abhijith/CS537/p3b/xv6-sp20/kernel/picirq.c:82
  103916:	0f b7 05 30 b5 10 00 	movzwl 0x10b530,%eax
  10391d:	66 83 f8 ff          	cmp    $0xffff,%ax
  103921:	74 13                	je     103936 <picinit+0xe6>
/u/a/b/abhijith/CS537/p3b/xv6-sp20/kernel/picirq.c:83
  103923:	0f b7 05 30 b5 10 00 	movzwl 0x10b530,%eax
  10392a:	0f b7 c0             	movzwl %ax,%eax
  10392d:	50                   	push   %eax
  10392e:	e8 ab fe ff ff       	call   1037de <picsetmask>
  103933:	83 c4 04             	add    $0x4,%esp
/u/a/b/abhijith/CS537/p3b/xv6-sp20/kernel/picirq.c:84
  103936:	90                   	nop
  103937:	c9                   	leave  
  103938:	c3                   	ret    

00103939 <pipealloc>:
pipealloc():
/u/a/b/abhijith/CS537/p3b/xv6-sp20/kernel/pipe.c:23
  103939:	55                   	push   %ebp
  10393a:	89 e5                	mov    %esp,%ebp
  10393c:	83 ec 18             	sub    $0x18,%esp
/u/a/b/abhijith/CS537/p3b/xv6-sp20/kernel/pipe.c:26
  10393f:	c7 45 f4 00 00 00 00 	movl   $0x0,-0xc(%ebp)
/u/a/b/abhijith/CS537/p3b/xv6-sp20/kernel/pipe.c:27
  103946:	8b 45 0c             	mov    0xc(%ebp),%eax
  103949:	c7 00 00 00 00 00    	movl   $0x0,(%eax)
  10394f:	8b 45 0c             	mov    0xc(%ebp),%eax
  103952:	8b 10                	mov    (%eax),%edx
  103954:	8b 45 08             	mov    0x8(%ebp),%eax
  103957:	89 10                	mov    %edx,(%eax)
/u/a/b/abhijith/CS537/p3b/xv6-sp20/kernel/pipe.c:28
  103959:	e8 03 d6 ff ff       	call   100f61 <filealloc>
  10395e:	89 c2                	mov    %eax,%edx
  103960:	8b 45 08             	mov    0x8(%ebp),%eax
  103963:	89 10                	mov    %edx,(%eax)
  103965:	8b 45 08             	mov    0x8(%ebp),%eax
  103968:	8b 00                	mov    (%eax),%eax
  10396a:	85 c0                	test   %eax,%eax
  10396c:	0f 84 ca 00 00 00    	je     103a3c <pipealloc+0x103>
/u/a/b/abhijith/CS537/p3b/xv6-sp20/kernel/pipe.c:28 (discriminator 1)
  103972:	e8 ea d5 ff ff       	call   100f61 <filealloc>
  103977:	89 c2                	mov    %eax,%edx
  103979:	8b 45 0c             	mov    0xc(%ebp),%eax
  10397c:	89 10                	mov    %edx,(%eax)
  10397e:	8b 45 0c             	mov    0xc(%ebp),%eax
  103981:	8b 00                	mov    (%eax),%eax
  103983:	85 c0                	test   %eax,%eax
  103985:	0f 84 b1 00 00 00    	je     103a3c <pipealloc+0x103>
/u/a/b/abhijith/CS537/p3b/xv6-sp20/kernel/pipe.c:30
  10398b:	e8 3b f2 ff ff       	call   102bcb <kalloc>
  103990:	89 45 f4             	mov    %eax,-0xc(%ebp)
  103993:	83 7d f4 00          	cmpl   $0x0,-0xc(%ebp)
  103997:	0f 84 a2 00 00 00    	je     103a3f <pipealloc+0x106>
/u/a/b/abhijith/CS537/p3b/xv6-sp20/kernel/pipe.c:32
  10399d:	8b 45 f4             	mov    -0xc(%ebp),%eax
  1039a0:	c7 80 3c 02 00 00 01 	movl   $0x1,0x23c(%eax)
  1039a7:	00 00 00 
/u/a/b/abhijith/CS537/p3b/xv6-sp20/kernel/pipe.c:33
  1039aa:	8b 45 f4             	mov    -0xc(%ebp),%eax
  1039ad:	c7 80 40 02 00 00 01 	movl   $0x1,0x240(%eax)
  1039b4:	00 00 00 
/u/a/b/abhijith/CS537/p3b/xv6-sp20/kernel/pipe.c:34
  1039b7:	8b 45 f4             	mov    -0xc(%ebp),%eax
  1039ba:	c7 80 38 02 00 00 00 	movl   $0x0,0x238(%eax)
  1039c1:	00 00 00 
/u/a/b/abhijith/CS537/p3b/xv6-sp20/kernel/pipe.c:35
  1039c4:	8b 45 f4             	mov    -0xc(%ebp),%eax
  1039c7:	c7 80 34 02 00 00 00 	movl   $0x0,0x234(%eax)
  1039ce:	00 00 00 
/u/a/b/abhijith/CS537/p3b/xv6-sp20/kernel/pipe.c:36
  1039d1:	8b 45 f4             	mov    -0xc(%ebp),%eax
  1039d4:	83 ec 08             	sub    $0x8,%esp
  1039d7:	68 94 81 10 00       	push   $0x108194
  1039dc:	50                   	push   %eax
  1039dd:	e8 c1 0e 00 00       	call   1048a3 <initlock>
  1039e2:	83 c4 10             	add    $0x10,%esp
/u/a/b/abhijith/CS537/p3b/xv6-sp20/kernel/pipe.c:37
  1039e5:	8b 45 08             	mov    0x8(%ebp),%eax
  1039e8:	8b 00                	mov    (%eax),%eax
  1039ea:	c7 00 01 00 00 00    	movl   $0x1,(%eax)
/u/a/b/abhijith/CS537/p3b/xv6-sp20/kernel/pipe.c:38
  1039f0:	8b 45 08             	mov    0x8(%ebp),%eax
  1039f3:	8b 00                	mov    (%eax),%eax
  1039f5:	c6 40 08 01          	movb   $0x1,0x8(%eax)
/u/a/b/abhijith/CS537/p3b/xv6-sp20/kernel/pipe.c:39
  1039f9:	8b 45 08             	mov    0x8(%ebp),%eax
  1039fc:	8b 00                	mov    (%eax),%eax
  1039fe:	c6 40 09 00          	movb   $0x0,0x9(%eax)
/u/a/b/abhijith/CS537/p3b/xv6-sp20/kernel/pipe.c:40
  103a02:	8b 45 08             	mov    0x8(%ebp),%eax
  103a05:	8b 00                	mov    (%eax),%eax
  103a07:	8b 55 f4             	mov    -0xc(%ebp),%edx
  103a0a:	89 50 0c             	mov    %edx,0xc(%eax)
/u/a/b/abhijith/CS537/p3b/xv6-sp20/kernel/pipe.c:41
  103a0d:	8b 45 0c             	mov    0xc(%ebp),%eax
  103a10:	8b 00                	mov    (%eax),%eax
  103a12:	c7 00 01 00 00 00    	movl   $0x1,(%eax)
/u/a/b/abhijith/CS537/p3b/xv6-sp20/kernel/pipe.c:42
  103a18:	8b 45 0c             	mov    0xc(%ebp),%eax
  103a1b:	8b 00                	mov    (%eax),%eax
  103a1d:	c6 40 08 00          	movb   $0x0,0x8(%eax)
/u/a/b/abhijith/CS537/p3b/xv6-sp20/kernel/pipe.c:43
  103a21:	8b 45 0c             	mov    0xc(%ebp),%eax
  103a24:	8b 00                	mov    (%eax),%eax
  103a26:	c6 40 09 01          	movb   $0x1,0x9(%eax)
/u/a/b/abhijith/CS537/p3b/xv6-sp20/kernel/pipe.c:44
  103a2a:	8b 45 0c             	mov    0xc(%ebp),%eax
  103a2d:	8b 00                	mov    (%eax),%eax
  103a2f:	8b 55 f4             	mov    -0xc(%ebp),%edx
  103a32:	89 50 0c             	mov    %edx,0xc(%eax)
/u/a/b/abhijith/CS537/p3b/xv6-sp20/kernel/pipe.c:45
  103a35:	b8 00 00 00 00       	mov    $0x0,%eax
  103a3a:	eb 51                	jmp    103a8d <pipealloc+0x154>
/u/a/b/abhijith/CS537/p3b/xv6-sp20/kernel/pipe.c:47
  103a3c:	90                   	nop
  103a3d:	eb 01                	jmp    103a40 <pipealloc+0x107>
/u/a/b/abhijith/CS537/p3b/xv6-sp20/kernel/pipe.c:31
  103a3f:	90                   	nop
/u/a/b/abhijith/CS537/p3b/xv6-sp20/kernel/pipe.c:48
  103a40:	83 7d f4 00          	cmpl   $0x0,-0xc(%ebp)
  103a44:	74 0e                	je     103a54 <pipealloc+0x11b>
/u/a/b/abhijith/CS537/p3b/xv6-sp20/kernel/pipe.c:49
  103a46:	83 ec 0c             	sub    $0xc,%esp
  103a49:	ff 75 f4             	pushl  -0xc(%ebp)
  103a4c:	e8 dc f0 ff ff       	call   102b2d <kfree>
  103a51:	83 c4 10             	add    $0x10,%esp
/u/a/b/abhijith/CS537/p3b/xv6-sp20/kernel/pipe.c:50
  103a54:	8b 45 08             	mov    0x8(%ebp),%eax
  103a57:	8b 00                	mov    (%eax),%eax
  103a59:	85 c0                	test   %eax,%eax
  103a5b:	74 11                	je     103a6e <pipealloc+0x135>
/u/a/b/abhijith/CS537/p3b/xv6-sp20/kernel/pipe.c:51
  103a5d:	8b 45 08             	mov    0x8(%ebp),%eax
  103a60:	8b 00                	mov    (%eax),%eax
  103a62:	83 ec 0c             	sub    $0xc,%esp
  103a65:	50                   	push   %eax
  103a66:	e8 b4 d5 ff ff       	call   10101f <fileclose>
  103a6b:	83 c4 10             	add    $0x10,%esp
/u/a/b/abhijith/CS537/p3b/xv6-sp20/kernel/pipe.c:52
  103a6e:	8b 45 0c             	mov    0xc(%ebp),%eax
  103a71:	8b 00                	mov    (%eax),%eax
  103a73:	85 c0                	test   %eax,%eax
  103a75:	74 11                	je     103a88 <pipealloc+0x14f>
/u/a/b/abhijith/CS537/p3b/xv6-sp20/kernel/pipe.c:53
  103a77:	8b 45 0c             	mov    0xc(%ebp),%eax
  103a7a:	8b 00                	mov    (%eax),%eax
  103a7c:	83 ec 0c             	sub    $0xc,%esp
  103a7f:	50                   	push   %eax
  103a80:	e8 9a d5 ff ff       	call   10101f <fileclose>
  103a85:	83 c4 10             	add    $0x10,%esp
/u/a/b/abhijith/CS537/p3b/xv6-sp20/kernel/pipe.c:54
  103a88:	b8 ff ff ff ff       	mov    $0xffffffff,%eax
/u/a/b/abhijith/CS537/p3b/xv6-sp20/kernel/pipe.c:55
  103a8d:	c9                   	leave  
  103a8e:	c3                   	ret    

00103a8f <pipeclose>:
pipeclose():
/u/a/b/abhijith/CS537/p3b/xv6-sp20/kernel/pipe.c:59
  103a8f:	55                   	push   %ebp
  103a90:	89 e5                	mov    %esp,%ebp
  103a92:	83 ec 08             	sub    $0x8,%esp
/u/a/b/abhijith/CS537/p3b/xv6-sp20/kernel/pipe.c:60
  103a95:	8b 45 08             	mov    0x8(%ebp),%eax
  103a98:	83 ec 0c             	sub    $0xc,%esp
  103a9b:	50                   	push   %eax
  103a9c:	e8 24 0e 00 00       	call   1048c5 <acquire>
  103aa1:	83 c4 10             	add    $0x10,%esp
/u/a/b/abhijith/CS537/p3b/xv6-sp20/kernel/pipe.c:61
  103aa4:	83 7d 0c 00          	cmpl   $0x0,0xc(%ebp)
  103aa8:	74 23                	je     103acd <pipeclose+0x3e>
/u/a/b/abhijith/CS537/p3b/xv6-sp20/kernel/pipe.c:62
  103aaa:	8b 45 08             	mov    0x8(%ebp),%eax
  103aad:	c7 80 40 02 00 00 00 	movl   $0x0,0x240(%eax)
  103ab4:	00 00 00 
/u/a/b/abhijith/CS537/p3b/xv6-sp20/kernel/pipe.c:63
  103ab7:	8b 45 08             	mov    0x8(%ebp),%eax
  103aba:	05 34 02 00 00       	add    $0x234,%eax
  103abf:	83 ec 0c             	sub    $0xc,%esp
  103ac2:	50                   	push   %eax
  103ac3:	e8 ef 0b 00 00       	call   1046b7 <wakeup>
  103ac8:	83 c4 10             	add    $0x10,%esp
  103acb:	eb 21                	jmp    103aee <pipeclose+0x5f>
/u/a/b/abhijith/CS537/p3b/xv6-sp20/kernel/pipe.c:65
  103acd:	8b 45 08             	mov    0x8(%ebp),%eax
  103ad0:	c7 80 3c 02 00 00 00 	movl   $0x0,0x23c(%eax)
  103ad7:	00 00 00 
/u/a/b/abhijith/CS537/p3b/xv6-sp20/kernel/pipe.c:66
  103ada:	8b 45 08             	mov    0x8(%ebp),%eax
  103add:	05 38 02 00 00       	add    $0x238,%eax
  103ae2:	83 ec 0c             	sub    $0xc,%esp
  103ae5:	50                   	push   %eax
  103ae6:	e8 cc 0b 00 00       	call   1046b7 <wakeup>
  103aeb:	83 c4 10             	add    $0x10,%esp
/u/a/b/abhijith/CS537/p3b/xv6-sp20/kernel/pipe.c:68
  103aee:	8b 45 08             	mov    0x8(%ebp),%eax
  103af1:	8b 80 3c 02 00 00    	mov    0x23c(%eax),%eax
  103af7:	85 c0                	test   %eax,%eax
  103af9:	75 2c                	jne    103b27 <pipeclose+0x98>
/u/a/b/abhijith/CS537/p3b/xv6-sp20/kernel/pipe.c:68 (discriminator 1)
  103afb:	8b 45 08             	mov    0x8(%ebp),%eax
  103afe:	8b 80 40 02 00 00    	mov    0x240(%eax),%eax
  103b04:	85 c0                	test   %eax,%eax
  103b06:	75 1f                	jne    103b27 <pipeclose+0x98>
/u/a/b/abhijith/CS537/p3b/xv6-sp20/kernel/pipe.c:69
  103b08:	8b 45 08             	mov    0x8(%ebp),%eax
  103b0b:	83 ec 0c             	sub    $0xc,%esp
  103b0e:	50                   	push   %eax
  103b0f:	e8 18 0e 00 00       	call   10492c <release>
  103b14:	83 c4 10             	add    $0x10,%esp
/u/a/b/abhijith/CS537/p3b/xv6-sp20/kernel/pipe.c:70
  103b17:	83 ec 0c             	sub    $0xc,%esp
  103b1a:	ff 75 08             	pushl  0x8(%ebp)
  103b1d:	e8 0b f0 ff ff       	call   102b2d <kfree>
  103b22:	83 c4 10             	add    $0x10,%esp
  103b25:	eb 0f                	jmp    103b36 <pipeclose+0xa7>
/u/a/b/abhijith/CS537/p3b/xv6-sp20/kernel/pipe.c:72
  103b27:	8b 45 08             	mov    0x8(%ebp),%eax
  103b2a:	83 ec 0c             	sub    $0xc,%esp
  103b2d:	50                   	push   %eax
  103b2e:	e8 f9 0d 00 00       	call   10492c <release>
  103b33:	83 c4 10             	add    $0x10,%esp
/u/a/b/abhijith/CS537/p3b/xv6-sp20/kernel/pipe.c:73
  103b36:	90                   	nop
  103b37:	c9                   	leave  
  103b38:	c3                   	ret    

00103b39 <pipewrite>:
pipewrite():
/u/a/b/abhijith/CS537/p3b/xv6-sp20/kernel/pipe.c:77
  103b39:	55                   	push   %ebp
  103b3a:	89 e5                	mov    %esp,%ebp
  103b3c:	53                   	push   %ebx
  103b3d:	83 ec 14             	sub    $0x14,%esp
/u/a/b/abhijith/CS537/p3b/xv6-sp20/kernel/pipe.c:80
  103b40:	8b 45 08             	mov    0x8(%ebp),%eax
  103b43:	83 ec 0c             	sub    $0xc,%esp
  103b46:	50                   	push   %eax
  103b47:	e8 79 0d 00 00       	call   1048c5 <acquire>
  103b4c:	83 c4 10             	add    $0x10,%esp
/u/a/b/abhijith/CS537/p3b/xv6-sp20/kernel/pipe.c:81
  103b4f:	c7 45 f4 00 00 00 00 	movl   $0x0,-0xc(%ebp)
  103b56:	e9 ae 00 00 00       	jmp    103c09 <pipewrite+0xd0>
/u/a/b/abhijith/CS537/p3b/xv6-sp20/kernel/pipe.c:83
  103b5b:	8b 45 08             	mov    0x8(%ebp),%eax
  103b5e:	8b 80 3c 02 00 00    	mov    0x23c(%eax),%eax
  103b64:	85 c0                	test   %eax,%eax
  103b66:	74 0d                	je     103b75 <pipewrite+0x3c>
/u/a/b/abhijith/CS537/p3b/xv6-sp20/kernel/pipe.c:83 (discriminator 1)
  103b68:	65 a1 04 00 00 00    	mov    %gs:0x4,%eax
  103b6e:	8b 40 24             	mov    0x24(%eax),%eax
  103b71:	85 c0                	test   %eax,%eax
  103b73:	74 19                	je     103b8e <pipewrite+0x55>
/u/a/b/abhijith/CS537/p3b/xv6-sp20/kernel/pipe.c:84
  103b75:	8b 45 08             	mov    0x8(%ebp),%eax
  103b78:	83 ec 0c             	sub    $0xc,%esp
  103b7b:	50                   	push   %eax
  103b7c:	e8 ab 0d 00 00       	call   10492c <release>
  103b81:	83 c4 10             	add    $0x10,%esp
/u/a/b/abhijith/CS537/p3b/xv6-sp20/kernel/pipe.c:85
  103b84:	b8 ff ff ff ff       	mov    $0xffffffff,%eax
  103b89:	e9 a9 00 00 00       	jmp    103c37 <pipewrite+0xfe>
/u/a/b/abhijith/CS537/p3b/xv6-sp20/kernel/pipe.c:87
  103b8e:	8b 45 08             	mov    0x8(%ebp),%eax
  103b91:	05 34 02 00 00       	add    $0x234,%eax
  103b96:	83 ec 0c             	sub    $0xc,%esp
  103b99:	50                   	push   %eax
  103b9a:	e8 18 0b 00 00       	call   1046b7 <wakeup>
  103b9f:	83 c4 10             	add    $0x10,%esp
/u/a/b/abhijith/CS537/p3b/xv6-sp20/kernel/pipe.c:88
  103ba2:	8b 45 08             	mov    0x8(%ebp),%eax
  103ba5:	8b 55 08             	mov    0x8(%ebp),%edx
  103ba8:	81 c2 38 02 00 00    	add    $0x238,%edx
  103bae:	83 ec 08             	sub    $0x8,%esp
  103bb1:	50                   	push   %eax
  103bb2:	52                   	push   %edx
  103bb3:	e8 14 0a 00 00       	call   1045cc <sleep>
  103bb8:	83 c4 10             	add    $0x10,%esp
/u/a/b/abhijith/CS537/p3b/xv6-sp20/kernel/pipe.c:82
  103bbb:	8b 45 08             	mov    0x8(%ebp),%eax
  103bbe:	8b 90 38 02 00 00    	mov    0x238(%eax),%edx
  103bc4:	8b 45 08             	mov    0x8(%ebp),%eax
  103bc7:	8b 80 34 02 00 00    	mov    0x234(%eax),%eax
  103bcd:	05 00 02 00 00       	add    $0x200,%eax
  103bd2:	39 c2                	cmp    %eax,%edx
  103bd4:	74 85                	je     103b5b <pipewrite+0x22>
/u/a/b/abhijith/CS537/p3b/xv6-sp20/kernel/pipe.c:90 (discriminator 2)
  103bd6:	8b 55 f4             	mov    -0xc(%ebp),%edx
  103bd9:	8b 45 0c             	mov    0xc(%ebp),%eax
  103bdc:	8d 1c 02             	lea    (%edx,%eax,1),%ebx
  103bdf:	8b 45 08             	mov    0x8(%ebp),%eax
  103be2:	8b 80 38 02 00 00    	mov    0x238(%eax),%eax
  103be8:	8d 48 01             	lea    0x1(%eax),%ecx
  103beb:	8b 55 08             	mov    0x8(%ebp),%edx
  103bee:	89 8a 38 02 00 00    	mov    %ecx,0x238(%edx)
  103bf4:	25 ff 01 00 00       	and    $0x1ff,%eax
  103bf9:	89 c1                	mov    %eax,%ecx
  103bfb:	0f b6 13             	movzbl (%ebx),%edx
  103bfe:	8b 45 08             	mov    0x8(%ebp),%eax
  103c01:	88 54 08 34          	mov    %dl,0x34(%eax,%ecx,1)
/u/a/b/abhijith/CS537/p3b/xv6-sp20/kernel/pipe.c:81 (discriminator 2)
  103c05:	83 45 f4 01          	addl   $0x1,-0xc(%ebp)
/u/a/b/abhijith/CS537/p3b/xv6-sp20/kernel/pipe.c:81 (discriminator 1)
  103c09:	8b 45 f4             	mov    -0xc(%ebp),%eax
  103c0c:	3b 45 10             	cmp    0x10(%ebp),%eax
  103c0f:	7c aa                	jl     103bbb <pipewrite+0x82>
/u/a/b/abhijith/CS537/p3b/xv6-sp20/kernel/pipe.c:92
  103c11:	8b 45 08             	mov    0x8(%ebp),%eax
  103c14:	05 34 02 00 00       	add    $0x234,%eax
  103c19:	83 ec 0c             	sub    $0xc,%esp
  103c1c:	50                   	push   %eax
  103c1d:	e8 95 0a 00 00       	call   1046b7 <wakeup>
  103c22:	83 c4 10             	add    $0x10,%esp
/u/a/b/abhijith/CS537/p3b/xv6-sp20/kernel/pipe.c:93
  103c25:	8b 45 08             	mov    0x8(%ebp),%eax
  103c28:	83 ec 0c             	sub    $0xc,%esp
  103c2b:	50                   	push   %eax
  103c2c:	e8 fb 0c 00 00       	call   10492c <release>
  103c31:	83 c4 10             	add    $0x10,%esp
/u/a/b/abhijith/CS537/p3b/xv6-sp20/kernel/pipe.c:94
  103c34:	8b 45 10             	mov    0x10(%ebp),%eax
/u/a/b/abhijith/CS537/p3b/xv6-sp20/kernel/pipe.c:95
  103c37:	8b 5d fc             	mov    -0x4(%ebp),%ebx
  103c3a:	c9                   	leave  
  103c3b:	c3                   	ret    

00103c3c <piperead>:
piperead():
/u/a/b/abhijith/CS537/p3b/xv6-sp20/kernel/pipe.c:99
  103c3c:	55                   	push   %ebp
  103c3d:	89 e5                	mov    %esp,%ebp
  103c3f:	83 ec 18             	sub    $0x18,%esp
/u/a/b/abhijith/CS537/p3b/xv6-sp20/kernel/pipe.c:102
  103c42:	8b 45 08             	mov    0x8(%ebp),%eax
  103c45:	83 ec 0c             	sub    $0xc,%esp
  103c48:	50                   	push   %eax
  103c49:	e8 77 0c 00 00       	call   1048c5 <acquire>
  103c4e:	83 c4 10             	add    $0x10,%esp
/u/a/b/abhijith/CS537/p3b/xv6-sp20/kernel/pipe.c:103
  103c51:	eb 3f                	jmp    103c92 <piperead+0x56>
/u/a/b/abhijith/CS537/p3b/xv6-sp20/kernel/pipe.c:104
  103c53:	65 a1 04 00 00 00    	mov    %gs:0x4,%eax
  103c59:	8b 40 24             	mov    0x24(%eax),%eax
  103c5c:	85 c0                	test   %eax,%eax
  103c5e:	74 19                	je     103c79 <piperead+0x3d>
/u/a/b/abhijith/CS537/p3b/xv6-sp20/kernel/pipe.c:105
  103c60:	8b 45 08             	mov    0x8(%ebp),%eax
  103c63:	83 ec 0c             	sub    $0xc,%esp
  103c66:	50                   	push   %eax
  103c67:	e8 c0 0c 00 00       	call   10492c <release>
  103c6c:	83 c4 10             	add    $0x10,%esp
/u/a/b/abhijith/CS537/p3b/xv6-sp20/kernel/pipe.c:106
  103c6f:	b8 ff ff ff ff       	mov    $0xffffffff,%eax
  103c74:	e9 be 00 00 00       	jmp    103d37 <piperead+0xfb>
/u/a/b/abhijith/CS537/p3b/xv6-sp20/kernel/pipe.c:108
  103c79:	8b 45 08             	mov    0x8(%ebp),%eax
  103c7c:	8b 55 08             	mov    0x8(%ebp),%edx
  103c7f:	81 c2 34 02 00 00    	add    $0x234,%edx
  103c85:	83 ec 08             	sub    $0x8,%esp
  103c88:	50                   	push   %eax
  103c89:	52                   	push   %edx
  103c8a:	e8 3d 09 00 00       	call   1045cc <sleep>
  103c8f:	83 c4 10             	add    $0x10,%esp
/u/a/b/abhijith/CS537/p3b/xv6-sp20/kernel/pipe.c:103
  103c92:	8b 45 08             	mov    0x8(%ebp),%eax
  103c95:	8b 90 34 02 00 00    	mov    0x234(%eax),%edx
  103c9b:	8b 45 08             	mov    0x8(%ebp),%eax
  103c9e:	8b 80 38 02 00 00    	mov    0x238(%eax),%eax
  103ca4:	39 c2                	cmp    %eax,%edx
  103ca6:	75 0d                	jne    103cb5 <piperead+0x79>
/u/a/b/abhijith/CS537/p3b/xv6-sp20/kernel/pipe.c:103 (discriminator 1)
  103ca8:	8b 45 08             	mov    0x8(%ebp),%eax
  103cab:	8b 80 40 02 00 00    	mov    0x240(%eax),%eax
  103cb1:	85 c0                	test   %eax,%eax
  103cb3:	75 9e                	jne    103c53 <piperead+0x17>
/u/a/b/abhijith/CS537/p3b/xv6-sp20/kernel/pipe.c:110
  103cb5:	c7 45 f4 00 00 00 00 	movl   $0x0,-0xc(%ebp)
  103cbc:	eb 48                	jmp    103d06 <piperead+0xca>
/u/a/b/abhijith/CS537/p3b/xv6-sp20/kernel/pipe.c:111
  103cbe:	8b 45 08             	mov    0x8(%ebp),%eax
  103cc1:	8b 90 34 02 00 00    	mov    0x234(%eax),%edx
  103cc7:	8b 45 08             	mov    0x8(%ebp),%eax
  103cca:	8b 80 38 02 00 00    	mov    0x238(%eax),%eax
  103cd0:	39 c2                	cmp    %eax,%edx
  103cd2:	74 3c                	je     103d10 <piperead+0xd4>
/u/a/b/abhijith/CS537/p3b/xv6-sp20/kernel/pipe.c:113 (discriminator 2)
  103cd4:	8b 45 08             	mov    0x8(%ebp),%eax
  103cd7:	8b 80 34 02 00 00    	mov    0x234(%eax),%eax
  103cdd:	8d 48 01             	lea    0x1(%eax),%ecx
  103ce0:	8b 55 08             	mov    0x8(%ebp),%edx
  103ce3:	89 8a 34 02 00 00    	mov    %ecx,0x234(%edx)
  103ce9:	25 ff 01 00 00       	and    $0x1ff,%eax
  103cee:	89 c1                	mov    %eax,%ecx
  103cf0:	8b 55 f4             	mov    -0xc(%ebp),%edx
  103cf3:	8b 45 0c             	mov    0xc(%ebp),%eax
  103cf6:	01 c2                	add    %eax,%edx
  103cf8:	8b 45 08             	mov    0x8(%ebp),%eax
  103cfb:	0f b6 44 08 34       	movzbl 0x34(%eax,%ecx,1),%eax
  103d00:	88 02                	mov    %al,(%edx)
/u/a/b/abhijith/CS537/p3b/xv6-sp20/kernel/pipe.c:110 (discriminator 2)
  103d02:	83 45 f4 01          	addl   $0x1,-0xc(%ebp)
/u/a/b/abhijith/CS537/p3b/xv6-sp20/kernel/pipe.c:110 (discriminator 1)
  103d06:	8b 45 f4             	mov    -0xc(%ebp),%eax
  103d09:	3b 45 10             	cmp    0x10(%ebp),%eax
  103d0c:	7c b0                	jl     103cbe <piperead+0x82>
  103d0e:	eb 01                	jmp    103d11 <piperead+0xd5>
/u/a/b/abhijith/CS537/p3b/xv6-sp20/kernel/pipe.c:112
  103d10:	90                   	nop
/u/a/b/abhijith/CS537/p3b/xv6-sp20/kernel/pipe.c:115
  103d11:	8b 45 08             	mov    0x8(%ebp),%eax
  103d14:	05 38 02 00 00       	add    $0x238,%eax
  103d19:	83 ec 0c             	sub    $0xc,%esp
  103d1c:	50                   	push   %eax
  103d1d:	e8 95 09 00 00       	call   1046b7 <wakeup>
  103d22:	83 c4 10             	add    $0x10,%esp
/u/a/b/abhijith/CS537/p3b/xv6-sp20/kernel/pipe.c:116
  103d25:	8b 45 08             	mov    0x8(%ebp),%eax
  103d28:	83 ec 0c             	sub    $0xc,%esp
  103d2b:	50                   	push   %eax
  103d2c:	e8 fb 0b 00 00       	call   10492c <release>
  103d31:	83 c4 10             	add    $0x10,%esp
/u/a/b/abhijith/CS537/p3b/xv6-sp20/kernel/pipe.c:117
  103d34:	8b 45 f4             	mov    -0xc(%ebp),%eax
/u/a/b/abhijith/CS537/p3b/xv6-sp20/kernel/pipe.c:118
  103d37:	c9                   	leave  
  103d38:	c3                   	ret    

00103d39 <readeflags>:
readeflags():
/u/a/b/abhijith/CS537/p3b/xv6-sp20/include/x86.h:89
  103d39:	55                   	push   %ebp
  103d3a:	89 e5                	mov    %esp,%ebp
  103d3c:	83 ec 10             	sub    $0x10,%esp
/u/a/b/abhijith/CS537/p3b/xv6-sp20/include/x86.h:91
  103d3f:	9c                   	pushf  
  103d40:	58                   	pop    %eax
  103d41:	89 45 fc             	mov    %eax,-0x4(%ebp)
/u/a/b/abhijith/CS537/p3b/xv6-sp20/include/x86.h:92
  103d44:	8b 45 fc             	mov    -0x4(%ebp),%eax
/u/a/b/abhijith/CS537/p3b/xv6-sp20/include/x86.h:93
  103d47:	c9                   	leave  
  103d48:	c3                   	ret    

00103d49 <sti>:
sti():
/u/a/b/abhijith/CS537/p3b/xv6-sp20/include/x86.h:125
  103d49:	55                   	push   %ebp
  103d4a:	89 e5                	mov    %esp,%ebp
/u/a/b/abhijith/CS537/p3b/xv6-sp20/include/x86.h:126
  103d4c:	fb                   	sti    
/u/a/b/abhijith/CS537/p3b/xv6-sp20/include/x86.h:127
  103d4d:	90                   	nop
  103d4e:	5d                   	pop    %ebp
  103d4f:	c3                   	ret    

00103d50 <pinit>:
pinit():
/u/a/b/abhijith/CS537/p3b/xv6-sp20/kernel/proc.c:24
  103d50:	55                   	push   %ebp
  103d51:	89 e5                	mov    %esp,%ebp
  103d53:	83 ec 08             	sub    $0x8,%esp
/u/a/b/abhijith/CS537/p3b/xv6-sp20/kernel/proc.c:25
  103d56:	83 ec 08             	sub    $0x8,%esp
  103d59:	68 99 81 10 00       	push   $0x108199
  103d5e:	68 80 0d 11 00       	push   $0x110d80
  103d63:	e8 3b 0b 00 00       	call   1048a3 <initlock>
  103d68:	83 c4 10             	add    $0x10,%esp
/u/a/b/abhijith/CS537/p3b/xv6-sp20/kernel/proc.c:26
  103d6b:	90                   	nop
  103d6c:	c9                   	leave  
  103d6d:	c3                   	ret    

00103d6e <allocproc>:
allocproc():
/u/a/b/abhijith/CS537/p3b/xv6-sp20/kernel/proc.c:34
  103d6e:	55                   	push   %ebp
  103d6f:	89 e5                	mov    %esp,%ebp
  103d71:	83 ec 18             	sub    $0x18,%esp
/u/a/b/abhijith/CS537/p3b/xv6-sp20/kernel/proc.c:38
  103d74:	83 ec 0c             	sub    $0xc,%esp
  103d77:	68 80 0d 11 00       	push   $0x110d80
  103d7c:	e8 44 0b 00 00       	call   1048c5 <acquire>
  103d81:	83 c4 10             	add    $0x10,%esp
/u/a/b/abhijith/CS537/p3b/xv6-sp20/kernel/proc.c:39
  103d84:	c7 45 f4 b4 0d 11 00 	movl   $0x110db4,-0xc(%ebp)
  103d8b:	eb 0e                	jmp    103d9b <allocproc+0x2d>
/u/a/b/abhijith/CS537/p3b/xv6-sp20/kernel/proc.c:40
  103d8d:	8b 45 f4             	mov    -0xc(%ebp),%eax
  103d90:	8b 40 0c             	mov    0xc(%eax),%eax
  103d93:	85 c0                	test   %eax,%eax
  103d95:	74 27                	je     103dbe <allocproc+0x50>
/u/a/b/abhijith/CS537/p3b/xv6-sp20/kernel/proc.c:39 (discriminator 2)
  103d97:	83 45 f4 7c          	addl   $0x7c,-0xc(%ebp)
/u/a/b/abhijith/CS537/p3b/xv6-sp20/kernel/proc.c:39 (discriminator 1)
  103d9b:	81 7d f4 b4 2c 11 00 	cmpl   $0x112cb4,-0xc(%ebp)
  103da2:	72 e9                	jb     103d8d <allocproc+0x1f>
/u/a/b/abhijith/CS537/p3b/xv6-sp20/kernel/proc.c:42
  103da4:	83 ec 0c             	sub    $0xc,%esp
  103da7:	68 80 0d 11 00       	push   $0x110d80
  103dac:	e8 7b 0b 00 00       	call   10492c <release>
  103db1:	83 c4 10             	add    $0x10,%esp
/u/a/b/abhijith/CS537/p3b/xv6-sp20/kernel/proc.c:43
  103db4:	b8 00 00 00 00       	mov    $0x0,%eax
  103db9:	e9 b4 00 00 00       	jmp    103e72 <allocproc+0x104>
/u/a/b/abhijith/CS537/p3b/xv6-sp20/kernel/proc.c:41
  103dbe:	90                   	nop
/u/a/b/abhijith/CS537/p3b/xv6-sp20/kernel/proc.c:46
  103dbf:	8b 45 f4             	mov    -0xc(%ebp),%eax
  103dc2:	c7 40 0c 01 00 00 00 	movl   $0x1,0xc(%eax)
/u/a/b/abhijith/CS537/p3b/xv6-sp20/kernel/proc.c:47
  103dc9:	a1 34 b5 10 00       	mov    0x10b534,%eax
  103dce:	8d 50 01             	lea    0x1(%eax),%edx
  103dd1:	89 15 34 b5 10 00    	mov    %edx,0x10b534
  103dd7:	8b 55 f4             	mov    -0xc(%ebp),%edx
  103dda:	89 42 10             	mov    %eax,0x10(%edx)
/u/a/b/abhijith/CS537/p3b/xv6-sp20/kernel/proc.c:48
  103ddd:	83 ec 0c             	sub    $0xc,%esp
  103de0:	68 80 0d 11 00       	push   $0x110d80
  103de5:	e8 42 0b 00 00       	call   10492c <release>
  103dea:	83 c4 10             	add    $0x10,%esp
/u/a/b/abhijith/CS537/p3b/xv6-sp20/kernel/proc.c:51
  103ded:	e8 d9 ed ff ff       	call   102bcb <kalloc>
  103df2:	89 c2                	mov    %eax,%edx
  103df4:	8b 45 f4             	mov    -0xc(%ebp),%eax
  103df7:	89 50 08             	mov    %edx,0x8(%eax)
  103dfa:	8b 45 f4             	mov    -0xc(%ebp),%eax
  103dfd:	8b 40 08             	mov    0x8(%eax),%eax
  103e00:	85 c0                	test   %eax,%eax
  103e02:	75 11                	jne    103e15 <allocproc+0xa7>
/u/a/b/abhijith/CS537/p3b/xv6-sp20/kernel/proc.c:52
  103e04:	8b 45 f4             	mov    -0xc(%ebp),%eax
  103e07:	c7 40 0c 00 00 00 00 	movl   $0x0,0xc(%eax)
/u/a/b/abhijith/CS537/p3b/xv6-sp20/kernel/proc.c:53
  103e0e:	b8 00 00 00 00       	mov    $0x0,%eax
  103e13:	eb 5d                	jmp    103e72 <allocproc+0x104>
/u/a/b/abhijith/CS537/p3b/xv6-sp20/kernel/proc.c:55
  103e15:	8b 45 f4             	mov    -0xc(%ebp),%eax
  103e18:	8b 40 08             	mov    0x8(%eax),%eax
  103e1b:	05 00 10 00 00       	add    $0x1000,%eax
  103e20:	89 45 f0             	mov    %eax,-0x10(%ebp)
/u/a/b/abhijith/CS537/p3b/xv6-sp20/kernel/proc.c:58
  103e23:	83 6d f0 4c          	subl   $0x4c,-0x10(%ebp)
/u/a/b/abhijith/CS537/p3b/xv6-sp20/kernel/proc.c:59
  103e27:	8b 45 f4             	mov    -0xc(%ebp),%eax
  103e2a:	8b 55 f0             	mov    -0x10(%ebp),%edx
  103e2d:	89 50 18             	mov    %edx,0x18(%eax)
/u/a/b/abhijith/CS537/p3b/xv6-sp20/kernel/proc.c:63
  103e30:	83 6d f0 04          	subl   $0x4,-0x10(%ebp)
/u/a/b/abhijith/CS537/p3b/xv6-sp20/kernel/proc.c:64
  103e34:	ba 75 5f 10 00       	mov    $0x105f75,%edx
  103e39:	8b 45 f0             	mov    -0x10(%ebp),%eax
  103e3c:	89 10                	mov    %edx,(%eax)
/u/a/b/abhijith/CS537/p3b/xv6-sp20/kernel/proc.c:66
  103e3e:	83 6d f0 14          	subl   $0x14,-0x10(%ebp)
/u/a/b/abhijith/CS537/p3b/xv6-sp20/kernel/proc.c:67
  103e42:	8b 45 f4             	mov    -0xc(%ebp),%eax
  103e45:	8b 55 f0             	mov    -0x10(%ebp),%edx
  103e48:	89 50 1c             	mov    %edx,0x1c(%eax)
/u/a/b/abhijith/CS537/p3b/xv6-sp20/kernel/proc.c:68
  103e4b:	8b 45 f4             	mov    -0xc(%ebp),%eax
  103e4e:	8b 40 1c             	mov    0x1c(%eax),%eax
  103e51:	83 ec 04             	sub    $0x4,%esp
  103e54:	6a 14                	push   $0x14
  103e56:	6a 00                	push   $0x0
  103e58:	50                   	push   %eax
  103e59:	e8 a4 0c 00 00       	call   104b02 <memset>
  103e5e:	83 c4 10             	add    $0x10,%esp
/u/a/b/abhijith/CS537/p3b/xv6-sp20/kernel/proc.c:69
  103e61:	8b 45 f4             	mov    -0xc(%ebp),%eax
  103e64:	8b 40 1c             	mov    0x1c(%eax),%eax
  103e67:	ba b3 45 10 00       	mov    $0x1045b3,%edx
  103e6c:	89 50 10             	mov    %edx,0x10(%eax)
/u/a/b/abhijith/CS537/p3b/xv6-sp20/kernel/proc.c:71
  103e6f:	8b 45 f4             	mov    -0xc(%ebp),%eax
/u/a/b/abhijith/CS537/p3b/xv6-sp20/kernel/proc.c:72
  103e72:	c9                   	leave  
  103e73:	c3                   	ret    

00103e74 <userinit>:
userinit():
/u/a/b/abhijith/CS537/p3b/xv6-sp20/kernel/proc.c:77
  103e74:	55                   	push   %ebp
  103e75:	89 e5                	mov    %esp,%ebp
  103e77:	83 ec 18             	sub    $0x18,%esp
/u/a/b/abhijith/CS537/p3b/xv6-sp20/kernel/proc.c:81
  103e7a:	e8 ef fe ff ff       	call   103d6e <allocproc>
  103e7f:	89 45 f4             	mov    %eax,-0xc(%ebp)
/u/a/b/abhijith/CS537/p3b/xv6-sp20/kernel/proc.c:82
  103e82:	83 ec 0c             	sub    $0xc,%esp
  103e85:	68 80 0d 11 00       	push   $0x110d80
  103e8a:	e8 36 0a 00 00       	call   1048c5 <acquire>
  103e8f:	83 c4 10             	add    $0x10,%esp
/u/a/b/abhijith/CS537/p3b/xv6-sp20/kernel/proc.c:83
  103e92:	8b 45 f4             	mov    -0xc(%ebp),%eax
  103e95:	a3 14 c5 10 00       	mov    %eax,0x10c514
/u/a/b/abhijith/CS537/p3b/xv6-sp20/kernel/proc.c:84
  103e9a:	e8 9d 37 00 00       	call   10763c <setupkvm>
  103e9f:	89 c2                	mov    %eax,%edx
  103ea1:	8b 45 f4             	mov    -0xc(%ebp),%eax
  103ea4:	89 50 04             	mov    %edx,0x4(%eax)
  103ea7:	8b 45 f4             	mov    -0xc(%ebp),%eax
  103eaa:	8b 40 04             	mov    0x4(%eax),%eax
  103ead:	85 c0                	test   %eax,%eax
  103eaf:	75 0d                	jne    103ebe <userinit+0x4a>
/u/a/b/abhijith/CS537/p3b/xv6-sp20/kernel/proc.c:85
  103eb1:	83 ec 0c             	sub    $0xc,%esp
  103eb4:	68 a0 81 10 00       	push   $0x1081a0
  103eb9:	e8 ba c6 ff ff       	call   100578 <panic>
/u/a/b/abhijith/CS537/p3b/xv6-sp20/kernel/proc.c:86
  103ebe:	ba 2c 00 00 00       	mov    $0x2c,%edx
  103ec3:	8b 45 f4             	mov    -0xc(%ebp),%eax
  103ec6:	8b 40 04             	mov    0x4(%eax),%eax
  103ec9:	83 ec 04             	sub    $0x4,%esp
  103ecc:	52                   	push   %edx
  103ecd:	68 b0 bb 10 00       	push   $0x10bbb0
  103ed2:	50                   	push   %eax
  103ed3:	e8 a3 39 00 00       	call   10787b <inituvm>
  103ed8:	83 c4 10             	add    $0x10,%esp
/u/a/b/abhijith/CS537/p3b/xv6-sp20/kernel/proc.c:87
  103edb:	8b 45 f4             	mov    -0xc(%ebp),%eax
  103ede:	c7 00 00 10 00 00    	movl   $0x1000,(%eax)
/u/a/b/abhijith/CS537/p3b/xv6-sp20/kernel/proc.c:88
  103ee4:	8b 45 f4             	mov    -0xc(%ebp),%eax
  103ee7:	8b 40 18             	mov    0x18(%eax),%eax
  103eea:	83 ec 04             	sub    $0x4,%esp
  103eed:	6a 4c                	push   $0x4c
  103eef:	6a 00                	push   $0x0
  103ef1:	50                   	push   %eax
  103ef2:	e8 0b 0c 00 00       	call   104b02 <memset>
  103ef7:	83 c4 10             	add    $0x10,%esp
/u/a/b/abhijith/CS537/p3b/xv6-sp20/kernel/proc.c:89
  103efa:	8b 45 f4             	mov    -0xc(%ebp),%eax
  103efd:	8b 40 18             	mov    0x18(%eax),%eax
  103f00:	66 c7 40 3c 23 00    	movw   $0x23,0x3c(%eax)
/u/a/b/abhijith/CS537/p3b/xv6-sp20/kernel/proc.c:90
  103f06:	8b 45 f4             	mov    -0xc(%ebp),%eax
  103f09:	8b 40 18             	mov    0x18(%eax),%eax
  103f0c:	66 c7 40 2c 2b 00    	movw   $0x2b,0x2c(%eax)
/u/a/b/abhijith/CS537/p3b/xv6-sp20/kernel/proc.c:91
  103f12:	8b 45 f4             	mov    -0xc(%ebp),%eax
  103f15:	8b 50 18             	mov    0x18(%eax),%edx
  103f18:	8b 45 f4             	mov    -0xc(%ebp),%eax
  103f1b:	8b 40 18             	mov    0x18(%eax),%eax
  103f1e:	0f b7 52 2c          	movzwl 0x2c(%edx),%edx
  103f22:	66 89 50 28          	mov    %dx,0x28(%eax)
/u/a/b/abhijith/CS537/p3b/xv6-sp20/kernel/proc.c:92
  103f26:	8b 45 f4             	mov    -0xc(%ebp),%eax
  103f29:	8b 50 18             	mov    0x18(%eax),%edx
  103f2c:	8b 45 f4             	mov    -0xc(%ebp),%eax
  103f2f:	8b 40 18             	mov    0x18(%eax),%eax
  103f32:	0f b7 52 2c          	movzwl 0x2c(%edx),%edx
  103f36:	66 89 50 48          	mov    %dx,0x48(%eax)
/u/a/b/abhijith/CS537/p3b/xv6-sp20/kernel/proc.c:93
  103f3a:	8b 45 f4             	mov    -0xc(%ebp),%eax
  103f3d:	8b 40 18             	mov    0x18(%eax),%eax
  103f40:	c7 40 40 00 02 00 00 	movl   $0x200,0x40(%eax)
/u/a/b/abhijith/CS537/p3b/xv6-sp20/kernel/proc.c:94
  103f47:	8b 45 f4             	mov    -0xc(%ebp),%eax
  103f4a:	8b 40 18             	mov    0x18(%eax),%eax
  103f4d:	c7 40 44 00 10 00 00 	movl   $0x1000,0x44(%eax)
/u/a/b/abhijith/CS537/p3b/xv6-sp20/kernel/proc.c:95
  103f54:	8b 45 f4             	mov    -0xc(%ebp),%eax
  103f57:	8b 40 18             	mov    0x18(%eax),%eax
  103f5a:	c7 40 38 00 00 00 00 	movl   $0x0,0x38(%eax)
/u/a/b/abhijith/CS537/p3b/xv6-sp20/kernel/proc.c:97
  103f61:	8b 45 f4             	mov    -0xc(%ebp),%eax
  103f64:	83 c0 6c             	add    $0x6c,%eax
  103f67:	83 ec 04             	sub    $0x4,%esp
  103f6a:	6a 10                	push   $0x10
  103f6c:	68 b9 81 10 00       	push   $0x1081b9
  103f71:	50                   	push   %eax
  103f72:	e8 41 0d 00 00       	call   104cb8 <safestrcpy>
  103f77:	83 c4 10             	add    $0x10,%esp
/u/a/b/abhijith/CS537/p3b/xv6-sp20/kernel/proc.c:98
  103f7a:	83 ec 0c             	sub    $0xc,%esp
  103f7d:	68 c2 81 10 00       	push   $0x1081c2
  103f82:	e8 de e4 ff ff       	call   102465 <namei>
  103f87:	83 c4 10             	add    $0x10,%esp
  103f8a:	89 c2                	mov    %eax,%edx
  103f8c:	8b 45 f4             	mov    -0xc(%ebp),%eax
  103f8f:	89 50 68             	mov    %edx,0x68(%eax)
/u/a/b/abhijith/CS537/p3b/xv6-sp20/kernel/proc.c:100
  103f92:	8b 45 f4             	mov    -0xc(%ebp),%eax
  103f95:	c7 40 0c 03 00 00 00 	movl   $0x3,0xc(%eax)
/u/a/b/abhijith/CS537/p3b/xv6-sp20/kernel/proc.c:101
  103f9c:	83 ec 0c             	sub    $0xc,%esp
  103f9f:	68 80 0d 11 00       	push   $0x110d80
  103fa4:	e8 83 09 00 00       	call   10492c <release>
  103fa9:	83 c4 10             	add    $0x10,%esp
/u/a/b/abhijith/CS537/p3b/xv6-sp20/kernel/proc.c:102
  103fac:	90                   	nop
  103fad:	c9                   	leave  
  103fae:	c3                   	ret    

00103faf <growproc>:
growproc():
/u/a/b/abhijith/CS537/p3b/xv6-sp20/kernel/proc.c:108
  103faf:	55                   	push   %ebp
  103fb0:	89 e5                	mov    %esp,%ebp
  103fb2:	83 ec 18             	sub    $0x18,%esp
/u/a/b/abhijith/CS537/p3b/xv6-sp20/kernel/proc.c:111
  103fb5:	65 a1 04 00 00 00    	mov    %gs:0x4,%eax
  103fbb:	8b 00                	mov    (%eax),%eax
  103fbd:	89 45 f4             	mov    %eax,-0xc(%ebp)
/u/a/b/abhijith/CS537/p3b/xv6-sp20/kernel/proc.c:112
  103fc0:	83 7d 08 00          	cmpl   $0x0,0x8(%ebp)
  103fc4:	7e 31                	jle    103ff7 <growproc+0x48>
/u/a/b/abhijith/CS537/p3b/xv6-sp20/kernel/proc.c:113
  103fc6:	8b 55 08             	mov    0x8(%ebp),%edx
  103fc9:	8b 45 f4             	mov    -0xc(%ebp),%eax
  103fcc:	01 c2                	add    %eax,%edx
  103fce:	65 a1 04 00 00 00    	mov    %gs:0x4,%eax
  103fd4:	8b 40 04             	mov    0x4(%eax),%eax
  103fd7:	83 ec 04             	sub    $0x4,%esp
  103fda:	52                   	push   %edx
  103fdb:	ff 75 f4             	pushl  -0xc(%ebp)
  103fde:	50                   	push   %eax
  103fdf:	e8 c9 39 00 00       	call   1079ad <allocuvm>
  103fe4:	83 c4 10             	add    $0x10,%esp
  103fe7:	89 45 f4             	mov    %eax,-0xc(%ebp)
  103fea:	83 7d f4 00          	cmpl   $0x0,-0xc(%ebp)
  103fee:	75 3e                	jne    10402e <growproc+0x7f>
/u/a/b/abhijith/CS537/p3b/xv6-sp20/kernel/proc.c:114
  103ff0:	b8 ff ff ff ff       	mov    $0xffffffff,%eax
  103ff5:	eb 59                	jmp    104050 <growproc+0xa1>
/u/a/b/abhijith/CS537/p3b/xv6-sp20/kernel/proc.c:115
  103ff7:	83 7d 08 00          	cmpl   $0x0,0x8(%ebp)
  103ffb:	79 31                	jns    10402e <growproc+0x7f>
/u/a/b/abhijith/CS537/p3b/xv6-sp20/kernel/proc.c:116
  103ffd:	8b 55 08             	mov    0x8(%ebp),%edx
  104000:	8b 45 f4             	mov    -0xc(%ebp),%eax
  104003:	01 c2                	add    %eax,%edx
  104005:	65 a1 04 00 00 00    	mov    %gs:0x4,%eax
  10400b:	8b 40 04             	mov    0x4(%eax),%eax
  10400e:	83 ec 04             	sub    $0x4,%esp
  104011:	52                   	push   %edx
  104012:	ff 75 f4             	pushl  -0xc(%ebp)
  104015:	50                   	push   %eax
  104016:	e8 4c 3a 00 00       	call   107a67 <deallocuvm>
  10401b:	83 c4 10             	add    $0x10,%esp
  10401e:	89 45 f4             	mov    %eax,-0xc(%ebp)
  104021:	83 7d f4 00          	cmpl   $0x0,-0xc(%ebp)
  104025:	75 07                	jne    10402e <growproc+0x7f>
/u/a/b/abhijith/CS537/p3b/xv6-sp20/kernel/proc.c:117
  104027:	b8 ff ff ff ff       	mov    $0xffffffff,%eax
  10402c:	eb 22                	jmp    104050 <growproc+0xa1>
/u/a/b/abhijith/CS537/p3b/xv6-sp20/kernel/proc.c:119
  10402e:	65 a1 04 00 00 00    	mov    %gs:0x4,%eax
  104034:	8b 55 f4             	mov    -0xc(%ebp),%edx
  104037:	89 10                	mov    %edx,(%eax)
/u/a/b/abhijith/CS537/p3b/xv6-sp20/kernel/proc.c:120
  104039:	65 a1 04 00 00 00    	mov    %gs:0x4,%eax
  10403f:	83 ec 0c             	sub    $0xc,%esp
  104042:	50                   	push   %eax
  104043:	e8 cb 36 00 00       	call   107713 <switchuvm>
  104048:	83 c4 10             	add    $0x10,%esp
/u/a/b/abhijith/CS537/p3b/xv6-sp20/kernel/proc.c:121
  10404b:	b8 00 00 00 00       	mov    $0x0,%eax
/u/a/b/abhijith/CS537/p3b/xv6-sp20/kernel/proc.c:122
  104050:	c9                   	leave  
  104051:	c3                   	ret    

00104052 <fork>:
fork():
/u/a/b/abhijith/CS537/p3b/xv6-sp20/kernel/proc.c:129
  104052:	55                   	push   %ebp
  104053:	89 e5                	mov    %esp,%ebp
  104055:	57                   	push   %edi
  104056:	56                   	push   %esi
  104057:	53                   	push   %ebx
  104058:	83 ec 1c             	sub    $0x1c,%esp
/u/a/b/abhijith/CS537/p3b/xv6-sp20/kernel/proc.c:134
  10405b:	e8 0e fd ff ff       	call   103d6e <allocproc>
  104060:	89 45 e0             	mov    %eax,-0x20(%ebp)
  104063:	83 7d e0 00          	cmpl   $0x0,-0x20(%ebp)
  104067:	75 0a                	jne    104073 <fork+0x21>
/u/a/b/abhijith/CS537/p3b/xv6-sp20/kernel/proc.c:135
  104069:	b8 ff ff ff ff       	mov    $0xffffffff,%eax
  10406e:	e9 4a 01 00 00       	jmp    1041bd <fork+0x16b>
/u/a/b/abhijith/CS537/p3b/xv6-sp20/kernel/proc.c:138
  104073:	65 a1 04 00 00 00    	mov    %gs:0x4,%eax
  104079:	8b 10                	mov    (%eax),%edx
  10407b:	65 a1 04 00 00 00    	mov    %gs:0x4,%eax
  104081:	8b 40 04             	mov    0x4(%eax),%eax
  104084:	83 ec 08             	sub    $0x8,%esp
  104087:	52                   	push   %edx
  104088:	50                   	push   %eax
  104089:	e8 05 3b 00 00       	call   107b93 <copyuvm>
  10408e:	83 c4 10             	add    $0x10,%esp
  104091:	89 c2                	mov    %eax,%edx
  104093:	8b 45 e0             	mov    -0x20(%ebp),%eax
  104096:	89 50 04             	mov    %edx,0x4(%eax)
  104099:	8b 45 e0             	mov    -0x20(%ebp),%eax
  10409c:	8b 40 04             	mov    0x4(%eax),%eax
  10409f:	85 c0                	test   %eax,%eax
  1040a1:	75 30                	jne    1040d3 <fork+0x81>
/u/a/b/abhijith/CS537/p3b/xv6-sp20/kernel/proc.c:139
  1040a3:	8b 45 e0             	mov    -0x20(%ebp),%eax
  1040a6:	8b 40 08             	mov    0x8(%eax),%eax
  1040a9:	83 ec 0c             	sub    $0xc,%esp
  1040ac:	50                   	push   %eax
  1040ad:	e8 7b ea ff ff       	call   102b2d <kfree>
  1040b2:	83 c4 10             	add    $0x10,%esp
/u/a/b/abhijith/CS537/p3b/xv6-sp20/kernel/proc.c:140
  1040b5:	8b 45 e0             	mov    -0x20(%ebp),%eax
  1040b8:	c7 40 08 00 00 00 00 	movl   $0x0,0x8(%eax)
/u/a/b/abhijith/CS537/p3b/xv6-sp20/kernel/proc.c:141
  1040bf:	8b 45 e0             	mov    -0x20(%ebp),%eax
  1040c2:	c7 40 0c 00 00 00 00 	movl   $0x0,0xc(%eax)
/u/a/b/abhijith/CS537/p3b/xv6-sp20/kernel/proc.c:142
  1040c9:	b8 ff ff ff ff       	mov    $0xffffffff,%eax
  1040ce:	e9 ea 00 00 00       	jmp    1041bd <fork+0x16b>
/u/a/b/abhijith/CS537/p3b/xv6-sp20/kernel/proc.c:144
  1040d3:	65 a1 04 00 00 00    	mov    %gs:0x4,%eax
  1040d9:	8b 10                	mov    (%eax),%edx
  1040db:	8b 45 e0             	mov    -0x20(%ebp),%eax
  1040de:	89 10                	mov    %edx,(%eax)
/u/a/b/abhijith/CS537/p3b/xv6-sp20/kernel/proc.c:145
  1040e0:	65 8b 15 04 00 00 00 	mov    %gs:0x4,%edx
  1040e7:	8b 45 e0             	mov    -0x20(%ebp),%eax
  1040ea:	89 50 14             	mov    %edx,0x14(%eax)
/u/a/b/abhijith/CS537/p3b/xv6-sp20/kernel/proc.c:146
  1040ed:	65 a1 04 00 00 00    	mov    %gs:0x4,%eax
  1040f3:	8b 48 18             	mov    0x18(%eax),%ecx
  1040f6:	8b 45 e0             	mov    -0x20(%ebp),%eax
  1040f9:	8b 40 18             	mov    0x18(%eax),%eax
  1040fc:	89 c2                	mov    %eax,%edx
  1040fe:	89 cb                	mov    %ecx,%ebx
  104100:	b8 13 00 00 00       	mov    $0x13,%eax
  104105:	89 d7                	mov    %edx,%edi
  104107:	89 de                	mov    %ebx,%esi
  104109:	89 c1                	mov    %eax,%ecx
  10410b:	f3 a5                	rep movsl %ds:(%esi),%es:(%edi)
/u/a/b/abhijith/CS537/p3b/xv6-sp20/kernel/proc.c:149
  10410d:	8b 45 e0             	mov    -0x20(%ebp),%eax
  104110:	8b 40 18             	mov    0x18(%eax),%eax
  104113:	c7 40 1c 00 00 00 00 	movl   $0x0,0x1c(%eax)
/u/a/b/abhijith/CS537/p3b/xv6-sp20/kernel/proc.c:151
  10411a:	c7 45 e4 00 00 00 00 	movl   $0x0,-0x1c(%ebp)
  104121:	eb 43                	jmp    104166 <fork+0x114>
/u/a/b/abhijith/CS537/p3b/xv6-sp20/kernel/proc.c:152
  104123:	65 a1 04 00 00 00    	mov    %gs:0x4,%eax
  104129:	8b 55 e4             	mov    -0x1c(%ebp),%edx
  10412c:	83 c2 08             	add    $0x8,%edx
  10412f:	8b 44 90 08          	mov    0x8(%eax,%edx,4),%eax
  104133:	85 c0                	test   %eax,%eax
  104135:	74 2b                	je     104162 <fork+0x110>
/u/a/b/abhijith/CS537/p3b/xv6-sp20/kernel/proc.c:153
  104137:	65 a1 04 00 00 00    	mov    %gs:0x4,%eax
  10413d:	8b 55 e4             	mov    -0x1c(%ebp),%edx
  104140:	83 c2 08             	add    $0x8,%edx
  104143:	8b 44 90 08          	mov    0x8(%eax,%edx,4),%eax
  104147:	83 ec 0c             	sub    $0xc,%esp
  10414a:	50                   	push   %eax
  10414b:	e8 7e ce ff ff       	call   100fce <filedup>
  104150:	83 c4 10             	add    $0x10,%esp
  104153:	89 c1                	mov    %eax,%ecx
  104155:	8b 45 e0             	mov    -0x20(%ebp),%eax
  104158:	8b 55 e4             	mov    -0x1c(%ebp),%edx
  10415b:	83 c2 08             	add    $0x8,%edx
  10415e:	89 4c 90 08          	mov    %ecx,0x8(%eax,%edx,4)
/u/a/b/abhijith/CS537/p3b/xv6-sp20/kernel/proc.c:151 (discriminator 2)
  104162:	83 45 e4 01          	addl   $0x1,-0x1c(%ebp)
/u/a/b/abhijith/CS537/p3b/xv6-sp20/kernel/proc.c:151 (discriminator 1)
  104166:	83 7d e4 0f          	cmpl   $0xf,-0x1c(%ebp)
  10416a:	7e b7                	jle    104123 <fork+0xd1>
/u/a/b/abhijith/CS537/p3b/xv6-sp20/kernel/proc.c:154
  10416c:	65 a1 04 00 00 00    	mov    %gs:0x4,%eax
  104172:	8b 40 68             	mov    0x68(%eax),%eax
  104175:	83 ec 0c             	sub    $0xc,%esp
  104178:	50                   	push   %eax
  104179:	e8 97 d6 ff ff       	call   101815 <idup>
  10417e:	83 c4 10             	add    $0x10,%esp
  104181:	89 c2                	mov    %eax,%edx
  104183:	8b 45 e0             	mov    -0x20(%ebp),%eax
  104186:	89 50 68             	mov    %edx,0x68(%eax)
/u/a/b/abhijith/CS537/p3b/xv6-sp20/kernel/proc.c:156
  104189:	8b 45 e0             	mov    -0x20(%ebp),%eax
  10418c:	8b 40 10             	mov    0x10(%eax),%eax
  10418f:	89 45 dc             	mov    %eax,-0x24(%ebp)
/u/a/b/abhijith/CS537/p3b/xv6-sp20/kernel/proc.c:157
  104192:	8b 45 e0             	mov    -0x20(%ebp),%eax
  104195:	c7 40 0c 03 00 00 00 	movl   $0x3,0xc(%eax)
/u/a/b/abhijith/CS537/p3b/xv6-sp20/kernel/proc.c:158
  10419c:	65 a1 04 00 00 00    	mov    %gs:0x4,%eax
  1041a2:	8d 50 6c             	lea    0x6c(%eax),%edx
  1041a5:	8b 45 e0             	mov    -0x20(%ebp),%eax
  1041a8:	83 c0 6c             	add    $0x6c,%eax
  1041ab:	83 ec 04             	sub    $0x4,%esp
  1041ae:	6a 10                	push   $0x10
  1041b0:	52                   	push   %edx
  1041b1:	50                   	push   %eax
  1041b2:	e8 01 0b 00 00       	call   104cb8 <safestrcpy>
  1041b7:	83 c4 10             	add    $0x10,%esp
/u/a/b/abhijith/CS537/p3b/xv6-sp20/kernel/proc.c:159
  1041ba:	8b 45 dc             	mov    -0x24(%ebp),%eax
/u/a/b/abhijith/CS537/p3b/xv6-sp20/kernel/proc.c:160
  1041bd:	8d 65 f4             	lea    -0xc(%ebp),%esp
  1041c0:	5b                   	pop    %ebx
  1041c1:	5e                   	pop    %esi
  1041c2:	5f                   	pop    %edi
  1041c3:	5d                   	pop    %ebp
  1041c4:	c3                   	ret    

001041c5 <exit>:
exit():
/u/a/b/abhijith/CS537/p3b/xv6-sp20/kernel/proc.c:167
  1041c5:	55                   	push   %ebp
  1041c6:	89 e5                	mov    %esp,%ebp
  1041c8:	83 ec 18             	sub    $0x18,%esp
/u/a/b/abhijith/CS537/p3b/xv6-sp20/kernel/proc.c:171
  1041cb:	65 8b 15 04 00 00 00 	mov    %gs:0x4,%edx
  1041d2:	a1 14 c5 10 00       	mov    0x10c514,%eax
  1041d7:	39 c2                	cmp    %eax,%edx
  1041d9:	75 0d                	jne    1041e8 <exit+0x23>
/u/a/b/abhijith/CS537/p3b/xv6-sp20/kernel/proc.c:172
  1041db:	83 ec 0c             	sub    $0xc,%esp
  1041de:	68 c4 81 10 00       	push   $0x1081c4
  1041e3:	e8 90 c3 ff ff       	call   100578 <panic>
/u/a/b/abhijith/CS537/p3b/xv6-sp20/kernel/proc.c:175
  1041e8:	c7 45 f0 00 00 00 00 	movl   $0x0,-0x10(%ebp)
  1041ef:	eb 48                	jmp    104239 <exit+0x74>
/u/a/b/abhijith/CS537/p3b/xv6-sp20/kernel/proc.c:176
  1041f1:	65 a1 04 00 00 00    	mov    %gs:0x4,%eax
  1041f7:	8b 55 f0             	mov    -0x10(%ebp),%edx
  1041fa:	83 c2 08             	add    $0x8,%edx
  1041fd:	8b 44 90 08          	mov    0x8(%eax,%edx,4),%eax
  104201:	85 c0                	test   %eax,%eax
  104203:	74 30                	je     104235 <exit+0x70>
/u/a/b/abhijith/CS537/p3b/xv6-sp20/kernel/proc.c:177
  104205:	65 a1 04 00 00 00    	mov    %gs:0x4,%eax
  10420b:	8b 55 f0             	mov    -0x10(%ebp),%edx
  10420e:	83 c2 08             	add    $0x8,%edx
  104211:	8b 44 90 08          	mov    0x8(%eax,%edx,4),%eax
  104215:	83 ec 0c             	sub    $0xc,%esp
  104218:	50                   	push   %eax
  104219:	e8 01 ce ff ff       	call   10101f <fileclose>
  10421e:	83 c4 10             	add    $0x10,%esp
/u/a/b/abhijith/CS537/p3b/xv6-sp20/kernel/proc.c:178
  104221:	65 a1 04 00 00 00    	mov    %gs:0x4,%eax
  104227:	8b 55 f0             	mov    -0x10(%ebp),%edx
  10422a:	83 c2 08             	add    $0x8,%edx
  10422d:	c7 44 90 08 00 00 00 	movl   $0x0,0x8(%eax,%edx,4)
  104234:	00 
/u/a/b/abhijith/CS537/p3b/xv6-sp20/kernel/proc.c:175 (discriminator 2)
  104235:	83 45 f0 01          	addl   $0x1,-0x10(%ebp)
/u/a/b/abhijith/CS537/p3b/xv6-sp20/kernel/proc.c:175 (discriminator 1)
  104239:	83 7d f0 0f          	cmpl   $0xf,-0x10(%ebp)
  10423d:	7e b2                	jle    1041f1 <exit+0x2c>
/u/a/b/abhijith/CS537/p3b/xv6-sp20/kernel/proc.c:182
  10423f:	65 a1 04 00 00 00    	mov    %gs:0x4,%eax
  104245:	8b 40 68             	mov    0x68(%eax),%eax
  104248:	83 ec 0c             	sub    $0xc,%esp
  10424b:	50                   	push   %eax
  10424c:	e8 c8 d7 ff ff       	call   101a19 <iput>
  104251:	83 c4 10             	add    $0x10,%esp
/u/a/b/abhijith/CS537/p3b/xv6-sp20/kernel/proc.c:183
  104254:	65 a1 04 00 00 00    	mov    %gs:0x4,%eax
  10425a:	c7 40 68 00 00 00 00 	movl   $0x0,0x68(%eax)
/u/a/b/abhijith/CS537/p3b/xv6-sp20/kernel/proc.c:185
  104261:	83 ec 0c             	sub    $0xc,%esp
  104264:	68 80 0d 11 00       	push   $0x110d80
  104269:	e8 57 06 00 00       	call   1048c5 <acquire>
  10426e:	83 c4 10             	add    $0x10,%esp
/u/a/b/abhijith/CS537/p3b/xv6-sp20/kernel/proc.c:188
  104271:	65 a1 04 00 00 00    	mov    %gs:0x4,%eax
  104277:	8b 40 14             	mov    0x14(%eax),%eax
  10427a:	83 ec 0c             	sub    $0xc,%esp
  10427d:	50                   	push   %eax
  10427e:	e8 f5 03 00 00       	call   104678 <wakeup1>
  104283:	83 c4 10             	add    $0x10,%esp
/u/a/b/abhijith/CS537/p3b/xv6-sp20/kernel/proc.c:191
  104286:	c7 45 f4 b4 0d 11 00 	movl   $0x110db4,-0xc(%ebp)
  10428d:	eb 3c                	jmp    1042cb <exit+0x106>
/u/a/b/abhijith/CS537/p3b/xv6-sp20/kernel/proc.c:192
  10428f:	8b 45 f4             	mov    -0xc(%ebp),%eax
  104292:	8b 50 14             	mov    0x14(%eax),%edx
  104295:	65 a1 04 00 00 00    	mov    %gs:0x4,%eax
  10429b:	39 c2                	cmp    %eax,%edx
  10429d:	75 28                	jne    1042c7 <exit+0x102>
/u/a/b/abhijith/CS537/p3b/xv6-sp20/kernel/proc.c:193
  10429f:	8b 15 14 c5 10 00    	mov    0x10c514,%edx
  1042a5:	8b 45 f4             	mov    -0xc(%ebp),%eax
  1042a8:	89 50 14             	mov    %edx,0x14(%eax)
/u/a/b/abhijith/CS537/p3b/xv6-sp20/kernel/proc.c:194
  1042ab:	8b 45 f4             	mov    -0xc(%ebp),%eax
  1042ae:	8b 40 0c             	mov    0xc(%eax),%eax
  1042b1:	83 f8 05             	cmp    $0x5,%eax
  1042b4:	75 11                	jne    1042c7 <exit+0x102>
/u/a/b/abhijith/CS537/p3b/xv6-sp20/kernel/proc.c:195
  1042b6:	a1 14 c5 10 00       	mov    0x10c514,%eax
  1042bb:	83 ec 0c             	sub    $0xc,%esp
  1042be:	50                   	push   %eax
  1042bf:	e8 b4 03 00 00       	call   104678 <wakeup1>
  1042c4:	83 c4 10             	add    $0x10,%esp
/u/a/b/abhijith/CS537/p3b/xv6-sp20/kernel/proc.c:191 (discriminator 2)
  1042c7:	83 45 f4 7c          	addl   $0x7c,-0xc(%ebp)
/u/a/b/abhijith/CS537/p3b/xv6-sp20/kernel/proc.c:191 (discriminator 1)
  1042cb:	81 7d f4 b4 2c 11 00 	cmpl   $0x112cb4,-0xc(%ebp)
  1042d2:	72 bb                	jb     10428f <exit+0xca>
/u/a/b/abhijith/CS537/p3b/xv6-sp20/kernel/proc.c:200
  1042d4:	65 a1 04 00 00 00    	mov    %gs:0x4,%eax
  1042da:	c7 40 0c 05 00 00 00 	movl   $0x5,0xc(%eax)
/u/a/b/abhijith/CS537/p3b/xv6-sp20/kernel/proc.c:201
  1042e1:	e8 d6 01 00 00       	call   1044bc <sched>
/u/a/b/abhijith/CS537/p3b/xv6-sp20/kernel/proc.c:202
  1042e6:	83 ec 0c             	sub    $0xc,%esp
  1042e9:	68 d1 81 10 00       	push   $0x1081d1
  1042ee:	e8 85 c2 ff ff       	call   100578 <panic>

001042f3 <wait>:
wait():
/u/a/b/abhijith/CS537/p3b/xv6-sp20/kernel/proc.c:209
  1042f3:	55                   	push   %ebp
  1042f4:	89 e5                	mov    %esp,%ebp
  1042f6:	83 ec 18             	sub    $0x18,%esp
/u/a/b/abhijith/CS537/p3b/xv6-sp20/kernel/proc.c:213
  1042f9:	83 ec 0c             	sub    $0xc,%esp
  1042fc:	68 80 0d 11 00       	push   $0x110d80
  104301:	e8 bf 05 00 00       	call   1048c5 <acquire>
  104306:	83 c4 10             	add    $0x10,%esp
/u/a/b/abhijith/CS537/p3b/xv6-sp20/kernel/proc.c:216
  104309:	c7 45 f0 00 00 00 00 	movl   $0x0,-0x10(%ebp)
/u/a/b/abhijith/CS537/p3b/xv6-sp20/kernel/proc.c:217
  104310:	c7 45 f4 b4 0d 11 00 	movl   $0x110db4,-0xc(%ebp)
  104317:	e9 a6 00 00 00       	jmp    1043c2 <wait+0xcf>
/u/a/b/abhijith/CS537/p3b/xv6-sp20/kernel/proc.c:218
  10431c:	8b 45 f4             	mov    -0xc(%ebp),%eax
  10431f:	8b 50 14             	mov    0x14(%eax),%edx
  104322:	65 a1 04 00 00 00    	mov    %gs:0x4,%eax
  104328:	39 c2                	cmp    %eax,%edx
  10432a:	0f 85 8d 00 00 00    	jne    1043bd <wait+0xca>
/u/a/b/abhijith/CS537/p3b/xv6-sp20/kernel/proc.c:220
  104330:	c7 45 f0 01 00 00 00 	movl   $0x1,-0x10(%ebp)
/u/a/b/abhijith/CS537/p3b/xv6-sp20/kernel/proc.c:221
  104337:	8b 45 f4             	mov    -0xc(%ebp),%eax
  10433a:	8b 40 0c             	mov    0xc(%eax),%eax
  10433d:	83 f8 05             	cmp    $0x5,%eax
  104340:	75 7c                	jne    1043be <wait+0xcb>
/u/a/b/abhijith/CS537/p3b/xv6-sp20/kernel/proc.c:223
  104342:	8b 45 f4             	mov    -0xc(%ebp),%eax
  104345:	8b 40 10             	mov    0x10(%eax),%eax
  104348:	89 45 ec             	mov    %eax,-0x14(%ebp)
/u/a/b/abhijith/CS537/p3b/xv6-sp20/kernel/proc.c:224
  10434b:	8b 45 f4             	mov    -0xc(%ebp),%eax
  10434e:	8b 40 08             	mov    0x8(%eax),%eax
  104351:	83 ec 0c             	sub    $0xc,%esp
  104354:	50                   	push   %eax
  104355:	e8 d3 e7 ff ff       	call   102b2d <kfree>
  10435a:	83 c4 10             	add    $0x10,%esp
/u/a/b/abhijith/CS537/p3b/xv6-sp20/kernel/proc.c:225
  10435d:	8b 45 f4             	mov    -0xc(%ebp),%eax
  104360:	c7 40 08 00 00 00 00 	movl   $0x0,0x8(%eax)
/u/a/b/abhijith/CS537/p3b/xv6-sp20/kernel/proc.c:226
  104367:	8b 45 f4             	mov    -0xc(%ebp),%eax
  10436a:	8b 40 04             	mov    0x4(%eax),%eax
  10436d:	83 ec 0c             	sub    $0xc,%esp
  104370:	50                   	push   %eax
  104371:	e8 8e 37 00 00       	call   107b04 <freevm>
  104376:	83 c4 10             	add    $0x10,%esp
/u/a/b/abhijith/CS537/p3b/xv6-sp20/kernel/proc.c:227
  104379:	8b 45 f4             	mov    -0xc(%ebp),%eax
  10437c:	c7 40 0c 00 00 00 00 	movl   $0x0,0xc(%eax)
/u/a/b/abhijith/CS537/p3b/xv6-sp20/kernel/proc.c:228
  104383:	8b 45 f4             	mov    -0xc(%ebp),%eax
  104386:	c7 40 10 00 00 00 00 	movl   $0x0,0x10(%eax)
/u/a/b/abhijith/CS537/p3b/xv6-sp20/kernel/proc.c:229
  10438d:	8b 45 f4             	mov    -0xc(%ebp),%eax
  104390:	c7 40 14 00 00 00 00 	movl   $0x0,0x14(%eax)
/u/a/b/abhijith/CS537/p3b/xv6-sp20/kernel/proc.c:230
  104397:	8b 45 f4             	mov    -0xc(%ebp),%eax
  10439a:	c6 40 6c 00          	movb   $0x0,0x6c(%eax)
/u/a/b/abhijith/CS537/p3b/xv6-sp20/kernel/proc.c:231
  10439e:	8b 45 f4             	mov    -0xc(%ebp),%eax
  1043a1:	c7 40 24 00 00 00 00 	movl   $0x0,0x24(%eax)
/u/a/b/abhijith/CS537/p3b/xv6-sp20/kernel/proc.c:232
  1043a8:	83 ec 0c             	sub    $0xc,%esp
  1043ab:	68 80 0d 11 00       	push   $0x110d80
  1043b0:	e8 77 05 00 00       	call   10492c <release>
  1043b5:	83 c4 10             	add    $0x10,%esp
/u/a/b/abhijith/CS537/p3b/xv6-sp20/kernel/proc.c:233
  1043b8:	8b 45 ec             	mov    -0x14(%ebp),%eax
  1043bb:	eb 58                	jmp    104415 <wait+0x122>
/u/a/b/abhijith/CS537/p3b/xv6-sp20/kernel/proc.c:219
  1043bd:	90                   	nop
/u/a/b/abhijith/CS537/p3b/xv6-sp20/kernel/proc.c:217 (discriminator 2)
  1043be:	83 45 f4 7c          	addl   $0x7c,-0xc(%ebp)
/u/a/b/abhijith/CS537/p3b/xv6-sp20/kernel/proc.c:217 (discriminator 1)
  1043c2:	81 7d f4 b4 2c 11 00 	cmpl   $0x112cb4,-0xc(%ebp)
  1043c9:	0f 82 4d ff ff ff    	jb     10431c <wait+0x29>
/u/a/b/abhijith/CS537/p3b/xv6-sp20/kernel/proc.c:238
  1043cf:	83 7d f0 00          	cmpl   $0x0,-0x10(%ebp)
  1043d3:	74 0d                	je     1043e2 <wait+0xef>
/u/a/b/abhijith/CS537/p3b/xv6-sp20/kernel/proc.c:238 (discriminator 1)
  1043d5:	65 a1 04 00 00 00    	mov    %gs:0x4,%eax
  1043db:	8b 40 24             	mov    0x24(%eax),%eax
  1043de:	85 c0                	test   %eax,%eax
  1043e0:	74 17                	je     1043f9 <wait+0x106>
/u/a/b/abhijith/CS537/p3b/xv6-sp20/kernel/proc.c:239
  1043e2:	83 ec 0c             	sub    $0xc,%esp
  1043e5:	68 80 0d 11 00       	push   $0x110d80
  1043ea:	e8 3d 05 00 00       	call   10492c <release>
  1043ef:	83 c4 10             	add    $0x10,%esp
/u/a/b/abhijith/CS537/p3b/xv6-sp20/kernel/proc.c:240
  1043f2:	b8 ff ff ff ff       	mov    $0xffffffff,%eax
  1043f7:	eb 1c                	jmp    104415 <wait+0x122>
/u/a/b/abhijith/CS537/p3b/xv6-sp20/kernel/proc.c:244
  1043f9:	65 a1 04 00 00 00    	mov    %gs:0x4,%eax
  1043ff:	83 ec 08             	sub    $0x8,%esp
  104402:	68 80 0d 11 00       	push   $0x110d80
  104407:	50                   	push   %eax
  104408:	e8 bf 01 00 00       	call   1045cc <sleep>
  10440d:	83 c4 10             	add    $0x10,%esp
/u/a/b/abhijith/CS537/p3b/xv6-sp20/kernel/proc.c:216
  104410:	e9 f4 fe ff ff       	jmp    104309 <wait+0x16>
/u/a/b/abhijith/CS537/p3b/xv6-sp20/kernel/proc.c:246
  104415:	c9                   	leave  
  104416:	c3                   	ret    

00104417 <scheduler>:
scheduler():
/u/a/b/abhijith/CS537/p3b/xv6-sp20/kernel/proc.c:257
  104417:	55                   	push   %ebp
  104418:	89 e5                	mov    %esp,%ebp
  10441a:	83 ec 18             	sub    $0x18,%esp
/u/a/b/abhijith/CS537/p3b/xv6-sp20/kernel/proc.c:262
  10441d:	e8 27 f9 ff ff       	call   103d49 <sti>
/u/a/b/abhijith/CS537/p3b/xv6-sp20/kernel/proc.c:265
  104422:	83 ec 0c             	sub    $0xc,%esp
  104425:	68 80 0d 11 00       	push   $0x110d80
  10442a:	e8 96 04 00 00       	call   1048c5 <acquire>
  10442f:	83 c4 10             	add    $0x10,%esp
/u/a/b/abhijith/CS537/p3b/xv6-sp20/kernel/proc.c:266
  104432:	c7 45 f4 b4 0d 11 00 	movl   $0x110db4,-0xc(%ebp)
  104439:	eb 63                	jmp    10449e <scheduler+0x87>
/u/a/b/abhijith/CS537/p3b/xv6-sp20/kernel/proc.c:267
  10443b:	8b 45 f4             	mov    -0xc(%ebp),%eax
  10443e:	8b 40 0c             	mov    0xc(%eax),%eax
  104441:	83 f8 03             	cmp    $0x3,%eax
  104444:	75 53                	jne    104499 <scheduler+0x82>
/u/a/b/abhijith/CS537/p3b/xv6-sp20/kernel/proc.c:273
  104446:	8b 45 f4             	mov    -0xc(%ebp),%eax
  104449:	65 a3 04 00 00 00    	mov    %eax,%gs:0x4
/u/a/b/abhijith/CS537/p3b/xv6-sp20/kernel/proc.c:274
  10444f:	83 ec 0c             	sub    $0xc,%esp
  104452:	ff 75 f4             	pushl  -0xc(%ebp)
  104455:	e8 b9 32 00 00       	call   107713 <switchuvm>
  10445a:	83 c4 10             	add    $0x10,%esp
/u/a/b/abhijith/CS537/p3b/xv6-sp20/kernel/proc.c:275
  10445d:	8b 45 f4             	mov    -0xc(%ebp),%eax
  104460:	c7 40 0c 04 00 00 00 	movl   $0x4,0xc(%eax)
/u/a/b/abhijith/CS537/p3b/xv6-sp20/kernel/proc.c:276
  104467:	65 a1 04 00 00 00    	mov    %gs:0x4,%eax
  10446d:	8b 40 1c             	mov    0x1c(%eax),%eax
  104470:	65 8b 15 00 00 00 00 	mov    %gs:0x0,%edx
  104477:	83 c2 04             	add    $0x4,%edx
  10447a:	83 ec 08             	sub    $0x8,%esp
  10447d:	50                   	push   %eax
  10447e:	52                   	push   %edx
  10447f:	e8 a5 08 00 00       	call   104d29 <swtch>
  104484:	83 c4 10             	add    $0x10,%esp
/u/a/b/abhijith/CS537/p3b/xv6-sp20/kernel/proc.c:277
  104487:	e8 73 32 00 00       	call   1076ff <switchkvm>
/u/a/b/abhijith/CS537/p3b/xv6-sp20/kernel/proc.c:281
  10448c:	65 c7 05 04 00 00 00 	movl   $0x0,%gs:0x4
  104493:	00 00 00 00 
  104497:	eb 01                	jmp    10449a <scheduler+0x83>
/u/a/b/abhijith/CS537/p3b/xv6-sp20/kernel/proc.c:268
  104499:	90                   	nop
/u/a/b/abhijith/CS537/p3b/xv6-sp20/kernel/proc.c:266 (discriminator 2)
  10449a:	83 45 f4 7c          	addl   $0x7c,-0xc(%ebp)
/u/a/b/abhijith/CS537/p3b/xv6-sp20/kernel/proc.c:266 (discriminator 1)
  10449e:	81 7d f4 b4 2c 11 00 	cmpl   $0x112cb4,-0xc(%ebp)
  1044a5:	72 94                	jb     10443b <scheduler+0x24>
/u/a/b/abhijith/CS537/p3b/xv6-sp20/kernel/proc.c:283
  1044a7:	83 ec 0c             	sub    $0xc,%esp
  1044aa:	68 80 0d 11 00       	push   $0x110d80
  1044af:	e8 78 04 00 00       	call   10492c <release>
  1044b4:	83 c4 10             	add    $0x10,%esp
/u/a/b/abhijith/CS537/p3b/xv6-sp20/kernel/proc.c:262
  1044b7:	e9 61 ff ff ff       	jmp    10441d <scheduler+0x6>

001044bc <sched>:
sched():
/u/a/b/abhijith/CS537/p3b/xv6-sp20/kernel/proc.c:292
  1044bc:	55                   	push   %ebp
  1044bd:	89 e5                	mov    %esp,%ebp
  1044bf:	83 ec 18             	sub    $0x18,%esp
/u/a/b/abhijith/CS537/p3b/xv6-sp20/kernel/proc.c:295
  1044c2:	83 ec 0c             	sub    $0xc,%esp
  1044c5:	68 80 0d 11 00       	push   $0x110d80
  1044ca:	e8 29 05 00 00       	call   1049f8 <holding>
  1044cf:	83 c4 10             	add    $0x10,%esp
  1044d2:	85 c0                	test   %eax,%eax
  1044d4:	75 0d                	jne    1044e3 <sched+0x27>
/u/a/b/abhijith/CS537/p3b/xv6-sp20/kernel/proc.c:296
  1044d6:	83 ec 0c             	sub    $0xc,%esp
  1044d9:	68 dd 81 10 00       	push   $0x1081dd
  1044de:	e8 95 c0 ff ff       	call   100578 <panic>
/u/a/b/abhijith/CS537/p3b/xv6-sp20/kernel/proc.c:297
  1044e3:	65 a1 00 00 00 00    	mov    %gs:0x0,%eax
  1044e9:	8b 80 ac 00 00 00    	mov    0xac(%eax),%eax
  1044ef:	83 f8 01             	cmp    $0x1,%eax
  1044f2:	74 0d                	je     104501 <sched+0x45>
/u/a/b/abhijith/CS537/p3b/xv6-sp20/kernel/proc.c:298
  1044f4:	83 ec 0c             	sub    $0xc,%esp
  1044f7:	68 ef 81 10 00       	push   $0x1081ef
  1044fc:	e8 77 c0 ff ff       	call   100578 <panic>
/u/a/b/abhijith/CS537/p3b/xv6-sp20/kernel/proc.c:299
  104501:	65 a1 04 00 00 00    	mov    %gs:0x4,%eax
  104507:	8b 40 0c             	mov    0xc(%eax),%eax
  10450a:	83 f8 04             	cmp    $0x4,%eax
  10450d:	75 0d                	jne    10451c <sched+0x60>
/u/a/b/abhijith/CS537/p3b/xv6-sp20/kernel/proc.c:300
  10450f:	83 ec 0c             	sub    $0xc,%esp
  104512:	68 fb 81 10 00       	push   $0x1081fb
  104517:	e8 5c c0 ff ff       	call   100578 <panic>
/u/a/b/abhijith/CS537/p3b/xv6-sp20/kernel/proc.c:301
  10451c:	e8 18 f8 ff ff       	call   103d39 <readeflags>
  104521:	25 00 02 00 00       	and    $0x200,%eax
  104526:	85 c0                	test   %eax,%eax
  104528:	74 0d                	je     104537 <sched+0x7b>
/u/a/b/abhijith/CS537/p3b/xv6-sp20/kernel/proc.c:302
  10452a:	83 ec 0c             	sub    $0xc,%esp
  10452d:	68 09 82 10 00       	push   $0x108209
  104532:	e8 41 c0 ff ff       	call   100578 <panic>
/u/a/b/abhijith/CS537/p3b/xv6-sp20/kernel/proc.c:303
  104537:	65 a1 00 00 00 00    	mov    %gs:0x0,%eax
  10453d:	8b 80 b0 00 00 00    	mov    0xb0(%eax),%eax
  104543:	89 45 f4             	mov    %eax,-0xc(%ebp)
/u/a/b/abhijith/CS537/p3b/xv6-sp20/kernel/proc.c:304
  104546:	65 a1 00 00 00 00    	mov    %gs:0x0,%eax
  10454c:	8b 40 04             	mov    0x4(%eax),%eax
  10454f:	65 8b 15 04 00 00 00 	mov    %gs:0x4,%edx
  104556:	83 c2 1c             	add    $0x1c,%edx
  104559:	83 ec 08             	sub    $0x8,%esp
  10455c:	50                   	push   %eax
  10455d:	52                   	push   %edx
  10455e:	e8 c6 07 00 00       	call   104d29 <swtch>
  104563:	83 c4 10             	add    $0x10,%esp
/u/a/b/abhijith/CS537/p3b/xv6-sp20/kernel/proc.c:305
  104566:	65 a1 00 00 00 00    	mov    %gs:0x0,%eax
  10456c:	8b 55 f4             	mov    -0xc(%ebp),%edx
  10456f:	89 90 b0 00 00 00    	mov    %edx,0xb0(%eax)
/u/a/b/abhijith/CS537/p3b/xv6-sp20/kernel/proc.c:306
  104575:	90                   	nop
  104576:	c9                   	leave  
  104577:	c3                   	ret    

00104578 <yield>:
yield():
/u/a/b/abhijith/CS537/p3b/xv6-sp20/kernel/proc.c:311
  104578:	55                   	push   %ebp
  104579:	89 e5                	mov    %esp,%ebp
  10457b:	83 ec 08             	sub    $0x8,%esp
/u/a/b/abhijith/CS537/p3b/xv6-sp20/kernel/proc.c:312
  10457e:	83 ec 0c             	sub    $0xc,%esp
  104581:	68 80 0d 11 00       	push   $0x110d80
  104586:	e8 3a 03 00 00       	call   1048c5 <acquire>
  10458b:	83 c4 10             	add    $0x10,%esp
/u/a/b/abhijith/CS537/p3b/xv6-sp20/kernel/proc.c:313
  10458e:	65 a1 04 00 00 00    	mov    %gs:0x4,%eax
  104594:	c7 40 0c 03 00 00 00 	movl   $0x3,0xc(%eax)
/u/a/b/abhijith/CS537/p3b/xv6-sp20/kernel/proc.c:314
  10459b:	e8 1c ff ff ff       	call   1044bc <sched>
/u/a/b/abhijith/CS537/p3b/xv6-sp20/kernel/proc.c:315
  1045a0:	83 ec 0c             	sub    $0xc,%esp
  1045a3:	68 80 0d 11 00       	push   $0x110d80
  1045a8:	e8 7f 03 00 00       	call   10492c <release>
  1045ad:	83 c4 10             	add    $0x10,%esp
/u/a/b/abhijith/CS537/p3b/xv6-sp20/kernel/proc.c:316
  1045b0:	90                   	nop
  1045b1:	c9                   	leave  
  1045b2:	c3                   	ret    

001045b3 <forkret>:
forkret():
/u/a/b/abhijith/CS537/p3b/xv6-sp20/kernel/proc.c:322
  1045b3:	55                   	push   %ebp
  1045b4:	89 e5                	mov    %esp,%ebp
  1045b6:	83 ec 08             	sub    $0x8,%esp
/u/a/b/abhijith/CS537/p3b/xv6-sp20/kernel/proc.c:324
  1045b9:	83 ec 0c             	sub    $0xc,%esp
  1045bc:	68 80 0d 11 00       	push   $0x110d80
  1045c1:	e8 66 03 00 00       	call   10492c <release>
  1045c6:	83 c4 10             	add    $0x10,%esp
/u/a/b/abhijith/CS537/p3b/xv6-sp20/kernel/proc.c:327
  1045c9:	90                   	nop
  1045ca:	c9                   	leave  
  1045cb:	c3                   	ret    

001045cc <sleep>:
sleep():
/u/a/b/abhijith/CS537/p3b/xv6-sp20/kernel/proc.c:333
  1045cc:	55                   	push   %ebp
  1045cd:	89 e5                	mov    %esp,%ebp
  1045cf:	83 ec 08             	sub    $0x8,%esp
/u/a/b/abhijith/CS537/p3b/xv6-sp20/kernel/proc.c:334
  1045d2:	65 a1 04 00 00 00    	mov    %gs:0x4,%eax
  1045d8:	85 c0                	test   %eax,%eax
  1045da:	75 0d                	jne    1045e9 <sleep+0x1d>
/u/a/b/abhijith/CS537/p3b/xv6-sp20/kernel/proc.c:335
  1045dc:	83 ec 0c             	sub    $0xc,%esp
  1045df:	68 1d 82 10 00       	push   $0x10821d
  1045e4:	e8 8f bf ff ff       	call   100578 <panic>
/u/a/b/abhijith/CS537/p3b/xv6-sp20/kernel/proc.c:337
  1045e9:	83 7d 0c 00          	cmpl   $0x0,0xc(%ebp)
  1045ed:	75 0d                	jne    1045fc <sleep+0x30>
/u/a/b/abhijith/CS537/p3b/xv6-sp20/kernel/proc.c:338
  1045ef:	83 ec 0c             	sub    $0xc,%esp
  1045f2:	68 23 82 10 00       	push   $0x108223
  1045f7:	e8 7c bf ff ff       	call   100578 <panic>
/u/a/b/abhijith/CS537/p3b/xv6-sp20/kernel/proc.c:346
  1045fc:	81 7d 0c 80 0d 11 00 	cmpl   $0x110d80,0xc(%ebp)
  104603:	74 1e                	je     104623 <sleep+0x57>
/u/a/b/abhijith/CS537/p3b/xv6-sp20/kernel/proc.c:347
  104605:	83 ec 0c             	sub    $0xc,%esp
  104608:	68 80 0d 11 00       	push   $0x110d80
  10460d:	e8 b3 02 00 00       	call   1048c5 <acquire>
  104612:	83 c4 10             	add    $0x10,%esp
/u/a/b/abhijith/CS537/p3b/xv6-sp20/kernel/proc.c:348
  104615:	83 ec 0c             	sub    $0xc,%esp
  104618:	ff 75 0c             	pushl  0xc(%ebp)
  10461b:	e8 0c 03 00 00       	call   10492c <release>
  104620:	83 c4 10             	add    $0x10,%esp
/u/a/b/abhijith/CS537/p3b/xv6-sp20/kernel/proc.c:352
  104623:	65 a1 04 00 00 00    	mov    %gs:0x4,%eax
  104629:	8b 55 08             	mov    0x8(%ebp),%edx
  10462c:	89 50 20             	mov    %edx,0x20(%eax)
/u/a/b/abhijith/CS537/p3b/xv6-sp20/kernel/proc.c:353
  10462f:	65 a1 04 00 00 00    	mov    %gs:0x4,%eax
  104635:	c7 40 0c 02 00 00 00 	movl   $0x2,0xc(%eax)
/u/a/b/abhijith/CS537/p3b/xv6-sp20/kernel/proc.c:354
  10463c:	e8 7b fe ff ff       	call   1044bc <sched>
/u/a/b/abhijith/CS537/p3b/xv6-sp20/kernel/proc.c:357
  104641:	65 a1 04 00 00 00    	mov    %gs:0x4,%eax
  104647:	c7 40 20 00 00 00 00 	movl   $0x0,0x20(%eax)
/u/a/b/abhijith/CS537/p3b/xv6-sp20/kernel/proc.c:360
  10464e:	81 7d 0c 80 0d 11 00 	cmpl   $0x110d80,0xc(%ebp)
  104655:	74 1e                	je     104675 <sleep+0xa9>
/u/a/b/abhijith/CS537/p3b/xv6-sp20/kernel/proc.c:361
  104657:	83 ec 0c             	sub    $0xc,%esp
  10465a:	68 80 0d 11 00       	push   $0x110d80
  10465f:	e8 c8 02 00 00       	call   10492c <release>
  104664:	83 c4 10             	add    $0x10,%esp
/u/a/b/abhijith/CS537/p3b/xv6-sp20/kernel/proc.c:362
  104667:	83 ec 0c             	sub    $0xc,%esp
  10466a:	ff 75 0c             	pushl  0xc(%ebp)
  10466d:	e8 53 02 00 00       	call   1048c5 <acquire>
  104672:	83 c4 10             	add    $0x10,%esp
/u/a/b/abhijith/CS537/p3b/xv6-sp20/kernel/proc.c:364
  104675:	90                   	nop
  104676:	c9                   	leave  
  104677:	c3                   	ret    

00104678 <wakeup1>:
wakeup1():
/u/a/b/abhijith/CS537/p3b/xv6-sp20/kernel/proc.c:370
  104678:	55                   	push   %ebp
  104679:	89 e5                	mov    %esp,%ebp
  10467b:	83 ec 10             	sub    $0x10,%esp
/u/a/b/abhijith/CS537/p3b/xv6-sp20/kernel/proc.c:373
  10467e:	c7 45 fc b4 0d 11 00 	movl   $0x110db4,-0x4(%ebp)
  104685:	eb 24                	jmp    1046ab <wakeup1+0x33>
/u/a/b/abhijith/CS537/p3b/xv6-sp20/kernel/proc.c:374
  104687:	8b 45 fc             	mov    -0x4(%ebp),%eax
  10468a:	8b 40 0c             	mov    0xc(%eax),%eax
  10468d:	83 f8 02             	cmp    $0x2,%eax
  104690:	75 15                	jne    1046a7 <wakeup1+0x2f>
/u/a/b/abhijith/CS537/p3b/xv6-sp20/kernel/proc.c:374 (discriminator 1)
  104692:	8b 45 fc             	mov    -0x4(%ebp),%eax
  104695:	8b 40 20             	mov    0x20(%eax),%eax
  104698:	39 45 08             	cmp    %eax,0x8(%ebp)
  10469b:	75 0a                	jne    1046a7 <wakeup1+0x2f>
/u/a/b/abhijith/CS537/p3b/xv6-sp20/kernel/proc.c:375
  10469d:	8b 45 fc             	mov    -0x4(%ebp),%eax
  1046a0:	c7 40 0c 03 00 00 00 	movl   $0x3,0xc(%eax)
/u/a/b/abhijith/CS537/p3b/xv6-sp20/kernel/proc.c:373 (discriminator 2)
  1046a7:	83 45 fc 7c          	addl   $0x7c,-0x4(%ebp)
/u/a/b/abhijith/CS537/p3b/xv6-sp20/kernel/proc.c:373 (discriminator 1)
  1046ab:	81 7d fc b4 2c 11 00 	cmpl   $0x112cb4,-0x4(%ebp)
  1046b2:	72 d3                	jb     104687 <wakeup1+0xf>
/u/a/b/abhijith/CS537/p3b/xv6-sp20/kernel/proc.c:376
  1046b4:	90                   	nop
  1046b5:	c9                   	leave  
  1046b6:	c3                   	ret    

001046b7 <wakeup>:
wakeup():
/u/a/b/abhijith/CS537/p3b/xv6-sp20/kernel/proc.c:381
  1046b7:	55                   	push   %ebp
  1046b8:	89 e5                	mov    %esp,%ebp
  1046ba:	83 ec 08             	sub    $0x8,%esp
/u/a/b/abhijith/CS537/p3b/xv6-sp20/kernel/proc.c:382
  1046bd:	83 ec 0c             	sub    $0xc,%esp
  1046c0:	68 80 0d 11 00       	push   $0x110d80
  1046c5:	e8 fb 01 00 00       	call   1048c5 <acquire>
  1046ca:	83 c4 10             	add    $0x10,%esp
/u/a/b/abhijith/CS537/p3b/xv6-sp20/kernel/proc.c:383
  1046cd:	83 ec 0c             	sub    $0xc,%esp
  1046d0:	ff 75 08             	pushl  0x8(%ebp)
  1046d3:	e8 a0 ff ff ff       	call   104678 <wakeup1>
  1046d8:	83 c4 10             	add    $0x10,%esp
/u/a/b/abhijith/CS537/p3b/xv6-sp20/kernel/proc.c:384
  1046db:	83 ec 0c             	sub    $0xc,%esp
  1046de:	68 80 0d 11 00       	push   $0x110d80
  1046e3:	e8 44 02 00 00       	call   10492c <release>
  1046e8:	83 c4 10             	add    $0x10,%esp
/u/a/b/abhijith/CS537/p3b/xv6-sp20/kernel/proc.c:385
  1046eb:	90                   	nop
  1046ec:	c9                   	leave  
  1046ed:	c3                   	ret    

001046ee <kill>:
kill():
/u/a/b/abhijith/CS537/p3b/xv6-sp20/kernel/proc.c:392
  1046ee:	55                   	push   %ebp
  1046ef:	89 e5                	mov    %esp,%ebp
  1046f1:	83 ec 18             	sub    $0x18,%esp
/u/a/b/abhijith/CS537/p3b/xv6-sp20/kernel/proc.c:395
  1046f4:	83 ec 0c             	sub    $0xc,%esp
  1046f7:	68 80 0d 11 00       	push   $0x110d80
  1046fc:	e8 c4 01 00 00       	call   1048c5 <acquire>
  104701:	83 c4 10             	add    $0x10,%esp
/u/a/b/abhijith/CS537/p3b/xv6-sp20/kernel/proc.c:396
  104704:	c7 45 f4 b4 0d 11 00 	movl   $0x110db4,-0xc(%ebp)
  10470b:	eb 45                	jmp    104752 <kill+0x64>
/u/a/b/abhijith/CS537/p3b/xv6-sp20/kernel/proc.c:397
  10470d:	8b 45 f4             	mov    -0xc(%ebp),%eax
  104710:	8b 40 10             	mov    0x10(%eax),%eax
  104713:	39 45 08             	cmp    %eax,0x8(%ebp)
  104716:	75 36                	jne    10474e <kill+0x60>
/u/a/b/abhijith/CS537/p3b/xv6-sp20/kernel/proc.c:398
  104718:	8b 45 f4             	mov    -0xc(%ebp),%eax
  10471b:	c7 40 24 01 00 00 00 	movl   $0x1,0x24(%eax)
/u/a/b/abhijith/CS537/p3b/xv6-sp20/kernel/proc.c:400
  104722:	8b 45 f4             	mov    -0xc(%ebp),%eax
  104725:	8b 40 0c             	mov    0xc(%eax),%eax
  104728:	83 f8 02             	cmp    $0x2,%eax
  10472b:	75 0a                	jne    104737 <kill+0x49>
/u/a/b/abhijith/CS537/p3b/xv6-sp20/kernel/proc.c:401
  10472d:	8b 45 f4             	mov    -0xc(%ebp),%eax
  104730:	c7 40 0c 03 00 00 00 	movl   $0x3,0xc(%eax)
/u/a/b/abhijith/CS537/p3b/xv6-sp20/kernel/proc.c:402
  104737:	83 ec 0c             	sub    $0xc,%esp
  10473a:	68 80 0d 11 00       	push   $0x110d80
  10473f:	e8 e8 01 00 00       	call   10492c <release>
  104744:	83 c4 10             	add    $0x10,%esp
/u/a/b/abhijith/CS537/p3b/xv6-sp20/kernel/proc.c:403
  104747:	b8 00 00 00 00       	mov    $0x0,%eax
  10474c:	eb 22                	jmp    104770 <kill+0x82>
/u/a/b/abhijith/CS537/p3b/xv6-sp20/kernel/proc.c:396 (discriminator 2)
  10474e:	83 45 f4 7c          	addl   $0x7c,-0xc(%ebp)
/u/a/b/abhijith/CS537/p3b/xv6-sp20/kernel/proc.c:396 (discriminator 1)
  104752:	81 7d f4 b4 2c 11 00 	cmpl   $0x112cb4,-0xc(%ebp)
  104759:	72 b2                	jb     10470d <kill+0x1f>
/u/a/b/abhijith/CS537/p3b/xv6-sp20/kernel/proc.c:406
  10475b:	83 ec 0c             	sub    $0xc,%esp
  10475e:	68 80 0d 11 00       	push   $0x110d80
  104763:	e8 c4 01 00 00       	call   10492c <release>
  104768:	83 c4 10             	add    $0x10,%esp
/u/a/b/abhijith/CS537/p3b/xv6-sp20/kernel/proc.c:407
  10476b:	b8 ff ff ff ff       	mov    $0xffffffff,%eax
/u/a/b/abhijith/CS537/p3b/xv6-sp20/kernel/proc.c:408
  104770:	c9                   	leave  
  104771:	c3                   	ret    

00104772 <procdump>:
procdump():
/u/a/b/abhijith/CS537/p3b/xv6-sp20/kernel/proc.c:415
  104772:	55                   	push   %ebp
  104773:	89 e5                	mov    %esp,%ebp
  104775:	83 ec 48             	sub    $0x48,%esp
/u/a/b/abhijith/CS537/p3b/xv6-sp20/kernel/proc.c:429
  104778:	c7 45 f0 b4 0d 11 00 	movl   $0x110db4,-0x10(%ebp)
  10477f:	e9 d7 00 00 00       	jmp    10485b <procdump+0xe9>
/u/a/b/abhijith/CS537/p3b/xv6-sp20/kernel/proc.c:430
  104784:	8b 45 f0             	mov    -0x10(%ebp),%eax
  104787:	8b 40 0c             	mov    0xc(%eax),%eax
  10478a:	85 c0                	test   %eax,%eax
  10478c:	0f 84 c4 00 00 00    	je     104856 <procdump+0xe4>
/u/a/b/abhijith/CS537/p3b/xv6-sp20/kernel/proc.c:432
  104792:	8b 45 f0             	mov    -0x10(%ebp),%eax
  104795:	8b 40 0c             	mov    0xc(%eax),%eax
  104798:	83 f8 05             	cmp    $0x5,%eax
  10479b:	77 23                	ja     1047c0 <procdump+0x4e>
/u/a/b/abhijith/CS537/p3b/xv6-sp20/kernel/proc.c:432 (discriminator 1)
  10479d:	8b 45 f0             	mov    -0x10(%ebp),%eax
  1047a0:	8b 40 0c             	mov    0xc(%eax),%eax
  1047a3:	8b 04 85 38 b5 10 00 	mov    0x10b538(,%eax,4),%eax
  1047aa:	85 c0                	test   %eax,%eax
  1047ac:	74 12                	je     1047c0 <procdump+0x4e>
/u/a/b/abhijith/CS537/p3b/xv6-sp20/kernel/proc.c:433
  1047ae:	8b 45 f0             	mov    -0x10(%ebp),%eax
  1047b1:	8b 40 0c             	mov    0xc(%eax),%eax
  1047b4:	8b 04 85 38 b5 10 00 	mov    0x10b538(,%eax,4),%eax
  1047bb:	89 45 ec             	mov    %eax,-0x14(%ebp)
  1047be:	eb 07                	jmp    1047c7 <procdump+0x55>
/u/a/b/abhijith/CS537/p3b/xv6-sp20/kernel/proc.c:435
  1047c0:	c7 45 ec 34 82 10 00 	movl   $0x108234,-0x14(%ebp)
/u/a/b/abhijith/CS537/p3b/xv6-sp20/kernel/proc.c:436
  1047c7:	8b 45 f0             	mov    -0x10(%ebp),%eax
  1047ca:	8d 50 6c             	lea    0x6c(%eax),%edx
  1047cd:	8b 45 f0             	mov    -0x10(%ebp),%eax
  1047d0:	8b 40 10             	mov    0x10(%eax),%eax
  1047d3:	52                   	push   %edx
  1047d4:	ff 75 ec             	pushl  -0x14(%ebp)
  1047d7:	50                   	push   %eax
  1047d8:	68 38 82 10 00       	push   $0x108238
  1047dd:	e8 0a bc ff ff       	call   1003ec <cprintf>
  1047e2:	83 c4 10             	add    $0x10,%esp
/u/a/b/abhijith/CS537/p3b/xv6-sp20/kernel/proc.c:437
  1047e5:	8b 45 f0             	mov    -0x10(%ebp),%eax
  1047e8:	8b 40 0c             	mov    0xc(%eax),%eax
  1047eb:	83 f8 02             	cmp    $0x2,%eax
  1047ee:	75 54                	jne    104844 <procdump+0xd2>
/u/a/b/abhijith/CS537/p3b/xv6-sp20/kernel/proc.c:438
  1047f0:	8b 45 f0             	mov    -0x10(%ebp),%eax
  1047f3:	8b 40 1c             	mov    0x1c(%eax),%eax
  1047f6:	8b 40 0c             	mov    0xc(%eax),%eax
  1047f9:	83 c0 08             	add    $0x8,%eax
  1047fc:	89 c2                	mov    %eax,%edx
  1047fe:	83 ec 08             	sub    $0x8,%esp
  104801:	8d 45 c4             	lea    -0x3c(%ebp),%eax
  104804:	50                   	push   %eax
  104805:	52                   	push   %edx
  104806:	e8 73 01 00 00       	call   10497e <getcallerpcs>
  10480b:	83 c4 10             	add    $0x10,%esp
/u/a/b/abhijith/CS537/p3b/xv6-sp20/kernel/proc.c:439
  10480e:	c7 45 f4 00 00 00 00 	movl   $0x0,-0xc(%ebp)
  104815:	eb 1c                	jmp    104833 <procdump+0xc1>
/u/a/b/abhijith/CS537/p3b/xv6-sp20/kernel/proc.c:440 (discriminator 4)
  104817:	8b 45 f4             	mov    -0xc(%ebp),%eax
  10481a:	8b 44 85 c4          	mov    -0x3c(%ebp,%eax,4),%eax
  10481e:	83 ec 08             	sub    $0x8,%esp
  104821:	50                   	push   %eax
  104822:	68 41 82 10 00       	push   $0x108241
  104827:	e8 c0 bb ff ff       	call   1003ec <cprintf>
  10482c:	83 c4 10             	add    $0x10,%esp
/u/a/b/abhijith/CS537/p3b/xv6-sp20/kernel/proc.c:439 (discriminator 4)
  10482f:	83 45 f4 01          	addl   $0x1,-0xc(%ebp)
/u/a/b/abhijith/CS537/p3b/xv6-sp20/kernel/proc.c:439 (discriminator 1)
  104833:	83 7d f4 09          	cmpl   $0x9,-0xc(%ebp)
  104837:	7f 0b                	jg     104844 <procdump+0xd2>
/u/a/b/abhijith/CS537/p3b/xv6-sp20/kernel/proc.c:439 (discriminator 3)
  104839:	8b 45 f4             	mov    -0xc(%ebp),%eax
  10483c:	8b 44 85 c4          	mov    -0x3c(%ebp,%eax,4),%eax
  104840:	85 c0                	test   %eax,%eax
  104842:	75 d3                	jne    104817 <procdump+0xa5>
/u/a/b/abhijith/CS537/p3b/xv6-sp20/kernel/proc.c:442
  104844:	83 ec 0c             	sub    $0xc,%esp
  104847:	68 45 82 10 00       	push   $0x108245
  10484c:	e8 9b bb ff ff       	call   1003ec <cprintf>
  104851:	83 c4 10             	add    $0x10,%esp
  104854:	eb 01                	jmp    104857 <procdump+0xe5>
/u/a/b/abhijith/CS537/p3b/xv6-sp20/kernel/proc.c:431
  104856:	90                   	nop
/u/a/b/abhijith/CS537/p3b/xv6-sp20/kernel/proc.c:429 (discriminator 2)
  104857:	83 45 f0 7c          	addl   $0x7c,-0x10(%ebp)
/u/a/b/abhijith/CS537/p3b/xv6-sp20/kernel/proc.c:429 (discriminator 1)
  10485b:	81 7d f0 b4 2c 11 00 	cmpl   $0x112cb4,-0x10(%ebp)
  104862:	0f 82 1c ff ff ff    	jb     104784 <procdump+0x12>
/u/a/b/abhijith/CS537/p3b/xv6-sp20/kernel/proc.c:444
  104868:	90                   	nop
  104869:	c9                   	leave  
  10486a:	c3                   	ret    

0010486b <readeflags>:
readeflags():
/u/a/b/abhijith/CS537/p3b/xv6-sp20/include/x86.h:89
  10486b:	55                   	push   %ebp
  10486c:	89 e5                	mov    %esp,%ebp
  10486e:	83 ec 10             	sub    $0x10,%esp
/u/a/b/abhijith/CS537/p3b/xv6-sp20/include/x86.h:91
  104871:	9c                   	pushf  
  104872:	58                   	pop    %eax
  104873:	89 45 fc             	mov    %eax,-0x4(%ebp)
/u/a/b/abhijith/CS537/p3b/xv6-sp20/include/x86.h:92
  104876:	8b 45 fc             	mov    -0x4(%ebp),%eax
/u/a/b/abhijith/CS537/p3b/xv6-sp20/include/x86.h:93
  104879:	c9                   	leave  
  10487a:	c3                   	ret    

0010487b <cli>:
cli():
/u/a/b/abhijith/CS537/p3b/xv6-sp20/include/x86.h:119
  10487b:	55                   	push   %ebp
  10487c:	89 e5                	mov    %esp,%ebp
/u/a/b/abhijith/CS537/p3b/xv6-sp20/include/x86.h:120
  10487e:	fa                   	cli    
/u/a/b/abhijith/CS537/p3b/xv6-sp20/include/x86.h:121
  10487f:	90                   	nop
  104880:	5d                   	pop    %ebp
  104881:	c3                   	ret    

00104882 <sti>:
sti():
/u/a/b/abhijith/CS537/p3b/xv6-sp20/include/x86.h:125
  104882:	55                   	push   %ebp
  104883:	89 e5                	mov    %esp,%ebp
/u/a/b/abhijith/CS537/p3b/xv6-sp20/include/x86.h:126
  104885:	fb                   	sti    
/u/a/b/abhijith/CS537/p3b/xv6-sp20/include/x86.h:127
  104886:	90                   	nop
  104887:	5d                   	pop    %ebp
  104888:	c3                   	ret    

00104889 <xchg>:
xchg():
/u/a/b/abhijith/CS537/p3b/xv6-sp20/include/x86.h:131
  104889:	55                   	push   %ebp
  10488a:	89 e5                	mov    %esp,%ebp
  10488c:	83 ec 10             	sub    $0x10,%esp
/u/a/b/abhijith/CS537/p3b/xv6-sp20/include/x86.h:135
  10488f:	8b 55 08             	mov    0x8(%ebp),%edx
  104892:	8b 45 0c             	mov    0xc(%ebp),%eax
  104895:	8b 4d 08             	mov    0x8(%ebp),%ecx
  104898:	f0 87 02             	lock xchg %eax,(%edx)
  10489b:	89 45 fc             	mov    %eax,-0x4(%ebp)
/u/a/b/abhijith/CS537/p3b/xv6-sp20/include/x86.h:139
  10489e:	8b 45 fc             	mov    -0x4(%ebp),%eax
/u/a/b/abhijith/CS537/p3b/xv6-sp20/include/x86.h:140
  1048a1:	c9                   	leave  
  1048a2:	c3                   	ret    

001048a3 <initlock>:
initlock():
/u/a/b/abhijith/CS537/p3b/xv6-sp20/kernel/spinlock.c:13
  1048a3:	55                   	push   %ebp
  1048a4:	89 e5                	mov    %esp,%ebp
/u/a/b/abhijith/CS537/p3b/xv6-sp20/kernel/spinlock.c:14
  1048a6:	8b 45 08             	mov    0x8(%ebp),%eax
  1048a9:	8b 55 0c             	mov    0xc(%ebp),%edx
  1048ac:	89 50 04             	mov    %edx,0x4(%eax)
/u/a/b/abhijith/CS537/p3b/xv6-sp20/kernel/spinlock.c:15
  1048af:	8b 45 08             	mov    0x8(%ebp),%eax
  1048b2:	c7 00 00 00 00 00    	movl   $0x0,(%eax)
/u/a/b/abhijith/CS537/p3b/xv6-sp20/kernel/spinlock.c:16
  1048b8:	8b 45 08             	mov    0x8(%ebp),%eax
  1048bb:	c7 40 08 00 00 00 00 	movl   $0x0,0x8(%eax)
/u/a/b/abhijith/CS537/p3b/xv6-sp20/kernel/spinlock.c:17
  1048c2:	90                   	nop
  1048c3:	5d                   	pop    %ebp
  1048c4:	c3                   	ret    

001048c5 <acquire>:
acquire():
/u/a/b/abhijith/CS537/p3b/xv6-sp20/kernel/spinlock.c:25
  1048c5:	55                   	push   %ebp
  1048c6:	89 e5                	mov    %esp,%ebp
  1048c8:	83 ec 08             	sub    $0x8,%esp
/u/a/b/abhijith/CS537/p3b/xv6-sp20/kernel/spinlock.c:26
  1048cb:	e8 52 01 00 00       	call   104a22 <pushcli>
/u/a/b/abhijith/CS537/p3b/xv6-sp20/kernel/spinlock.c:27
  1048d0:	8b 45 08             	mov    0x8(%ebp),%eax
  1048d3:	83 ec 0c             	sub    $0xc,%esp
  1048d6:	50                   	push   %eax
  1048d7:	e8 1c 01 00 00       	call   1049f8 <holding>
  1048dc:	83 c4 10             	add    $0x10,%esp
  1048df:	85 c0                	test   %eax,%eax
  1048e1:	74 0d                	je     1048f0 <acquire+0x2b>
/u/a/b/abhijith/CS537/p3b/xv6-sp20/kernel/spinlock.c:28
  1048e3:	83 ec 0c             	sub    $0xc,%esp
  1048e6:	68 71 82 10 00       	push   $0x108271
  1048eb:	e8 88 bc ff ff       	call   100578 <panic>
/u/a/b/abhijith/CS537/p3b/xv6-sp20/kernel/spinlock.c:33
  1048f0:	90                   	nop
/u/a/b/abhijith/CS537/p3b/xv6-sp20/kernel/spinlock.c:33 (discriminator 1)
  1048f1:	8b 45 08             	mov    0x8(%ebp),%eax
  1048f4:	83 ec 08             	sub    $0x8,%esp
  1048f7:	6a 01                	push   $0x1
  1048f9:	50                   	push   %eax
  1048fa:	e8 8a ff ff ff       	call   104889 <xchg>
  1048ff:	83 c4 10             	add    $0x10,%esp
  104902:	85 c0                	test   %eax,%eax
  104904:	75 eb                	jne    1048f1 <acquire+0x2c>
/u/a/b/abhijith/CS537/p3b/xv6-sp20/kernel/spinlock.c:37
  104906:	8b 45 08             	mov    0x8(%ebp),%eax
  104909:	65 8b 15 00 00 00 00 	mov    %gs:0x0,%edx
  104910:	89 50 08             	mov    %edx,0x8(%eax)
/u/a/b/abhijith/CS537/p3b/xv6-sp20/kernel/spinlock.c:38
  104913:	8b 45 08             	mov    0x8(%ebp),%eax
  104916:	83 c0 0c             	add    $0xc,%eax
  104919:	83 ec 08             	sub    $0x8,%esp
  10491c:	50                   	push   %eax
  10491d:	8d 45 08             	lea    0x8(%ebp),%eax
  104920:	50                   	push   %eax
  104921:	e8 58 00 00 00       	call   10497e <getcallerpcs>
  104926:	83 c4 10             	add    $0x10,%esp
/u/a/b/abhijith/CS537/p3b/xv6-sp20/kernel/spinlock.c:39
  104929:	90                   	nop
  10492a:	c9                   	leave  
  10492b:	c3                   	ret    

0010492c <release>:
release():
/u/a/b/abhijith/CS537/p3b/xv6-sp20/kernel/spinlock.c:44
  10492c:	55                   	push   %ebp
  10492d:	89 e5                	mov    %esp,%ebp
  10492f:	83 ec 08             	sub    $0x8,%esp
/u/a/b/abhijith/CS537/p3b/xv6-sp20/kernel/spinlock.c:45
  104932:	83 ec 0c             	sub    $0xc,%esp
  104935:	ff 75 08             	pushl  0x8(%ebp)
  104938:	e8 bb 00 00 00       	call   1049f8 <holding>
  10493d:	83 c4 10             	add    $0x10,%esp
  104940:	85 c0                	test   %eax,%eax
  104942:	75 0d                	jne    104951 <release+0x25>
/u/a/b/abhijith/CS537/p3b/xv6-sp20/kernel/spinlock.c:46
  104944:	83 ec 0c             	sub    $0xc,%esp
  104947:	68 79 82 10 00       	push   $0x108279
  10494c:	e8 27 bc ff ff       	call   100578 <panic>
/u/a/b/abhijith/CS537/p3b/xv6-sp20/kernel/spinlock.c:48
  104951:	8b 45 08             	mov    0x8(%ebp),%eax
  104954:	c7 40 0c 00 00 00 00 	movl   $0x0,0xc(%eax)
/u/a/b/abhijith/CS537/p3b/xv6-sp20/kernel/spinlock.c:49
  10495b:	8b 45 08             	mov    0x8(%ebp),%eax
  10495e:	c7 40 08 00 00 00 00 	movl   $0x0,0x8(%eax)
/u/a/b/abhijith/CS537/p3b/xv6-sp20/kernel/spinlock.c:60
  104965:	8b 45 08             	mov    0x8(%ebp),%eax
  104968:	83 ec 08             	sub    $0x8,%esp
  10496b:	6a 00                	push   $0x0
  10496d:	50                   	push   %eax
  10496e:	e8 16 ff ff ff       	call   104889 <xchg>
  104973:	83 c4 10             	add    $0x10,%esp
/u/a/b/abhijith/CS537/p3b/xv6-sp20/kernel/spinlock.c:62
  104976:	e8 ec 00 00 00       	call   104a67 <popcli>
/u/a/b/abhijith/CS537/p3b/xv6-sp20/kernel/spinlock.c:63
  10497b:	90                   	nop
  10497c:	c9                   	leave  
  10497d:	c3                   	ret    

0010497e <getcallerpcs>:
getcallerpcs():
/u/a/b/abhijith/CS537/p3b/xv6-sp20/kernel/spinlock.c:68
  10497e:	55                   	push   %ebp
  10497f:	89 e5                	mov    %esp,%ebp
  104981:	83 ec 10             	sub    $0x10,%esp
/u/a/b/abhijith/CS537/p3b/xv6-sp20/kernel/spinlock.c:72
  104984:	8b 45 08             	mov    0x8(%ebp),%eax
  104987:	83 e8 08             	sub    $0x8,%eax
  10498a:	89 45 fc             	mov    %eax,-0x4(%ebp)
/u/a/b/abhijith/CS537/p3b/xv6-sp20/kernel/spinlock.c:73
  10498d:	c7 45 f8 00 00 00 00 	movl   $0x0,-0x8(%ebp)
  104994:	eb 38                	jmp    1049ce <getcallerpcs+0x50>
/u/a/b/abhijith/CS537/p3b/xv6-sp20/kernel/spinlock.c:74
  104996:	83 7d fc 00          	cmpl   $0x0,-0x4(%ebp)
  10499a:	74 53                	je     1049ef <getcallerpcs+0x71>
/u/a/b/abhijith/CS537/p3b/xv6-sp20/kernel/spinlock.c:74 (discriminator 1)
  10499c:	81 7d fc ff ff 0f 00 	cmpl   $0xfffff,-0x4(%ebp)
  1049a3:	76 4a                	jbe    1049ef <getcallerpcs+0x71>
/u/a/b/abhijith/CS537/p3b/xv6-sp20/kernel/spinlock.c:74 (discriminator 2)
  1049a5:	83 7d fc ff          	cmpl   $0xffffffff,-0x4(%ebp)
  1049a9:	74 44                	je     1049ef <getcallerpcs+0x71>
/u/a/b/abhijith/CS537/p3b/xv6-sp20/kernel/spinlock.c:76 (discriminator 2)
  1049ab:	8b 45 f8             	mov    -0x8(%ebp),%eax
  1049ae:	8d 14 85 00 00 00 00 	lea    0x0(,%eax,4),%edx
  1049b5:	8b 45 0c             	mov    0xc(%ebp),%eax
  1049b8:	01 c2                	add    %eax,%edx
  1049ba:	8b 45 fc             	mov    -0x4(%ebp),%eax
  1049bd:	8b 40 04             	mov    0x4(%eax),%eax
  1049c0:	89 02                	mov    %eax,(%edx)
/u/a/b/abhijith/CS537/p3b/xv6-sp20/kernel/spinlock.c:77 (discriminator 2)
  1049c2:	8b 45 fc             	mov    -0x4(%ebp),%eax
  1049c5:	8b 00                	mov    (%eax),%eax
  1049c7:	89 45 fc             	mov    %eax,-0x4(%ebp)
/u/a/b/abhijith/CS537/p3b/xv6-sp20/kernel/spinlock.c:73 (discriminator 2)
  1049ca:	83 45 f8 01          	addl   $0x1,-0x8(%ebp)
/u/a/b/abhijith/CS537/p3b/xv6-sp20/kernel/spinlock.c:73 (discriminator 1)
  1049ce:	83 7d f8 09          	cmpl   $0x9,-0x8(%ebp)
  1049d2:	7e c2                	jle    104996 <getcallerpcs+0x18>
/u/a/b/abhijith/CS537/p3b/xv6-sp20/kernel/spinlock.c:79
  1049d4:	eb 19                	jmp    1049ef <getcallerpcs+0x71>
/u/a/b/abhijith/CS537/p3b/xv6-sp20/kernel/spinlock.c:80 (discriminator 2)
  1049d6:	8b 45 f8             	mov    -0x8(%ebp),%eax
  1049d9:	8d 14 85 00 00 00 00 	lea    0x0(,%eax,4),%edx
  1049e0:	8b 45 0c             	mov    0xc(%ebp),%eax
  1049e3:	01 d0                	add    %edx,%eax
  1049e5:	c7 00 00 00 00 00    	movl   $0x0,(%eax)
/u/a/b/abhijith/CS537/p3b/xv6-sp20/kernel/spinlock.c:79 (discriminator 2)
  1049eb:	83 45 f8 01          	addl   $0x1,-0x8(%ebp)
/u/a/b/abhijith/CS537/p3b/xv6-sp20/kernel/spinlock.c:79 (discriminator 1)
  1049ef:	83 7d f8 09          	cmpl   $0x9,-0x8(%ebp)
  1049f3:	7e e1                	jle    1049d6 <getcallerpcs+0x58>
/u/a/b/abhijith/CS537/p3b/xv6-sp20/kernel/spinlock.c:81
  1049f5:	90                   	nop
  1049f6:	c9                   	leave  
  1049f7:	c3                   	ret    

001049f8 <holding>:
holding():
/u/a/b/abhijith/CS537/p3b/xv6-sp20/kernel/spinlock.c:86
  1049f8:	55                   	push   %ebp
  1049f9:	89 e5                	mov    %esp,%ebp
/u/a/b/abhijith/CS537/p3b/xv6-sp20/kernel/spinlock.c:87
  1049fb:	8b 45 08             	mov    0x8(%ebp),%eax
  1049fe:	8b 00                	mov    (%eax),%eax
  104a00:	85 c0                	test   %eax,%eax
  104a02:	74 17                	je     104a1b <holding+0x23>
/u/a/b/abhijith/CS537/p3b/xv6-sp20/kernel/spinlock.c:87 (discriminator 1)
  104a04:	8b 45 08             	mov    0x8(%ebp),%eax
  104a07:	8b 50 08             	mov    0x8(%eax),%edx
  104a0a:	65 a1 00 00 00 00    	mov    %gs:0x0,%eax
  104a10:	39 c2                	cmp    %eax,%edx
  104a12:	75 07                	jne    104a1b <holding+0x23>
/u/a/b/abhijith/CS537/p3b/xv6-sp20/kernel/spinlock.c:87 (discriminator 3)
  104a14:	b8 01 00 00 00       	mov    $0x1,%eax
  104a19:	eb 05                	jmp    104a20 <holding+0x28>
/u/a/b/abhijith/CS537/p3b/xv6-sp20/kernel/spinlock.c:87 (discriminator 4)
  104a1b:	b8 00 00 00 00       	mov    $0x0,%eax
/u/a/b/abhijith/CS537/p3b/xv6-sp20/kernel/spinlock.c:88 (discriminator 7)
  104a20:	5d                   	pop    %ebp
  104a21:	c3                   	ret    

00104a22 <pushcli>:
pushcli():
/u/a/b/abhijith/CS537/p3b/xv6-sp20/kernel/spinlock.c:97
  104a22:	55                   	push   %ebp
  104a23:	89 e5                	mov    %esp,%ebp
  104a25:	83 ec 10             	sub    $0x10,%esp
/u/a/b/abhijith/CS537/p3b/xv6-sp20/kernel/spinlock.c:100
  104a28:	e8 3e fe ff ff       	call   10486b <readeflags>
  104a2d:	89 45 fc             	mov    %eax,-0x4(%ebp)
/u/a/b/abhijith/CS537/p3b/xv6-sp20/kernel/spinlock.c:101
  104a30:	e8 46 fe ff ff       	call   10487b <cli>
/u/a/b/abhijith/CS537/p3b/xv6-sp20/kernel/spinlock.c:102
  104a35:	65 8b 15 00 00 00 00 	mov    %gs:0x0,%edx
  104a3c:	8b 82 ac 00 00 00    	mov    0xac(%edx),%eax
  104a42:	8d 48 01             	lea    0x1(%eax),%ecx
  104a45:	89 8a ac 00 00 00    	mov    %ecx,0xac(%edx)
  104a4b:	85 c0                	test   %eax,%eax
  104a4d:	75 15                	jne    104a64 <pushcli+0x42>
/u/a/b/abhijith/CS537/p3b/xv6-sp20/kernel/spinlock.c:103
  104a4f:	65 a1 00 00 00 00    	mov    %gs:0x0,%eax
  104a55:	8b 55 fc             	mov    -0x4(%ebp),%edx
  104a58:	81 e2 00 02 00 00    	and    $0x200,%edx
  104a5e:	89 90 b0 00 00 00    	mov    %edx,0xb0(%eax)
/u/a/b/abhijith/CS537/p3b/xv6-sp20/kernel/spinlock.c:104
  104a64:	90                   	nop
  104a65:	c9                   	leave  
  104a66:	c3                   	ret    

00104a67 <popcli>:
popcli():
/u/a/b/abhijith/CS537/p3b/xv6-sp20/kernel/spinlock.c:108
  104a67:	55                   	push   %ebp
  104a68:	89 e5                	mov    %esp,%ebp
  104a6a:	83 ec 08             	sub    $0x8,%esp
/u/a/b/abhijith/CS537/p3b/xv6-sp20/kernel/spinlock.c:109
  104a6d:	e8 f9 fd ff ff       	call   10486b <readeflags>
  104a72:	25 00 02 00 00       	and    $0x200,%eax
  104a77:	85 c0                	test   %eax,%eax
  104a79:	74 0d                	je     104a88 <popcli+0x21>
/u/a/b/abhijith/CS537/p3b/xv6-sp20/kernel/spinlock.c:110
  104a7b:	83 ec 0c             	sub    $0xc,%esp
  104a7e:	68 81 82 10 00       	push   $0x108281
  104a83:	e8 f0 ba ff ff       	call   100578 <panic>
/u/a/b/abhijith/CS537/p3b/xv6-sp20/kernel/spinlock.c:111
  104a88:	65 a1 00 00 00 00    	mov    %gs:0x0,%eax
  104a8e:	8b 90 ac 00 00 00    	mov    0xac(%eax),%edx
  104a94:	83 ea 01             	sub    $0x1,%edx
  104a97:	89 90 ac 00 00 00    	mov    %edx,0xac(%eax)
  104a9d:	8b 80 ac 00 00 00    	mov    0xac(%eax),%eax
  104aa3:	85 c0                	test   %eax,%eax
  104aa5:	79 0d                	jns    104ab4 <popcli+0x4d>
/u/a/b/abhijith/CS537/p3b/xv6-sp20/kernel/spinlock.c:112
  104aa7:	83 ec 0c             	sub    $0xc,%esp
  104aaa:	68 98 82 10 00       	push   $0x108298
  104aaf:	e8 c4 ba ff ff       	call   100578 <panic>
/u/a/b/abhijith/CS537/p3b/xv6-sp20/kernel/spinlock.c:113
  104ab4:	65 a1 00 00 00 00    	mov    %gs:0x0,%eax
  104aba:	8b 80 ac 00 00 00    	mov    0xac(%eax),%eax
  104ac0:	85 c0                	test   %eax,%eax
  104ac2:	75 15                	jne    104ad9 <popcli+0x72>
/u/a/b/abhijith/CS537/p3b/xv6-sp20/kernel/spinlock.c:113 (discriminator 1)
  104ac4:	65 a1 00 00 00 00    	mov    %gs:0x0,%eax
  104aca:	8b 80 b0 00 00 00    	mov    0xb0(%eax),%eax
  104ad0:	85 c0                	test   %eax,%eax
  104ad2:	74 05                	je     104ad9 <popcli+0x72>
/u/a/b/abhijith/CS537/p3b/xv6-sp20/kernel/spinlock.c:114
  104ad4:	e8 a9 fd ff ff       	call   104882 <sti>
/u/a/b/abhijith/CS537/p3b/xv6-sp20/kernel/spinlock.c:115
  104ad9:	90                   	nop
  104ada:	c9                   	leave  
  104adb:	c3                   	ret    

00104adc <stosb>:
stosb():
/u/a/b/abhijith/CS537/p3b/xv6-sp20/include/x86.h:46
  104adc:	55                   	push   %ebp
  104add:	89 e5                	mov    %esp,%ebp
  104adf:	57                   	push   %edi
  104ae0:	53                   	push   %ebx
/u/a/b/abhijith/CS537/p3b/xv6-sp20/include/x86.h:47
  104ae1:	8b 4d 08             	mov    0x8(%ebp),%ecx
  104ae4:	8b 55 10             	mov    0x10(%ebp),%edx
  104ae7:	8b 45 0c             	mov    0xc(%ebp),%eax
  104aea:	89 cb                	mov    %ecx,%ebx
  104aec:	89 df                	mov    %ebx,%edi
  104aee:	89 d1                	mov    %edx,%ecx
  104af0:	fc                   	cld    
  104af1:	f3 aa                	rep stos %al,%es:(%edi)
  104af3:	89 ca                	mov    %ecx,%edx
  104af5:	89 fb                	mov    %edi,%ebx
  104af7:	89 5d 08             	mov    %ebx,0x8(%ebp)
  104afa:	89 55 10             	mov    %edx,0x10(%ebp)
/u/a/b/abhijith/CS537/p3b/xv6-sp20/include/x86.h:51
  104afd:	90                   	nop
  104afe:	5b                   	pop    %ebx
  104aff:	5f                   	pop    %edi
  104b00:	5d                   	pop    %ebp
  104b01:	c3                   	ret    

00104b02 <memset>:
memset():
/u/a/b/abhijith/CS537/p3b/xv6-sp20/kernel/string.c:6
  104b02:	55                   	push   %ebp
  104b03:	89 e5                	mov    %esp,%ebp
/u/a/b/abhijith/CS537/p3b/xv6-sp20/kernel/string.c:7
  104b05:	8b 45 10             	mov    0x10(%ebp),%eax
  104b08:	50                   	push   %eax
  104b09:	ff 75 0c             	pushl  0xc(%ebp)
  104b0c:	ff 75 08             	pushl  0x8(%ebp)
  104b0f:	e8 c8 ff ff ff       	call   104adc <stosb>
  104b14:	83 c4 0c             	add    $0xc,%esp
/u/a/b/abhijith/CS537/p3b/xv6-sp20/kernel/string.c:8
  104b17:	8b 45 08             	mov    0x8(%ebp),%eax
/u/a/b/abhijith/CS537/p3b/xv6-sp20/kernel/string.c:9
  104b1a:	c9                   	leave  
  104b1b:	c3                   	ret    

00104b1c <memcmp>:
memcmp():
/u/a/b/abhijith/CS537/p3b/xv6-sp20/kernel/string.c:13
  104b1c:	55                   	push   %ebp
  104b1d:	89 e5                	mov    %esp,%ebp
  104b1f:	83 ec 10             	sub    $0x10,%esp
/u/a/b/abhijith/CS537/p3b/xv6-sp20/kernel/string.c:16
  104b22:	8b 45 08             	mov    0x8(%ebp),%eax
  104b25:	89 45 fc             	mov    %eax,-0x4(%ebp)
/u/a/b/abhijith/CS537/p3b/xv6-sp20/kernel/string.c:17
  104b28:	8b 45 0c             	mov    0xc(%ebp),%eax
  104b2b:	89 45 f8             	mov    %eax,-0x8(%ebp)
/u/a/b/abhijith/CS537/p3b/xv6-sp20/kernel/string.c:18
  104b2e:	eb 30                	jmp    104b60 <memcmp+0x44>
/u/a/b/abhijith/CS537/p3b/xv6-sp20/kernel/string.c:19
  104b30:	8b 45 fc             	mov    -0x4(%ebp),%eax
  104b33:	0f b6 10             	movzbl (%eax),%edx
  104b36:	8b 45 f8             	mov    -0x8(%ebp),%eax
  104b39:	0f b6 00             	movzbl (%eax),%eax
  104b3c:	38 c2                	cmp    %al,%dl
  104b3e:	74 18                	je     104b58 <memcmp+0x3c>
/u/a/b/abhijith/CS537/p3b/xv6-sp20/kernel/string.c:20
  104b40:	8b 45 fc             	mov    -0x4(%ebp),%eax
  104b43:	0f b6 00             	movzbl (%eax),%eax
  104b46:	0f b6 d0             	movzbl %al,%edx
  104b49:	8b 45 f8             	mov    -0x8(%ebp),%eax
  104b4c:	0f b6 00             	movzbl (%eax),%eax
  104b4f:	0f b6 c0             	movzbl %al,%eax
  104b52:	29 c2                	sub    %eax,%edx
  104b54:	89 d0                	mov    %edx,%eax
  104b56:	eb 1a                	jmp    104b72 <memcmp+0x56>
/u/a/b/abhijith/CS537/p3b/xv6-sp20/kernel/string.c:21
  104b58:	83 45 fc 01          	addl   $0x1,-0x4(%ebp)
  104b5c:	83 45 f8 01          	addl   $0x1,-0x8(%ebp)
/u/a/b/abhijith/CS537/p3b/xv6-sp20/kernel/string.c:18
  104b60:	8b 45 10             	mov    0x10(%ebp),%eax
  104b63:	8d 50 ff             	lea    -0x1(%eax),%edx
  104b66:	89 55 10             	mov    %edx,0x10(%ebp)
  104b69:	85 c0                	test   %eax,%eax
  104b6b:	75 c3                	jne    104b30 <memcmp+0x14>
/u/a/b/abhijith/CS537/p3b/xv6-sp20/kernel/string.c:24
  104b6d:	b8 00 00 00 00       	mov    $0x0,%eax
/u/a/b/abhijith/CS537/p3b/xv6-sp20/kernel/string.c:25
  104b72:	c9                   	leave  
  104b73:	c3                   	ret    

00104b74 <memmove>:
memmove():
/u/a/b/abhijith/CS537/p3b/xv6-sp20/kernel/string.c:29
  104b74:	55                   	push   %ebp
  104b75:	89 e5                	mov    %esp,%ebp
  104b77:	83 ec 10             	sub    $0x10,%esp
/u/a/b/abhijith/CS537/p3b/xv6-sp20/kernel/string.c:33
  104b7a:	8b 45 0c             	mov    0xc(%ebp),%eax
  104b7d:	89 45 fc             	mov    %eax,-0x4(%ebp)
/u/a/b/abhijith/CS537/p3b/xv6-sp20/kernel/string.c:34
  104b80:	8b 45 08             	mov    0x8(%ebp),%eax
  104b83:	89 45 f8             	mov    %eax,-0x8(%ebp)
/u/a/b/abhijith/CS537/p3b/xv6-sp20/kernel/string.c:35
  104b86:	8b 45 fc             	mov    -0x4(%ebp),%eax
  104b89:	3b 45 f8             	cmp    -0x8(%ebp),%eax
  104b8c:	73 54                	jae    104be2 <memmove+0x6e>
/u/a/b/abhijith/CS537/p3b/xv6-sp20/kernel/string.c:35 (discriminator 1)
  104b8e:	8b 55 fc             	mov    -0x4(%ebp),%edx
  104b91:	8b 45 10             	mov    0x10(%ebp),%eax
  104b94:	01 d0                	add    %edx,%eax
  104b96:	39 45 f8             	cmp    %eax,-0x8(%ebp)
  104b99:	73 47                	jae    104be2 <memmove+0x6e>
/u/a/b/abhijith/CS537/p3b/xv6-sp20/kernel/string.c:36
  104b9b:	8b 45 10             	mov    0x10(%ebp),%eax
  104b9e:	01 45 fc             	add    %eax,-0x4(%ebp)
/u/a/b/abhijith/CS537/p3b/xv6-sp20/kernel/string.c:37
  104ba1:	8b 45 10             	mov    0x10(%ebp),%eax
  104ba4:	01 45 f8             	add    %eax,-0x8(%ebp)
/u/a/b/abhijith/CS537/p3b/xv6-sp20/kernel/string.c:38
  104ba7:	eb 13                	jmp    104bbc <memmove+0x48>
/u/a/b/abhijith/CS537/p3b/xv6-sp20/kernel/string.c:39
  104ba9:	83 6d fc 01          	subl   $0x1,-0x4(%ebp)
  104bad:	83 6d f8 01          	subl   $0x1,-0x8(%ebp)
  104bb1:	8b 45 fc             	mov    -0x4(%ebp),%eax
  104bb4:	0f b6 10             	movzbl (%eax),%edx
  104bb7:	8b 45 f8             	mov    -0x8(%ebp),%eax
  104bba:	88 10                	mov    %dl,(%eax)
/u/a/b/abhijith/CS537/p3b/xv6-sp20/kernel/string.c:38
  104bbc:	8b 45 10             	mov    0x10(%ebp),%eax
  104bbf:	8d 50 ff             	lea    -0x1(%eax),%edx
  104bc2:	89 55 10             	mov    %edx,0x10(%ebp)
  104bc5:	85 c0                	test   %eax,%eax
  104bc7:	75 e0                	jne    104ba9 <memmove+0x35>
/u/a/b/abhijith/CS537/p3b/xv6-sp20/kernel/string.c:35
  104bc9:	eb 24                	jmp    104bef <memmove+0x7b>
/u/a/b/abhijith/CS537/p3b/xv6-sp20/kernel/string.c:42
  104bcb:	8b 55 fc             	mov    -0x4(%ebp),%edx
  104bce:	8d 42 01             	lea    0x1(%edx),%eax
  104bd1:	89 45 fc             	mov    %eax,-0x4(%ebp)
  104bd4:	8b 45 f8             	mov    -0x8(%ebp),%eax
  104bd7:	8d 48 01             	lea    0x1(%eax),%ecx
  104bda:	89 4d f8             	mov    %ecx,-0x8(%ebp)
  104bdd:	0f b6 12             	movzbl (%edx),%edx
  104be0:	88 10                	mov    %dl,(%eax)
/u/a/b/abhijith/CS537/p3b/xv6-sp20/kernel/string.c:41
  104be2:	8b 45 10             	mov    0x10(%ebp),%eax
  104be5:	8d 50 ff             	lea    -0x1(%eax),%edx
  104be8:	89 55 10             	mov    %edx,0x10(%ebp)
  104beb:	85 c0                	test   %eax,%eax
  104bed:	75 dc                	jne    104bcb <memmove+0x57>
/u/a/b/abhijith/CS537/p3b/xv6-sp20/kernel/string.c:44
  104bef:	8b 45 08             	mov    0x8(%ebp),%eax
/u/a/b/abhijith/CS537/p3b/xv6-sp20/kernel/string.c:45
  104bf2:	c9                   	leave  
  104bf3:	c3                   	ret    

00104bf4 <memcpy>:
memcpy():
/u/a/b/abhijith/CS537/p3b/xv6-sp20/kernel/string.c:50
  104bf4:	55                   	push   %ebp
  104bf5:	89 e5                	mov    %esp,%ebp
/u/a/b/abhijith/CS537/p3b/xv6-sp20/kernel/string.c:51
  104bf7:	ff 75 10             	pushl  0x10(%ebp)
  104bfa:	ff 75 0c             	pushl  0xc(%ebp)
  104bfd:	ff 75 08             	pushl  0x8(%ebp)
  104c00:	e8 6f ff ff ff       	call   104b74 <memmove>
  104c05:	83 c4 0c             	add    $0xc,%esp
/u/a/b/abhijith/CS537/p3b/xv6-sp20/kernel/string.c:52
  104c08:	c9                   	leave  
  104c09:	c3                   	ret    

00104c0a <strncmp>:
strncmp():
/u/a/b/abhijith/CS537/p3b/xv6-sp20/kernel/string.c:56
  104c0a:	55                   	push   %ebp
  104c0b:	89 e5                	mov    %esp,%ebp
/u/a/b/abhijith/CS537/p3b/xv6-sp20/kernel/string.c:57
  104c0d:	eb 0c                	jmp    104c1b <strncmp+0x11>
/u/a/b/abhijith/CS537/p3b/xv6-sp20/kernel/string.c:58
  104c0f:	83 6d 10 01          	subl   $0x1,0x10(%ebp)
  104c13:	83 45 08 01          	addl   $0x1,0x8(%ebp)
  104c17:	83 45 0c 01          	addl   $0x1,0xc(%ebp)
/u/a/b/abhijith/CS537/p3b/xv6-sp20/kernel/string.c:57
  104c1b:	83 7d 10 00          	cmpl   $0x0,0x10(%ebp)
  104c1f:	74 1a                	je     104c3b <strncmp+0x31>
/u/a/b/abhijith/CS537/p3b/xv6-sp20/kernel/string.c:57 (discriminator 1)
  104c21:	8b 45 08             	mov    0x8(%ebp),%eax
  104c24:	0f b6 00             	movzbl (%eax),%eax
  104c27:	84 c0                	test   %al,%al
  104c29:	74 10                	je     104c3b <strncmp+0x31>
/u/a/b/abhijith/CS537/p3b/xv6-sp20/kernel/string.c:57 (discriminator 2)
  104c2b:	8b 45 08             	mov    0x8(%ebp),%eax
  104c2e:	0f b6 10             	movzbl (%eax),%edx
  104c31:	8b 45 0c             	mov    0xc(%ebp),%eax
  104c34:	0f b6 00             	movzbl (%eax),%eax
  104c37:	38 c2                	cmp    %al,%dl
  104c39:	74 d4                	je     104c0f <strncmp+0x5>
/u/a/b/abhijith/CS537/p3b/xv6-sp20/kernel/string.c:59
  104c3b:	83 7d 10 00          	cmpl   $0x0,0x10(%ebp)
  104c3f:	75 07                	jne    104c48 <strncmp+0x3e>
/u/a/b/abhijith/CS537/p3b/xv6-sp20/kernel/string.c:60
  104c41:	b8 00 00 00 00       	mov    $0x0,%eax
  104c46:	eb 16                	jmp    104c5e <strncmp+0x54>
/u/a/b/abhijith/CS537/p3b/xv6-sp20/kernel/string.c:61
  104c48:	8b 45 08             	mov    0x8(%ebp),%eax
  104c4b:	0f b6 00             	movzbl (%eax),%eax
  104c4e:	0f b6 d0             	movzbl %al,%edx
  104c51:	8b 45 0c             	mov    0xc(%ebp),%eax
  104c54:	0f b6 00             	movzbl (%eax),%eax
  104c57:	0f b6 c0             	movzbl %al,%eax
  104c5a:	29 c2                	sub    %eax,%edx
  104c5c:	89 d0                	mov    %edx,%eax
/u/a/b/abhijith/CS537/p3b/xv6-sp20/kernel/string.c:62
  104c5e:	5d                   	pop    %ebp
  104c5f:	c3                   	ret    

00104c60 <strncpy>:
strncpy():
/u/a/b/abhijith/CS537/p3b/xv6-sp20/kernel/string.c:66
  104c60:	55                   	push   %ebp
  104c61:	89 e5                	mov    %esp,%ebp
  104c63:	83 ec 10             	sub    $0x10,%esp
/u/a/b/abhijith/CS537/p3b/xv6-sp20/kernel/string.c:69
  104c66:	8b 45 08             	mov    0x8(%ebp),%eax
  104c69:	89 45 fc             	mov    %eax,-0x4(%ebp)
/u/a/b/abhijith/CS537/p3b/xv6-sp20/kernel/string.c:70
  104c6c:	90                   	nop
/u/a/b/abhijith/CS537/p3b/xv6-sp20/kernel/string.c:70 (discriminator 2)
  104c6d:	8b 45 10             	mov    0x10(%ebp),%eax
  104c70:	8d 50 ff             	lea    -0x1(%eax),%edx
  104c73:	89 55 10             	mov    %edx,0x10(%ebp)
  104c76:	85 c0                	test   %eax,%eax
  104c78:	7e 2c                	jle    104ca6 <strncpy+0x46>
/u/a/b/abhijith/CS537/p3b/xv6-sp20/kernel/string.c:70 (discriminator 1)
  104c7a:	8b 55 0c             	mov    0xc(%ebp),%edx
  104c7d:	8d 42 01             	lea    0x1(%edx),%eax
  104c80:	89 45 0c             	mov    %eax,0xc(%ebp)
  104c83:	8b 45 08             	mov    0x8(%ebp),%eax
  104c86:	8d 48 01             	lea    0x1(%eax),%ecx
  104c89:	89 4d 08             	mov    %ecx,0x8(%ebp)
  104c8c:	0f b6 12             	movzbl (%edx),%edx
  104c8f:	88 10                	mov    %dl,(%eax)
  104c91:	0f b6 00             	movzbl (%eax),%eax
  104c94:	84 c0                	test   %al,%al
  104c96:	75 d5                	jne    104c6d <strncpy+0xd>
/u/a/b/abhijith/CS537/p3b/xv6-sp20/kernel/string.c:72
  104c98:	eb 0c                	jmp    104ca6 <strncpy+0x46>
/u/a/b/abhijith/CS537/p3b/xv6-sp20/kernel/string.c:73
  104c9a:	8b 45 08             	mov    0x8(%ebp),%eax
  104c9d:	8d 50 01             	lea    0x1(%eax),%edx
  104ca0:	89 55 08             	mov    %edx,0x8(%ebp)
  104ca3:	c6 00 00             	movb   $0x0,(%eax)
/u/a/b/abhijith/CS537/p3b/xv6-sp20/kernel/string.c:72
  104ca6:	8b 45 10             	mov    0x10(%ebp),%eax
  104ca9:	8d 50 ff             	lea    -0x1(%eax),%edx
  104cac:	89 55 10             	mov    %edx,0x10(%ebp)
  104caf:	85 c0                	test   %eax,%eax
  104cb1:	7f e7                	jg     104c9a <strncpy+0x3a>
/u/a/b/abhijith/CS537/p3b/xv6-sp20/kernel/string.c:74
  104cb3:	8b 45 fc             	mov    -0x4(%ebp),%eax
/u/a/b/abhijith/CS537/p3b/xv6-sp20/kernel/string.c:75
  104cb6:	c9                   	leave  
  104cb7:	c3                   	ret    

00104cb8 <safestrcpy>:
safestrcpy():
/u/a/b/abhijith/CS537/p3b/xv6-sp20/kernel/string.c:80
  104cb8:	55                   	push   %ebp
  104cb9:	89 e5                	mov    %esp,%ebp
  104cbb:	83 ec 10             	sub    $0x10,%esp
/u/a/b/abhijith/CS537/p3b/xv6-sp20/kernel/string.c:83
  104cbe:	8b 45 08             	mov    0x8(%ebp),%eax
  104cc1:	89 45 fc             	mov    %eax,-0x4(%ebp)
/u/a/b/abhijith/CS537/p3b/xv6-sp20/kernel/string.c:84
  104cc4:	83 7d 10 00          	cmpl   $0x0,0x10(%ebp)
  104cc8:	7f 05                	jg     104ccf <safestrcpy+0x17>
/u/a/b/abhijith/CS537/p3b/xv6-sp20/kernel/string.c:85
  104cca:	8b 45 fc             	mov    -0x4(%ebp),%eax
  104ccd:	eb 31                	jmp    104d00 <safestrcpy+0x48>
/u/a/b/abhijith/CS537/p3b/xv6-sp20/kernel/string.c:86 (discriminator 2)
  104ccf:	83 6d 10 01          	subl   $0x1,0x10(%ebp)
  104cd3:	83 7d 10 00          	cmpl   $0x0,0x10(%ebp)
  104cd7:	7e 1e                	jle    104cf7 <safestrcpy+0x3f>
/u/a/b/abhijith/CS537/p3b/xv6-sp20/kernel/string.c:86 (discriminator 1)
  104cd9:	8b 55 0c             	mov    0xc(%ebp),%edx
  104cdc:	8d 42 01             	lea    0x1(%edx),%eax
  104cdf:	89 45 0c             	mov    %eax,0xc(%ebp)
  104ce2:	8b 45 08             	mov    0x8(%ebp),%eax
  104ce5:	8d 48 01             	lea    0x1(%eax),%ecx
  104ce8:	89 4d 08             	mov    %ecx,0x8(%ebp)
  104ceb:	0f b6 12             	movzbl (%edx),%edx
  104cee:	88 10                	mov    %dl,(%eax)
  104cf0:	0f b6 00             	movzbl (%eax),%eax
  104cf3:	84 c0                	test   %al,%al
  104cf5:	75 d8                	jne    104ccf <safestrcpy+0x17>
/u/a/b/abhijith/CS537/p3b/xv6-sp20/kernel/string.c:88
  104cf7:	8b 45 08             	mov    0x8(%ebp),%eax
  104cfa:	c6 00 00             	movb   $0x0,(%eax)
/u/a/b/abhijith/CS537/p3b/xv6-sp20/kernel/string.c:89
  104cfd:	8b 45 fc             	mov    -0x4(%ebp),%eax
/u/a/b/abhijith/CS537/p3b/xv6-sp20/kernel/string.c:90
  104d00:	c9                   	leave  
  104d01:	c3                   	ret    

00104d02 <strlen>:
strlen():
/u/a/b/abhijith/CS537/p3b/xv6-sp20/kernel/string.c:94
  104d02:	55                   	push   %ebp
  104d03:	89 e5                	mov    %esp,%ebp
  104d05:	83 ec 10             	sub    $0x10,%esp
/u/a/b/abhijith/CS537/p3b/xv6-sp20/kernel/string.c:97
  104d08:	c7 45 fc 00 00 00 00 	movl   $0x0,-0x4(%ebp)
  104d0f:	eb 04                	jmp    104d15 <strlen+0x13>
/u/a/b/abhijith/CS537/p3b/xv6-sp20/kernel/string.c:97 (discriminator 3)
  104d11:	83 45 fc 01          	addl   $0x1,-0x4(%ebp)
/u/a/b/abhijith/CS537/p3b/xv6-sp20/kernel/string.c:97 (discriminator 1)
  104d15:	8b 55 fc             	mov    -0x4(%ebp),%edx
  104d18:	8b 45 08             	mov    0x8(%ebp),%eax
  104d1b:	01 d0                	add    %edx,%eax
  104d1d:	0f b6 00             	movzbl (%eax),%eax
  104d20:	84 c0                	test   %al,%al
  104d22:	75 ed                	jne    104d11 <strlen+0xf>
/u/a/b/abhijith/CS537/p3b/xv6-sp20/kernel/string.c:99
  104d24:	8b 45 fc             	mov    -0x4(%ebp),%eax
/u/a/b/abhijith/CS537/p3b/xv6-sp20/kernel/string.c:100
  104d27:	c9                   	leave  
  104d28:	c3                   	ret    

00104d29 <swtch>:
swtch():
/u/a/b/abhijith/CS537/p3b/xv6-sp20/kernel/swtch.S:10
  104d29:	8b 44 24 04          	mov    0x4(%esp),%eax
/u/a/b/abhijith/CS537/p3b/xv6-sp20/kernel/swtch.S:11
  104d2d:	8b 54 24 08          	mov    0x8(%esp),%edx
/u/a/b/abhijith/CS537/p3b/xv6-sp20/kernel/swtch.S:14
  104d31:	55                   	push   %ebp
/u/a/b/abhijith/CS537/p3b/xv6-sp20/kernel/swtch.S:15
  104d32:	53                   	push   %ebx
/u/a/b/abhijith/CS537/p3b/xv6-sp20/kernel/swtch.S:16
  104d33:	56                   	push   %esi
/u/a/b/abhijith/CS537/p3b/xv6-sp20/kernel/swtch.S:17
  104d34:	57                   	push   %edi
/u/a/b/abhijith/CS537/p3b/xv6-sp20/kernel/swtch.S:20
  104d35:	89 20                	mov    %esp,(%eax)
/u/a/b/abhijith/CS537/p3b/xv6-sp20/kernel/swtch.S:21
  104d37:	89 d4                	mov    %edx,%esp
/u/a/b/abhijith/CS537/p3b/xv6-sp20/kernel/swtch.S:24
  104d39:	5f                   	pop    %edi
/u/a/b/abhijith/CS537/p3b/xv6-sp20/kernel/swtch.S:25
  104d3a:	5e                   	pop    %esi
/u/a/b/abhijith/CS537/p3b/xv6-sp20/kernel/swtch.S:26
  104d3b:	5b                   	pop    %ebx
/u/a/b/abhijith/CS537/p3b/xv6-sp20/kernel/swtch.S:27
  104d3c:	5d                   	pop    %ebp
/u/a/b/abhijith/CS537/p3b/xv6-sp20/kernel/swtch.S:28
  104d3d:	c3                   	ret    

00104d3e <fetchint>:
fetchint():
/u/a/b/abhijith/CS537/p3b/xv6-sp20/kernel/syscall.c:19
  104d3e:	55                   	push   %ebp
  104d3f:	89 e5                	mov    %esp,%ebp
/u/a/b/abhijith/CS537/p3b/xv6-sp20/kernel/syscall.c:20
  104d41:	8b 45 08             	mov    0x8(%ebp),%eax
  104d44:	8b 00                	mov    (%eax),%eax
  104d46:	39 45 0c             	cmp    %eax,0xc(%ebp)
  104d49:	73 0f                	jae    104d5a <fetchint+0x1c>
/u/a/b/abhijith/CS537/p3b/xv6-sp20/kernel/syscall.c:20 (discriminator 1)
  104d4b:	8b 45 0c             	mov    0xc(%ebp),%eax
  104d4e:	8d 50 04             	lea    0x4(%eax),%edx
  104d51:	8b 45 08             	mov    0x8(%ebp),%eax
  104d54:	8b 00                	mov    (%eax),%eax
  104d56:	39 c2                	cmp    %eax,%edx
  104d58:	76 07                	jbe    104d61 <fetchint+0x23>
/u/a/b/abhijith/CS537/p3b/xv6-sp20/kernel/syscall.c:21
  104d5a:	b8 ff ff ff ff       	mov    $0xffffffff,%eax
  104d5f:	eb 0f                	jmp    104d70 <fetchint+0x32>
/u/a/b/abhijith/CS537/p3b/xv6-sp20/kernel/syscall.c:22
  104d61:	8b 45 0c             	mov    0xc(%ebp),%eax
  104d64:	8b 10                	mov    (%eax),%edx
  104d66:	8b 45 10             	mov    0x10(%ebp),%eax
  104d69:	89 10                	mov    %edx,(%eax)
/u/a/b/abhijith/CS537/p3b/xv6-sp20/kernel/syscall.c:23
  104d6b:	b8 00 00 00 00       	mov    $0x0,%eax
/u/a/b/abhijith/CS537/p3b/xv6-sp20/kernel/syscall.c:24
  104d70:	5d                   	pop    %ebp
  104d71:	c3                   	ret    

00104d72 <fetchstr>:
fetchstr():
/u/a/b/abhijith/CS537/p3b/xv6-sp20/kernel/syscall.c:31
  104d72:	55                   	push   %ebp
  104d73:	89 e5                	mov    %esp,%ebp
  104d75:	83 ec 10             	sub    $0x10,%esp
/u/a/b/abhijith/CS537/p3b/xv6-sp20/kernel/syscall.c:34
  104d78:	8b 45 08             	mov    0x8(%ebp),%eax
  104d7b:	8b 00                	mov    (%eax),%eax
  104d7d:	39 45 0c             	cmp    %eax,0xc(%ebp)
  104d80:	72 07                	jb     104d89 <fetchstr+0x17>
/u/a/b/abhijith/CS537/p3b/xv6-sp20/kernel/syscall.c:35
  104d82:	b8 ff ff ff ff       	mov    $0xffffffff,%eax
  104d87:	eb 43                	jmp    104dcc <fetchstr+0x5a>
/u/a/b/abhijith/CS537/p3b/xv6-sp20/kernel/syscall.c:36
  104d89:	8b 55 0c             	mov    0xc(%ebp),%edx
  104d8c:	8b 45 10             	mov    0x10(%ebp),%eax
  104d8f:	89 10                	mov    %edx,(%eax)
/u/a/b/abhijith/CS537/p3b/xv6-sp20/kernel/syscall.c:37
  104d91:	8b 45 08             	mov    0x8(%ebp),%eax
  104d94:	8b 00                	mov    (%eax),%eax
  104d96:	89 45 f8             	mov    %eax,-0x8(%ebp)
/u/a/b/abhijith/CS537/p3b/xv6-sp20/kernel/syscall.c:38
  104d99:	8b 45 10             	mov    0x10(%ebp),%eax
  104d9c:	8b 00                	mov    (%eax),%eax
  104d9e:	89 45 fc             	mov    %eax,-0x4(%ebp)
  104da1:	eb 1c                	jmp    104dbf <fetchstr+0x4d>
/u/a/b/abhijith/CS537/p3b/xv6-sp20/kernel/syscall.c:39
  104da3:	8b 45 fc             	mov    -0x4(%ebp),%eax
  104da6:	0f b6 00             	movzbl (%eax),%eax
  104da9:	84 c0                	test   %al,%al
  104dab:	75 0e                	jne    104dbb <fetchstr+0x49>
/u/a/b/abhijith/CS537/p3b/xv6-sp20/kernel/syscall.c:40
  104dad:	8b 55 fc             	mov    -0x4(%ebp),%edx
  104db0:	8b 45 10             	mov    0x10(%ebp),%eax
  104db3:	8b 00                	mov    (%eax),%eax
  104db5:	29 c2                	sub    %eax,%edx
  104db7:	89 d0                	mov    %edx,%eax
  104db9:	eb 11                	jmp    104dcc <fetchstr+0x5a>
/u/a/b/abhijith/CS537/p3b/xv6-sp20/kernel/syscall.c:38 (discriminator 2)
  104dbb:	83 45 fc 01          	addl   $0x1,-0x4(%ebp)
/u/a/b/abhijith/CS537/p3b/xv6-sp20/kernel/syscall.c:38 (discriminator 1)
  104dbf:	8b 45 fc             	mov    -0x4(%ebp),%eax
  104dc2:	3b 45 f8             	cmp    -0x8(%ebp),%eax
  104dc5:	72 dc                	jb     104da3 <fetchstr+0x31>
/u/a/b/abhijith/CS537/p3b/xv6-sp20/kernel/syscall.c:41
  104dc7:	b8 ff ff ff ff       	mov    $0xffffffff,%eax
/u/a/b/abhijith/CS537/p3b/xv6-sp20/kernel/syscall.c:42
  104dcc:	c9                   	leave  
  104dcd:	c3                   	ret    

00104dce <argint>:
argint():
/u/a/b/abhijith/CS537/p3b/xv6-sp20/kernel/syscall.c:47
  104dce:	55                   	push   %ebp
  104dcf:	89 e5                	mov    %esp,%ebp
/u/a/b/abhijith/CS537/p3b/xv6-sp20/kernel/syscall.c:48
  104dd1:	65 a1 04 00 00 00    	mov    %gs:0x4,%eax
  104dd7:	8b 40 18             	mov    0x18(%eax),%eax
  104dda:	8b 40 44             	mov    0x44(%eax),%eax
  104ddd:	8b 55 08             	mov    0x8(%ebp),%edx
  104de0:	c1 e2 02             	shl    $0x2,%edx
  104de3:	01 d0                	add    %edx,%eax
  104de5:	8d 50 04             	lea    0x4(%eax),%edx
  104de8:	65 a1 04 00 00 00    	mov    %gs:0x4,%eax
  104dee:	ff 75 0c             	pushl  0xc(%ebp)
  104df1:	52                   	push   %edx
  104df2:	50                   	push   %eax
  104df3:	e8 46 ff ff ff       	call   104d3e <fetchint>
  104df8:	83 c4 0c             	add    $0xc,%esp
/u/a/b/abhijith/CS537/p3b/xv6-sp20/kernel/syscall.c:49
  104dfb:	c9                   	leave  
  104dfc:	c3                   	ret    

00104dfd <argptr>:
argptr():
/u/a/b/abhijith/CS537/p3b/xv6-sp20/kernel/syscall.c:56
  104dfd:	55                   	push   %ebp
  104dfe:	89 e5                	mov    %esp,%ebp
  104e00:	83 ec 10             	sub    $0x10,%esp
/u/a/b/abhijith/CS537/p3b/xv6-sp20/kernel/syscall.c:59
  104e03:	8d 45 fc             	lea    -0x4(%ebp),%eax
  104e06:	50                   	push   %eax
  104e07:	ff 75 08             	pushl  0x8(%ebp)
  104e0a:	e8 bf ff ff ff       	call   104dce <argint>
  104e0f:	83 c4 08             	add    $0x8,%esp
  104e12:	85 c0                	test   %eax,%eax
  104e14:	79 07                	jns    104e1d <argptr+0x20>
/u/a/b/abhijith/CS537/p3b/xv6-sp20/kernel/syscall.c:60
  104e16:	b8 ff ff ff ff       	mov    $0xffffffff,%eax
  104e1b:	eb 3b                	jmp    104e58 <argptr+0x5b>
/u/a/b/abhijith/CS537/p3b/xv6-sp20/kernel/syscall.c:61
  104e1d:	65 a1 04 00 00 00    	mov    %gs:0x4,%eax
  104e23:	8b 00                	mov    (%eax),%eax
  104e25:	8b 55 fc             	mov    -0x4(%ebp),%edx
  104e28:	39 d0                	cmp    %edx,%eax
  104e2a:	76 16                	jbe    104e42 <argptr+0x45>
/u/a/b/abhijith/CS537/p3b/xv6-sp20/kernel/syscall.c:61 (discriminator 1)
  104e2c:	8b 45 fc             	mov    -0x4(%ebp),%eax
  104e2f:	89 c2                	mov    %eax,%edx
  104e31:	8b 45 10             	mov    0x10(%ebp),%eax
  104e34:	01 c2                	add    %eax,%edx
  104e36:	65 a1 04 00 00 00    	mov    %gs:0x4,%eax
  104e3c:	8b 00                	mov    (%eax),%eax
  104e3e:	39 c2                	cmp    %eax,%edx
  104e40:	76 07                	jbe    104e49 <argptr+0x4c>
/u/a/b/abhijith/CS537/p3b/xv6-sp20/kernel/syscall.c:62
  104e42:	b8 ff ff ff ff       	mov    $0xffffffff,%eax
  104e47:	eb 0f                	jmp    104e58 <argptr+0x5b>
/u/a/b/abhijith/CS537/p3b/xv6-sp20/kernel/syscall.c:63
  104e49:	8b 45 fc             	mov    -0x4(%ebp),%eax
  104e4c:	89 c2                	mov    %eax,%edx
  104e4e:	8b 45 0c             	mov    0xc(%ebp),%eax
  104e51:	89 10                	mov    %edx,(%eax)
/u/a/b/abhijith/CS537/p3b/xv6-sp20/kernel/syscall.c:64
  104e53:	b8 00 00 00 00       	mov    $0x0,%eax
/u/a/b/abhijith/CS537/p3b/xv6-sp20/kernel/syscall.c:65 (discriminator 1)
  104e58:	c9                   	leave  
  104e59:	c3                   	ret    

00104e5a <argstr>:
argstr():
/u/a/b/abhijith/CS537/p3b/xv6-sp20/kernel/syscall.c:73
  104e5a:	55                   	push   %ebp
  104e5b:	89 e5                	mov    %esp,%ebp
  104e5d:	83 ec 10             	sub    $0x10,%esp
/u/a/b/abhijith/CS537/p3b/xv6-sp20/kernel/syscall.c:75
  104e60:	8d 45 fc             	lea    -0x4(%ebp),%eax
  104e63:	50                   	push   %eax
  104e64:	ff 75 08             	pushl  0x8(%ebp)
  104e67:	e8 62 ff ff ff       	call   104dce <argint>
  104e6c:	83 c4 08             	add    $0x8,%esp
  104e6f:	85 c0                	test   %eax,%eax
  104e71:	79 07                	jns    104e7a <argstr+0x20>
/u/a/b/abhijith/CS537/p3b/xv6-sp20/kernel/syscall.c:76
  104e73:	b8 ff ff ff ff       	mov    $0xffffffff,%eax
  104e78:	eb 18                	jmp    104e92 <argstr+0x38>
/u/a/b/abhijith/CS537/p3b/xv6-sp20/kernel/syscall.c:77
  104e7a:	8b 45 fc             	mov    -0x4(%ebp),%eax
  104e7d:	89 c2                	mov    %eax,%edx
  104e7f:	65 a1 04 00 00 00    	mov    %gs:0x4,%eax
  104e85:	ff 75 0c             	pushl  0xc(%ebp)
  104e88:	52                   	push   %edx
  104e89:	50                   	push   %eax
  104e8a:	e8 e3 fe ff ff       	call   104d72 <fetchstr>
  104e8f:	83 c4 0c             	add    $0xc,%esp
/u/a/b/abhijith/CS537/p3b/xv6-sp20/kernel/syscall.c:78 (discriminator 1)
  104e92:	c9                   	leave  
  104e93:	c3                   	ret    

00104e94 <syscall>:
syscall():
/u/a/b/abhijith/CS537/p3b/xv6-sp20/kernel/syscall.c:115
  104e94:	55                   	push   %ebp
  104e95:	89 e5                	mov    %esp,%ebp
  104e97:	83 ec 18             	sub    $0x18,%esp
/u/a/b/abhijith/CS537/p3b/xv6-sp20/kernel/syscall.c:118
  104e9a:	65 a1 04 00 00 00    	mov    %gs:0x4,%eax
  104ea0:	8b 40 18             	mov    0x18(%eax),%eax
  104ea3:	8b 40 1c             	mov    0x1c(%eax),%eax
  104ea6:	89 45 f4             	mov    %eax,-0xc(%ebp)
/u/a/b/abhijith/CS537/p3b/xv6-sp20/kernel/syscall.c:119
  104ea9:	83 7d f4 00          	cmpl   $0x0,-0xc(%ebp)
  104ead:	7e 32                	jle    104ee1 <syscall+0x4d>
/u/a/b/abhijith/CS537/p3b/xv6-sp20/kernel/syscall.c:119 (discriminator 1)
  104eaf:	8b 45 f4             	mov    -0xc(%ebp),%eax
  104eb2:	83 f8 18             	cmp    $0x18,%eax
  104eb5:	77 2a                	ja     104ee1 <syscall+0x4d>
/u/a/b/abhijith/CS537/p3b/xv6-sp20/kernel/syscall.c:119 (discriminator 2)
  104eb7:	8b 45 f4             	mov    -0xc(%ebp),%eax
  104eba:	8b 04 85 60 b5 10 00 	mov    0x10b560(,%eax,4),%eax
  104ec1:	85 c0                	test   %eax,%eax
  104ec3:	74 1c                	je     104ee1 <syscall+0x4d>
/u/a/b/abhijith/CS537/p3b/xv6-sp20/kernel/syscall.c:120
  104ec5:	8b 45 f4             	mov    -0xc(%ebp),%eax
  104ec8:	8b 04 85 60 b5 10 00 	mov    0x10b560(,%eax,4),%eax
  104ecf:	ff d0                	call   *%eax
  104ed1:	89 c2                	mov    %eax,%edx
  104ed3:	65 a1 04 00 00 00    	mov    %gs:0x4,%eax
  104ed9:	8b 40 18             	mov    0x18(%eax),%eax
  104edc:	89 50 1c             	mov    %edx,0x1c(%eax)
  104edf:	eb 34                	jmp    104f15 <syscall+0x81>
/u/a/b/abhijith/CS537/p3b/xv6-sp20/kernel/syscall.c:123
  104ee1:	65 a1 04 00 00 00    	mov    %gs:0x4,%eax
  104ee7:	8d 50 6c             	lea    0x6c(%eax),%edx
  104eea:	65 a1 04 00 00 00    	mov    %gs:0x4,%eax
/u/a/b/abhijith/CS537/p3b/xv6-sp20/kernel/syscall.c:122
  104ef0:	8b 40 10             	mov    0x10(%eax),%eax
  104ef3:	ff 75 f4             	pushl  -0xc(%ebp)
  104ef6:	52                   	push   %edx
  104ef7:	50                   	push   %eax
  104ef8:	68 9f 82 10 00       	push   $0x10829f
  104efd:	e8 ea b4 ff ff       	call   1003ec <cprintf>
  104f02:	83 c4 10             	add    $0x10,%esp
/u/a/b/abhijith/CS537/p3b/xv6-sp20/kernel/syscall.c:124
  104f05:	65 a1 04 00 00 00    	mov    %gs:0x4,%eax
  104f0b:	8b 40 18             	mov    0x18(%eax),%eax
  104f0e:	c7 40 1c ff ff ff ff 	movl   $0xffffffff,0x1c(%eax)
/u/a/b/abhijith/CS537/p3b/xv6-sp20/kernel/syscall.c:126
  104f15:	90                   	nop
  104f16:	c9                   	leave  
  104f17:	c3                   	ret    

00104f18 <argfd>:
argfd():
/u/a/b/abhijith/CS537/p3b/xv6-sp20/kernel/sysfile.c:16
  104f18:	55                   	push   %ebp
  104f19:	89 e5                	mov    %esp,%ebp
  104f1b:	83 ec 18             	sub    $0x18,%esp
/u/a/b/abhijith/CS537/p3b/xv6-sp20/kernel/sysfile.c:20
  104f1e:	83 ec 08             	sub    $0x8,%esp
  104f21:	8d 45 f0             	lea    -0x10(%ebp),%eax
  104f24:	50                   	push   %eax
  104f25:	ff 75 08             	pushl  0x8(%ebp)
  104f28:	e8 a1 fe ff ff       	call   104dce <argint>
  104f2d:	83 c4 10             	add    $0x10,%esp
  104f30:	85 c0                	test   %eax,%eax
  104f32:	79 07                	jns    104f3b <argfd+0x23>
/u/a/b/abhijith/CS537/p3b/xv6-sp20/kernel/sysfile.c:21
  104f34:	b8 ff ff ff ff       	mov    $0xffffffff,%eax
  104f39:	eb 50                	jmp    104f8b <argfd+0x73>
/u/a/b/abhijith/CS537/p3b/xv6-sp20/kernel/sysfile.c:22
  104f3b:	8b 45 f0             	mov    -0x10(%ebp),%eax
  104f3e:	85 c0                	test   %eax,%eax
  104f40:	78 21                	js     104f63 <argfd+0x4b>
/u/a/b/abhijith/CS537/p3b/xv6-sp20/kernel/sysfile.c:22 (discriminator 1)
  104f42:	8b 45 f0             	mov    -0x10(%ebp),%eax
  104f45:	83 f8 0f             	cmp    $0xf,%eax
  104f48:	7f 19                	jg     104f63 <argfd+0x4b>
/u/a/b/abhijith/CS537/p3b/xv6-sp20/kernel/sysfile.c:22 (discriminator 2)
  104f4a:	65 a1 04 00 00 00    	mov    %gs:0x4,%eax
  104f50:	8b 55 f0             	mov    -0x10(%ebp),%edx
  104f53:	83 c2 08             	add    $0x8,%edx
  104f56:	8b 44 90 08          	mov    0x8(%eax,%edx,4),%eax
  104f5a:	89 45 f4             	mov    %eax,-0xc(%ebp)
  104f5d:	83 7d f4 00          	cmpl   $0x0,-0xc(%ebp)
  104f61:	75 07                	jne    104f6a <argfd+0x52>
/u/a/b/abhijith/CS537/p3b/xv6-sp20/kernel/sysfile.c:23
  104f63:	b8 ff ff ff ff       	mov    $0xffffffff,%eax
  104f68:	eb 21                	jmp    104f8b <argfd+0x73>
/u/a/b/abhijith/CS537/p3b/xv6-sp20/kernel/sysfile.c:24
  104f6a:	83 7d 0c 00          	cmpl   $0x0,0xc(%ebp)
  104f6e:	74 08                	je     104f78 <argfd+0x60>
/u/a/b/abhijith/CS537/p3b/xv6-sp20/kernel/sysfile.c:25
  104f70:	8b 55 f0             	mov    -0x10(%ebp),%edx
  104f73:	8b 45 0c             	mov    0xc(%ebp),%eax
  104f76:	89 10                	mov    %edx,(%eax)
/u/a/b/abhijith/CS537/p3b/xv6-sp20/kernel/sysfile.c:26
  104f78:	83 7d 10 00          	cmpl   $0x0,0x10(%ebp)
  104f7c:	74 08                	je     104f86 <argfd+0x6e>
/u/a/b/abhijith/CS537/p3b/xv6-sp20/kernel/sysfile.c:27
  104f7e:	8b 45 10             	mov    0x10(%ebp),%eax
  104f81:	8b 55 f4             	mov    -0xc(%ebp),%edx
  104f84:	89 10                	mov    %edx,(%eax)
/u/a/b/abhijith/CS537/p3b/xv6-sp20/kernel/sysfile.c:28
  104f86:	b8 00 00 00 00       	mov    $0x0,%eax
/u/a/b/abhijith/CS537/p3b/xv6-sp20/kernel/sysfile.c:29 (discriminator 1)
  104f8b:	c9                   	leave  
  104f8c:	c3                   	ret    

00104f8d <fdalloc>:
fdalloc():
/u/a/b/abhijith/CS537/p3b/xv6-sp20/kernel/sysfile.c:35
  104f8d:	55                   	push   %ebp
  104f8e:	89 e5                	mov    %esp,%ebp
  104f90:	83 ec 10             	sub    $0x10,%esp
/u/a/b/abhijith/CS537/p3b/xv6-sp20/kernel/sysfile.c:38
  104f93:	c7 45 fc 00 00 00 00 	movl   $0x0,-0x4(%ebp)
  104f9a:	eb 30                	jmp    104fcc <fdalloc+0x3f>
/u/a/b/abhijith/CS537/p3b/xv6-sp20/kernel/sysfile.c:39
  104f9c:	65 a1 04 00 00 00    	mov    %gs:0x4,%eax
  104fa2:	8b 55 fc             	mov    -0x4(%ebp),%edx
  104fa5:	83 c2 08             	add    $0x8,%edx
  104fa8:	8b 44 90 08          	mov    0x8(%eax,%edx,4),%eax
  104fac:	85 c0                	test   %eax,%eax
  104fae:	75 18                	jne    104fc8 <fdalloc+0x3b>
/u/a/b/abhijith/CS537/p3b/xv6-sp20/kernel/sysfile.c:40
  104fb0:	65 a1 04 00 00 00    	mov    %gs:0x4,%eax
  104fb6:	8b 55 fc             	mov    -0x4(%ebp),%edx
  104fb9:	8d 4a 08             	lea    0x8(%edx),%ecx
  104fbc:	8b 55 08             	mov    0x8(%ebp),%edx
  104fbf:	89 54 88 08          	mov    %edx,0x8(%eax,%ecx,4)
/u/a/b/abhijith/CS537/p3b/xv6-sp20/kernel/sysfile.c:41
  104fc3:	8b 45 fc             	mov    -0x4(%ebp),%eax
  104fc6:	eb 0f                	jmp    104fd7 <fdalloc+0x4a>
/u/a/b/abhijith/CS537/p3b/xv6-sp20/kernel/sysfile.c:38 (discriminator 2)
  104fc8:	83 45 fc 01          	addl   $0x1,-0x4(%ebp)
/u/a/b/abhijith/CS537/p3b/xv6-sp20/kernel/sysfile.c:38 (discriminator 1)
  104fcc:	83 7d fc 0f          	cmpl   $0xf,-0x4(%ebp)
  104fd0:	7e ca                	jle    104f9c <fdalloc+0xf>
/u/a/b/abhijith/CS537/p3b/xv6-sp20/kernel/sysfile.c:44
  104fd2:	b8 ff ff ff ff       	mov    $0xffffffff,%eax
/u/a/b/abhijith/CS537/p3b/xv6-sp20/kernel/sysfile.c:45
  104fd7:	c9                   	leave  
  104fd8:	c3                   	ret    

00104fd9 <sys_dup>:
sys_dup():
/u/a/b/abhijith/CS537/p3b/xv6-sp20/kernel/sysfile.c:49
  104fd9:	55                   	push   %ebp
  104fda:	89 e5                	mov    %esp,%ebp
  104fdc:	83 ec 18             	sub    $0x18,%esp
/u/a/b/abhijith/CS537/p3b/xv6-sp20/kernel/sysfile.c:53
  104fdf:	83 ec 04             	sub    $0x4,%esp
  104fe2:	8d 45 f0             	lea    -0x10(%ebp),%eax
  104fe5:	50                   	push   %eax
  104fe6:	6a 00                	push   $0x0
  104fe8:	6a 00                	push   $0x0
  104fea:	e8 29 ff ff ff       	call   104f18 <argfd>
  104fef:	83 c4 10             	add    $0x10,%esp
  104ff2:	85 c0                	test   %eax,%eax
  104ff4:	79 07                	jns    104ffd <sys_dup+0x24>
/u/a/b/abhijith/CS537/p3b/xv6-sp20/kernel/sysfile.c:54
  104ff6:	b8 ff ff ff ff       	mov    $0xffffffff,%eax
  104ffb:	eb 31                	jmp    10502e <sys_dup+0x55>
/u/a/b/abhijith/CS537/p3b/xv6-sp20/kernel/sysfile.c:55
  104ffd:	8b 45 f0             	mov    -0x10(%ebp),%eax
  105000:	83 ec 0c             	sub    $0xc,%esp
  105003:	50                   	push   %eax
  105004:	e8 84 ff ff ff       	call   104f8d <fdalloc>
  105009:	83 c4 10             	add    $0x10,%esp
  10500c:	89 45 f4             	mov    %eax,-0xc(%ebp)
  10500f:	83 7d f4 00          	cmpl   $0x0,-0xc(%ebp)
  105013:	79 07                	jns    10501c <sys_dup+0x43>
/u/a/b/abhijith/CS537/p3b/xv6-sp20/kernel/sysfile.c:56
  105015:	b8 ff ff ff ff       	mov    $0xffffffff,%eax
  10501a:	eb 12                	jmp    10502e <sys_dup+0x55>
/u/a/b/abhijith/CS537/p3b/xv6-sp20/kernel/sysfile.c:57
  10501c:	8b 45 f0             	mov    -0x10(%ebp),%eax
  10501f:	83 ec 0c             	sub    $0xc,%esp
  105022:	50                   	push   %eax
  105023:	e8 a6 bf ff ff       	call   100fce <filedup>
  105028:	83 c4 10             	add    $0x10,%esp
/u/a/b/abhijith/CS537/p3b/xv6-sp20/kernel/sysfile.c:58
  10502b:	8b 45 f4             	mov    -0xc(%ebp),%eax
/u/a/b/abhijith/CS537/p3b/xv6-sp20/kernel/sysfile.c:59 (discriminator 1)
  10502e:	c9                   	leave  
  10502f:	c3                   	ret    

00105030 <sys_read>:
sys_read():
/u/a/b/abhijith/CS537/p3b/xv6-sp20/kernel/sysfile.c:63
  105030:	55                   	push   %ebp
  105031:	89 e5                	mov    %esp,%ebp
  105033:	83 ec 18             	sub    $0x18,%esp
/u/a/b/abhijith/CS537/p3b/xv6-sp20/kernel/sysfile.c:68
  105036:	83 ec 04             	sub    $0x4,%esp
  105039:	8d 45 f4             	lea    -0xc(%ebp),%eax
  10503c:	50                   	push   %eax
  10503d:	6a 00                	push   $0x0
  10503f:	6a 00                	push   $0x0
  105041:	e8 d2 fe ff ff       	call   104f18 <argfd>
  105046:	83 c4 10             	add    $0x10,%esp
  105049:	85 c0                	test   %eax,%eax
  10504b:	78 2e                	js     10507b <sys_read+0x4b>
/u/a/b/abhijith/CS537/p3b/xv6-sp20/kernel/sysfile.c:68 (discriminator 1)
  10504d:	83 ec 08             	sub    $0x8,%esp
  105050:	8d 45 f0             	lea    -0x10(%ebp),%eax
  105053:	50                   	push   %eax
  105054:	6a 02                	push   $0x2
  105056:	e8 73 fd ff ff       	call   104dce <argint>
  10505b:	83 c4 10             	add    $0x10,%esp
  10505e:	85 c0                	test   %eax,%eax
  105060:	78 19                	js     10507b <sys_read+0x4b>
/u/a/b/abhijith/CS537/p3b/xv6-sp20/kernel/sysfile.c:68 (discriminator 2)
  105062:	8b 45 f0             	mov    -0x10(%ebp),%eax
  105065:	83 ec 04             	sub    $0x4,%esp
  105068:	50                   	push   %eax
  105069:	8d 45 ec             	lea    -0x14(%ebp),%eax
  10506c:	50                   	push   %eax
  10506d:	6a 01                	push   $0x1
  10506f:	e8 89 fd ff ff       	call   104dfd <argptr>
  105074:	83 c4 10             	add    $0x10,%esp
  105077:	85 c0                	test   %eax,%eax
  105079:	79 07                	jns    105082 <sys_read+0x52>
/u/a/b/abhijith/CS537/p3b/xv6-sp20/kernel/sysfile.c:69
  10507b:	b8 ff ff ff ff       	mov    $0xffffffff,%eax
  105080:	eb 17                	jmp    105099 <sys_read+0x69>
/u/a/b/abhijith/CS537/p3b/xv6-sp20/kernel/sysfile.c:70
  105082:	8b 4d f0             	mov    -0x10(%ebp),%ecx
  105085:	8b 55 ec             	mov    -0x14(%ebp),%edx
  105088:	8b 45 f4             	mov    -0xc(%ebp),%eax
  10508b:	83 ec 04             	sub    $0x4,%esp
  10508e:	51                   	push   %ecx
  10508f:	52                   	push   %edx
  105090:	50                   	push   %eax
  105091:	e8 be c0 ff ff       	call   101154 <fileread>
  105096:	83 c4 10             	add    $0x10,%esp
/u/a/b/abhijith/CS537/p3b/xv6-sp20/kernel/sysfile.c:71 (discriminator 1)
  105099:	c9                   	leave  
  10509a:	c3                   	ret    

0010509b <sys_write>:
sys_write():
/u/a/b/abhijith/CS537/p3b/xv6-sp20/kernel/sysfile.c:75
  10509b:	55                   	push   %ebp
  10509c:	89 e5                	mov    %esp,%ebp
  10509e:	83 ec 18             	sub    $0x18,%esp
/u/a/b/abhijith/CS537/p3b/xv6-sp20/kernel/sysfile.c:80
  1050a1:	83 ec 04             	sub    $0x4,%esp
  1050a4:	8d 45 f4             	lea    -0xc(%ebp),%eax
  1050a7:	50                   	push   %eax
  1050a8:	6a 00                	push   $0x0
  1050aa:	6a 00                	push   $0x0
  1050ac:	e8 67 fe ff ff       	call   104f18 <argfd>
  1050b1:	83 c4 10             	add    $0x10,%esp
  1050b4:	85 c0                	test   %eax,%eax
  1050b6:	78 2e                	js     1050e6 <sys_write+0x4b>
/u/a/b/abhijith/CS537/p3b/xv6-sp20/kernel/sysfile.c:80 (discriminator 1)
  1050b8:	83 ec 08             	sub    $0x8,%esp
  1050bb:	8d 45 f0             	lea    -0x10(%ebp),%eax
  1050be:	50                   	push   %eax
  1050bf:	6a 02                	push   $0x2
  1050c1:	e8 08 fd ff ff       	call   104dce <argint>
  1050c6:	83 c4 10             	add    $0x10,%esp
  1050c9:	85 c0                	test   %eax,%eax
  1050cb:	78 19                	js     1050e6 <sys_write+0x4b>
/u/a/b/abhijith/CS537/p3b/xv6-sp20/kernel/sysfile.c:80 (discriminator 2)
  1050cd:	8b 45 f0             	mov    -0x10(%ebp),%eax
  1050d0:	83 ec 04             	sub    $0x4,%esp
  1050d3:	50                   	push   %eax
  1050d4:	8d 45 ec             	lea    -0x14(%ebp),%eax
  1050d7:	50                   	push   %eax
  1050d8:	6a 01                	push   $0x1
  1050da:	e8 1e fd ff ff       	call   104dfd <argptr>
  1050df:	83 c4 10             	add    $0x10,%esp
  1050e2:	85 c0                	test   %eax,%eax
  1050e4:	79 07                	jns    1050ed <sys_write+0x52>
/u/a/b/abhijith/CS537/p3b/xv6-sp20/kernel/sysfile.c:81
  1050e6:	b8 ff ff ff ff       	mov    $0xffffffff,%eax
  1050eb:	eb 17                	jmp    105104 <sys_write+0x69>
/u/a/b/abhijith/CS537/p3b/xv6-sp20/kernel/sysfile.c:82
  1050ed:	8b 4d f0             	mov    -0x10(%ebp),%ecx
  1050f0:	8b 55 ec             	mov    -0x14(%ebp),%edx
  1050f3:	8b 45 f4             	mov    -0xc(%ebp),%eax
  1050f6:	83 ec 04             	sub    $0x4,%esp
  1050f9:	51                   	push   %ecx
  1050fa:	52                   	push   %edx
  1050fb:	50                   	push   %eax
  1050fc:	e8 0b c1 ff ff       	call   10120c <filewrite>
  105101:	83 c4 10             	add    $0x10,%esp
/u/a/b/abhijith/CS537/p3b/xv6-sp20/kernel/sysfile.c:83 (discriminator 1)
  105104:	c9                   	leave  
  105105:	c3                   	ret    

00105106 <sys_close>:
sys_close():
/u/a/b/abhijith/CS537/p3b/xv6-sp20/kernel/sysfile.c:87
  105106:	55                   	push   %ebp
  105107:	89 e5                	mov    %esp,%ebp
  105109:	83 ec 18             	sub    $0x18,%esp
/u/a/b/abhijith/CS537/p3b/xv6-sp20/kernel/sysfile.c:91
  10510c:	83 ec 04             	sub    $0x4,%esp
  10510f:	8d 45 f0             	lea    -0x10(%ebp),%eax
  105112:	50                   	push   %eax
  105113:	8d 45 f4             	lea    -0xc(%ebp),%eax
  105116:	50                   	push   %eax
  105117:	6a 00                	push   $0x0
  105119:	e8 fa fd ff ff       	call   104f18 <argfd>
  10511e:	83 c4 10             	add    $0x10,%esp
  105121:	85 c0                	test   %eax,%eax
  105123:	79 07                	jns    10512c <sys_close+0x26>
/u/a/b/abhijith/CS537/p3b/xv6-sp20/kernel/sysfile.c:92
  105125:	b8 ff ff ff ff       	mov    $0xffffffff,%eax
  10512a:	eb 28                	jmp    105154 <sys_close+0x4e>
/u/a/b/abhijith/CS537/p3b/xv6-sp20/kernel/sysfile.c:93
  10512c:	65 a1 04 00 00 00    	mov    %gs:0x4,%eax
  105132:	8b 55 f4             	mov    -0xc(%ebp),%edx
  105135:	83 c2 08             	add    $0x8,%edx
  105138:	c7 44 90 08 00 00 00 	movl   $0x0,0x8(%eax,%edx,4)
  10513f:	00 
/u/a/b/abhijith/CS537/p3b/xv6-sp20/kernel/sysfile.c:94
  105140:	8b 45 f0             	mov    -0x10(%ebp),%eax
  105143:	83 ec 0c             	sub    $0xc,%esp
  105146:	50                   	push   %eax
  105147:	e8 d3 be ff ff       	call   10101f <fileclose>
  10514c:	83 c4 10             	add    $0x10,%esp
/u/a/b/abhijith/CS537/p3b/xv6-sp20/kernel/sysfile.c:95
  10514f:	b8 00 00 00 00       	mov    $0x0,%eax
/u/a/b/abhijith/CS537/p3b/xv6-sp20/kernel/sysfile.c:96 (discriminator 1)
  105154:	c9                   	leave  
  105155:	c3                   	ret    

00105156 <sys_fstat>:
sys_fstat():
/u/a/b/abhijith/CS537/p3b/xv6-sp20/kernel/sysfile.c:100
  105156:	55                   	push   %ebp
  105157:	89 e5                	mov    %esp,%ebp
  105159:	83 ec 18             	sub    $0x18,%esp
/u/a/b/abhijith/CS537/p3b/xv6-sp20/kernel/sysfile.c:104
  10515c:	83 ec 04             	sub    $0x4,%esp
  10515f:	8d 45 f4             	lea    -0xc(%ebp),%eax
  105162:	50                   	push   %eax
  105163:	6a 00                	push   $0x0
  105165:	6a 00                	push   $0x0
  105167:	e8 ac fd ff ff       	call   104f18 <argfd>
  10516c:	83 c4 10             	add    $0x10,%esp
  10516f:	85 c0                	test   %eax,%eax
  105171:	78 17                	js     10518a <sys_fstat+0x34>
/u/a/b/abhijith/CS537/p3b/xv6-sp20/kernel/sysfile.c:104 (discriminator 1)
  105173:	83 ec 04             	sub    $0x4,%esp
  105176:	6a 14                	push   $0x14
  105178:	8d 45 f0             	lea    -0x10(%ebp),%eax
  10517b:	50                   	push   %eax
  10517c:	6a 01                	push   $0x1
  10517e:	e8 7a fc ff ff       	call   104dfd <argptr>
  105183:	83 c4 10             	add    $0x10,%esp
  105186:	85 c0                	test   %eax,%eax
  105188:	79 07                	jns    105191 <sys_fstat+0x3b>
/u/a/b/abhijith/CS537/p3b/xv6-sp20/kernel/sysfile.c:105
  10518a:	b8 ff ff ff ff       	mov    $0xffffffff,%eax
  10518f:	eb 13                	jmp    1051a4 <sys_fstat+0x4e>
/u/a/b/abhijith/CS537/p3b/xv6-sp20/kernel/sysfile.c:106
  105191:	8b 55 f0             	mov    -0x10(%ebp),%edx
  105194:	8b 45 f4             	mov    -0xc(%ebp),%eax
  105197:	83 ec 08             	sub    $0x8,%esp
  10519a:	52                   	push   %edx
  10519b:	50                   	push   %eax
  10519c:	e8 5c bf ff ff       	call   1010fd <filestat>
  1051a1:	83 c4 10             	add    $0x10,%esp
/u/a/b/abhijith/CS537/p3b/xv6-sp20/kernel/sysfile.c:107 (discriminator 1)
  1051a4:	c9                   	leave  
  1051a5:	c3                   	ret    

001051a6 <sys_link>:
sys_link():
/u/a/b/abhijith/CS537/p3b/xv6-sp20/kernel/sysfile.c:112
  1051a6:	55                   	push   %ebp
  1051a7:	89 e5                	mov    %esp,%ebp
  1051a9:	83 ec 28             	sub    $0x28,%esp
/u/a/b/abhijith/CS537/p3b/xv6-sp20/kernel/sysfile.c:116
  1051ac:	83 ec 08             	sub    $0x8,%esp
  1051af:	8d 45 d8             	lea    -0x28(%ebp),%eax
  1051b2:	50                   	push   %eax
  1051b3:	6a 00                	push   $0x0
  1051b5:	e8 a0 fc ff ff       	call   104e5a <argstr>
  1051ba:	83 c4 10             	add    $0x10,%esp
  1051bd:	85 c0                	test   %eax,%eax
  1051bf:	78 15                	js     1051d6 <sys_link+0x30>
/u/a/b/abhijith/CS537/p3b/xv6-sp20/kernel/sysfile.c:116 (discriminator 1)
  1051c1:	83 ec 08             	sub    $0x8,%esp
  1051c4:	8d 45 dc             	lea    -0x24(%ebp),%eax
  1051c7:	50                   	push   %eax
  1051c8:	6a 01                	push   $0x1
  1051ca:	e8 8b fc ff ff       	call   104e5a <argstr>
  1051cf:	83 c4 10             	add    $0x10,%esp
  1051d2:	85 c0                	test   %eax,%eax
  1051d4:	79 0a                	jns    1051e0 <sys_link+0x3a>
/u/a/b/abhijith/CS537/p3b/xv6-sp20/kernel/sysfile.c:117
  1051d6:	b8 ff ff ff ff       	mov    $0xffffffff,%eax
  1051db:	e9 4f 01 00 00       	jmp    10532f <sys_link+0x189>
/u/a/b/abhijith/CS537/p3b/xv6-sp20/kernel/sysfile.c:118
  1051e0:	8b 45 d8             	mov    -0x28(%ebp),%eax
  1051e3:	83 ec 0c             	sub    $0xc,%esp
  1051e6:	50                   	push   %eax
  1051e7:	e8 79 d2 ff ff       	call   102465 <namei>
  1051ec:	83 c4 10             	add    $0x10,%esp
  1051ef:	89 45 f4             	mov    %eax,-0xc(%ebp)
  1051f2:	83 7d f4 00          	cmpl   $0x0,-0xc(%ebp)
  1051f6:	75 0a                	jne    105202 <sys_link+0x5c>
/u/a/b/abhijith/CS537/p3b/xv6-sp20/kernel/sysfile.c:119
  1051f8:	b8 ff ff ff ff       	mov    $0xffffffff,%eax
  1051fd:	e9 2d 01 00 00       	jmp    10532f <sys_link+0x189>
/u/a/b/abhijith/CS537/p3b/xv6-sp20/kernel/sysfile.c:120
  105202:	83 ec 0c             	sub    $0xc,%esp
  105205:	ff 75 f4             	pushl  -0xc(%ebp)
  105208:	e8 42 c6 ff ff       	call   10184f <ilock>
  10520d:	83 c4 10             	add    $0x10,%esp
/u/a/b/abhijith/CS537/p3b/xv6-sp20/kernel/sysfile.c:121
  105210:	8b 45 f4             	mov    -0xc(%ebp),%eax
  105213:	0f b7 40 10          	movzwl 0x10(%eax),%eax
  105217:	66 83 f8 01          	cmp    $0x1,%ax
  10521b:	75 18                	jne    105235 <sys_link+0x8f>
/u/a/b/abhijith/CS537/p3b/xv6-sp20/kernel/sysfile.c:122
  10521d:	83 ec 0c             	sub    $0xc,%esp
  105220:	ff 75 f4             	pushl  -0xc(%ebp)
  105223:	e8 e1 c8 ff ff       	call   101b09 <iunlockput>
  105228:	83 c4 10             	add    $0x10,%esp
/u/a/b/abhijith/CS537/p3b/xv6-sp20/kernel/sysfile.c:123
  10522b:	b8 ff ff ff ff       	mov    $0xffffffff,%eax
  105230:	e9 fa 00 00 00       	jmp    10532f <sys_link+0x189>
/u/a/b/abhijith/CS537/p3b/xv6-sp20/kernel/sysfile.c:125
  105235:	8b 45 f4             	mov    -0xc(%ebp),%eax
  105238:	0f b7 40 16          	movzwl 0x16(%eax),%eax
  10523c:	83 c0 01             	add    $0x1,%eax
  10523f:	89 c2                	mov    %eax,%edx
  105241:	8b 45 f4             	mov    -0xc(%ebp),%eax
  105244:	66 89 50 16          	mov    %dx,0x16(%eax)
/u/a/b/abhijith/CS537/p3b/xv6-sp20/kernel/sysfile.c:126
  105248:	83 ec 0c             	sub    $0xc,%esp
  10524b:	ff 75 f4             	pushl  -0xc(%ebp)
  10524e:	e8 28 c4 ff ff       	call   10167b <iupdate>
  105253:	83 c4 10             	add    $0x10,%esp
/u/a/b/abhijith/CS537/p3b/xv6-sp20/kernel/sysfile.c:127
  105256:	83 ec 0c             	sub    $0xc,%esp
  105259:	ff 75 f4             	pushl  -0xc(%ebp)
  10525c:	e8 46 c7 ff ff       	call   1019a7 <iunlock>
  105261:	83 c4 10             	add    $0x10,%esp
/u/a/b/abhijith/CS537/p3b/xv6-sp20/kernel/sysfile.c:129
  105264:	8b 45 dc             	mov    -0x24(%ebp),%eax
  105267:	83 ec 08             	sub    $0x8,%esp
  10526a:	8d 55 e2             	lea    -0x1e(%ebp),%edx
  10526d:	52                   	push   %edx
  10526e:	50                   	push   %eax
  10526f:	e8 0d d2 ff ff       	call   102481 <nameiparent>
  105274:	83 c4 10             	add    $0x10,%esp
  105277:	89 45 f0             	mov    %eax,-0x10(%ebp)
  10527a:	83 7d f0 00          	cmpl   $0x0,-0x10(%ebp)
  10527e:	74 6c                	je     1052ec <sys_link+0x146>
/u/a/b/abhijith/CS537/p3b/xv6-sp20/kernel/sysfile.c:131
  105280:	83 ec 0c             	sub    $0xc,%esp
  105283:	ff 75 f0             	pushl  -0x10(%ebp)
  105286:	e8 c4 c5 ff ff       	call   10184f <ilock>
  10528b:	83 c4 10             	add    $0x10,%esp
/u/a/b/abhijith/CS537/p3b/xv6-sp20/kernel/sysfile.c:132
  10528e:	8b 45 f0             	mov    -0x10(%ebp),%eax
  105291:	8b 10                	mov    (%eax),%edx
  105293:	8b 45 f4             	mov    -0xc(%ebp),%eax
  105296:	8b 00                	mov    (%eax),%eax
  105298:	39 c2                	cmp    %eax,%edx
  10529a:	75 1d                	jne    1052b9 <sys_link+0x113>
/u/a/b/abhijith/CS537/p3b/xv6-sp20/kernel/sysfile.c:132 (discriminator 1)
  10529c:	8b 45 f4             	mov    -0xc(%ebp),%eax
  10529f:	8b 40 04             	mov    0x4(%eax),%eax
  1052a2:	83 ec 04             	sub    $0x4,%esp
  1052a5:	50                   	push   %eax
  1052a6:	8d 45 e2             	lea    -0x1e(%ebp),%eax
  1052a9:	50                   	push   %eax
  1052aa:	ff 75 f0             	pushl  -0x10(%ebp)
  1052ad:	e8 17 cf ff ff       	call   1021c9 <dirlink>
  1052b2:	83 c4 10             	add    $0x10,%esp
  1052b5:	85 c0                	test   %eax,%eax
  1052b7:	79 10                	jns    1052c9 <sys_link+0x123>
/u/a/b/abhijith/CS537/p3b/xv6-sp20/kernel/sysfile.c:133
  1052b9:	83 ec 0c             	sub    $0xc,%esp
  1052bc:	ff 75 f0             	pushl  -0x10(%ebp)
  1052bf:	e8 45 c8 ff ff       	call   101b09 <iunlockput>
  1052c4:	83 c4 10             	add    $0x10,%esp
/u/a/b/abhijith/CS537/p3b/xv6-sp20/kernel/sysfile.c:134
  1052c7:	eb 24                	jmp    1052ed <sys_link+0x147>
/u/a/b/abhijith/CS537/p3b/xv6-sp20/kernel/sysfile.c:136
  1052c9:	83 ec 0c             	sub    $0xc,%esp
  1052cc:	ff 75 f0             	pushl  -0x10(%ebp)
  1052cf:	e8 35 c8 ff ff       	call   101b09 <iunlockput>
  1052d4:	83 c4 10             	add    $0x10,%esp
/u/a/b/abhijith/CS537/p3b/xv6-sp20/kernel/sysfile.c:137
  1052d7:	83 ec 0c             	sub    $0xc,%esp
  1052da:	ff 75 f4             	pushl  -0xc(%ebp)
  1052dd:	e8 37 c7 ff ff       	call   101a19 <iput>
  1052e2:	83 c4 10             	add    $0x10,%esp
/u/a/b/abhijith/CS537/p3b/xv6-sp20/kernel/sysfile.c:138
  1052e5:	b8 00 00 00 00       	mov    $0x0,%eax
  1052ea:	eb 43                	jmp    10532f <sys_link+0x189>
/u/a/b/abhijith/CS537/p3b/xv6-sp20/kernel/sysfile.c:130
  1052ec:	90                   	nop
/u/a/b/abhijith/CS537/p3b/xv6-sp20/kernel/sysfile.c:141
  1052ed:	83 ec 0c             	sub    $0xc,%esp
  1052f0:	ff 75 f4             	pushl  -0xc(%ebp)
  1052f3:	e8 57 c5 ff ff       	call   10184f <ilock>
  1052f8:	83 c4 10             	add    $0x10,%esp
/u/a/b/abhijith/CS537/p3b/xv6-sp20/kernel/sysfile.c:142
  1052fb:	8b 45 f4             	mov    -0xc(%ebp),%eax
  1052fe:	0f b7 40 16          	movzwl 0x16(%eax),%eax
  105302:	83 e8 01             	sub    $0x1,%eax
  105305:	89 c2                	mov    %eax,%edx
  105307:	8b 45 f4             	mov    -0xc(%ebp),%eax
  10530a:	66 89 50 16          	mov    %dx,0x16(%eax)
/u/a/b/abhijith/CS537/p3b/xv6-sp20/kernel/sysfile.c:143
  10530e:	83 ec 0c             	sub    $0xc,%esp
  105311:	ff 75 f4             	pushl  -0xc(%ebp)
  105314:	e8 62 c3 ff ff       	call   10167b <iupdate>
  105319:	83 c4 10             	add    $0x10,%esp
/u/a/b/abhijith/CS537/p3b/xv6-sp20/kernel/sysfile.c:144
  10531c:	83 ec 0c             	sub    $0xc,%esp
  10531f:	ff 75 f4             	pushl  -0xc(%ebp)
  105322:	e8 e2 c7 ff ff       	call   101b09 <iunlockput>
  105327:	83 c4 10             	add    $0x10,%esp
/u/a/b/abhijith/CS537/p3b/xv6-sp20/kernel/sysfile.c:145
  10532a:	b8 ff ff ff ff       	mov    $0xffffffff,%eax
/u/a/b/abhijith/CS537/p3b/xv6-sp20/kernel/sysfile.c:146 (discriminator 1)
  10532f:	c9                   	leave  
  105330:	c3                   	ret    

00105331 <isdirempty>:
isdirempty():
/u/a/b/abhijith/CS537/p3b/xv6-sp20/kernel/sysfile.c:151
  105331:	55                   	push   %ebp
  105332:	89 e5                	mov    %esp,%ebp
  105334:	83 ec 28             	sub    $0x28,%esp
/u/a/b/abhijith/CS537/p3b/xv6-sp20/kernel/sysfile.c:155
  105337:	c7 45 f4 20 00 00 00 	movl   $0x20,-0xc(%ebp)
  10533e:	eb 40                	jmp    105380 <isdirempty+0x4f>
/u/a/b/abhijith/CS537/p3b/xv6-sp20/kernel/sysfile.c:156
  105340:	8b 45 f4             	mov    -0xc(%ebp),%eax
  105343:	6a 10                	push   $0x10
  105345:	50                   	push   %eax
  105346:	8d 45 e4             	lea    -0x1c(%ebp),%eax
  105349:	50                   	push   %eax
  10534a:	ff 75 08             	pushl  0x8(%ebp)
  10534d:	e8 60 ca ff ff       	call   101db2 <readi>
  105352:	83 c4 10             	add    $0x10,%esp
  105355:	83 f8 10             	cmp    $0x10,%eax
  105358:	74 0d                	je     105367 <isdirempty+0x36>
/u/a/b/abhijith/CS537/p3b/xv6-sp20/kernel/sysfile.c:157
  10535a:	83 ec 0c             	sub    $0xc,%esp
  10535d:	68 bb 82 10 00       	push   $0x1082bb
  105362:	e8 11 b2 ff ff       	call   100578 <panic>
/u/a/b/abhijith/CS537/p3b/xv6-sp20/kernel/sysfile.c:158
  105367:	0f b7 45 e4          	movzwl -0x1c(%ebp),%eax
  10536b:	66 85 c0             	test   %ax,%ax
  10536e:	74 07                	je     105377 <isdirempty+0x46>
/u/a/b/abhijith/CS537/p3b/xv6-sp20/kernel/sysfile.c:159
  105370:	b8 00 00 00 00       	mov    $0x0,%eax
  105375:	eb 1b                	jmp    105392 <isdirempty+0x61>
/u/a/b/abhijith/CS537/p3b/xv6-sp20/kernel/sysfile.c:155 (discriminator 2)
  105377:	8b 45 f4             	mov    -0xc(%ebp),%eax
  10537a:	83 c0 10             	add    $0x10,%eax
  10537d:	89 45 f4             	mov    %eax,-0xc(%ebp)
/u/a/b/abhijith/CS537/p3b/xv6-sp20/kernel/sysfile.c:155 (discriminator 1)
  105380:	8b 45 08             	mov    0x8(%ebp),%eax
  105383:	8b 50 18             	mov    0x18(%eax),%edx
  105386:	8b 45 f4             	mov    -0xc(%ebp),%eax
  105389:	39 c2                	cmp    %eax,%edx
  10538b:	77 b3                	ja     105340 <isdirempty+0xf>
/u/a/b/abhijith/CS537/p3b/xv6-sp20/kernel/sysfile.c:161
  10538d:	b8 01 00 00 00       	mov    $0x1,%eax
/u/a/b/abhijith/CS537/p3b/xv6-sp20/kernel/sysfile.c:162 (discriminator 1)
  105392:	c9                   	leave  
  105393:	c3                   	ret    

00105394 <sys_unlink>:
sys_unlink():
/u/a/b/abhijith/CS537/p3b/xv6-sp20/kernel/sysfile.c:166
  105394:	55                   	push   %ebp
  105395:	89 e5                	mov    %esp,%ebp
  105397:	83 ec 38             	sub    $0x38,%esp
/u/a/b/abhijith/CS537/p3b/xv6-sp20/kernel/sysfile.c:172
  10539a:	83 ec 08             	sub    $0x8,%esp
  10539d:	8d 45 cc             	lea    -0x34(%ebp),%eax
  1053a0:	50                   	push   %eax
  1053a1:	6a 00                	push   $0x0
  1053a3:	e8 b2 fa ff ff       	call   104e5a <argstr>
  1053a8:	83 c4 10             	add    $0x10,%esp
  1053ab:	85 c0                	test   %eax,%eax
  1053ad:	79 0a                	jns    1053b9 <sys_unlink+0x25>
/u/a/b/abhijith/CS537/p3b/xv6-sp20/kernel/sysfile.c:173
  1053af:	b8 ff ff ff ff       	mov    $0xffffffff,%eax
  1053b4:	e9 c9 01 00 00       	jmp    105582 <sys_unlink+0x1ee>
/u/a/b/abhijith/CS537/p3b/xv6-sp20/kernel/sysfile.c:174
  1053b9:	8b 45 cc             	mov    -0x34(%ebp),%eax
  1053bc:	83 ec 08             	sub    $0x8,%esp
  1053bf:	8d 55 d2             	lea    -0x2e(%ebp),%edx
  1053c2:	52                   	push   %edx
  1053c3:	50                   	push   %eax
  1053c4:	e8 b8 d0 ff ff       	call   102481 <nameiparent>
  1053c9:	83 c4 10             	add    $0x10,%esp
  1053cc:	89 45 f4             	mov    %eax,-0xc(%ebp)
  1053cf:	83 7d f4 00          	cmpl   $0x0,-0xc(%ebp)
  1053d3:	75 0a                	jne    1053df <sys_unlink+0x4b>
/u/a/b/abhijith/CS537/p3b/xv6-sp20/kernel/sysfile.c:175
  1053d5:	b8 ff ff ff ff       	mov    $0xffffffff,%eax
  1053da:	e9 a3 01 00 00       	jmp    105582 <sys_unlink+0x1ee>
/u/a/b/abhijith/CS537/p3b/xv6-sp20/kernel/sysfile.c:176
  1053df:	83 ec 0c             	sub    $0xc,%esp
  1053e2:	ff 75 f4             	pushl  -0xc(%ebp)
  1053e5:	e8 65 c4 ff ff       	call   10184f <ilock>
  1053ea:	83 c4 10             	add    $0x10,%esp
/u/a/b/abhijith/CS537/p3b/xv6-sp20/kernel/sysfile.c:179
  1053ed:	83 ec 08             	sub    $0x8,%esp
  1053f0:	68 cd 82 10 00       	push   $0x1082cd
  1053f5:	8d 45 d2             	lea    -0x2e(%ebp),%eax
  1053f8:	50                   	push   %eax
  1053f9:	e8 94 cc ff ff       	call   102092 <namecmp>
  1053fe:	83 c4 10             	add    $0x10,%esp
  105401:	85 c0                	test   %eax,%eax
  105403:	74 18                	je     10541d <sys_unlink+0x89>
/u/a/b/abhijith/CS537/p3b/xv6-sp20/kernel/sysfile.c:179 (discriminator 1)
  105405:	83 ec 08             	sub    $0x8,%esp
  105408:	68 cf 82 10 00       	push   $0x1082cf
  10540d:	8d 45 d2             	lea    -0x2e(%ebp),%eax
  105410:	50                   	push   %eax
  105411:	e8 7c cc ff ff       	call   102092 <namecmp>
  105416:	83 c4 10             	add    $0x10,%esp
  105419:	85 c0                	test   %eax,%eax
  10541b:	75 18                	jne    105435 <sys_unlink+0xa1>
/u/a/b/abhijith/CS537/p3b/xv6-sp20/kernel/sysfile.c:180
  10541d:	83 ec 0c             	sub    $0xc,%esp
  105420:	ff 75 f4             	pushl  -0xc(%ebp)
  105423:	e8 e1 c6 ff ff       	call   101b09 <iunlockput>
  105428:	83 c4 10             	add    $0x10,%esp
/u/a/b/abhijith/CS537/p3b/xv6-sp20/kernel/sysfile.c:181
  10542b:	b8 ff ff ff ff       	mov    $0xffffffff,%eax
  105430:	e9 4d 01 00 00       	jmp    105582 <sys_unlink+0x1ee>
/u/a/b/abhijith/CS537/p3b/xv6-sp20/kernel/sysfile.c:184
  105435:	83 ec 04             	sub    $0x4,%esp
  105438:	8d 45 c8             	lea    -0x38(%ebp),%eax
  10543b:	50                   	push   %eax
  10543c:	8d 45 d2             	lea    -0x2e(%ebp),%eax
  10543f:	50                   	push   %eax
  105440:	ff 75 f4             	pushl  -0xc(%ebp)
  105443:	e8 65 cc ff ff       	call   1020ad <dirlookup>
  105448:	83 c4 10             	add    $0x10,%esp
  10544b:	89 45 f0             	mov    %eax,-0x10(%ebp)
  10544e:	83 7d f0 00          	cmpl   $0x0,-0x10(%ebp)
  105452:	75 18                	jne    10546c <sys_unlink+0xd8>
/u/a/b/abhijith/CS537/p3b/xv6-sp20/kernel/sysfile.c:185
  105454:	83 ec 0c             	sub    $0xc,%esp
  105457:	ff 75 f4             	pushl  -0xc(%ebp)
  10545a:	e8 aa c6 ff ff       	call   101b09 <iunlockput>
  10545f:	83 c4 10             	add    $0x10,%esp
/u/a/b/abhijith/CS537/p3b/xv6-sp20/kernel/sysfile.c:186
  105462:	b8 ff ff ff ff       	mov    $0xffffffff,%eax
  105467:	e9 16 01 00 00       	jmp    105582 <sys_unlink+0x1ee>
/u/a/b/abhijith/CS537/p3b/xv6-sp20/kernel/sysfile.c:188
  10546c:	83 ec 0c             	sub    $0xc,%esp
  10546f:	ff 75 f0             	pushl  -0x10(%ebp)
  105472:	e8 d8 c3 ff ff       	call   10184f <ilock>
  105477:	83 c4 10             	add    $0x10,%esp
/u/a/b/abhijith/CS537/p3b/xv6-sp20/kernel/sysfile.c:190
  10547a:	8b 45 f0             	mov    -0x10(%ebp),%eax
  10547d:	0f b7 40 16          	movzwl 0x16(%eax),%eax
  105481:	66 85 c0             	test   %ax,%ax
  105484:	7f 0d                	jg     105493 <sys_unlink+0xff>
/u/a/b/abhijith/CS537/p3b/xv6-sp20/kernel/sysfile.c:191
  105486:	83 ec 0c             	sub    $0xc,%esp
  105489:	68 d2 82 10 00       	push   $0x1082d2
  10548e:	e8 e5 b0 ff ff       	call   100578 <panic>
/u/a/b/abhijith/CS537/p3b/xv6-sp20/kernel/sysfile.c:192
  105493:	8b 45 f0             	mov    -0x10(%ebp),%eax
  105496:	0f b7 40 10          	movzwl 0x10(%eax),%eax
  10549a:	66 83 f8 01          	cmp    $0x1,%ax
  10549e:	75 38                	jne    1054d8 <sys_unlink+0x144>
/u/a/b/abhijith/CS537/p3b/xv6-sp20/kernel/sysfile.c:192 (discriminator 1)
  1054a0:	83 ec 0c             	sub    $0xc,%esp
  1054a3:	ff 75 f0             	pushl  -0x10(%ebp)
  1054a6:	e8 86 fe ff ff       	call   105331 <isdirempty>
  1054ab:	83 c4 10             	add    $0x10,%esp
  1054ae:	85 c0                	test   %eax,%eax
  1054b0:	75 26                	jne    1054d8 <sys_unlink+0x144>
/u/a/b/abhijith/CS537/p3b/xv6-sp20/kernel/sysfile.c:193
  1054b2:	83 ec 0c             	sub    $0xc,%esp
  1054b5:	ff 75 f0             	pushl  -0x10(%ebp)
  1054b8:	e8 4c c6 ff ff       	call   101b09 <iunlockput>
  1054bd:	83 c4 10             	add    $0x10,%esp
/u/a/b/abhijith/CS537/p3b/xv6-sp20/kernel/sysfile.c:194
  1054c0:	83 ec 0c             	sub    $0xc,%esp
  1054c3:	ff 75 f4             	pushl  -0xc(%ebp)
  1054c6:	e8 3e c6 ff ff       	call   101b09 <iunlockput>
  1054cb:	83 c4 10             	add    $0x10,%esp
/u/a/b/abhijith/CS537/p3b/xv6-sp20/kernel/sysfile.c:195
  1054ce:	b8 ff ff ff ff       	mov    $0xffffffff,%eax
  1054d3:	e9 aa 00 00 00       	jmp    105582 <sys_unlink+0x1ee>
/u/a/b/abhijith/CS537/p3b/xv6-sp20/kernel/sysfile.c:198
  1054d8:	83 ec 04             	sub    $0x4,%esp
  1054db:	6a 10                	push   $0x10
  1054dd:	6a 00                	push   $0x0
  1054df:	8d 45 e0             	lea    -0x20(%ebp),%eax
  1054e2:	50                   	push   %eax
  1054e3:	e8 1a f6 ff ff       	call   104b02 <memset>
  1054e8:	83 c4 10             	add    $0x10,%esp
/u/a/b/abhijith/CS537/p3b/xv6-sp20/kernel/sysfile.c:199
  1054eb:	8b 45 c8             	mov    -0x38(%ebp),%eax
  1054ee:	6a 10                	push   $0x10
  1054f0:	50                   	push   %eax
  1054f1:	8d 45 e0             	lea    -0x20(%ebp),%eax
  1054f4:	50                   	push   %eax
  1054f5:	ff 75 f4             	pushl  -0xc(%ebp)
  1054f8:	e8 0c ca ff ff       	call   101f09 <writei>
  1054fd:	83 c4 10             	add    $0x10,%esp
  105500:	83 f8 10             	cmp    $0x10,%eax
  105503:	74 0d                	je     105512 <sys_unlink+0x17e>
/u/a/b/abhijith/CS537/p3b/xv6-sp20/kernel/sysfile.c:200
  105505:	83 ec 0c             	sub    $0xc,%esp
  105508:	68 e4 82 10 00       	push   $0x1082e4
  10550d:	e8 66 b0 ff ff       	call   100578 <panic>
/u/a/b/abhijith/CS537/p3b/xv6-sp20/kernel/sysfile.c:201
  105512:	8b 45 f0             	mov    -0x10(%ebp),%eax
  105515:	0f b7 40 10          	movzwl 0x10(%eax),%eax
  105519:	66 83 f8 01          	cmp    $0x1,%ax
  10551d:	75 21                	jne    105540 <sys_unlink+0x1ac>
/u/a/b/abhijith/CS537/p3b/xv6-sp20/kernel/sysfile.c:202
  10551f:	8b 45 f4             	mov    -0xc(%ebp),%eax
  105522:	0f b7 40 16          	movzwl 0x16(%eax),%eax
  105526:	83 e8 01             	sub    $0x1,%eax
  105529:	89 c2                	mov    %eax,%edx
  10552b:	8b 45 f4             	mov    -0xc(%ebp),%eax
  10552e:	66 89 50 16          	mov    %dx,0x16(%eax)
/u/a/b/abhijith/CS537/p3b/xv6-sp20/kernel/sysfile.c:203
  105532:	83 ec 0c             	sub    $0xc,%esp
  105535:	ff 75 f4             	pushl  -0xc(%ebp)
  105538:	e8 3e c1 ff ff       	call   10167b <iupdate>
  10553d:	83 c4 10             	add    $0x10,%esp
/u/a/b/abhijith/CS537/p3b/xv6-sp20/kernel/sysfile.c:205
  105540:	83 ec 0c             	sub    $0xc,%esp
  105543:	ff 75 f4             	pushl  -0xc(%ebp)
  105546:	e8 be c5 ff ff       	call   101b09 <iunlockput>
  10554b:	83 c4 10             	add    $0x10,%esp
/u/a/b/abhijith/CS537/p3b/xv6-sp20/kernel/sysfile.c:207
  10554e:	8b 45 f0             	mov    -0x10(%ebp),%eax
  105551:	0f b7 40 16          	movzwl 0x16(%eax),%eax
  105555:	83 e8 01             	sub    $0x1,%eax
  105558:	89 c2                	mov    %eax,%edx
  10555a:	8b 45 f0             	mov    -0x10(%ebp),%eax
  10555d:	66 89 50 16          	mov    %dx,0x16(%eax)
/u/a/b/abhijith/CS537/p3b/xv6-sp20/kernel/sysfile.c:208
  105561:	83 ec 0c             	sub    $0xc,%esp
  105564:	ff 75 f0             	pushl  -0x10(%ebp)
  105567:	e8 0f c1 ff ff       	call   10167b <iupdate>
  10556c:	83 c4 10             	add    $0x10,%esp
/u/a/b/abhijith/CS537/p3b/xv6-sp20/kernel/sysfile.c:209
  10556f:	83 ec 0c             	sub    $0xc,%esp
  105572:	ff 75 f0             	pushl  -0x10(%ebp)
  105575:	e8 8f c5 ff ff       	call   101b09 <iunlockput>
  10557a:	83 c4 10             	add    $0x10,%esp
/u/a/b/abhijith/CS537/p3b/xv6-sp20/kernel/sysfile.c:210
  10557d:	b8 00 00 00 00       	mov    $0x0,%eax
/u/a/b/abhijith/CS537/p3b/xv6-sp20/kernel/sysfile.c:211 (discriminator 1)
  105582:	c9                   	leave  
  105583:	c3                   	ret    

00105584 <create>:
create():
/u/a/b/abhijith/CS537/p3b/xv6-sp20/kernel/sysfile.c:215
  105584:	55                   	push   %ebp
  105585:	89 e5                	mov    %esp,%ebp
  105587:	83 ec 38             	sub    $0x38,%esp
  10558a:	8b 4d 0c             	mov    0xc(%ebp),%ecx
  10558d:	8b 55 10             	mov    0x10(%ebp),%edx
  105590:	8b 45 14             	mov    0x14(%ebp),%eax
  105593:	66 89 4d d4          	mov    %cx,-0x2c(%ebp)
  105597:	66 89 55 d0          	mov    %dx,-0x30(%ebp)
  10559b:	66 89 45 cc          	mov    %ax,-0x34(%ebp)
/u/a/b/abhijith/CS537/p3b/xv6-sp20/kernel/sysfile.c:220
  10559f:	83 ec 08             	sub    $0x8,%esp
  1055a2:	8d 45 de             	lea    -0x22(%ebp),%eax
  1055a5:	50                   	push   %eax
  1055a6:	ff 75 08             	pushl  0x8(%ebp)
  1055a9:	e8 d3 ce ff ff       	call   102481 <nameiparent>
  1055ae:	83 c4 10             	add    $0x10,%esp
  1055b1:	89 45 f4             	mov    %eax,-0xc(%ebp)
  1055b4:	83 7d f4 00          	cmpl   $0x0,-0xc(%ebp)
  1055b8:	75 0a                	jne    1055c4 <create+0x40>
/u/a/b/abhijith/CS537/p3b/xv6-sp20/kernel/sysfile.c:221
  1055ba:	b8 00 00 00 00       	mov    $0x0,%eax
  1055bf:	e9 90 01 00 00       	jmp    105754 <create+0x1d0>
/u/a/b/abhijith/CS537/p3b/xv6-sp20/kernel/sysfile.c:222
  1055c4:	83 ec 0c             	sub    $0xc,%esp
  1055c7:	ff 75 f4             	pushl  -0xc(%ebp)
  1055ca:	e8 80 c2 ff ff       	call   10184f <ilock>
  1055cf:	83 c4 10             	add    $0x10,%esp
/u/a/b/abhijith/CS537/p3b/xv6-sp20/kernel/sysfile.c:224
  1055d2:	83 ec 04             	sub    $0x4,%esp
  1055d5:	8d 45 ec             	lea    -0x14(%ebp),%eax
  1055d8:	50                   	push   %eax
  1055d9:	8d 45 de             	lea    -0x22(%ebp),%eax
  1055dc:	50                   	push   %eax
  1055dd:	ff 75 f4             	pushl  -0xc(%ebp)
  1055e0:	e8 c8 ca ff ff       	call   1020ad <dirlookup>
  1055e5:	83 c4 10             	add    $0x10,%esp
  1055e8:	89 45 f0             	mov    %eax,-0x10(%ebp)
  1055eb:	83 7d f0 00          	cmpl   $0x0,-0x10(%ebp)
  1055ef:	74 50                	je     105641 <create+0xbd>
/u/a/b/abhijith/CS537/p3b/xv6-sp20/kernel/sysfile.c:225
  1055f1:	83 ec 0c             	sub    $0xc,%esp
  1055f4:	ff 75 f4             	pushl  -0xc(%ebp)
  1055f7:	e8 0d c5 ff ff       	call   101b09 <iunlockput>
  1055fc:	83 c4 10             	add    $0x10,%esp
/u/a/b/abhijith/CS537/p3b/xv6-sp20/kernel/sysfile.c:226
  1055ff:	83 ec 0c             	sub    $0xc,%esp
  105602:	ff 75 f0             	pushl  -0x10(%ebp)
  105605:	e8 45 c2 ff ff       	call   10184f <ilock>
  10560a:	83 c4 10             	add    $0x10,%esp
/u/a/b/abhijith/CS537/p3b/xv6-sp20/kernel/sysfile.c:227
  10560d:	66 83 7d d4 02       	cmpw   $0x2,-0x2c(%ebp)
  105612:	75 15                	jne    105629 <create+0xa5>
/u/a/b/abhijith/CS537/p3b/xv6-sp20/kernel/sysfile.c:227 (discriminator 1)
  105614:	8b 45 f0             	mov    -0x10(%ebp),%eax
  105617:	0f b7 40 10          	movzwl 0x10(%eax),%eax
  10561b:	66 83 f8 02          	cmp    $0x2,%ax
  10561f:	75 08                	jne    105629 <create+0xa5>
/u/a/b/abhijith/CS537/p3b/xv6-sp20/kernel/sysfile.c:228
  105621:	8b 45 f0             	mov    -0x10(%ebp),%eax
  105624:	e9 2b 01 00 00       	jmp    105754 <create+0x1d0>
/u/a/b/abhijith/CS537/p3b/xv6-sp20/kernel/sysfile.c:229
  105629:	83 ec 0c             	sub    $0xc,%esp
  10562c:	ff 75 f0             	pushl  -0x10(%ebp)
  10562f:	e8 d5 c4 ff ff       	call   101b09 <iunlockput>
  105634:	83 c4 10             	add    $0x10,%esp
/u/a/b/abhijith/CS537/p3b/xv6-sp20/kernel/sysfile.c:230
  105637:	b8 00 00 00 00       	mov    $0x0,%eax
  10563c:	e9 13 01 00 00       	jmp    105754 <create+0x1d0>
/u/a/b/abhijith/CS537/p3b/xv6-sp20/kernel/sysfile.c:233
  105641:	0f bf 55 d4          	movswl -0x2c(%ebp),%edx
  105645:	8b 45 f4             	mov    -0xc(%ebp),%eax
  105648:	8b 00                	mov    (%eax),%eax
  10564a:	83 ec 08             	sub    $0x8,%esp
  10564d:	52                   	push   %edx
  10564e:	50                   	push   %eax
  10564f:	e8 46 bf ff ff       	call   10159a <ialloc>
  105654:	83 c4 10             	add    $0x10,%esp
  105657:	89 45 f0             	mov    %eax,-0x10(%ebp)
  10565a:	83 7d f0 00          	cmpl   $0x0,-0x10(%ebp)
  10565e:	75 0d                	jne    10566d <create+0xe9>
/u/a/b/abhijith/CS537/p3b/xv6-sp20/kernel/sysfile.c:234
  105660:	83 ec 0c             	sub    $0xc,%esp
  105663:	68 f3 82 10 00       	push   $0x1082f3
  105668:	e8 0b af ff ff       	call   100578 <panic>
/u/a/b/abhijith/CS537/p3b/xv6-sp20/kernel/sysfile.c:236
  10566d:	83 ec 0c             	sub    $0xc,%esp
  105670:	ff 75 f0             	pushl  -0x10(%ebp)
  105673:	e8 d7 c1 ff ff       	call   10184f <ilock>
  105678:	83 c4 10             	add    $0x10,%esp
/u/a/b/abhijith/CS537/p3b/xv6-sp20/kernel/sysfile.c:237
  10567b:	8b 45 f0             	mov    -0x10(%ebp),%eax
  10567e:	0f b7 55 d0          	movzwl -0x30(%ebp),%edx
  105682:	66 89 50 12          	mov    %dx,0x12(%eax)
/u/a/b/abhijith/CS537/p3b/xv6-sp20/kernel/sysfile.c:238
  105686:	8b 45 f0             	mov    -0x10(%ebp),%eax
  105689:	0f b7 55 cc          	movzwl -0x34(%ebp),%edx
  10568d:	66 89 50 14          	mov    %dx,0x14(%eax)
/u/a/b/abhijith/CS537/p3b/xv6-sp20/kernel/sysfile.c:239
  105691:	8b 45 f0             	mov    -0x10(%ebp),%eax
  105694:	66 c7 40 16 01 00    	movw   $0x1,0x16(%eax)
/u/a/b/abhijith/CS537/p3b/xv6-sp20/kernel/sysfile.c:240
  10569a:	83 ec 0c             	sub    $0xc,%esp
  10569d:	ff 75 f0             	pushl  -0x10(%ebp)
  1056a0:	e8 d6 bf ff ff       	call   10167b <iupdate>
  1056a5:	83 c4 10             	add    $0x10,%esp
/u/a/b/abhijith/CS537/p3b/xv6-sp20/kernel/sysfile.c:242
  1056a8:	66 83 7d d4 01       	cmpw   $0x1,-0x2c(%ebp)
  1056ad:	75 6a                	jne    105719 <create+0x195>
/u/a/b/abhijith/CS537/p3b/xv6-sp20/kernel/sysfile.c:243
  1056af:	8b 45 f4             	mov    -0xc(%ebp),%eax
  1056b2:	0f b7 40 16          	movzwl 0x16(%eax),%eax
  1056b6:	83 c0 01             	add    $0x1,%eax
  1056b9:	89 c2                	mov    %eax,%edx
  1056bb:	8b 45 f4             	mov    -0xc(%ebp),%eax
  1056be:	66 89 50 16          	mov    %dx,0x16(%eax)
/u/a/b/abhijith/CS537/p3b/xv6-sp20/kernel/sysfile.c:244
  1056c2:	83 ec 0c             	sub    $0xc,%esp
  1056c5:	ff 75 f4             	pushl  -0xc(%ebp)
  1056c8:	e8 ae bf ff ff       	call   10167b <iupdate>
  1056cd:	83 c4 10             	add    $0x10,%esp
/u/a/b/abhijith/CS537/p3b/xv6-sp20/kernel/sysfile.c:246
  1056d0:	8b 45 f0             	mov    -0x10(%ebp),%eax
  1056d3:	8b 40 04             	mov    0x4(%eax),%eax
  1056d6:	83 ec 04             	sub    $0x4,%esp
  1056d9:	50                   	push   %eax
  1056da:	68 cd 82 10 00       	push   $0x1082cd
  1056df:	ff 75 f0             	pushl  -0x10(%ebp)
  1056e2:	e8 e2 ca ff ff       	call   1021c9 <dirlink>
  1056e7:	83 c4 10             	add    $0x10,%esp
  1056ea:	85 c0                	test   %eax,%eax
  1056ec:	78 1e                	js     10570c <create+0x188>
/u/a/b/abhijith/CS537/p3b/xv6-sp20/kernel/sysfile.c:246 (discriminator 1)
  1056ee:	8b 45 f4             	mov    -0xc(%ebp),%eax
  1056f1:	8b 40 04             	mov    0x4(%eax),%eax
  1056f4:	83 ec 04             	sub    $0x4,%esp
  1056f7:	50                   	push   %eax
  1056f8:	68 cf 82 10 00       	push   $0x1082cf
  1056fd:	ff 75 f0             	pushl  -0x10(%ebp)
  105700:	e8 c4 ca ff ff       	call   1021c9 <dirlink>
  105705:	83 c4 10             	add    $0x10,%esp
  105708:	85 c0                	test   %eax,%eax
  10570a:	79 0d                	jns    105719 <create+0x195>
/u/a/b/abhijith/CS537/p3b/xv6-sp20/kernel/sysfile.c:247
  10570c:	83 ec 0c             	sub    $0xc,%esp
  10570f:	68 02 83 10 00       	push   $0x108302
  105714:	e8 5f ae ff ff       	call   100578 <panic>
/u/a/b/abhijith/CS537/p3b/xv6-sp20/kernel/sysfile.c:250
  105719:	8b 45 f0             	mov    -0x10(%ebp),%eax
  10571c:	8b 40 04             	mov    0x4(%eax),%eax
  10571f:	83 ec 04             	sub    $0x4,%esp
  105722:	50                   	push   %eax
  105723:	8d 45 de             	lea    -0x22(%ebp),%eax
  105726:	50                   	push   %eax
  105727:	ff 75 f4             	pushl  -0xc(%ebp)
  10572a:	e8 9a ca ff ff       	call   1021c9 <dirlink>
  10572f:	83 c4 10             	add    $0x10,%esp
  105732:	85 c0                	test   %eax,%eax
  105734:	79 0d                	jns    105743 <create+0x1bf>
/u/a/b/abhijith/CS537/p3b/xv6-sp20/kernel/sysfile.c:251
  105736:	83 ec 0c             	sub    $0xc,%esp
  105739:	68 0e 83 10 00       	push   $0x10830e
  10573e:	e8 35 ae ff ff       	call   100578 <panic>
/u/a/b/abhijith/CS537/p3b/xv6-sp20/kernel/sysfile.c:253
  105743:	83 ec 0c             	sub    $0xc,%esp
  105746:	ff 75 f4             	pushl  -0xc(%ebp)
  105749:	e8 bb c3 ff ff       	call   101b09 <iunlockput>
  10574e:	83 c4 10             	add    $0x10,%esp
/u/a/b/abhijith/CS537/p3b/xv6-sp20/kernel/sysfile.c:254
  105751:	8b 45 f0             	mov    -0x10(%ebp),%eax
/u/a/b/abhijith/CS537/p3b/xv6-sp20/kernel/sysfile.c:255 (discriminator 1)
  105754:	c9                   	leave  
  105755:	c3                   	ret    

00105756 <sys_open>:
sys_open():
/u/a/b/abhijith/CS537/p3b/xv6-sp20/kernel/sysfile.c:259
  105756:	55                   	push   %ebp
  105757:	89 e5                	mov    %esp,%ebp
  105759:	83 ec 28             	sub    $0x28,%esp
/u/a/b/abhijith/CS537/p3b/xv6-sp20/kernel/sysfile.c:265
  10575c:	83 ec 08             	sub    $0x8,%esp
  10575f:	8d 45 e8             	lea    -0x18(%ebp),%eax
  105762:	50                   	push   %eax
  105763:	6a 00                	push   $0x0
  105765:	e8 f0 f6 ff ff       	call   104e5a <argstr>
  10576a:	83 c4 10             	add    $0x10,%esp
  10576d:	85 c0                	test   %eax,%eax
  10576f:	78 15                	js     105786 <sys_open+0x30>
/u/a/b/abhijith/CS537/p3b/xv6-sp20/kernel/sysfile.c:265 (discriminator 1)
  105771:	83 ec 08             	sub    $0x8,%esp
  105774:	8d 45 e4             	lea    -0x1c(%ebp),%eax
  105777:	50                   	push   %eax
  105778:	6a 01                	push   $0x1
  10577a:	e8 4f f6 ff ff       	call   104dce <argint>
  10577f:	83 c4 10             	add    $0x10,%esp
  105782:	85 c0                	test   %eax,%eax
  105784:	79 0a                	jns    105790 <sys_open+0x3a>
/u/a/b/abhijith/CS537/p3b/xv6-sp20/kernel/sysfile.c:266
  105786:	b8 ff ff ff ff       	mov    $0xffffffff,%eax
  10578b:	e9 43 01 00 00       	jmp    1058d3 <sys_open+0x17d>
/u/a/b/abhijith/CS537/p3b/xv6-sp20/kernel/sysfile.c:267
  105790:	8b 45 e4             	mov    -0x1c(%ebp),%eax
  105793:	25 00 02 00 00       	and    $0x200,%eax
  105798:	85 c0                	test   %eax,%eax
  10579a:	74 25                	je     1057c1 <sys_open+0x6b>
/u/a/b/abhijith/CS537/p3b/xv6-sp20/kernel/sysfile.c:268
  10579c:	8b 45 e8             	mov    -0x18(%ebp),%eax
  10579f:	6a 00                	push   $0x0
  1057a1:	6a 00                	push   $0x0
  1057a3:	6a 02                	push   $0x2
  1057a5:	50                   	push   %eax
  1057a6:	e8 d9 fd ff ff       	call   105584 <create>
  1057ab:	83 c4 10             	add    $0x10,%esp
  1057ae:	89 45 f4             	mov    %eax,-0xc(%ebp)
  1057b1:	83 7d f4 00          	cmpl   $0x0,-0xc(%ebp)
  1057b5:	75 66                	jne    10581d <sys_open+0xc7>
/u/a/b/abhijith/CS537/p3b/xv6-sp20/kernel/sysfile.c:269
  1057b7:	b8 ff ff ff ff       	mov    $0xffffffff,%eax
  1057bc:	e9 12 01 00 00       	jmp    1058d3 <sys_open+0x17d>
/u/a/b/abhijith/CS537/p3b/xv6-sp20/kernel/sysfile.c:271
  1057c1:	8b 45 e8             	mov    -0x18(%ebp),%eax
  1057c4:	83 ec 0c             	sub    $0xc,%esp
  1057c7:	50                   	push   %eax
  1057c8:	e8 98 cc ff ff       	call   102465 <namei>
  1057cd:	83 c4 10             	add    $0x10,%esp
  1057d0:	89 45 f4             	mov    %eax,-0xc(%ebp)
  1057d3:	83 7d f4 00          	cmpl   $0x0,-0xc(%ebp)
  1057d7:	75 0a                	jne    1057e3 <sys_open+0x8d>
/u/a/b/abhijith/CS537/p3b/xv6-sp20/kernel/sysfile.c:272
  1057d9:	b8 ff ff ff ff       	mov    $0xffffffff,%eax
  1057de:	e9 f0 00 00 00       	jmp    1058d3 <sys_open+0x17d>
/u/a/b/abhijith/CS537/p3b/xv6-sp20/kernel/sysfile.c:273
  1057e3:	83 ec 0c             	sub    $0xc,%esp
  1057e6:	ff 75 f4             	pushl  -0xc(%ebp)
  1057e9:	e8 61 c0 ff ff       	call   10184f <ilock>
  1057ee:	83 c4 10             	add    $0x10,%esp
/u/a/b/abhijith/CS537/p3b/xv6-sp20/kernel/sysfile.c:274
  1057f1:	8b 45 f4             	mov    -0xc(%ebp),%eax
  1057f4:	0f b7 40 10          	movzwl 0x10(%eax),%eax
  1057f8:	66 83 f8 01          	cmp    $0x1,%ax
  1057fc:	75 1f                	jne    10581d <sys_open+0xc7>
/u/a/b/abhijith/CS537/p3b/xv6-sp20/kernel/sysfile.c:274 (discriminator 1)
  1057fe:	8b 45 e4             	mov    -0x1c(%ebp),%eax
  105801:	85 c0                	test   %eax,%eax
  105803:	74 18                	je     10581d <sys_open+0xc7>
/u/a/b/abhijith/CS537/p3b/xv6-sp20/kernel/sysfile.c:275
  105805:	83 ec 0c             	sub    $0xc,%esp
  105808:	ff 75 f4             	pushl  -0xc(%ebp)
  10580b:	e8 f9 c2 ff ff       	call   101b09 <iunlockput>
  105810:	83 c4 10             	add    $0x10,%esp
/u/a/b/abhijith/CS537/p3b/xv6-sp20/kernel/sysfile.c:276
  105813:	b8 ff ff ff ff       	mov    $0xffffffff,%eax
  105818:	e9 b6 00 00 00       	jmp    1058d3 <sys_open+0x17d>
/u/a/b/abhijith/CS537/p3b/xv6-sp20/kernel/sysfile.c:280
  10581d:	e8 3f b7 ff ff       	call   100f61 <filealloc>
  105822:	89 45 f0             	mov    %eax,-0x10(%ebp)
  105825:	83 7d f0 00          	cmpl   $0x0,-0x10(%ebp)
  105829:	74 17                	je     105842 <sys_open+0xec>
/u/a/b/abhijith/CS537/p3b/xv6-sp20/kernel/sysfile.c:280 (discriminator 1)
  10582b:	83 ec 0c             	sub    $0xc,%esp
  10582e:	ff 75 f0             	pushl  -0x10(%ebp)
  105831:	e8 57 f7 ff ff       	call   104f8d <fdalloc>
  105836:	83 c4 10             	add    $0x10,%esp
  105839:	89 45 ec             	mov    %eax,-0x14(%ebp)
  10583c:	83 7d ec 00          	cmpl   $0x0,-0x14(%ebp)
  105840:	79 29                	jns    10586b <sys_open+0x115>
/u/a/b/abhijith/CS537/p3b/xv6-sp20/kernel/sysfile.c:281
  105842:	83 7d f0 00          	cmpl   $0x0,-0x10(%ebp)
  105846:	74 0e                	je     105856 <sys_open+0x100>
/u/a/b/abhijith/CS537/p3b/xv6-sp20/kernel/sysfile.c:282
  105848:	83 ec 0c             	sub    $0xc,%esp
  10584b:	ff 75 f0             	pushl  -0x10(%ebp)
  10584e:	e8 cc b7 ff ff       	call   10101f <fileclose>
  105853:	83 c4 10             	add    $0x10,%esp
/u/a/b/abhijith/CS537/p3b/xv6-sp20/kernel/sysfile.c:283
  105856:	83 ec 0c             	sub    $0xc,%esp
  105859:	ff 75 f4             	pushl  -0xc(%ebp)
  10585c:	e8 a8 c2 ff ff       	call   101b09 <iunlockput>
  105861:	83 c4 10             	add    $0x10,%esp
/u/a/b/abhijith/CS537/p3b/xv6-sp20/kernel/sysfile.c:284
  105864:	b8 ff ff ff ff       	mov    $0xffffffff,%eax
  105869:	eb 68                	jmp    1058d3 <sys_open+0x17d>
/u/a/b/abhijith/CS537/p3b/xv6-sp20/kernel/sysfile.c:286
  10586b:	83 ec 0c             	sub    $0xc,%esp
  10586e:	ff 75 f4             	pushl  -0xc(%ebp)
  105871:	e8 31 c1 ff ff       	call   1019a7 <iunlock>
  105876:	83 c4 10             	add    $0x10,%esp
/u/a/b/abhijith/CS537/p3b/xv6-sp20/kernel/sysfile.c:288
  105879:	8b 45 f0             	mov    -0x10(%ebp),%eax
  10587c:	c7 00 02 00 00 00    	movl   $0x2,(%eax)
/u/a/b/abhijith/CS537/p3b/xv6-sp20/kernel/sysfile.c:289
  105882:	8b 45 f0             	mov    -0x10(%ebp),%eax
  105885:	8b 55 f4             	mov    -0xc(%ebp),%edx
  105888:	89 50 10             	mov    %edx,0x10(%eax)
/u/a/b/abhijith/CS537/p3b/xv6-sp20/kernel/sysfile.c:290
  10588b:	8b 45 f0             	mov    -0x10(%ebp),%eax
  10588e:	c7 40 14 00 00 00 00 	movl   $0x0,0x14(%eax)
/u/a/b/abhijith/CS537/p3b/xv6-sp20/kernel/sysfile.c:291
  105895:	8b 45 e4             	mov    -0x1c(%ebp),%eax
  105898:	83 e0 01             	and    $0x1,%eax
  10589b:	85 c0                	test   %eax,%eax
  10589d:	0f 94 c0             	sete   %al
  1058a0:	89 c2                	mov    %eax,%edx
  1058a2:	8b 45 f0             	mov    -0x10(%ebp),%eax
  1058a5:	88 50 08             	mov    %dl,0x8(%eax)
/u/a/b/abhijith/CS537/p3b/xv6-sp20/kernel/sysfile.c:292
  1058a8:	8b 45 e4             	mov    -0x1c(%ebp),%eax
  1058ab:	83 e0 01             	and    $0x1,%eax
  1058ae:	85 c0                	test   %eax,%eax
  1058b0:	75 0a                	jne    1058bc <sys_open+0x166>
/u/a/b/abhijith/CS537/p3b/xv6-sp20/kernel/sysfile.c:292 (discriminator 2)
  1058b2:	8b 45 e4             	mov    -0x1c(%ebp),%eax
  1058b5:	83 e0 02             	and    $0x2,%eax
  1058b8:	85 c0                	test   %eax,%eax
  1058ba:	74 07                	je     1058c3 <sys_open+0x16d>
/u/a/b/abhijith/CS537/p3b/xv6-sp20/kernel/sysfile.c:292 (discriminator 3)
  1058bc:	b8 01 00 00 00       	mov    $0x1,%eax
  1058c1:	eb 05                	jmp    1058c8 <sys_open+0x172>
/u/a/b/abhijith/CS537/p3b/xv6-sp20/kernel/sysfile.c:292 (discriminator 4)
  1058c3:	b8 00 00 00 00       	mov    $0x0,%eax
/u/a/b/abhijith/CS537/p3b/xv6-sp20/kernel/sysfile.c:292 (discriminator 6)
  1058c8:	89 c2                	mov    %eax,%edx
  1058ca:	8b 45 f0             	mov    -0x10(%ebp),%eax
  1058cd:	88 50 09             	mov    %dl,0x9(%eax)
/u/a/b/abhijith/CS537/p3b/xv6-sp20/kernel/sysfile.c:293 (discriminator 6)
  1058d0:	8b 45 ec             	mov    -0x14(%ebp),%eax
/u/a/b/abhijith/CS537/p3b/xv6-sp20/kernel/sysfile.c:294 (discriminator 1)
  1058d3:	c9                   	leave  
  1058d4:	c3                   	ret    

001058d5 <sys_mkdir>:
sys_mkdir():
/u/a/b/abhijith/CS537/p3b/xv6-sp20/kernel/sysfile.c:298
  1058d5:	55                   	push   %ebp
  1058d6:	89 e5                	mov    %esp,%ebp
  1058d8:	83 ec 18             	sub    $0x18,%esp
/u/a/b/abhijith/CS537/p3b/xv6-sp20/kernel/sysfile.c:302
  1058db:	83 ec 08             	sub    $0x8,%esp
  1058de:	8d 45 f0             	lea    -0x10(%ebp),%eax
  1058e1:	50                   	push   %eax
  1058e2:	6a 00                	push   $0x0
  1058e4:	e8 71 f5 ff ff       	call   104e5a <argstr>
  1058e9:	83 c4 10             	add    $0x10,%esp
  1058ec:	85 c0                	test   %eax,%eax
  1058ee:	78 1b                	js     10590b <sys_mkdir+0x36>
/u/a/b/abhijith/CS537/p3b/xv6-sp20/kernel/sysfile.c:302 (discriminator 1)
  1058f0:	8b 45 f0             	mov    -0x10(%ebp),%eax
  1058f3:	6a 00                	push   $0x0
  1058f5:	6a 00                	push   $0x0
  1058f7:	6a 01                	push   $0x1
  1058f9:	50                   	push   %eax
  1058fa:	e8 85 fc ff ff       	call   105584 <create>
  1058ff:	83 c4 10             	add    $0x10,%esp
  105902:	89 45 f4             	mov    %eax,-0xc(%ebp)
  105905:	83 7d f4 00          	cmpl   $0x0,-0xc(%ebp)
  105909:	75 07                	jne    105912 <sys_mkdir+0x3d>
/u/a/b/abhijith/CS537/p3b/xv6-sp20/kernel/sysfile.c:303
  10590b:	b8 ff ff ff ff       	mov    $0xffffffff,%eax
  105910:	eb 13                	jmp    105925 <sys_mkdir+0x50>
/u/a/b/abhijith/CS537/p3b/xv6-sp20/kernel/sysfile.c:304
  105912:	83 ec 0c             	sub    $0xc,%esp
  105915:	ff 75 f4             	pushl  -0xc(%ebp)
  105918:	e8 ec c1 ff ff       	call   101b09 <iunlockput>
  10591d:	83 c4 10             	add    $0x10,%esp
/u/a/b/abhijith/CS537/p3b/xv6-sp20/kernel/sysfile.c:305
  105920:	b8 00 00 00 00       	mov    $0x0,%eax
/u/a/b/abhijith/CS537/p3b/xv6-sp20/kernel/sysfile.c:306 (discriminator 1)
  105925:	c9                   	leave  
  105926:	c3                   	ret    

00105927 <sys_mknod>:
sys_mknod():
/u/a/b/abhijith/CS537/p3b/xv6-sp20/kernel/sysfile.c:310
  105927:	55                   	push   %ebp
  105928:	89 e5                	mov    %esp,%ebp
  10592a:	83 ec 28             	sub    $0x28,%esp
/u/a/b/abhijith/CS537/p3b/xv6-sp20/kernel/sysfile.c:316
  10592d:	83 ec 08             	sub    $0x8,%esp
  105930:	8d 45 ec             	lea    -0x14(%ebp),%eax
  105933:	50                   	push   %eax
  105934:	6a 00                	push   $0x0
  105936:	e8 1f f5 ff ff       	call   104e5a <argstr>
  10593b:	83 c4 10             	add    $0x10,%esp
  10593e:	89 45 f4             	mov    %eax,-0xc(%ebp)
  105941:	83 7d f4 00          	cmpl   $0x0,-0xc(%ebp)
  105945:	78 4f                	js     105996 <sys_mknod+0x6f>
/u/a/b/abhijith/CS537/p3b/xv6-sp20/kernel/sysfile.c:317 (discriminator 1)
  105947:	83 ec 08             	sub    $0x8,%esp
  10594a:	8d 45 e8             	lea    -0x18(%ebp),%eax
  10594d:	50                   	push   %eax
  10594e:	6a 01                	push   $0x1
  105950:	e8 79 f4 ff ff       	call   104dce <argint>
  105955:	83 c4 10             	add    $0x10,%esp
/u/a/b/abhijith/CS537/p3b/xv6-sp20/kernel/sysfile.c:316 (discriminator 1)
  105958:	85 c0                	test   %eax,%eax
  10595a:	78 3a                	js     105996 <sys_mknod+0x6f>
/u/a/b/abhijith/CS537/p3b/xv6-sp20/kernel/sysfile.c:318
  10595c:	83 ec 08             	sub    $0x8,%esp
  10595f:	8d 45 e4             	lea    -0x1c(%ebp),%eax
  105962:	50                   	push   %eax
  105963:	6a 02                	push   $0x2
  105965:	e8 64 f4 ff ff       	call   104dce <argint>
  10596a:	83 c4 10             	add    $0x10,%esp
/u/a/b/abhijith/CS537/p3b/xv6-sp20/kernel/sysfile.c:317
  10596d:	85 c0                	test   %eax,%eax
  10596f:	78 25                	js     105996 <sys_mknod+0x6f>
/u/a/b/abhijith/CS537/p3b/xv6-sp20/kernel/sysfile.c:319
  105971:	8b 45 e4             	mov    -0x1c(%ebp),%eax
  105974:	0f bf c8             	movswl %ax,%ecx
  105977:	8b 45 e8             	mov    -0x18(%ebp),%eax
  10597a:	0f bf d0             	movswl %ax,%edx
  10597d:	8b 45 ec             	mov    -0x14(%ebp),%eax
/u/a/b/abhijith/CS537/p3b/xv6-sp20/kernel/sysfile.c:318
  105980:	51                   	push   %ecx
  105981:	52                   	push   %edx
  105982:	6a 03                	push   $0x3
  105984:	50                   	push   %eax
  105985:	e8 fa fb ff ff       	call   105584 <create>
  10598a:	83 c4 10             	add    $0x10,%esp
  10598d:	89 45 f0             	mov    %eax,-0x10(%ebp)
  105990:	83 7d f0 00          	cmpl   $0x0,-0x10(%ebp)
  105994:	75 07                	jne    10599d <sys_mknod+0x76>
/u/a/b/abhijith/CS537/p3b/xv6-sp20/kernel/sysfile.c:320
  105996:	b8 ff ff ff ff       	mov    $0xffffffff,%eax
  10599b:	eb 13                	jmp    1059b0 <sys_mknod+0x89>
/u/a/b/abhijith/CS537/p3b/xv6-sp20/kernel/sysfile.c:321
  10599d:	83 ec 0c             	sub    $0xc,%esp
  1059a0:	ff 75 f0             	pushl  -0x10(%ebp)
  1059a3:	e8 61 c1 ff ff       	call   101b09 <iunlockput>
  1059a8:	83 c4 10             	add    $0x10,%esp
/u/a/b/abhijith/CS537/p3b/xv6-sp20/kernel/sysfile.c:322
  1059ab:	b8 00 00 00 00       	mov    $0x0,%eax
/u/a/b/abhijith/CS537/p3b/xv6-sp20/kernel/sysfile.c:323 (discriminator 1)
  1059b0:	c9                   	leave  
  1059b1:	c3                   	ret    

001059b2 <sys_chdir>:
sys_chdir():
/u/a/b/abhijith/CS537/p3b/xv6-sp20/kernel/sysfile.c:327
  1059b2:	55                   	push   %ebp
  1059b3:	89 e5                	mov    %esp,%ebp
  1059b5:	83 ec 18             	sub    $0x18,%esp
/u/a/b/abhijith/CS537/p3b/xv6-sp20/kernel/sysfile.c:331
  1059b8:	83 ec 08             	sub    $0x8,%esp
  1059bb:	8d 45 f0             	lea    -0x10(%ebp),%eax
  1059be:	50                   	push   %eax
  1059bf:	6a 00                	push   $0x0
  1059c1:	e8 94 f4 ff ff       	call   104e5a <argstr>
  1059c6:	83 c4 10             	add    $0x10,%esp
  1059c9:	85 c0                	test   %eax,%eax
  1059cb:	78 18                	js     1059e5 <sys_chdir+0x33>
/u/a/b/abhijith/CS537/p3b/xv6-sp20/kernel/sysfile.c:331 (discriminator 1)
  1059cd:	8b 45 f0             	mov    -0x10(%ebp),%eax
  1059d0:	83 ec 0c             	sub    $0xc,%esp
  1059d3:	50                   	push   %eax
  1059d4:	e8 8c ca ff ff       	call   102465 <namei>
  1059d9:	83 c4 10             	add    $0x10,%esp
  1059dc:	89 45 f4             	mov    %eax,-0xc(%ebp)
  1059df:	83 7d f4 00          	cmpl   $0x0,-0xc(%ebp)
  1059e3:	75 07                	jne    1059ec <sys_chdir+0x3a>
/u/a/b/abhijith/CS537/p3b/xv6-sp20/kernel/sysfile.c:332
  1059e5:	b8 ff ff ff ff       	mov    $0xffffffff,%eax
  1059ea:	eb 64                	jmp    105a50 <sys_chdir+0x9e>
/u/a/b/abhijith/CS537/p3b/xv6-sp20/kernel/sysfile.c:333
  1059ec:	83 ec 0c             	sub    $0xc,%esp
  1059ef:	ff 75 f4             	pushl  -0xc(%ebp)
  1059f2:	e8 58 be ff ff       	call   10184f <ilock>
  1059f7:	83 c4 10             	add    $0x10,%esp
/u/a/b/abhijith/CS537/p3b/xv6-sp20/kernel/sysfile.c:334
  1059fa:	8b 45 f4             	mov    -0xc(%ebp),%eax
  1059fd:	0f b7 40 10          	movzwl 0x10(%eax),%eax
  105a01:	66 83 f8 01          	cmp    $0x1,%ax
  105a05:	74 15                	je     105a1c <sys_chdir+0x6a>
/u/a/b/abhijith/CS537/p3b/xv6-sp20/kernel/sysfile.c:335
  105a07:	83 ec 0c             	sub    $0xc,%esp
  105a0a:	ff 75 f4             	pushl  -0xc(%ebp)
  105a0d:	e8 f7 c0 ff ff       	call   101b09 <iunlockput>
  105a12:	83 c4 10             	add    $0x10,%esp
/u/a/b/abhijith/CS537/p3b/xv6-sp20/kernel/sysfile.c:336
  105a15:	b8 ff ff ff ff       	mov    $0xffffffff,%eax
  105a1a:	eb 34                	jmp    105a50 <sys_chdir+0x9e>
/u/a/b/abhijith/CS537/p3b/xv6-sp20/kernel/sysfile.c:338
  105a1c:	83 ec 0c             	sub    $0xc,%esp
  105a1f:	ff 75 f4             	pushl  -0xc(%ebp)
  105a22:	e8 80 bf ff ff       	call   1019a7 <iunlock>
  105a27:	83 c4 10             	add    $0x10,%esp
/u/a/b/abhijith/CS537/p3b/xv6-sp20/kernel/sysfile.c:339
  105a2a:	65 a1 04 00 00 00    	mov    %gs:0x4,%eax
  105a30:	8b 40 68             	mov    0x68(%eax),%eax
  105a33:	83 ec 0c             	sub    $0xc,%esp
  105a36:	50                   	push   %eax
  105a37:	e8 dd bf ff ff       	call   101a19 <iput>
  105a3c:	83 c4 10             	add    $0x10,%esp
/u/a/b/abhijith/CS537/p3b/xv6-sp20/kernel/sysfile.c:340
  105a3f:	65 a1 04 00 00 00    	mov    %gs:0x4,%eax
  105a45:	8b 55 f4             	mov    -0xc(%ebp),%edx
  105a48:	89 50 68             	mov    %edx,0x68(%eax)
/u/a/b/abhijith/CS537/p3b/xv6-sp20/kernel/sysfile.c:341
  105a4b:	b8 00 00 00 00       	mov    $0x0,%eax
/u/a/b/abhijith/CS537/p3b/xv6-sp20/kernel/sysfile.c:342 (discriminator 1)
  105a50:	c9                   	leave  
  105a51:	c3                   	ret    

00105a52 <sys_exec>:
sys_exec():
/u/a/b/abhijith/CS537/p3b/xv6-sp20/kernel/sysfile.c:346
  105a52:	55                   	push   %ebp
  105a53:	89 e5                	mov    %esp,%ebp
  105a55:	81 ec 98 00 00 00    	sub    $0x98,%esp
/u/a/b/abhijith/CS537/p3b/xv6-sp20/kernel/sysfile.c:351
  105a5b:	83 ec 08             	sub    $0x8,%esp
  105a5e:	8d 45 f0             	lea    -0x10(%ebp),%eax
  105a61:	50                   	push   %eax
  105a62:	6a 00                	push   $0x0
  105a64:	e8 f1 f3 ff ff       	call   104e5a <argstr>
  105a69:	83 c4 10             	add    $0x10,%esp
  105a6c:	85 c0                	test   %eax,%eax
  105a6e:	78 18                	js     105a88 <sys_exec+0x36>
/u/a/b/abhijith/CS537/p3b/xv6-sp20/kernel/sysfile.c:351 (discriminator 1)
  105a70:	83 ec 08             	sub    $0x8,%esp
  105a73:	8d 85 6c ff ff ff    	lea    -0x94(%ebp),%eax
  105a79:	50                   	push   %eax
  105a7a:	6a 01                	push   $0x1
  105a7c:	e8 4d f3 ff ff       	call   104dce <argint>
  105a81:	83 c4 10             	add    $0x10,%esp
  105a84:	85 c0                	test   %eax,%eax
  105a86:	79 0a                	jns    105a92 <sys_exec+0x40>
/u/a/b/abhijith/CS537/p3b/xv6-sp20/kernel/sysfile.c:352
  105a88:	b8 ff ff ff ff       	mov    $0xffffffff,%eax
  105a8d:	e9 d6 00 00 00       	jmp    105b68 <sys_exec+0x116>
/u/a/b/abhijith/CS537/p3b/xv6-sp20/kernel/sysfile.c:354
  105a92:	83 ec 04             	sub    $0x4,%esp
  105a95:	68 80 00 00 00       	push   $0x80
  105a9a:	6a 00                	push   $0x0
  105a9c:	8d 85 70 ff ff ff    	lea    -0x90(%ebp),%eax
  105aa2:	50                   	push   %eax
  105aa3:	e8 5a f0 ff ff       	call   104b02 <memset>
  105aa8:	83 c4 10             	add    $0x10,%esp
/u/a/b/abhijith/CS537/p3b/xv6-sp20/kernel/sysfile.c:355
  105aab:	c7 45 f4 00 00 00 00 	movl   $0x0,-0xc(%ebp)
/u/a/b/abhijith/CS537/p3b/xv6-sp20/kernel/sysfile.c:356
  105ab2:	8b 45 f4             	mov    -0xc(%ebp),%eax
  105ab5:	83 f8 1f             	cmp    $0x1f,%eax
  105ab8:	76 0a                	jbe    105ac4 <sys_exec+0x72>
/u/a/b/abhijith/CS537/p3b/xv6-sp20/kernel/sysfile.c:357
  105aba:	b8 ff ff ff ff       	mov    $0xffffffff,%eax
  105abf:	e9 a4 00 00 00       	jmp    105b68 <sys_exec+0x116>
/u/a/b/abhijith/CS537/p3b/xv6-sp20/kernel/sysfile.c:358
  105ac4:	8b 45 f4             	mov    -0xc(%ebp),%eax
  105ac7:	c1 e0 02             	shl    $0x2,%eax
  105aca:	89 c2                	mov    %eax,%edx
  105acc:	8b 85 6c ff ff ff    	mov    -0x94(%ebp),%eax
  105ad2:	8d 0c 02             	lea    (%edx,%eax,1),%ecx
  105ad5:	65 a1 04 00 00 00    	mov    %gs:0x4,%eax
  105adb:	83 ec 04             	sub    $0x4,%esp
  105ade:	8d 95 68 ff ff ff    	lea    -0x98(%ebp),%edx
  105ae4:	52                   	push   %edx
  105ae5:	51                   	push   %ecx
  105ae6:	50                   	push   %eax
  105ae7:	e8 52 f2 ff ff       	call   104d3e <fetchint>
  105aec:	83 c4 10             	add    $0x10,%esp
  105aef:	85 c0                	test   %eax,%eax
  105af1:	79 07                	jns    105afa <sys_exec+0xa8>
/u/a/b/abhijith/CS537/p3b/xv6-sp20/kernel/sysfile.c:359
  105af3:	b8 ff ff ff ff       	mov    $0xffffffff,%eax
  105af8:	eb 6e                	jmp    105b68 <sys_exec+0x116>
/u/a/b/abhijith/CS537/p3b/xv6-sp20/kernel/sysfile.c:360
  105afa:	8b 85 68 ff ff ff    	mov    -0x98(%ebp),%eax
  105b00:	85 c0                	test   %eax,%eax
  105b02:	75 27                	jne    105b2b <sys_exec+0xd9>
/u/a/b/abhijith/CS537/p3b/xv6-sp20/kernel/sysfile.c:361
  105b04:	8b 45 f4             	mov    -0xc(%ebp),%eax
  105b07:	c7 84 85 70 ff ff ff 	movl   $0x0,-0x90(%ebp,%eax,4)
  105b0e:	00 00 00 00 
/u/a/b/abhijith/CS537/p3b/xv6-sp20/kernel/sysfile.c:362
  105b12:	90                   	nop
/u/a/b/abhijith/CS537/p3b/xv6-sp20/kernel/sysfile.c:367
  105b13:	8b 45 f0             	mov    -0x10(%ebp),%eax
  105b16:	83 ec 08             	sub    $0x8,%esp
  105b19:	8d 95 70 ff ff ff    	lea    -0x90(%ebp),%edx
  105b1f:	52                   	push   %edx
  105b20:	50                   	push   %eax
  105b21:	e8 4a b0 ff ff       	call   100b70 <exec>
  105b26:	83 c4 10             	add    $0x10,%esp
  105b29:	eb 3d                	jmp    105b68 <sys_exec+0x116>
/u/a/b/abhijith/CS537/p3b/xv6-sp20/kernel/sysfile.c:364
  105b2b:	8d 85 70 ff ff ff    	lea    -0x90(%ebp),%eax
  105b31:	8b 55 f4             	mov    -0xc(%ebp),%edx
  105b34:	c1 e2 02             	shl    $0x2,%edx
  105b37:	8d 0c 10             	lea    (%eax,%edx,1),%ecx
  105b3a:	8b 95 68 ff ff ff    	mov    -0x98(%ebp),%edx
  105b40:	65 a1 04 00 00 00    	mov    %gs:0x4,%eax
  105b46:	83 ec 04             	sub    $0x4,%esp
  105b49:	51                   	push   %ecx
  105b4a:	52                   	push   %edx
  105b4b:	50                   	push   %eax
  105b4c:	e8 21 f2 ff ff       	call   104d72 <fetchstr>
  105b51:	83 c4 10             	add    $0x10,%esp
  105b54:	85 c0                	test   %eax,%eax
  105b56:	79 07                	jns    105b5f <sys_exec+0x10d>
/u/a/b/abhijith/CS537/p3b/xv6-sp20/kernel/sysfile.c:365
  105b58:	b8 ff ff ff ff       	mov    $0xffffffff,%eax
  105b5d:	eb 09                	jmp    105b68 <sys_exec+0x116>
/u/a/b/abhijith/CS537/p3b/xv6-sp20/kernel/sysfile.c:355
  105b5f:	83 45 f4 01          	addl   $0x1,-0xc(%ebp)
/u/a/b/abhijith/CS537/p3b/xv6-sp20/kernel/sysfile.c:356
  105b63:	e9 4a ff ff ff       	jmp    105ab2 <sys_exec+0x60>
/u/a/b/abhijith/CS537/p3b/xv6-sp20/kernel/sysfile.c:368 (discriminator 1)
  105b68:	c9                   	leave  
  105b69:	c3                   	ret    

00105b6a <sys_mprotect>:
sys_mprotect():
/u/a/b/abhijith/CS537/p3b/xv6-sp20/kernel/sysfile.c:371
  105b6a:	55                   	push   %ebp
  105b6b:	89 e5                	mov    %esp,%ebp
  105b6d:	83 ec 18             	sub    $0x18,%esp
/u/a/b/abhijith/CS537/p3b/xv6-sp20/kernel/sysfile.c:375
  105b70:	83 ec 04             	sub    $0x4,%esp
  105b73:	6a 04                	push   $0x4
  105b75:	8d 45 f4             	lea    -0xc(%ebp),%eax
  105b78:	50                   	push   %eax
  105b79:	6a 00                	push   $0x0
  105b7b:	e8 7d f2 ff ff       	call   104dfd <argptr>
  105b80:	83 c4 10             	add    $0x10,%esp
  105b83:	85 c0                	test   %eax,%eax
  105b85:	75 15                	jne    105b9c <sys_mprotect+0x32>
/u/a/b/abhijith/CS537/p3b/xv6-sp20/kernel/sysfile.c:375 (discriminator 1)
  105b87:	83 ec 08             	sub    $0x8,%esp
  105b8a:	8d 45 f0             	lea    -0x10(%ebp),%eax
  105b8d:	50                   	push   %eax
  105b8e:	6a 01                	push   $0x1
  105b90:	e8 39 f2 ff ff       	call   104dce <argint>
  105b95:	83 c4 10             	add    $0x10,%esp
  105b98:	85 c0                	test   %eax,%eax
  105b9a:	74 07                	je     105ba3 <sys_mprotect+0x39>
/u/a/b/abhijith/CS537/p3b/xv6-sp20/kernel/sysfile.c:377
  105b9c:	b8 ff ff ff ff       	mov    $0xffffffff,%eax
  105ba1:	eb 36                	jmp    105bd9 <sys_mprotect+0x6f>
/u/a/b/abhijith/CS537/p3b/xv6-sp20/kernel/sysfile.c:380
  105ba3:	8b 45 f4             	mov    -0xc(%ebp),%eax
  105ba6:	25 ff 0f 00 00       	and    $0xfff,%eax
  105bab:	85 c0                	test   %eax,%eax
  105bad:	75 07                	jne    105bb6 <sys_mprotect+0x4c>
/u/a/b/abhijith/CS537/p3b/xv6-sp20/kernel/sysfile.c:380 (discriminator 1)
  105baf:	8b 45 f0             	mov    -0x10(%ebp),%eax
  105bb2:	85 c0                	test   %eax,%eax
  105bb4:	79 07                	jns    105bbd <sys_mprotect+0x53>
/u/a/b/abhijith/CS537/p3b/xv6-sp20/kernel/sysfile.c:381
  105bb6:	b8 ff ff ff ff       	mov    $0xffffffff,%eax
  105bbb:	eb 1c                	jmp    105bd9 <sys_mprotect+0x6f>
/u/a/b/abhijith/CS537/p3b/xv6-sp20/kernel/sysfile.c:383
  105bbd:	8b 4d f0             	mov    -0x10(%ebp),%ecx
  105bc0:	8b 55 f4             	mov    -0xc(%ebp),%edx
  105bc3:	65 a1 04 00 00 00    	mov    %gs:0x4,%eax
  105bc9:	8b 40 04             	mov    0x4(%eax),%eax
  105bcc:	6a 00                	push   $0x0
  105bce:	51                   	push   %ecx
  105bcf:	52                   	push   %edx
  105bd0:	50                   	push   %eax
  105bd1:	e8 d7 21 00 00       	call   107dad <vm_set_clear_readonly>
  105bd6:	83 c4 10             	add    $0x10,%esp
/u/a/b/abhijith/CS537/p3b/xv6-sp20/kernel/sysfile.c:385 (discriminator 1)
  105bd9:	c9                   	leave  
  105bda:	c3                   	ret    

00105bdb <sys_munprotect>:
sys_munprotect():
/u/a/b/abhijith/CS537/p3b/xv6-sp20/kernel/sysfile.c:388
  105bdb:	55                   	push   %ebp
  105bdc:	89 e5                	mov    %esp,%ebp
  105bde:	83 ec 18             	sub    $0x18,%esp
/u/a/b/abhijith/CS537/p3b/xv6-sp20/kernel/sysfile.c:392
  105be1:	83 ec 04             	sub    $0x4,%esp
  105be4:	6a 04                	push   $0x4
  105be6:	8d 45 f4             	lea    -0xc(%ebp),%eax
  105be9:	50                   	push   %eax
  105bea:	6a 00                	push   $0x0
  105bec:	e8 0c f2 ff ff       	call   104dfd <argptr>
  105bf1:	83 c4 10             	add    $0x10,%esp
  105bf4:	85 c0                	test   %eax,%eax
  105bf6:	75 15                	jne    105c0d <sys_munprotect+0x32>
/u/a/b/abhijith/CS537/p3b/xv6-sp20/kernel/sysfile.c:392 (discriminator 1)
  105bf8:	83 ec 08             	sub    $0x8,%esp
  105bfb:	8d 45 f0             	lea    -0x10(%ebp),%eax
  105bfe:	50                   	push   %eax
  105bff:	6a 01                	push   $0x1
  105c01:	e8 c8 f1 ff ff       	call   104dce <argint>
  105c06:	83 c4 10             	add    $0x10,%esp
  105c09:	85 c0                	test   %eax,%eax
  105c0b:	74 07                	je     105c14 <sys_munprotect+0x39>
/u/a/b/abhijith/CS537/p3b/xv6-sp20/kernel/sysfile.c:394
  105c0d:	b8 ff ff ff ff       	mov    $0xffffffff,%eax
  105c12:	eb 36                	jmp    105c4a <sys_munprotect+0x6f>
/u/a/b/abhijith/CS537/p3b/xv6-sp20/kernel/sysfile.c:397
  105c14:	8b 45 f4             	mov    -0xc(%ebp),%eax
  105c17:	25 ff 0f 00 00       	and    $0xfff,%eax
  105c1c:	85 c0                	test   %eax,%eax
  105c1e:	75 07                	jne    105c27 <sys_munprotect+0x4c>
/u/a/b/abhijith/CS537/p3b/xv6-sp20/kernel/sysfile.c:397 (discriminator 1)
  105c20:	8b 45 f0             	mov    -0x10(%ebp),%eax
  105c23:	85 c0                	test   %eax,%eax
  105c25:	79 07                	jns    105c2e <sys_munprotect+0x53>
/u/a/b/abhijith/CS537/p3b/xv6-sp20/kernel/sysfile.c:398
  105c27:	b8 ff ff ff ff       	mov    $0xffffffff,%eax
  105c2c:	eb 1c                	jmp    105c4a <sys_munprotect+0x6f>
/u/a/b/abhijith/CS537/p3b/xv6-sp20/kernel/sysfile.c:400
  105c2e:	8b 4d f0             	mov    -0x10(%ebp),%ecx
  105c31:	8b 55 f4             	mov    -0xc(%ebp),%edx
  105c34:	65 a1 04 00 00 00    	mov    %gs:0x4,%eax
  105c3a:	8b 40 04             	mov    0x4(%eax),%eax
  105c3d:	6a 01                	push   $0x1
  105c3f:	51                   	push   %ecx
  105c40:	52                   	push   %edx
  105c41:	50                   	push   %eax
  105c42:	e8 66 21 00 00       	call   107dad <vm_set_clear_readonly>
  105c47:	83 c4 10             	add    $0x10,%esp
/u/a/b/abhijith/CS537/p3b/xv6-sp20/kernel/sysfile.c:401 (discriminator 1)
  105c4a:	c9                   	leave  
  105c4b:	c3                   	ret    

00105c4c <sys_dump_allocated>:
sys_dump_allocated():
/u/a/b/abhijith/CS537/p3b/xv6-sp20/kernel/sysfile.c:404
  105c4c:	55                   	push   %ebp
  105c4d:	89 e5                	mov    %esp,%ebp
  105c4f:	83 ec 18             	sub    $0x18,%esp
/u/a/b/abhijith/CS537/p3b/xv6-sp20/kernel/sysfile.c:409
  105c52:	83 ec 04             	sub    $0x4,%esp
  105c55:	6a 04                	push   $0x4
  105c57:	8d 45 f4             	lea    -0xc(%ebp),%eax
  105c5a:	50                   	push   %eax
  105c5b:	6a 00                	push   $0x0
  105c5d:	e8 9b f1 ff ff       	call   104dfd <argptr>
  105c62:	83 c4 10             	add    $0x10,%esp
  105c65:	85 c0                	test   %eax,%eax
  105c67:	75 15                	jne    105c7e <sys_dump_allocated+0x32>
/u/a/b/abhijith/CS537/p3b/xv6-sp20/kernel/sysfile.c:409 (discriminator 1)
  105c69:	83 ec 08             	sub    $0x8,%esp
  105c6c:	8d 45 f0             	lea    -0x10(%ebp),%eax
  105c6f:	50                   	push   %eax
  105c70:	6a 01                	push   $0x1
  105c72:	e8 57 f1 ff ff       	call   104dce <argint>
  105c77:	83 c4 10             	add    $0x10,%esp
  105c7a:	85 c0                	test   %eax,%eax
  105c7c:	74 07                	je     105c85 <sys_dump_allocated+0x39>
/u/a/b/abhijith/CS537/p3b/xv6-sp20/kernel/sysfile.c:411
  105c7e:	b8 ff ff ff ff       	mov    $0xffffffff,%eax
  105c83:	eb 13                	jmp    105c98 <sys_dump_allocated+0x4c>
/u/a/b/abhijith/CS537/p3b/xv6-sp20/kernel/sysfile.c:415
  105c85:	8b 55 f0             	mov    -0x10(%ebp),%edx
  105c88:	8b 45 f4             	mov    -0xc(%ebp),%eax
  105c8b:	83 ec 08             	sub    $0x8,%esp
  105c8e:	52                   	push   %edx
  105c8f:	50                   	push   %eax
  105c90:	e8 d9 cf ff ff       	call   102c6e <kalloc_dump_allocated>
  105c95:	83 c4 10             	add    $0x10,%esp
/u/a/b/abhijith/CS537/p3b/xv6-sp20/kernel/sysfile.c:418 (discriminator 1)
  105c98:	c9                   	leave  
  105c99:	c3                   	ret    

00105c9a <sys_pipe>:
sys_pipe():
/u/a/b/abhijith/CS537/p3b/xv6-sp20/kernel/sysfile.c:422
  105c9a:	55                   	push   %ebp
  105c9b:	89 e5                	mov    %esp,%ebp
  105c9d:	83 ec 28             	sub    $0x28,%esp
/u/a/b/abhijith/CS537/p3b/xv6-sp20/kernel/sysfile.c:427
  105ca0:	83 ec 04             	sub    $0x4,%esp
  105ca3:	6a 08                	push   $0x8
  105ca5:	8d 45 ec             	lea    -0x14(%ebp),%eax
  105ca8:	50                   	push   %eax
  105ca9:	6a 00                	push   $0x0
  105cab:	e8 4d f1 ff ff       	call   104dfd <argptr>
  105cb0:	83 c4 10             	add    $0x10,%esp
  105cb3:	85 c0                	test   %eax,%eax
  105cb5:	79 0a                	jns    105cc1 <sys_pipe+0x27>
/u/a/b/abhijith/CS537/p3b/xv6-sp20/kernel/sysfile.c:428
  105cb7:	b8 ff ff ff ff       	mov    $0xffffffff,%eax
  105cbc:	e9 af 00 00 00       	jmp    105d70 <sys_pipe+0xd6>
/u/a/b/abhijith/CS537/p3b/xv6-sp20/kernel/sysfile.c:429
  105cc1:	83 ec 08             	sub    $0x8,%esp
  105cc4:	8d 45 e4             	lea    -0x1c(%ebp),%eax
  105cc7:	50                   	push   %eax
  105cc8:	8d 45 e8             	lea    -0x18(%ebp),%eax
  105ccb:	50                   	push   %eax
  105ccc:	e8 68 dc ff ff       	call   103939 <pipealloc>
  105cd1:	83 c4 10             	add    $0x10,%esp
  105cd4:	85 c0                	test   %eax,%eax
  105cd6:	79 0a                	jns    105ce2 <sys_pipe+0x48>
/u/a/b/abhijith/CS537/p3b/xv6-sp20/kernel/sysfile.c:430
  105cd8:	b8 ff ff ff ff       	mov    $0xffffffff,%eax
  105cdd:	e9 8e 00 00 00       	jmp    105d70 <sys_pipe+0xd6>
/u/a/b/abhijith/CS537/p3b/xv6-sp20/kernel/sysfile.c:431
  105ce2:	c7 45 f4 ff ff ff ff 	movl   $0xffffffff,-0xc(%ebp)
/u/a/b/abhijith/CS537/p3b/xv6-sp20/kernel/sysfile.c:432
  105ce9:	8b 45 e8             	mov    -0x18(%ebp),%eax
  105cec:	83 ec 0c             	sub    $0xc,%esp
  105cef:	50                   	push   %eax
  105cf0:	e8 98 f2 ff ff       	call   104f8d <fdalloc>
  105cf5:	83 c4 10             	add    $0x10,%esp
  105cf8:	89 45 f4             	mov    %eax,-0xc(%ebp)
  105cfb:	83 7d f4 00          	cmpl   $0x0,-0xc(%ebp)
  105cff:	78 18                	js     105d19 <sys_pipe+0x7f>
/u/a/b/abhijith/CS537/p3b/xv6-sp20/kernel/sysfile.c:432 (discriminator 1)
  105d01:	8b 45 e4             	mov    -0x1c(%ebp),%eax
  105d04:	83 ec 0c             	sub    $0xc,%esp
  105d07:	50                   	push   %eax
  105d08:	e8 80 f2 ff ff       	call   104f8d <fdalloc>
  105d0d:	83 c4 10             	add    $0x10,%esp
  105d10:	89 45 f0             	mov    %eax,-0x10(%ebp)
  105d13:	83 7d f0 00          	cmpl   $0x0,-0x10(%ebp)
  105d17:	79 3f                	jns    105d58 <sys_pipe+0xbe>
/u/a/b/abhijith/CS537/p3b/xv6-sp20/kernel/sysfile.c:433
  105d19:	83 7d f4 00          	cmpl   $0x0,-0xc(%ebp)
  105d1d:	78 14                	js     105d33 <sys_pipe+0x99>
/u/a/b/abhijith/CS537/p3b/xv6-sp20/kernel/sysfile.c:434
  105d1f:	65 a1 04 00 00 00    	mov    %gs:0x4,%eax
  105d25:	8b 55 f4             	mov    -0xc(%ebp),%edx
  105d28:	83 c2 08             	add    $0x8,%edx
  105d2b:	c7 44 90 08 00 00 00 	movl   $0x0,0x8(%eax,%edx,4)
  105d32:	00 
/u/a/b/abhijith/CS537/p3b/xv6-sp20/kernel/sysfile.c:435
  105d33:	8b 45 e8             	mov    -0x18(%ebp),%eax
  105d36:	83 ec 0c             	sub    $0xc,%esp
  105d39:	50                   	push   %eax
  105d3a:	e8 e0 b2 ff ff       	call   10101f <fileclose>
  105d3f:	83 c4 10             	add    $0x10,%esp
/u/a/b/abhijith/CS537/p3b/xv6-sp20/kernel/sysfile.c:436
  105d42:	8b 45 e4             	mov    -0x1c(%ebp),%eax
  105d45:	83 ec 0c             	sub    $0xc,%esp
  105d48:	50                   	push   %eax
  105d49:	e8 d1 b2 ff ff       	call   10101f <fileclose>
  105d4e:	83 c4 10             	add    $0x10,%esp
/u/a/b/abhijith/CS537/p3b/xv6-sp20/kernel/sysfile.c:437
  105d51:	b8 ff ff ff ff       	mov    $0xffffffff,%eax
  105d56:	eb 18                	jmp    105d70 <sys_pipe+0xd6>
/u/a/b/abhijith/CS537/p3b/xv6-sp20/kernel/sysfile.c:439
  105d58:	8b 45 ec             	mov    -0x14(%ebp),%eax
  105d5b:	8b 55 f4             	mov    -0xc(%ebp),%edx
  105d5e:	89 10                	mov    %edx,(%eax)
/u/a/b/abhijith/CS537/p3b/xv6-sp20/kernel/sysfile.c:440
  105d60:	8b 45 ec             	mov    -0x14(%ebp),%eax
  105d63:	8d 50 04             	lea    0x4(%eax),%edx
  105d66:	8b 45 f0             	mov    -0x10(%ebp),%eax
  105d69:	89 02                	mov    %eax,(%edx)
/u/a/b/abhijith/CS537/p3b/xv6-sp20/kernel/sysfile.c:441
  105d6b:	b8 00 00 00 00       	mov    $0x0,%eax
/u/a/b/abhijith/CS537/p3b/xv6-sp20/kernel/sysfile.c:442 (discriminator 1)
  105d70:	c9                   	leave  
  105d71:	c3                   	ret    

00105d72 <sys_fork>:
sys_fork():
/u/a/b/abhijith/CS537/p3b/xv6-sp20/kernel/sysproc.c:11
  105d72:	55                   	push   %ebp
  105d73:	89 e5                	mov    %esp,%ebp
  105d75:	83 ec 08             	sub    $0x8,%esp
/u/a/b/abhijith/CS537/p3b/xv6-sp20/kernel/sysproc.c:12
  105d78:	e8 d5 e2 ff ff       	call   104052 <fork>
/u/a/b/abhijith/CS537/p3b/xv6-sp20/kernel/sysproc.c:13
  105d7d:	c9                   	leave  
  105d7e:	c3                   	ret    

00105d7f <sys_exit>:
sys_exit():
/u/a/b/abhijith/CS537/p3b/xv6-sp20/kernel/sysproc.c:17
  105d7f:	55                   	push   %ebp
  105d80:	89 e5                	mov    %esp,%ebp
  105d82:	83 ec 08             	sub    $0x8,%esp
/u/a/b/abhijith/CS537/p3b/xv6-sp20/kernel/sysproc.c:18
  105d85:	e8 3b e4 ff ff       	call   1041c5 <exit>
/u/a/b/abhijith/CS537/p3b/xv6-sp20/kernel/sysproc.c:19
  105d8a:	b8 00 00 00 00       	mov    $0x0,%eax
/u/a/b/abhijith/CS537/p3b/xv6-sp20/kernel/sysproc.c:20
  105d8f:	c9                   	leave  
  105d90:	c3                   	ret    

00105d91 <sys_wait>:
sys_wait():
/u/a/b/abhijith/CS537/p3b/xv6-sp20/kernel/sysproc.c:24
  105d91:	55                   	push   %ebp
  105d92:	89 e5                	mov    %esp,%ebp
  105d94:	83 ec 08             	sub    $0x8,%esp
/u/a/b/abhijith/CS537/p3b/xv6-sp20/kernel/sysproc.c:25
  105d97:	e8 57 e5 ff ff       	call   1042f3 <wait>
/u/a/b/abhijith/CS537/p3b/xv6-sp20/kernel/sysproc.c:26
  105d9c:	c9                   	leave  
  105d9d:	c3                   	ret    

00105d9e <sys_kill>:
sys_kill():
/u/a/b/abhijith/CS537/p3b/xv6-sp20/kernel/sysproc.c:30
  105d9e:	55                   	push   %ebp
  105d9f:	89 e5                	mov    %esp,%ebp
  105da1:	83 ec 18             	sub    $0x18,%esp
/u/a/b/abhijith/CS537/p3b/xv6-sp20/kernel/sysproc.c:33
  105da4:	83 ec 08             	sub    $0x8,%esp
  105da7:	8d 45 f4             	lea    -0xc(%ebp),%eax
  105daa:	50                   	push   %eax
  105dab:	6a 00                	push   $0x0
  105dad:	e8 1c f0 ff ff       	call   104dce <argint>
  105db2:	83 c4 10             	add    $0x10,%esp
  105db5:	85 c0                	test   %eax,%eax
  105db7:	79 07                	jns    105dc0 <sys_kill+0x22>
/u/a/b/abhijith/CS537/p3b/xv6-sp20/kernel/sysproc.c:34
  105db9:	b8 ff ff ff ff       	mov    $0xffffffff,%eax
  105dbe:	eb 0f                	jmp    105dcf <sys_kill+0x31>
/u/a/b/abhijith/CS537/p3b/xv6-sp20/kernel/sysproc.c:35
  105dc0:	8b 45 f4             	mov    -0xc(%ebp),%eax
  105dc3:	83 ec 0c             	sub    $0xc,%esp
  105dc6:	50                   	push   %eax
  105dc7:	e8 22 e9 ff ff       	call   1046ee <kill>
  105dcc:	83 c4 10             	add    $0x10,%esp
/u/a/b/abhijith/CS537/p3b/xv6-sp20/kernel/sysproc.c:36 (discriminator 1)
  105dcf:	c9                   	leave  
  105dd0:	c3                   	ret    

00105dd1 <sys_getpid>:
sys_getpid():
/u/a/b/abhijith/CS537/p3b/xv6-sp20/kernel/sysproc.c:40
  105dd1:	55                   	push   %ebp
  105dd2:	89 e5                	mov    %esp,%ebp
/u/a/b/abhijith/CS537/p3b/xv6-sp20/kernel/sysproc.c:41
  105dd4:	65 a1 04 00 00 00    	mov    %gs:0x4,%eax
  105dda:	8b 40 10             	mov    0x10(%eax),%eax
/u/a/b/abhijith/CS537/p3b/xv6-sp20/kernel/sysproc.c:42
  105ddd:	5d                   	pop    %ebp
  105dde:	c3                   	ret    

00105ddf <sys_sbrk>:
sys_sbrk():
/u/a/b/abhijith/CS537/p3b/xv6-sp20/kernel/sysproc.c:46
  105ddf:	55                   	push   %ebp
  105de0:	89 e5                	mov    %esp,%ebp
  105de2:	83 ec 18             	sub    $0x18,%esp
/u/a/b/abhijith/CS537/p3b/xv6-sp20/kernel/sysproc.c:50
  105de5:	83 ec 08             	sub    $0x8,%esp
  105de8:	8d 45 f0             	lea    -0x10(%ebp),%eax
  105deb:	50                   	push   %eax
  105dec:	6a 00                	push   $0x0
  105dee:	e8 db ef ff ff       	call   104dce <argint>
  105df3:	83 c4 10             	add    $0x10,%esp
  105df6:	85 c0                	test   %eax,%eax
  105df8:	79 07                	jns    105e01 <sys_sbrk+0x22>
/u/a/b/abhijith/CS537/p3b/xv6-sp20/kernel/sysproc.c:51
  105dfa:	b8 ff ff ff ff       	mov    $0xffffffff,%eax
  105dff:	eb 28                	jmp    105e29 <sys_sbrk+0x4a>
/u/a/b/abhijith/CS537/p3b/xv6-sp20/kernel/sysproc.c:52
  105e01:	65 a1 04 00 00 00    	mov    %gs:0x4,%eax
  105e07:	8b 00                	mov    (%eax),%eax
  105e09:	89 45 f4             	mov    %eax,-0xc(%ebp)
/u/a/b/abhijith/CS537/p3b/xv6-sp20/kernel/sysproc.c:53
  105e0c:	8b 45 f0             	mov    -0x10(%ebp),%eax
  105e0f:	83 ec 0c             	sub    $0xc,%esp
  105e12:	50                   	push   %eax
  105e13:	e8 97 e1 ff ff       	call   103faf <growproc>
  105e18:	83 c4 10             	add    $0x10,%esp
  105e1b:	85 c0                	test   %eax,%eax
  105e1d:	79 07                	jns    105e26 <sys_sbrk+0x47>
/u/a/b/abhijith/CS537/p3b/xv6-sp20/kernel/sysproc.c:54
  105e1f:	b8 ff ff ff ff       	mov    $0xffffffff,%eax
  105e24:	eb 03                	jmp    105e29 <sys_sbrk+0x4a>
/u/a/b/abhijith/CS537/p3b/xv6-sp20/kernel/sysproc.c:55
  105e26:	8b 45 f4             	mov    -0xc(%ebp),%eax
/u/a/b/abhijith/CS537/p3b/xv6-sp20/kernel/sysproc.c:56 (discriminator 1)
  105e29:	c9                   	leave  
  105e2a:	c3                   	ret    

00105e2b <sys_sleep>:
sys_sleep():
/u/a/b/abhijith/CS537/p3b/xv6-sp20/kernel/sysproc.c:60
  105e2b:	55                   	push   %ebp
  105e2c:	89 e5                	mov    %esp,%ebp
  105e2e:	83 ec 18             	sub    $0x18,%esp
/u/a/b/abhijith/CS537/p3b/xv6-sp20/kernel/sysproc.c:64
  105e31:	83 ec 08             	sub    $0x8,%esp
  105e34:	8d 45 f0             	lea    -0x10(%ebp),%eax
  105e37:	50                   	push   %eax
  105e38:	6a 00                	push   $0x0
  105e3a:	e8 8f ef ff ff       	call   104dce <argint>
  105e3f:	83 c4 10             	add    $0x10,%esp
  105e42:	85 c0                	test   %eax,%eax
  105e44:	79 07                	jns    105e4d <sys_sleep+0x22>
/u/a/b/abhijith/CS537/p3b/xv6-sp20/kernel/sysproc.c:65
  105e46:	b8 ff ff ff ff       	mov    $0xffffffff,%eax
  105e4b:	eb 77                	jmp    105ec4 <sys_sleep+0x99>
/u/a/b/abhijith/CS537/p3b/xv6-sp20/kernel/sysproc.c:66
  105e4d:	83 ec 0c             	sub    $0xc,%esp
  105e50:	68 c0 2c 11 00       	push   $0x112cc0
  105e55:	e8 6b ea ff ff       	call   1048c5 <acquire>
  105e5a:	83 c4 10             	add    $0x10,%esp
/u/a/b/abhijith/CS537/p3b/xv6-sp20/kernel/sysproc.c:67
  105e5d:	a1 00 35 11 00       	mov    0x113500,%eax
  105e62:	89 45 f4             	mov    %eax,-0xc(%ebp)
/u/a/b/abhijith/CS537/p3b/xv6-sp20/kernel/sysproc.c:68
  105e65:	eb 39                	jmp    105ea0 <sys_sleep+0x75>
/u/a/b/abhijith/CS537/p3b/xv6-sp20/kernel/sysproc.c:69
  105e67:	65 a1 04 00 00 00    	mov    %gs:0x4,%eax
  105e6d:	8b 40 24             	mov    0x24(%eax),%eax
  105e70:	85 c0                	test   %eax,%eax
  105e72:	74 17                	je     105e8b <sys_sleep+0x60>
/u/a/b/abhijith/CS537/p3b/xv6-sp20/kernel/sysproc.c:70
  105e74:	83 ec 0c             	sub    $0xc,%esp
  105e77:	68 c0 2c 11 00       	push   $0x112cc0
  105e7c:	e8 ab ea ff ff       	call   10492c <release>
  105e81:	83 c4 10             	add    $0x10,%esp
/u/a/b/abhijith/CS537/p3b/xv6-sp20/kernel/sysproc.c:71
  105e84:	b8 ff ff ff ff       	mov    $0xffffffff,%eax
  105e89:	eb 39                	jmp    105ec4 <sys_sleep+0x99>
/u/a/b/abhijith/CS537/p3b/xv6-sp20/kernel/sysproc.c:73
  105e8b:	83 ec 08             	sub    $0x8,%esp
  105e8e:	68 c0 2c 11 00       	push   $0x112cc0
  105e93:	68 00 35 11 00       	push   $0x113500
  105e98:	e8 2f e7 ff ff       	call   1045cc <sleep>
  105e9d:	83 c4 10             	add    $0x10,%esp
/u/a/b/abhijith/CS537/p3b/xv6-sp20/kernel/sysproc.c:68
  105ea0:	a1 00 35 11 00       	mov    0x113500,%eax
  105ea5:	2b 45 f4             	sub    -0xc(%ebp),%eax
  105ea8:	8b 55 f0             	mov    -0x10(%ebp),%edx
  105eab:	39 d0                	cmp    %edx,%eax
  105ead:	72 b8                	jb     105e67 <sys_sleep+0x3c>
/u/a/b/abhijith/CS537/p3b/xv6-sp20/kernel/sysproc.c:75
  105eaf:	83 ec 0c             	sub    $0xc,%esp
  105eb2:	68 c0 2c 11 00       	push   $0x112cc0
  105eb7:	e8 70 ea ff ff       	call   10492c <release>
  105ebc:	83 c4 10             	add    $0x10,%esp
/u/a/b/abhijith/CS537/p3b/xv6-sp20/kernel/sysproc.c:76
  105ebf:	b8 00 00 00 00       	mov    $0x0,%eax
/u/a/b/abhijith/CS537/p3b/xv6-sp20/kernel/sysproc.c:77 (discriminator 1)
  105ec4:	c9                   	leave  
  105ec5:	c3                   	ret    

00105ec6 <sys_uptime>:
sys_uptime():
/u/a/b/abhijith/CS537/p3b/xv6-sp20/kernel/sysproc.c:83
  105ec6:	55                   	push   %ebp
  105ec7:	89 e5                	mov    %esp,%ebp
  105ec9:	83 ec 18             	sub    $0x18,%esp
/u/a/b/abhijith/CS537/p3b/xv6-sp20/kernel/sysproc.c:86
  105ecc:	83 ec 0c             	sub    $0xc,%esp
  105ecf:	68 c0 2c 11 00       	push   $0x112cc0
  105ed4:	e8 ec e9 ff ff       	call   1048c5 <acquire>
  105ed9:	83 c4 10             	add    $0x10,%esp
/u/a/b/abhijith/CS537/p3b/xv6-sp20/kernel/sysproc.c:87
  105edc:	a1 00 35 11 00       	mov    0x113500,%eax
  105ee1:	89 45 f4             	mov    %eax,-0xc(%ebp)
/u/a/b/abhijith/CS537/p3b/xv6-sp20/kernel/sysproc.c:88
  105ee4:	83 ec 0c             	sub    $0xc,%esp
  105ee7:	68 c0 2c 11 00       	push   $0x112cc0
  105eec:	e8 3b ea ff ff       	call   10492c <release>
  105ef1:	83 c4 10             	add    $0x10,%esp
/u/a/b/abhijith/CS537/p3b/xv6-sp20/kernel/sysproc.c:89
  105ef4:	8b 45 f4             	mov    -0xc(%ebp),%eax
/u/a/b/abhijith/CS537/p3b/xv6-sp20/kernel/sysproc.c:90
  105ef7:	c9                   	leave  
  105ef8:	c3                   	ret    

00105ef9 <outb>:
outb():
/u/a/b/abhijith/CS537/p3b/xv6-sp20/include/x86.h:25
  105ef9:	55                   	push   %ebp
  105efa:	89 e5                	mov    %esp,%ebp
  105efc:	83 ec 08             	sub    $0x8,%esp
  105eff:	8b 55 08             	mov    0x8(%ebp),%edx
  105f02:	8b 45 0c             	mov    0xc(%ebp),%eax
  105f05:	66 89 55 fc          	mov    %dx,-0x4(%ebp)
  105f09:	88 45 f8             	mov    %al,-0x8(%ebp)
/u/a/b/abhijith/CS537/p3b/xv6-sp20/include/x86.h:26
  105f0c:	0f b6 45 f8          	movzbl -0x8(%ebp),%eax
  105f10:	0f b7 55 fc          	movzwl -0x4(%ebp),%edx
  105f14:	ee                   	out    %al,(%dx)
/u/a/b/abhijith/CS537/p3b/xv6-sp20/include/x86.h:27
  105f15:	90                   	nop
  105f16:	c9                   	leave  
  105f17:	c3                   	ret    

00105f18 <timerinit>:
timerinit():
/u/a/b/abhijith/CS537/p3b/xv6-sp20/kernel/timer.c:26
  105f18:	55                   	push   %ebp
  105f19:	89 e5                	mov    %esp,%ebp
  105f1b:	83 ec 08             	sub    $0x8,%esp
/u/a/b/abhijith/CS537/p3b/xv6-sp20/kernel/timer.c:28
  105f1e:	6a 34                	push   $0x34
  105f20:	6a 43                	push   $0x43
  105f22:	e8 d2 ff ff ff       	call   105ef9 <outb>
  105f27:	83 c4 08             	add    $0x8,%esp
/u/a/b/abhijith/CS537/p3b/xv6-sp20/kernel/timer.c:29
  105f2a:	68 9c 00 00 00       	push   $0x9c
  105f2f:	6a 40                	push   $0x40
  105f31:	e8 c3 ff ff ff       	call   105ef9 <outb>
  105f36:	83 c4 08             	add    $0x8,%esp
/u/a/b/abhijith/CS537/p3b/xv6-sp20/kernel/timer.c:30
  105f39:	6a 2e                	push   $0x2e
  105f3b:	6a 40                	push   $0x40
  105f3d:	e8 b7 ff ff ff       	call   105ef9 <outb>
  105f42:	83 c4 08             	add    $0x8,%esp
/u/a/b/abhijith/CS537/p3b/xv6-sp20/kernel/timer.c:31
  105f45:	83 ec 0c             	sub    $0xc,%esp
  105f48:	6a 00                	push   $0x0
  105f4a:	e8 d4 d8 ff ff       	call   103823 <picenable>
  105f4f:	83 c4 10             	add    $0x10,%esp
/u/a/b/abhijith/CS537/p3b/xv6-sp20/kernel/timer.c:32
  105f52:	90                   	nop
  105f53:	c9                   	leave  
  105f54:	c3                   	ret    

00105f55 <alltraps>:
alltraps():
/u/a/b/abhijith/CS537/p3b/xv6-sp20/kernel/trapasm.S:9
  105f55:	1e                   	push   %ds
/u/a/b/abhijith/CS537/p3b/xv6-sp20/kernel/trapasm.S:10
  105f56:	06                   	push   %es
/u/a/b/abhijith/CS537/p3b/xv6-sp20/kernel/trapasm.S:11
  105f57:	0f a0                	push   %fs
/u/a/b/abhijith/CS537/p3b/xv6-sp20/kernel/trapasm.S:12
  105f59:	0f a8                	push   %gs
/u/a/b/abhijith/CS537/p3b/xv6-sp20/kernel/trapasm.S:13
  105f5b:	60                   	pusha  
/u/a/b/abhijith/CS537/p3b/xv6-sp20/kernel/trapasm.S:16
  105f5c:	66 b8 10 00          	mov    $0x10,%ax
/u/a/b/abhijith/CS537/p3b/xv6-sp20/kernel/trapasm.S:17
  105f60:	8e d8                	mov    %eax,%ds
/u/a/b/abhijith/CS537/p3b/xv6-sp20/kernel/trapasm.S:18
  105f62:	8e c0                	mov    %eax,%es
/u/a/b/abhijith/CS537/p3b/xv6-sp20/kernel/trapasm.S:19
  105f64:	66 b8 18 00          	mov    $0x18,%ax
/u/a/b/abhijith/CS537/p3b/xv6-sp20/kernel/trapasm.S:20
  105f68:	8e e0                	mov    %eax,%fs
/u/a/b/abhijith/CS537/p3b/xv6-sp20/kernel/trapasm.S:21
  105f6a:	8e e8                	mov    %eax,%gs
/u/a/b/abhijith/CS537/p3b/xv6-sp20/kernel/trapasm.S:24
  105f6c:	54                   	push   %esp
/u/a/b/abhijith/CS537/p3b/xv6-sp20/kernel/trapasm.S:25
  105f6d:	e8 d7 01 00 00       	call   106149 <trap>
/u/a/b/abhijith/CS537/p3b/xv6-sp20/kernel/trapasm.S:26
  105f72:	83 c4 04             	add    $0x4,%esp

00105f75 <trapret>:
trapret():
/u/a/b/abhijith/CS537/p3b/xv6-sp20/kernel/trapasm.S:31
  105f75:	61                   	popa   
/u/a/b/abhijith/CS537/p3b/xv6-sp20/kernel/trapasm.S:32
  105f76:	0f a9                	pop    %gs
/u/a/b/abhijith/CS537/p3b/xv6-sp20/kernel/trapasm.S:33
  105f78:	0f a1                	pop    %fs
/u/a/b/abhijith/CS537/p3b/xv6-sp20/kernel/trapasm.S:34
  105f7a:	07                   	pop    %es
/u/a/b/abhijith/CS537/p3b/xv6-sp20/kernel/trapasm.S:35
  105f7b:	1f                   	pop    %ds
/u/a/b/abhijith/CS537/p3b/xv6-sp20/kernel/trapasm.S:36
  105f7c:	83 c4 08             	add    $0x8,%esp
/u/a/b/abhijith/CS537/p3b/xv6-sp20/kernel/trapasm.S:37
  105f7f:	cf                   	iret   

00105f80 <lidt>:
lidt():
/u/a/b/abhijith/CS537/p3b/xv6-sp20/include/x86.h:71
  105f80:	55                   	push   %ebp
  105f81:	89 e5                	mov    %esp,%ebp
  105f83:	83 ec 10             	sub    $0x10,%esp
/u/a/b/abhijith/CS537/p3b/xv6-sp20/include/x86.h:74
  105f86:	8b 45 0c             	mov    0xc(%ebp),%eax
  105f89:	83 e8 01             	sub    $0x1,%eax
  105f8c:	66 89 45 fa          	mov    %ax,-0x6(%ebp)
/u/a/b/abhijith/CS537/p3b/xv6-sp20/include/x86.h:75
  105f90:	8b 45 08             	mov    0x8(%ebp),%eax
  105f93:	66 89 45 fc          	mov    %ax,-0x4(%ebp)
/u/a/b/abhijith/CS537/p3b/xv6-sp20/include/x86.h:76
  105f97:	8b 45 08             	mov    0x8(%ebp),%eax
  105f9a:	c1 e8 10             	shr    $0x10,%eax
  105f9d:	66 89 45 fe          	mov    %ax,-0x2(%ebp)
/u/a/b/abhijith/CS537/p3b/xv6-sp20/include/x86.h:78
  105fa1:	8d 45 fa             	lea    -0x6(%ebp),%eax
  105fa4:	0f 01 18             	lidtl  (%eax)
/u/a/b/abhijith/CS537/p3b/xv6-sp20/include/x86.h:79
  105fa7:	90                   	nop
  105fa8:	c9                   	leave  
  105fa9:	c3                   	ret    

00105faa <rcr2>:
rcr2():
/u/a/b/abhijith/CS537/p3b/xv6-sp20/include/x86.h:158
  105faa:	55                   	push   %ebp
  105fab:	89 e5                	mov    %esp,%ebp
  105fad:	83 ec 10             	sub    $0x10,%esp
/u/a/b/abhijith/CS537/p3b/xv6-sp20/include/x86.h:160
  105fb0:	0f 20 d0             	mov    %cr2,%eax
  105fb3:	89 45 fc             	mov    %eax,-0x4(%ebp)
/u/a/b/abhijith/CS537/p3b/xv6-sp20/include/x86.h:161
  105fb6:	8b 45 fc             	mov    -0x4(%ebp),%eax
/u/a/b/abhijith/CS537/p3b/xv6-sp20/include/x86.h:162
  105fb9:	c9                   	leave  
  105fba:	c3                   	ret    

00105fbb <tvinit>:
tvinit():
/u/a/b/abhijith/CS537/p3b/xv6-sp20/kernel/trap.c:18
  105fbb:	55                   	push   %ebp
  105fbc:	89 e5                	mov    %esp,%ebp
  105fbe:	83 ec 18             	sub    $0x18,%esp
/u/a/b/abhijith/CS537/p3b/xv6-sp20/kernel/trap.c:21
  105fc1:	c7 45 f4 00 00 00 00 	movl   $0x0,-0xc(%ebp)
  105fc8:	e9 c3 00 00 00       	jmp    106090 <tvinit+0xd5>
/u/a/b/abhijith/CS537/p3b/xv6-sp20/kernel/trap.c:22 (discriminator 3)
  105fcd:	8b 45 f4             	mov    -0xc(%ebp),%eax
  105fd0:	8b 04 85 c4 b5 10 00 	mov    0x10b5c4(,%eax,4),%eax
  105fd7:	89 c2                	mov    %eax,%edx
  105fd9:	8b 45 f4             	mov    -0xc(%ebp),%eax
  105fdc:	66 89 14 c5 00 2d 11 	mov    %dx,0x112d00(,%eax,8)
  105fe3:	00 
  105fe4:	8b 45 f4             	mov    -0xc(%ebp),%eax
  105fe7:	66 c7 04 c5 02 2d 11 	movw   $0x8,0x112d02(,%eax,8)
  105fee:	00 08 00 
  105ff1:	8b 45 f4             	mov    -0xc(%ebp),%eax
  105ff4:	0f b6 14 c5 04 2d 11 	movzbl 0x112d04(,%eax,8),%edx
  105ffb:	00 
  105ffc:	83 e2 e0             	and    $0xffffffe0,%edx
  105fff:	88 14 c5 04 2d 11 00 	mov    %dl,0x112d04(,%eax,8)
  106006:	8b 45 f4             	mov    -0xc(%ebp),%eax
  106009:	0f b6 14 c5 04 2d 11 	movzbl 0x112d04(,%eax,8),%edx
  106010:	00 
  106011:	83 e2 1f             	and    $0x1f,%edx
  106014:	88 14 c5 04 2d 11 00 	mov    %dl,0x112d04(,%eax,8)
  10601b:	8b 45 f4             	mov    -0xc(%ebp),%eax
  10601e:	0f b6 14 c5 05 2d 11 	movzbl 0x112d05(,%eax,8),%edx
  106025:	00 
  106026:	83 e2 f0             	and    $0xfffffff0,%edx
  106029:	83 ca 0e             	or     $0xe,%edx
  10602c:	88 14 c5 05 2d 11 00 	mov    %dl,0x112d05(,%eax,8)
  106033:	8b 45 f4             	mov    -0xc(%ebp),%eax
  106036:	0f b6 14 c5 05 2d 11 	movzbl 0x112d05(,%eax,8),%edx
  10603d:	00 
  10603e:	83 e2 ef             	and    $0xffffffef,%edx
  106041:	88 14 c5 05 2d 11 00 	mov    %dl,0x112d05(,%eax,8)
  106048:	8b 45 f4             	mov    -0xc(%ebp),%eax
  10604b:	0f b6 14 c5 05 2d 11 	movzbl 0x112d05(,%eax,8),%edx
  106052:	00 
  106053:	83 e2 9f             	and    $0xffffff9f,%edx
  106056:	88 14 c5 05 2d 11 00 	mov    %dl,0x112d05(,%eax,8)
  10605d:	8b 45 f4             	mov    -0xc(%ebp),%eax
  106060:	0f b6 14 c5 05 2d 11 	movzbl 0x112d05(,%eax,8),%edx
  106067:	00 
  106068:	83 ca 80             	or     $0xffffff80,%edx
  10606b:	88 14 c5 05 2d 11 00 	mov    %dl,0x112d05(,%eax,8)
  106072:	8b 45 f4             	mov    -0xc(%ebp),%eax
  106075:	8b 04 85 c4 b5 10 00 	mov    0x10b5c4(,%eax,4),%eax
  10607c:	c1 e8 10             	shr    $0x10,%eax
  10607f:	89 c2                	mov    %eax,%edx
  106081:	8b 45 f4             	mov    -0xc(%ebp),%eax
  106084:	66 89 14 c5 06 2d 11 	mov    %dx,0x112d06(,%eax,8)
  10608b:	00 
/u/a/b/abhijith/CS537/p3b/xv6-sp20/kernel/trap.c:21 (discriminator 3)
  10608c:	83 45 f4 01          	addl   $0x1,-0xc(%ebp)
/u/a/b/abhijith/CS537/p3b/xv6-sp20/kernel/trap.c:21 (discriminator 1)
  106090:	81 7d f4 ff 00 00 00 	cmpl   $0xff,-0xc(%ebp)
  106097:	0f 8e 30 ff ff ff    	jle    105fcd <tvinit+0x12>
/u/a/b/abhijith/CS537/p3b/xv6-sp20/kernel/trap.c:23
  10609d:	a1 c4 b6 10 00       	mov    0x10b6c4,%eax
  1060a2:	66 a3 00 2f 11 00    	mov    %ax,0x112f00
  1060a8:	66 c7 05 02 2f 11 00 	movw   $0x8,0x112f02
  1060af:	08 00 
  1060b1:	0f b6 05 04 2f 11 00 	movzbl 0x112f04,%eax
  1060b8:	83 e0 e0             	and    $0xffffffe0,%eax
  1060bb:	a2 04 2f 11 00       	mov    %al,0x112f04
  1060c0:	0f b6 05 04 2f 11 00 	movzbl 0x112f04,%eax
  1060c7:	83 e0 1f             	and    $0x1f,%eax
  1060ca:	a2 04 2f 11 00       	mov    %al,0x112f04
  1060cf:	0f b6 05 05 2f 11 00 	movzbl 0x112f05,%eax
  1060d6:	83 c8 0f             	or     $0xf,%eax
  1060d9:	a2 05 2f 11 00       	mov    %al,0x112f05
  1060de:	0f b6 05 05 2f 11 00 	movzbl 0x112f05,%eax
  1060e5:	83 e0 ef             	and    $0xffffffef,%eax
  1060e8:	a2 05 2f 11 00       	mov    %al,0x112f05
  1060ed:	0f b6 05 05 2f 11 00 	movzbl 0x112f05,%eax
  1060f4:	83 c8 60             	or     $0x60,%eax
  1060f7:	a2 05 2f 11 00       	mov    %al,0x112f05
  1060fc:	0f b6 05 05 2f 11 00 	movzbl 0x112f05,%eax
  106103:	83 c8 80             	or     $0xffffff80,%eax
  106106:	a2 05 2f 11 00       	mov    %al,0x112f05
  10610b:	a1 c4 b6 10 00       	mov    0x10b6c4,%eax
  106110:	c1 e8 10             	shr    $0x10,%eax
  106113:	66 a3 06 2f 11 00    	mov    %ax,0x112f06
/u/a/b/abhijith/CS537/p3b/xv6-sp20/kernel/trap.c:25
  106119:	83 ec 08             	sub    $0x8,%esp
  10611c:	68 20 83 10 00       	push   $0x108320
  106121:	68 c0 2c 11 00       	push   $0x112cc0
  106126:	e8 78 e7 ff ff       	call   1048a3 <initlock>
  10612b:	83 c4 10             	add    $0x10,%esp
/u/a/b/abhijith/CS537/p3b/xv6-sp20/kernel/trap.c:26
  10612e:	90                   	nop
  10612f:	c9                   	leave  
  106130:	c3                   	ret    

00106131 <idtinit>:
idtinit():
/u/a/b/abhijith/CS537/p3b/xv6-sp20/kernel/trap.c:30
  106131:	55                   	push   %ebp
  106132:	89 e5                	mov    %esp,%ebp
/u/a/b/abhijith/CS537/p3b/xv6-sp20/kernel/trap.c:31
  106134:	68 00 08 00 00       	push   $0x800
  106139:	68 00 2d 11 00       	push   $0x112d00
  10613e:	e8 3d fe ff ff       	call   105f80 <lidt>
  106143:	83 c4 08             	add    $0x8,%esp
/u/a/b/abhijith/CS537/p3b/xv6-sp20/kernel/trap.c:32
  106146:	90                   	nop
  106147:	c9                   	leave  
  106148:	c3                   	ret    

00106149 <trap>:
trap():
/u/a/b/abhijith/CS537/p3b/xv6-sp20/kernel/trap.c:36
  106149:	55                   	push   %ebp
  10614a:	89 e5                	mov    %esp,%ebp
  10614c:	57                   	push   %edi
  10614d:	56                   	push   %esi
  10614e:	53                   	push   %ebx
  10614f:	83 ec 1c             	sub    $0x1c,%esp
/u/a/b/abhijith/CS537/p3b/xv6-sp20/kernel/trap.c:37
  106152:	8b 45 08             	mov    0x8(%ebp),%eax
  106155:	8b 40 30             	mov    0x30(%eax),%eax
  106158:	83 f8 40             	cmp    $0x40,%eax
  10615b:	75 3e                	jne    10619b <trap+0x52>
/u/a/b/abhijith/CS537/p3b/xv6-sp20/kernel/trap.c:38
  10615d:	65 a1 04 00 00 00    	mov    %gs:0x4,%eax
  106163:	8b 40 24             	mov    0x24(%eax),%eax
  106166:	85 c0                	test   %eax,%eax
  106168:	74 05                	je     10616f <trap+0x26>
/u/a/b/abhijith/CS537/p3b/xv6-sp20/kernel/trap.c:39
  10616a:	e8 56 e0 ff ff       	call   1041c5 <exit>
/u/a/b/abhijith/CS537/p3b/xv6-sp20/kernel/trap.c:40
  10616f:	65 a1 04 00 00 00    	mov    %gs:0x4,%eax
  106175:	8b 55 08             	mov    0x8(%ebp),%edx
  106178:	89 50 18             	mov    %edx,0x18(%eax)
/u/a/b/abhijith/CS537/p3b/xv6-sp20/kernel/trap.c:41
  10617b:	e8 14 ed ff ff       	call   104e94 <syscall>
/u/a/b/abhijith/CS537/p3b/xv6-sp20/kernel/trap.c:42
  106180:	65 a1 04 00 00 00    	mov    %gs:0x4,%eax
  106186:	8b 40 24             	mov    0x24(%eax),%eax
  106189:	85 c0                	test   %eax,%eax
  10618b:	0f 84 1b 02 00 00    	je     1063ac <trap+0x263>
/u/a/b/abhijith/CS537/p3b/xv6-sp20/kernel/trap.c:43
  106191:	e8 2f e0 ff ff       	call   1041c5 <exit>
/u/a/b/abhijith/CS537/p3b/xv6-sp20/kernel/trap.c:44
  106196:	e9 11 02 00 00       	jmp    1063ac <trap+0x263>
/u/a/b/abhijith/CS537/p3b/xv6-sp20/kernel/trap.c:47
  10619b:	8b 45 08             	mov    0x8(%ebp),%eax
  10619e:	8b 40 30             	mov    0x30(%eax),%eax
  1061a1:	83 e8 20             	sub    $0x20,%eax
  1061a4:	83 f8 1f             	cmp    $0x1f,%eax
  1061a7:	0f 87 c0 00 00 00    	ja     10626d <trap+0x124>
  1061ad:	8b 04 85 c8 83 10 00 	mov    0x1083c8(,%eax,4),%eax
  1061b4:	ff e0                	jmp    *%eax
/u/a/b/abhijith/CS537/p3b/xv6-sp20/kernel/trap.c:49
  1061b6:	65 a1 00 00 00 00    	mov    %gs:0x0,%eax
  1061bc:	0f b6 00             	movzbl (%eax),%eax
  1061bf:	84 c0                	test   %al,%al
  1061c1:	75 3d                	jne    106200 <trap+0xb7>
/u/a/b/abhijith/CS537/p3b/xv6-sp20/kernel/trap.c:50
  1061c3:	83 ec 0c             	sub    $0xc,%esp
  1061c6:	68 c0 2c 11 00       	push   $0x112cc0
  1061cb:	e8 f5 e6 ff ff       	call   1048c5 <acquire>
  1061d0:	83 c4 10             	add    $0x10,%esp
/u/a/b/abhijith/CS537/p3b/xv6-sp20/kernel/trap.c:51
  1061d3:	a1 00 35 11 00       	mov    0x113500,%eax
  1061d8:	83 c0 01             	add    $0x1,%eax
  1061db:	a3 00 35 11 00       	mov    %eax,0x113500
/u/a/b/abhijith/CS537/p3b/xv6-sp20/kernel/trap.c:52
  1061e0:	83 ec 0c             	sub    $0xc,%esp
  1061e3:	68 00 35 11 00       	push   $0x113500
  1061e8:	e8 ca e4 ff ff       	call   1046b7 <wakeup>
  1061ed:	83 c4 10             	add    $0x10,%esp
/u/a/b/abhijith/CS537/p3b/xv6-sp20/kernel/trap.c:53
  1061f0:	83 ec 0c             	sub    $0xc,%esp
  1061f3:	68 c0 2c 11 00       	push   $0x112cc0
  1061f8:	e8 2f e7 ff ff       	call   10492c <release>
  1061fd:	83 c4 10             	add    $0x10,%esp
/u/a/b/abhijith/CS537/p3b/xv6-sp20/kernel/trap.c:55
  106200:	e8 58 ce ff ff       	call   10305d <lapiceoi>
/u/a/b/abhijith/CS537/p3b/xv6-sp20/kernel/trap.c:56
  106205:	e9 1c 01 00 00       	jmp    106326 <trap+0x1dd>
/u/a/b/abhijith/CS537/p3b/xv6-sp20/kernel/trap.c:58
  10620a:	e8 2a c5 ff ff       	call   102739 <ideintr>
/u/a/b/abhijith/CS537/p3b/xv6-sp20/kernel/trap.c:59
  10620f:	e8 49 ce ff ff       	call   10305d <lapiceoi>
/u/a/b/abhijith/CS537/p3b/xv6-sp20/kernel/trap.c:60
  106214:	e9 0d 01 00 00       	jmp    106326 <trap+0x1dd>
/u/a/b/abhijith/CS537/p3b/xv6-sp20/kernel/trap.c:65
  106219:	e8 18 cc ff ff       	call   102e36 <kbdintr>
/u/a/b/abhijith/CS537/p3b/xv6-sp20/kernel/trap.c:66
  10621e:	e8 3a ce ff ff       	call   10305d <lapiceoi>
/u/a/b/abhijith/CS537/p3b/xv6-sp20/kernel/trap.c:67
  106223:	e9 fe 00 00 00       	jmp    106326 <trap+0x1dd>
/u/a/b/abhijith/CS537/p3b/xv6-sp20/kernel/trap.c:69
  106228:	e8 60 03 00 00       	call   10658d <uartintr>
/u/a/b/abhijith/CS537/p3b/xv6-sp20/kernel/trap.c:70
  10622d:	e8 2b ce ff ff       	call   10305d <lapiceoi>
/u/a/b/abhijith/CS537/p3b/xv6-sp20/kernel/trap.c:71
  106232:	e9 ef 00 00 00       	jmp    106326 <trap+0x1dd>
/u/a/b/abhijith/CS537/p3b/xv6-sp20/kernel/trap.c:74
  106237:	8b 45 08             	mov    0x8(%ebp),%eax
  10623a:	8b 48 38             	mov    0x38(%eax),%ecx
/u/a/b/abhijith/CS537/p3b/xv6-sp20/kernel/trap.c:75
  10623d:	8b 45 08             	mov    0x8(%ebp),%eax
  106240:	0f b7 40 3c          	movzwl 0x3c(%eax),%eax
/u/a/b/abhijith/CS537/p3b/xv6-sp20/kernel/trap.c:74
  106244:	0f b7 d0             	movzwl %ax,%edx
/u/a/b/abhijith/CS537/p3b/xv6-sp20/kernel/trap.c:75
  106247:	65 a1 00 00 00 00    	mov    %gs:0x0,%eax
  10624d:	0f b6 00             	movzbl (%eax),%eax
/u/a/b/abhijith/CS537/p3b/xv6-sp20/kernel/trap.c:74
  106250:	0f b6 c0             	movzbl %al,%eax
  106253:	51                   	push   %ecx
  106254:	52                   	push   %edx
  106255:	50                   	push   %eax
  106256:	68 28 83 10 00       	push   $0x108328
  10625b:	e8 8c a1 ff ff       	call   1003ec <cprintf>
  106260:	83 c4 10             	add    $0x10,%esp
/u/a/b/abhijith/CS537/p3b/xv6-sp20/kernel/trap.c:76
  106263:	e8 f5 cd ff ff       	call   10305d <lapiceoi>
/u/a/b/abhijith/CS537/p3b/xv6-sp20/kernel/trap.c:77
  106268:	e9 b9 00 00 00       	jmp    106326 <trap+0x1dd>
/u/a/b/abhijith/CS537/p3b/xv6-sp20/kernel/trap.c:80
  10626d:	65 a1 04 00 00 00    	mov    %gs:0x4,%eax
  106273:	85 c0                	test   %eax,%eax
  106275:	74 11                	je     106288 <trap+0x13f>
/u/a/b/abhijith/CS537/p3b/xv6-sp20/kernel/trap.c:80 (discriminator 1)
  106277:	8b 45 08             	mov    0x8(%ebp),%eax
  10627a:	0f b7 40 3c          	movzwl 0x3c(%eax),%eax
  10627e:	0f b7 c0             	movzwl %ax,%eax
  106281:	83 e0 03             	and    $0x3,%eax
  106284:	85 c0                	test   %eax,%eax
  106286:	75 40                	jne    1062c8 <trap+0x17f>
/u/a/b/abhijith/CS537/p3b/xv6-sp20/kernel/trap.c:82
  106288:	e8 1d fd ff ff       	call   105faa <rcr2>
  10628d:	89 c3                	mov    %eax,%ebx
  10628f:	8b 45 08             	mov    0x8(%ebp),%eax
  106292:	8b 48 38             	mov    0x38(%eax),%ecx
/u/a/b/abhijith/CS537/p3b/xv6-sp20/kernel/trap.c:83
  106295:	65 a1 00 00 00 00    	mov    %gs:0x0,%eax
  10629b:	0f b6 00             	movzbl (%eax),%eax
/u/a/b/abhijith/CS537/p3b/xv6-sp20/kernel/trap.c:82
  10629e:	0f b6 d0             	movzbl %al,%edx
  1062a1:	8b 45 08             	mov    0x8(%ebp),%eax
  1062a4:	8b 40 30             	mov    0x30(%eax),%eax
  1062a7:	83 ec 0c             	sub    $0xc,%esp
  1062aa:	53                   	push   %ebx
  1062ab:	51                   	push   %ecx
  1062ac:	52                   	push   %edx
  1062ad:	50                   	push   %eax
  1062ae:	68 4c 83 10 00       	push   $0x10834c
  1062b3:	e8 34 a1 ff ff       	call   1003ec <cprintf>
  1062b8:	83 c4 20             	add    $0x20,%esp
/u/a/b/abhijith/CS537/p3b/xv6-sp20/kernel/trap.c:84
  1062bb:	83 ec 0c             	sub    $0xc,%esp
  1062be:	68 7e 83 10 00       	push   $0x10837e
  1062c3:	e8 b0 a2 ff ff       	call   100578 <panic>
/u/a/b/abhijith/CS537/p3b/xv6-sp20/kernel/trap.c:87
  1062c8:	e8 dd fc ff ff       	call   105faa <rcr2>
  1062cd:	89 45 e4             	mov    %eax,-0x1c(%ebp)
  1062d0:	8b 45 08             	mov    0x8(%ebp),%eax
  1062d3:	8b 70 38             	mov    0x38(%eax),%esi
/u/a/b/abhijith/CS537/p3b/xv6-sp20/kernel/trap.c:89
  1062d6:	65 a1 00 00 00 00    	mov    %gs:0x0,%eax
  1062dc:	0f b6 00             	movzbl (%eax),%eax
/u/a/b/abhijith/CS537/p3b/xv6-sp20/kernel/trap.c:87
  1062df:	0f b6 d8             	movzbl %al,%ebx
  1062e2:	8b 45 08             	mov    0x8(%ebp),%eax
  1062e5:	8b 48 34             	mov    0x34(%eax),%ecx
  1062e8:	8b 45 08             	mov    0x8(%ebp),%eax
  1062eb:	8b 50 30             	mov    0x30(%eax),%edx
/u/a/b/abhijith/CS537/p3b/xv6-sp20/kernel/trap.c:89
  1062ee:	65 a1 04 00 00 00    	mov    %gs:0x4,%eax
  1062f4:	8d 78 6c             	lea    0x6c(%eax),%edi
  1062f7:	65 a1 04 00 00 00    	mov    %gs:0x4,%eax
/u/a/b/abhijith/CS537/p3b/xv6-sp20/kernel/trap.c:87
  1062fd:	8b 40 10             	mov    0x10(%eax),%eax
  106300:	ff 75 e4             	pushl  -0x1c(%ebp)
  106303:	56                   	push   %esi
  106304:	53                   	push   %ebx
  106305:	51                   	push   %ecx
  106306:	52                   	push   %edx
  106307:	57                   	push   %edi
  106308:	50                   	push   %eax
  106309:	68 84 83 10 00       	push   $0x108384
  10630e:	e8 d9 a0 ff ff       	call   1003ec <cprintf>
  106313:	83 c4 20             	add    $0x20,%esp
/u/a/b/abhijith/CS537/p3b/xv6-sp20/kernel/trap.c:91
  106316:	65 a1 04 00 00 00    	mov    %gs:0x4,%eax
  10631c:	c7 40 24 01 00 00 00 	movl   $0x1,0x24(%eax)
  106323:	eb 01                	jmp    106326 <trap+0x1dd>
/u/a/b/abhijith/CS537/p3b/xv6-sp20/kernel/trap.c:63
  106325:	90                   	nop
/u/a/b/abhijith/CS537/p3b/xv6-sp20/kernel/trap.c:97
  106326:	65 a1 04 00 00 00    	mov    %gs:0x4,%eax
  10632c:	85 c0                	test   %eax,%eax
  10632e:	74 24                	je     106354 <trap+0x20b>
/u/a/b/abhijith/CS537/p3b/xv6-sp20/kernel/trap.c:97 (discriminator 1)
  106330:	65 a1 04 00 00 00    	mov    %gs:0x4,%eax
  106336:	8b 40 24             	mov    0x24(%eax),%eax
  106339:	85 c0                	test   %eax,%eax
  10633b:	74 17                	je     106354 <trap+0x20b>
/u/a/b/abhijith/CS537/p3b/xv6-sp20/kernel/trap.c:97 (discriminator 2)
  10633d:	8b 45 08             	mov    0x8(%ebp),%eax
  106340:	0f b7 40 3c          	movzwl 0x3c(%eax),%eax
  106344:	0f b7 c0             	movzwl %ax,%eax
  106347:	83 e0 03             	and    $0x3,%eax
  10634a:	83 f8 03             	cmp    $0x3,%eax
  10634d:	75 05                	jne    106354 <trap+0x20b>
/u/a/b/abhijith/CS537/p3b/xv6-sp20/kernel/trap.c:98
  10634f:	e8 71 de ff ff       	call   1041c5 <exit>
/u/a/b/abhijith/CS537/p3b/xv6-sp20/kernel/trap.c:102
  106354:	65 a1 04 00 00 00    	mov    %gs:0x4,%eax
  10635a:	85 c0                	test   %eax,%eax
  10635c:	74 1e                	je     10637c <trap+0x233>
/u/a/b/abhijith/CS537/p3b/xv6-sp20/kernel/trap.c:102 (discriminator 1)
  10635e:	65 a1 04 00 00 00    	mov    %gs:0x4,%eax
  106364:	8b 40 0c             	mov    0xc(%eax),%eax
  106367:	83 f8 04             	cmp    $0x4,%eax
  10636a:	75 10                	jne    10637c <trap+0x233>
/u/a/b/abhijith/CS537/p3b/xv6-sp20/kernel/trap.c:102 (discriminator 2)
  10636c:	8b 45 08             	mov    0x8(%ebp),%eax
  10636f:	8b 40 30             	mov    0x30(%eax),%eax
  106372:	83 f8 20             	cmp    $0x20,%eax
  106375:	75 05                	jne    10637c <trap+0x233>
/u/a/b/abhijith/CS537/p3b/xv6-sp20/kernel/trap.c:103
  106377:	e8 fc e1 ff ff       	call   104578 <yield>
/u/a/b/abhijith/CS537/p3b/xv6-sp20/kernel/trap.c:106
  10637c:	65 a1 04 00 00 00    	mov    %gs:0x4,%eax
  106382:	85 c0                	test   %eax,%eax
  106384:	74 27                	je     1063ad <trap+0x264>
/u/a/b/abhijith/CS537/p3b/xv6-sp20/kernel/trap.c:106 (discriminator 1)
  106386:	65 a1 04 00 00 00    	mov    %gs:0x4,%eax
  10638c:	8b 40 24             	mov    0x24(%eax),%eax
  10638f:	85 c0                	test   %eax,%eax
  106391:	74 1a                	je     1063ad <trap+0x264>
/u/a/b/abhijith/CS537/p3b/xv6-sp20/kernel/trap.c:106 (discriminator 2)
  106393:	8b 45 08             	mov    0x8(%ebp),%eax
  106396:	0f b7 40 3c          	movzwl 0x3c(%eax),%eax
  10639a:	0f b7 c0             	movzwl %ax,%eax
  10639d:	83 e0 03             	and    $0x3,%eax
  1063a0:	83 f8 03             	cmp    $0x3,%eax
  1063a3:	75 08                	jne    1063ad <trap+0x264>
/u/a/b/abhijith/CS537/p3b/xv6-sp20/kernel/trap.c:107
  1063a5:	e8 1b de ff ff       	call   1041c5 <exit>
  1063aa:	eb 01                	jmp    1063ad <trap+0x264>
/u/a/b/abhijith/CS537/p3b/xv6-sp20/kernel/trap.c:44
  1063ac:	90                   	nop
/u/a/b/abhijith/CS537/p3b/xv6-sp20/kernel/trap.c:108
  1063ad:	8d 65 f4             	lea    -0xc(%ebp),%esp
  1063b0:	5b                   	pop    %ebx
  1063b1:	5e                   	pop    %esi
  1063b2:	5f                   	pop    %edi
  1063b3:	5d                   	pop    %ebp
  1063b4:	c3                   	ret    

001063b5 <inb>:
inb():
/u/a/b/abhijith/CS537/p3b/xv6-sp20/include/x86.h:7
  1063b5:	55                   	push   %ebp
  1063b6:	89 e5                	mov    %esp,%ebp
  1063b8:	83 ec 14             	sub    $0x14,%esp
  1063bb:	8b 45 08             	mov    0x8(%ebp),%eax
  1063be:	66 89 45 ec          	mov    %ax,-0x14(%ebp)
/u/a/b/abhijith/CS537/p3b/xv6-sp20/include/x86.h:10
  1063c2:	0f b7 45 ec          	movzwl -0x14(%ebp),%eax
  1063c6:	89 c2                	mov    %eax,%edx
  1063c8:	ec                   	in     (%dx),%al
  1063c9:	88 45 ff             	mov    %al,-0x1(%ebp)
/u/a/b/abhijith/CS537/p3b/xv6-sp20/include/x86.h:11
  1063cc:	0f b6 45 ff          	movzbl -0x1(%ebp),%eax
/u/a/b/abhijith/CS537/p3b/xv6-sp20/include/x86.h:12
  1063d0:	c9                   	leave  
  1063d1:	c3                   	ret    

001063d2 <outb>:
outb():
/u/a/b/abhijith/CS537/p3b/xv6-sp20/include/x86.h:25
  1063d2:	55                   	push   %ebp
  1063d3:	89 e5                	mov    %esp,%ebp
  1063d5:	83 ec 08             	sub    $0x8,%esp
  1063d8:	8b 55 08             	mov    0x8(%ebp),%edx
  1063db:	8b 45 0c             	mov    0xc(%ebp),%eax
  1063de:	66 89 55 fc          	mov    %dx,-0x4(%ebp)
  1063e2:	88 45 f8             	mov    %al,-0x8(%ebp)
/u/a/b/abhijith/CS537/p3b/xv6-sp20/include/x86.h:26
  1063e5:	0f b6 45 f8          	movzbl -0x8(%ebp),%eax
  1063e9:	0f b7 55 fc          	movzwl -0x4(%ebp),%edx
  1063ed:	ee                   	out    %al,(%dx)
/u/a/b/abhijith/CS537/p3b/xv6-sp20/include/x86.h:27
  1063ee:	90                   	nop
  1063ef:	c9                   	leave  
  1063f0:	c3                   	ret    

001063f1 <uartinit>:
uartinit():
/u/a/b/abhijith/CS537/p3b/xv6-sp20/kernel/uart.c:20
  1063f1:	55                   	push   %ebp
  1063f2:	89 e5                	mov    %esp,%ebp
  1063f4:	83 ec 18             	sub    $0x18,%esp
/u/a/b/abhijith/CS537/p3b/xv6-sp20/kernel/uart.c:24
  1063f7:	6a 00                	push   $0x0
  1063f9:	68 fa 03 00 00       	push   $0x3fa
  1063fe:	e8 cf ff ff ff       	call   1063d2 <outb>
  106403:	83 c4 08             	add    $0x8,%esp
/u/a/b/abhijith/CS537/p3b/xv6-sp20/kernel/uart.c:27
  106406:	68 80 00 00 00       	push   $0x80
  10640b:	68 fb 03 00 00       	push   $0x3fb
  106410:	e8 bd ff ff ff       	call   1063d2 <outb>
  106415:	83 c4 08             	add    $0x8,%esp
/u/a/b/abhijith/CS537/p3b/xv6-sp20/kernel/uart.c:28
  106418:	6a 0c                	push   $0xc
  10641a:	68 f8 03 00 00       	push   $0x3f8
  10641f:	e8 ae ff ff ff       	call   1063d2 <outb>
  106424:	83 c4 08             	add    $0x8,%esp
/u/a/b/abhijith/CS537/p3b/xv6-sp20/kernel/uart.c:29
  106427:	6a 00                	push   $0x0
  106429:	68 f9 03 00 00       	push   $0x3f9
  10642e:	e8 9f ff ff ff       	call   1063d2 <outb>
  106433:	83 c4 08             	add    $0x8,%esp
/u/a/b/abhijith/CS537/p3b/xv6-sp20/kernel/uart.c:30
  106436:	6a 03                	push   $0x3
  106438:	68 fb 03 00 00       	push   $0x3fb
  10643d:	e8 90 ff ff ff       	call   1063d2 <outb>
  106442:	83 c4 08             	add    $0x8,%esp
/u/a/b/abhijith/CS537/p3b/xv6-sp20/kernel/uart.c:31
  106445:	6a 00                	push   $0x0
  106447:	68 fc 03 00 00       	push   $0x3fc
  10644c:	e8 81 ff ff ff       	call   1063d2 <outb>
  106451:	83 c4 08             	add    $0x8,%esp
/u/a/b/abhijith/CS537/p3b/xv6-sp20/kernel/uart.c:32
  106454:	6a 01                	push   $0x1
  106456:	68 f9 03 00 00       	push   $0x3f9
  10645b:	e8 72 ff ff ff       	call   1063d2 <outb>
  106460:	83 c4 08             	add    $0x8,%esp
/u/a/b/abhijith/CS537/p3b/xv6-sp20/kernel/uart.c:35
  106463:	68 fd 03 00 00       	push   $0x3fd
  106468:	e8 48 ff ff ff       	call   1063b5 <inb>
  10646d:	83 c4 04             	add    $0x4,%esp
  106470:	3c ff                	cmp    $0xff,%al
  106472:	74 6e                	je     1064e2 <uartinit+0xf1>
/u/a/b/abhijith/CS537/p3b/xv6-sp20/kernel/uart.c:37
  106474:	c7 05 18 c5 10 00 01 	movl   $0x1,0x10c518
  10647b:	00 00 00 
/u/a/b/abhijith/CS537/p3b/xv6-sp20/kernel/uart.c:41
  10647e:	68 fa 03 00 00       	push   $0x3fa
  106483:	e8 2d ff ff ff       	call   1063b5 <inb>
  106488:	83 c4 04             	add    $0x4,%esp
/u/a/b/abhijith/CS537/p3b/xv6-sp20/kernel/uart.c:42
  10648b:	68 f8 03 00 00       	push   $0x3f8
  106490:	e8 20 ff ff ff       	call   1063b5 <inb>
  106495:	83 c4 04             	add    $0x4,%esp
/u/a/b/abhijith/CS537/p3b/xv6-sp20/kernel/uart.c:43
  106498:	83 ec 0c             	sub    $0xc,%esp
  10649b:	6a 04                	push   $0x4
  10649d:	e8 81 d3 ff ff       	call   103823 <picenable>
  1064a2:	83 c4 10             	add    $0x10,%esp
/u/a/b/abhijith/CS537/p3b/xv6-sp20/kernel/uart.c:44
  1064a5:	83 ec 08             	sub    $0x8,%esp
  1064a8:	6a 00                	push   $0x0
  1064aa:	6a 04                	push   $0x4
  1064ac:	e8 2a c5 ff ff       	call   1029db <ioapicenable>
  1064b1:	83 c4 10             	add    $0x10,%esp
/u/a/b/abhijith/CS537/p3b/xv6-sp20/kernel/uart.c:47
  1064b4:	c7 45 f4 48 84 10 00 	movl   $0x108448,-0xc(%ebp)
  1064bb:	eb 19                	jmp    1064d6 <uartinit+0xe5>
/u/a/b/abhijith/CS537/p3b/xv6-sp20/kernel/uart.c:48 (discriminator 3)
  1064bd:	8b 45 f4             	mov    -0xc(%ebp),%eax
  1064c0:	0f b6 00             	movzbl (%eax),%eax
  1064c3:	0f be c0             	movsbl %al,%eax
  1064c6:	83 ec 0c             	sub    $0xc,%esp
  1064c9:	50                   	push   %eax
  1064ca:	e8 16 00 00 00       	call   1064e5 <uartputc>
  1064cf:	83 c4 10             	add    $0x10,%esp
/u/a/b/abhijith/CS537/p3b/xv6-sp20/kernel/uart.c:47 (discriminator 3)
  1064d2:	83 45 f4 01          	addl   $0x1,-0xc(%ebp)
/u/a/b/abhijith/CS537/p3b/xv6-sp20/kernel/uart.c:47 (discriminator 1)
  1064d6:	8b 45 f4             	mov    -0xc(%ebp),%eax
  1064d9:	0f b6 00             	movzbl (%eax),%eax
  1064dc:	84 c0                	test   %al,%al
  1064de:	75 dd                	jne    1064bd <uartinit+0xcc>
  1064e0:	eb 01                	jmp    1064e3 <uartinit+0xf2>
/u/a/b/abhijith/CS537/p3b/xv6-sp20/kernel/uart.c:36
  1064e2:	90                   	nop
/u/a/b/abhijith/CS537/p3b/xv6-sp20/kernel/uart.c:49
  1064e3:	c9                   	leave  
  1064e4:	c3                   	ret    

001064e5 <uartputc>:
uartputc():
/u/a/b/abhijith/CS537/p3b/xv6-sp20/kernel/uart.c:53
  1064e5:	55                   	push   %ebp
  1064e6:	89 e5                	mov    %esp,%ebp
  1064e8:	83 ec 18             	sub    $0x18,%esp
/u/a/b/abhijith/CS537/p3b/xv6-sp20/kernel/uart.c:56
  1064eb:	a1 18 c5 10 00       	mov    0x10c518,%eax
  1064f0:	85 c0                	test   %eax,%eax
  1064f2:	74 53                	je     106547 <uartputc+0x62>
/u/a/b/abhijith/CS537/p3b/xv6-sp20/kernel/uart.c:58
  1064f4:	c7 45 f4 00 00 00 00 	movl   $0x0,-0xc(%ebp)
  1064fb:	eb 11                	jmp    10650e <uartputc+0x29>
/u/a/b/abhijith/CS537/p3b/xv6-sp20/kernel/uart.c:59 (discriminator 4)
  1064fd:	83 ec 0c             	sub    $0xc,%esp
  106500:	6a 0a                	push   $0xa
  106502:	e8 71 cb ff ff       	call   103078 <microdelay>
  106507:	83 c4 10             	add    $0x10,%esp
/u/a/b/abhijith/CS537/p3b/xv6-sp20/kernel/uart.c:58 (discriminator 4)
  10650a:	83 45 f4 01          	addl   $0x1,-0xc(%ebp)
/u/a/b/abhijith/CS537/p3b/xv6-sp20/kernel/uart.c:58 (discriminator 1)
  10650e:	83 7d f4 7f          	cmpl   $0x7f,-0xc(%ebp)
  106512:	7f 1a                	jg     10652e <uartputc+0x49>
/u/a/b/abhijith/CS537/p3b/xv6-sp20/kernel/uart.c:58 (discriminator 3)
  106514:	83 ec 0c             	sub    $0xc,%esp
  106517:	68 fd 03 00 00       	push   $0x3fd
  10651c:	e8 94 fe ff ff       	call   1063b5 <inb>
  106521:	83 c4 10             	add    $0x10,%esp
  106524:	0f b6 c0             	movzbl %al,%eax
  106527:	83 e0 20             	and    $0x20,%eax
  10652a:	85 c0                	test   %eax,%eax
  10652c:	74 cf                	je     1064fd <uartputc+0x18>
/u/a/b/abhijith/CS537/p3b/xv6-sp20/kernel/uart.c:60
  10652e:	8b 45 08             	mov    0x8(%ebp),%eax
  106531:	0f b6 c0             	movzbl %al,%eax
  106534:	83 ec 08             	sub    $0x8,%esp
  106537:	50                   	push   %eax
  106538:	68 f8 03 00 00       	push   $0x3f8
  10653d:	e8 90 fe ff ff       	call   1063d2 <outb>
  106542:	83 c4 10             	add    $0x10,%esp
  106545:	eb 01                	jmp    106548 <uartputc+0x63>
/u/a/b/abhijith/CS537/p3b/xv6-sp20/kernel/uart.c:57
  106547:	90                   	nop
/u/a/b/abhijith/CS537/p3b/xv6-sp20/kernel/uart.c:61
  106548:	c9                   	leave  
  106549:	c3                   	ret    

0010654a <uartgetc>:
uartgetc():
/u/a/b/abhijith/CS537/p3b/xv6-sp20/kernel/uart.c:65
  10654a:	55                   	push   %ebp
  10654b:	89 e5                	mov    %esp,%ebp
/u/a/b/abhijith/CS537/p3b/xv6-sp20/kernel/uart.c:66
  10654d:	a1 18 c5 10 00       	mov    0x10c518,%eax
  106552:	85 c0                	test   %eax,%eax
  106554:	75 07                	jne    10655d <uartgetc+0x13>
/u/a/b/abhijith/CS537/p3b/xv6-sp20/kernel/uart.c:67
  106556:	b8 ff ff ff ff       	mov    $0xffffffff,%eax
  10655b:	eb 2e                	jmp    10658b <uartgetc+0x41>
/u/a/b/abhijith/CS537/p3b/xv6-sp20/kernel/uart.c:68
  10655d:	68 fd 03 00 00       	push   $0x3fd
  106562:	e8 4e fe ff ff       	call   1063b5 <inb>
  106567:	83 c4 04             	add    $0x4,%esp
  10656a:	0f b6 c0             	movzbl %al,%eax
  10656d:	83 e0 01             	and    $0x1,%eax
  106570:	85 c0                	test   %eax,%eax
  106572:	75 07                	jne    10657b <uartgetc+0x31>
/u/a/b/abhijith/CS537/p3b/xv6-sp20/kernel/uart.c:69
  106574:	b8 ff ff ff ff       	mov    $0xffffffff,%eax
  106579:	eb 10                	jmp    10658b <uartgetc+0x41>
/u/a/b/abhijith/CS537/p3b/xv6-sp20/kernel/uart.c:70
  10657b:	68 f8 03 00 00       	push   $0x3f8
  106580:	e8 30 fe ff ff       	call   1063b5 <inb>
  106585:	83 c4 04             	add    $0x4,%esp
  106588:	0f b6 c0             	movzbl %al,%eax
/u/a/b/abhijith/CS537/p3b/xv6-sp20/kernel/uart.c:71
  10658b:	c9                   	leave  
  10658c:	c3                   	ret    

0010658d <uartintr>:
uartintr():
/u/a/b/abhijith/CS537/p3b/xv6-sp20/kernel/uart.c:75
  10658d:	55                   	push   %ebp
  10658e:	89 e5                	mov    %esp,%ebp
  106590:	83 ec 08             	sub    $0x8,%esp
/u/a/b/abhijith/CS537/p3b/xv6-sp20/kernel/uart.c:76
  106593:	83 ec 0c             	sub    $0xc,%esp
  106596:	68 4a 65 10 00       	push   $0x10654a
  10659b:	e8 57 a2 ff ff       	call   1007f7 <consoleintr>
  1065a0:	83 c4 10             	add    $0x10,%esp
/u/a/b/abhijith/CS537/p3b/xv6-sp20/kernel/uart.c:77
  1065a3:	90                   	nop
  1065a4:	c9                   	leave  
  1065a5:	c3                   	ret    

001065a6 <vector0>:
vector0():
/u/a/b/abhijith/CS537/p3b/xv6-sp20/kernel/vectors.S:6
  1065a6:	6a 00                	push   $0x0
/u/a/b/abhijith/CS537/p3b/xv6-sp20/kernel/vectors.S:7
  1065a8:	6a 00                	push   $0x0
/u/a/b/abhijith/CS537/p3b/xv6-sp20/kernel/vectors.S:8
  1065aa:	e9 a6 f9 ff ff       	jmp    105f55 <alltraps>

001065af <vector1>:
vector1():
/u/a/b/abhijith/CS537/p3b/xv6-sp20/kernel/vectors.S:11
  1065af:	6a 00                	push   $0x0
/u/a/b/abhijith/CS537/p3b/xv6-sp20/kernel/vectors.S:12
  1065b1:	6a 01                	push   $0x1
/u/a/b/abhijith/CS537/p3b/xv6-sp20/kernel/vectors.S:13
  1065b3:	e9 9d f9 ff ff       	jmp    105f55 <alltraps>

001065b8 <vector2>:
vector2():
/u/a/b/abhijith/CS537/p3b/xv6-sp20/kernel/vectors.S:16
  1065b8:	6a 00                	push   $0x0
/u/a/b/abhijith/CS537/p3b/xv6-sp20/kernel/vectors.S:17
  1065ba:	6a 02                	push   $0x2
/u/a/b/abhijith/CS537/p3b/xv6-sp20/kernel/vectors.S:18
  1065bc:	e9 94 f9 ff ff       	jmp    105f55 <alltraps>

001065c1 <vector3>:
vector3():
/u/a/b/abhijith/CS537/p3b/xv6-sp20/kernel/vectors.S:21
  1065c1:	6a 00                	push   $0x0
/u/a/b/abhijith/CS537/p3b/xv6-sp20/kernel/vectors.S:22
  1065c3:	6a 03                	push   $0x3
/u/a/b/abhijith/CS537/p3b/xv6-sp20/kernel/vectors.S:23
  1065c5:	e9 8b f9 ff ff       	jmp    105f55 <alltraps>

001065ca <vector4>:
vector4():
/u/a/b/abhijith/CS537/p3b/xv6-sp20/kernel/vectors.S:26
  1065ca:	6a 00                	push   $0x0
/u/a/b/abhijith/CS537/p3b/xv6-sp20/kernel/vectors.S:27
  1065cc:	6a 04                	push   $0x4
/u/a/b/abhijith/CS537/p3b/xv6-sp20/kernel/vectors.S:28
  1065ce:	e9 82 f9 ff ff       	jmp    105f55 <alltraps>

001065d3 <vector5>:
vector5():
/u/a/b/abhijith/CS537/p3b/xv6-sp20/kernel/vectors.S:31
  1065d3:	6a 00                	push   $0x0
/u/a/b/abhijith/CS537/p3b/xv6-sp20/kernel/vectors.S:32
  1065d5:	6a 05                	push   $0x5
/u/a/b/abhijith/CS537/p3b/xv6-sp20/kernel/vectors.S:33
  1065d7:	e9 79 f9 ff ff       	jmp    105f55 <alltraps>

001065dc <vector6>:
vector6():
/u/a/b/abhijith/CS537/p3b/xv6-sp20/kernel/vectors.S:36
  1065dc:	6a 00                	push   $0x0
/u/a/b/abhijith/CS537/p3b/xv6-sp20/kernel/vectors.S:37
  1065de:	6a 06                	push   $0x6
/u/a/b/abhijith/CS537/p3b/xv6-sp20/kernel/vectors.S:38
  1065e0:	e9 70 f9 ff ff       	jmp    105f55 <alltraps>

001065e5 <vector7>:
vector7():
/u/a/b/abhijith/CS537/p3b/xv6-sp20/kernel/vectors.S:41
  1065e5:	6a 00                	push   $0x0
/u/a/b/abhijith/CS537/p3b/xv6-sp20/kernel/vectors.S:42
  1065e7:	6a 07                	push   $0x7
/u/a/b/abhijith/CS537/p3b/xv6-sp20/kernel/vectors.S:43
  1065e9:	e9 67 f9 ff ff       	jmp    105f55 <alltraps>

001065ee <vector8>:
vector8():
/u/a/b/abhijith/CS537/p3b/xv6-sp20/kernel/vectors.S:46
  1065ee:	6a 08                	push   $0x8
/u/a/b/abhijith/CS537/p3b/xv6-sp20/kernel/vectors.S:47
  1065f0:	e9 60 f9 ff ff       	jmp    105f55 <alltraps>

001065f5 <vector9>:
vector9():
/u/a/b/abhijith/CS537/p3b/xv6-sp20/kernel/vectors.S:50
  1065f5:	6a 00                	push   $0x0
/u/a/b/abhijith/CS537/p3b/xv6-sp20/kernel/vectors.S:51
  1065f7:	6a 09                	push   $0x9
/u/a/b/abhijith/CS537/p3b/xv6-sp20/kernel/vectors.S:52
  1065f9:	e9 57 f9 ff ff       	jmp    105f55 <alltraps>

001065fe <vector10>:
vector10():
/u/a/b/abhijith/CS537/p3b/xv6-sp20/kernel/vectors.S:55
  1065fe:	6a 0a                	push   $0xa
/u/a/b/abhijith/CS537/p3b/xv6-sp20/kernel/vectors.S:56
  106600:	e9 50 f9 ff ff       	jmp    105f55 <alltraps>

00106605 <vector11>:
vector11():
/u/a/b/abhijith/CS537/p3b/xv6-sp20/kernel/vectors.S:59
  106605:	6a 0b                	push   $0xb
/u/a/b/abhijith/CS537/p3b/xv6-sp20/kernel/vectors.S:60
  106607:	e9 49 f9 ff ff       	jmp    105f55 <alltraps>

0010660c <vector12>:
vector12():
/u/a/b/abhijith/CS537/p3b/xv6-sp20/kernel/vectors.S:63
  10660c:	6a 0c                	push   $0xc
/u/a/b/abhijith/CS537/p3b/xv6-sp20/kernel/vectors.S:64
  10660e:	e9 42 f9 ff ff       	jmp    105f55 <alltraps>

00106613 <vector13>:
vector13():
/u/a/b/abhijith/CS537/p3b/xv6-sp20/kernel/vectors.S:67
  106613:	6a 0d                	push   $0xd
/u/a/b/abhijith/CS537/p3b/xv6-sp20/kernel/vectors.S:68
  106615:	e9 3b f9 ff ff       	jmp    105f55 <alltraps>

0010661a <vector14>:
vector14():
/u/a/b/abhijith/CS537/p3b/xv6-sp20/kernel/vectors.S:71
  10661a:	6a 0e                	push   $0xe
/u/a/b/abhijith/CS537/p3b/xv6-sp20/kernel/vectors.S:72
  10661c:	e9 34 f9 ff ff       	jmp    105f55 <alltraps>

00106621 <vector15>:
vector15():
/u/a/b/abhijith/CS537/p3b/xv6-sp20/kernel/vectors.S:75
  106621:	6a 00                	push   $0x0
/u/a/b/abhijith/CS537/p3b/xv6-sp20/kernel/vectors.S:76
  106623:	6a 0f                	push   $0xf
/u/a/b/abhijith/CS537/p3b/xv6-sp20/kernel/vectors.S:77
  106625:	e9 2b f9 ff ff       	jmp    105f55 <alltraps>

0010662a <vector16>:
vector16():
/u/a/b/abhijith/CS537/p3b/xv6-sp20/kernel/vectors.S:80
  10662a:	6a 00                	push   $0x0
/u/a/b/abhijith/CS537/p3b/xv6-sp20/kernel/vectors.S:81
  10662c:	6a 10                	push   $0x10
/u/a/b/abhijith/CS537/p3b/xv6-sp20/kernel/vectors.S:82
  10662e:	e9 22 f9 ff ff       	jmp    105f55 <alltraps>

00106633 <vector17>:
vector17():
/u/a/b/abhijith/CS537/p3b/xv6-sp20/kernel/vectors.S:85
  106633:	6a 11                	push   $0x11
/u/a/b/abhijith/CS537/p3b/xv6-sp20/kernel/vectors.S:86
  106635:	e9 1b f9 ff ff       	jmp    105f55 <alltraps>

0010663a <vector18>:
vector18():
/u/a/b/abhijith/CS537/p3b/xv6-sp20/kernel/vectors.S:89
  10663a:	6a 00                	push   $0x0
/u/a/b/abhijith/CS537/p3b/xv6-sp20/kernel/vectors.S:90
  10663c:	6a 12                	push   $0x12
/u/a/b/abhijith/CS537/p3b/xv6-sp20/kernel/vectors.S:91
  10663e:	e9 12 f9 ff ff       	jmp    105f55 <alltraps>

00106643 <vector19>:
vector19():
/u/a/b/abhijith/CS537/p3b/xv6-sp20/kernel/vectors.S:94
  106643:	6a 00                	push   $0x0
/u/a/b/abhijith/CS537/p3b/xv6-sp20/kernel/vectors.S:95
  106645:	6a 13                	push   $0x13
/u/a/b/abhijith/CS537/p3b/xv6-sp20/kernel/vectors.S:96
  106647:	e9 09 f9 ff ff       	jmp    105f55 <alltraps>

0010664c <vector20>:
vector20():
/u/a/b/abhijith/CS537/p3b/xv6-sp20/kernel/vectors.S:99
  10664c:	6a 00                	push   $0x0
/u/a/b/abhijith/CS537/p3b/xv6-sp20/kernel/vectors.S:100
  10664e:	6a 14                	push   $0x14
/u/a/b/abhijith/CS537/p3b/xv6-sp20/kernel/vectors.S:101
  106650:	e9 00 f9 ff ff       	jmp    105f55 <alltraps>

00106655 <vector21>:
vector21():
/u/a/b/abhijith/CS537/p3b/xv6-sp20/kernel/vectors.S:104
  106655:	6a 00                	push   $0x0
/u/a/b/abhijith/CS537/p3b/xv6-sp20/kernel/vectors.S:105
  106657:	6a 15                	push   $0x15
/u/a/b/abhijith/CS537/p3b/xv6-sp20/kernel/vectors.S:106
  106659:	e9 f7 f8 ff ff       	jmp    105f55 <alltraps>

0010665e <vector22>:
vector22():
/u/a/b/abhijith/CS537/p3b/xv6-sp20/kernel/vectors.S:109
  10665e:	6a 00                	push   $0x0
/u/a/b/abhijith/CS537/p3b/xv6-sp20/kernel/vectors.S:110
  106660:	6a 16                	push   $0x16
/u/a/b/abhijith/CS537/p3b/xv6-sp20/kernel/vectors.S:111
  106662:	e9 ee f8 ff ff       	jmp    105f55 <alltraps>

00106667 <vector23>:
vector23():
/u/a/b/abhijith/CS537/p3b/xv6-sp20/kernel/vectors.S:114
  106667:	6a 00                	push   $0x0
/u/a/b/abhijith/CS537/p3b/xv6-sp20/kernel/vectors.S:115
  106669:	6a 17                	push   $0x17
/u/a/b/abhijith/CS537/p3b/xv6-sp20/kernel/vectors.S:116
  10666b:	e9 e5 f8 ff ff       	jmp    105f55 <alltraps>

00106670 <vector24>:
vector24():
/u/a/b/abhijith/CS537/p3b/xv6-sp20/kernel/vectors.S:119
  106670:	6a 00                	push   $0x0
/u/a/b/abhijith/CS537/p3b/xv6-sp20/kernel/vectors.S:120
  106672:	6a 18                	push   $0x18
/u/a/b/abhijith/CS537/p3b/xv6-sp20/kernel/vectors.S:121
  106674:	e9 dc f8 ff ff       	jmp    105f55 <alltraps>

00106679 <vector25>:
vector25():
/u/a/b/abhijith/CS537/p3b/xv6-sp20/kernel/vectors.S:124
  106679:	6a 00                	push   $0x0
/u/a/b/abhijith/CS537/p3b/xv6-sp20/kernel/vectors.S:125
  10667b:	6a 19                	push   $0x19
/u/a/b/abhijith/CS537/p3b/xv6-sp20/kernel/vectors.S:126
  10667d:	e9 d3 f8 ff ff       	jmp    105f55 <alltraps>

00106682 <vector26>:
vector26():
/u/a/b/abhijith/CS537/p3b/xv6-sp20/kernel/vectors.S:129
  106682:	6a 00                	push   $0x0
/u/a/b/abhijith/CS537/p3b/xv6-sp20/kernel/vectors.S:130
  106684:	6a 1a                	push   $0x1a
/u/a/b/abhijith/CS537/p3b/xv6-sp20/kernel/vectors.S:131
  106686:	e9 ca f8 ff ff       	jmp    105f55 <alltraps>

0010668b <vector27>:
vector27():
/u/a/b/abhijith/CS537/p3b/xv6-sp20/kernel/vectors.S:134
  10668b:	6a 00                	push   $0x0
/u/a/b/abhijith/CS537/p3b/xv6-sp20/kernel/vectors.S:135
  10668d:	6a 1b                	push   $0x1b
/u/a/b/abhijith/CS537/p3b/xv6-sp20/kernel/vectors.S:136
  10668f:	e9 c1 f8 ff ff       	jmp    105f55 <alltraps>

00106694 <vector28>:
vector28():
/u/a/b/abhijith/CS537/p3b/xv6-sp20/kernel/vectors.S:139
  106694:	6a 00                	push   $0x0
/u/a/b/abhijith/CS537/p3b/xv6-sp20/kernel/vectors.S:140
  106696:	6a 1c                	push   $0x1c
/u/a/b/abhijith/CS537/p3b/xv6-sp20/kernel/vectors.S:141
  106698:	e9 b8 f8 ff ff       	jmp    105f55 <alltraps>

0010669d <vector29>:
vector29():
/u/a/b/abhijith/CS537/p3b/xv6-sp20/kernel/vectors.S:144
  10669d:	6a 00                	push   $0x0
/u/a/b/abhijith/CS537/p3b/xv6-sp20/kernel/vectors.S:145
  10669f:	6a 1d                	push   $0x1d
/u/a/b/abhijith/CS537/p3b/xv6-sp20/kernel/vectors.S:146
  1066a1:	e9 af f8 ff ff       	jmp    105f55 <alltraps>

001066a6 <vector30>:
vector30():
/u/a/b/abhijith/CS537/p3b/xv6-sp20/kernel/vectors.S:149
  1066a6:	6a 00                	push   $0x0
/u/a/b/abhijith/CS537/p3b/xv6-sp20/kernel/vectors.S:150
  1066a8:	6a 1e                	push   $0x1e
/u/a/b/abhijith/CS537/p3b/xv6-sp20/kernel/vectors.S:151
  1066aa:	e9 a6 f8 ff ff       	jmp    105f55 <alltraps>

001066af <vector31>:
vector31():
/u/a/b/abhijith/CS537/p3b/xv6-sp20/kernel/vectors.S:154
  1066af:	6a 00                	push   $0x0
/u/a/b/abhijith/CS537/p3b/xv6-sp20/kernel/vectors.S:155
  1066b1:	6a 1f                	push   $0x1f
/u/a/b/abhijith/CS537/p3b/xv6-sp20/kernel/vectors.S:156
  1066b3:	e9 9d f8 ff ff       	jmp    105f55 <alltraps>

001066b8 <vector32>:
vector32():
/u/a/b/abhijith/CS537/p3b/xv6-sp20/kernel/vectors.S:159
  1066b8:	6a 00                	push   $0x0
/u/a/b/abhijith/CS537/p3b/xv6-sp20/kernel/vectors.S:160
  1066ba:	6a 20                	push   $0x20
/u/a/b/abhijith/CS537/p3b/xv6-sp20/kernel/vectors.S:161
  1066bc:	e9 94 f8 ff ff       	jmp    105f55 <alltraps>

001066c1 <vector33>:
vector33():
/u/a/b/abhijith/CS537/p3b/xv6-sp20/kernel/vectors.S:164
  1066c1:	6a 00                	push   $0x0
/u/a/b/abhijith/CS537/p3b/xv6-sp20/kernel/vectors.S:165
  1066c3:	6a 21                	push   $0x21
/u/a/b/abhijith/CS537/p3b/xv6-sp20/kernel/vectors.S:166
  1066c5:	e9 8b f8 ff ff       	jmp    105f55 <alltraps>

001066ca <vector34>:
vector34():
/u/a/b/abhijith/CS537/p3b/xv6-sp20/kernel/vectors.S:169
  1066ca:	6a 00                	push   $0x0
/u/a/b/abhijith/CS537/p3b/xv6-sp20/kernel/vectors.S:170
  1066cc:	6a 22                	push   $0x22
/u/a/b/abhijith/CS537/p3b/xv6-sp20/kernel/vectors.S:171
  1066ce:	e9 82 f8 ff ff       	jmp    105f55 <alltraps>

001066d3 <vector35>:
vector35():
/u/a/b/abhijith/CS537/p3b/xv6-sp20/kernel/vectors.S:174
  1066d3:	6a 00                	push   $0x0
/u/a/b/abhijith/CS537/p3b/xv6-sp20/kernel/vectors.S:175
  1066d5:	6a 23                	push   $0x23
/u/a/b/abhijith/CS537/p3b/xv6-sp20/kernel/vectors.S:176
  1066d7:	e9 79 f8 ff ff       	jmp    105f55 <alltraps>

001066dc <vector36>:
vector36():
/u/a/b/abhijith/CS537/p3b/xv6-sp20/kernel/vectors.S:179
  1066dc:	6a 00                	push   $0x0
/u/a/b/abhijith/CS537/p3b/xv6-sp20/kernel/vectors.S:180
  1066de:	6a 24                	push   $0x24
/u/a/b/abhijith/CS537/p3b/xv6-sp20/kernel/vectors.S:181
  1066e0:	e9 70 f8 ff ff       	jmp    105f55 <alltraps>

001066e5 <vector37>:
vector37():
/u/a/b/abhijith/CS537/p3b/xv6-sp20/kernel/vectors.S:184
  1066e5:	6a 00                	push   $0x0
/u/a/b/abhijith/CS537/p3b/xv6-sp20/kernel/vectors.S:185
  1066e7:	6a 25                	push   $0x25
/u/a/b/abhijith/CS537/p3b/xv6-sp20/kernel/vectors.S:186
  1066e9:	e9 67 f8 ff ff       	jmp    105f55 <alltraps>

001066ee <vector38>:
vector38():
/u/a/b/abhijith/CS537/p3b/xv6-sp20/kernel/vectors.S:189
  1066ee:	6a 00                	push   $0x0
/u/a/b/abhijith/CS537/p3b/xv6-sp20/kernel/vectors.S:190
  1066f0:	6a 26                	push   $0x26
/u/a/b/abhijith/CS537/p3b/xv6-sp20/kernel/vectors.S:191
  1066f2:	e9 5e f8 ff ff       	jmp    105f55 <alltraps>

001066f7 <vector39>:
vector39():
/u/a/b/abhijith/CS537/p3b/xv6-sp20/kernel/vectors.S:194
  1066f7:	6a 00                	push   $0x0
/u/a/b/abhijith/CS537/p3b/xv6-sp20/kernel/vectors.S:195
  1066f9:	6a 27                	push   $0x27
/u/a/b/abhijith/CS537/p3b/xv6-sp20/kernel/vectors.S:196
  1066fb:	e9 55 f8 ff ff       	jmp    105f55 <alltraps>

00106700 <vector40>:
vector40():
/u/a/b/abhijith/CS537/p3b/xv6-sp20/kernel/vectors.S:199
  106700:	6a 00                	push   $0x0
/u/a/b/abhijith/CS537/p3b/xv6-sp20/kernel/vectors.S:200
  106702:	6a 28                	push   $0x28
/u/a/b/abhijith/CS537/p3b/xv6-sp20/kernel/vectors.S:201
  106704:	e9 4c f8 ff ff       	jmp    105f55 <alltraps>

00106709 <vector41>:
vector41():
/u/a/b/abhijith/CS537/p3b/xv6-sp20/kernel/vectors.S:204
  106709:	6a 00                	push   $0x0
/u/a/b/abhijith/CS537/p3b/xv6-sp20/kernel/vectors.S:205
  10670b:	6a 29                	push   $0x29
/u/a/b/abhijith/CS537/p3b/xv6-sp20/kernel/vectors.S:206
  10670d:	e9 43 f8 ff ff       	jmp    105f55 <alltraps>

00106712 <vector42>:
vector42():
/u/a/b/abhijith/CS537/p3b/xv6-sp20/kernel/vectors.S:209
  106712:	6a 00                	push   $0x0
/u/a/b/abhijith/CS537/p3b/xv6-sp20/kernel/vectors.S:210
  106714:	6a 2a                	push   $0x2a
/u/a/b/abhijith/CS537/p3b/xv6-sp20/kernel/vectors.S:211
  106716:	e9 3a f8 ff ff       	jmp    105f55 <alltraps>

0010671b <vector43>:
vector43():
/u/a/b/abhijith/CS537/p3b/xv6-sp20/kernel/vectors.S:214
  10671b:	6a 00                	push   $0x0
/u/a/b/abhijith/CS537/p3b/xv6-sp20/kernel/vectors.S:215
  10671d:	6a 2b                	push   $0x2b
/u/a/b/abhijith/CS537/p3b/xv6-sp20/kernel/vectors.S:216
  10671f:	e9 31 f8 ff ff       	jmp    105f55 <alltraps>

00106724 <vector44>:
vector44():
/u/a/b/abhijith/CS537/p3b/xv6-sp20/kernel/vectors.S:219
  106724:	6a 00                	push   $0x0
/u/a/b/abhijith/CS537/p3b/xv6-sp20/kernel/vectors.S:220
  106726:	6a 2c                	push   $0x2c
/u/a/b/abhijith/CS537/p3b/xv6-sp20/kernel/vectors.S:221
  106728:	e9 28 f8 ff ff       	jmp    105f55 <alltraps>

0010672d <vector45>:
vector45():
/u/a/b/abhijith/CS537/p3b/xv6-sp20/kernel/vectors.S:224
  10672d:	6a 00                	push   $0x0
/u/a/b/abhijith/CS537/p3b/xv6-sp20/kernel/vectors.S:225
  10672f:	6a 2d                	push   $0x2d
/u/a/b/abhijith/CS537/p3b/xv6-sp20/kernel/vectors.S:226
  106731:	e9 1f f8 ff ff       	jmp    105f55 <alltraps>

00106736 <vector46>:
vector46():
/u/a/b/abhijith/CS537/p3b/xv6-sp20/kernel/vectors.S:229
  106736:	6a 00                	push   $0x0
/u/a/b/abhijith/CS537/p3b/xv6-sp20/kernel/vectors.S:230
  106738:	6a 2e                	push   $0x2e
/u/a/b/abhijith/CS537/p3b/xv6-sp20/kernel/vectors.S:231
  10673a:	e9 16 f8 ff ff       	jmp    105f55 <alltraps>

0010673f <vector47>:
vector47():
/u/a/b/abhijith/CS537/p3b/xv6-sp20/kernel/vectors.S:234
  10673f:	6a 00                	push   $0x0
/u/a/b/abhijith/CS537/p3b/xv6-sp20/kernel/vectors.S:235
  106741:	6a 2f                	push   $0x2f
/u/a/b/abhijith/CS537/p3b/xv6-sp20/kernel/vectors.S:236
  106743:	e9 0d f8 ff ff       	jmp    105f55 <alltraps>

00106748 <vector48>:
vector48():
/u/a/b/abhijith/CS537/p3b/xv6-sp20/kernel/vectors.S:239
  106748:	6a 00                	push   $0x0
/u/a/b/abhijith/CS537/p3b/xv6-sp20/kernel/vectors.S:240
  10674a:	6a 30                	push   $0x30
/u/a/b/abhijith/CS537/p3b/xv6-sp20/kernel/vectors.S:241
  10674c:	e9 04 f8 ff ff       	jmp    105f55 <alltraps>

00106751 <vector49>:
vector49():
/u/a/b/abhijith/CS537/p3b/xv6-sp20/kernel/vectors.S:244
  106751:	6a 00                	push   $0x0
/u/a/b/abhijith/CS537/p3b/xv6-sp20/kernel/vectors.S:245
  106753:	6a 31                	push   $0x31
/u/a/b/abhijith/CS537/p3b/xv6-sp20/kernel/vectors.S:246
  106755:	e9 fb f7 ff ff       	jmp    105f55 <alltraps>

0010675a <vector50>:
vector50():
/u/a/b/abhijith/CS537/p3b/xv6-sp20/kernel/vectors.S:249
  10675a:	6a 00                	push   $0x0
/u/a/b/abhijith/CS537/p3b/xv6-sp20/kernel/vectors.S:250
  10675c:	6a 32                	push   $0x32
/u/a/b/abhijith/CS537/p3b/xv6-sp20/kernel/vectors.S:251
  10675e:	e9 f2 f7 ff ff       	jmp    105f55 <alltraps>

00106763 <vector51>:
vector51():
/u/a/b/abhijith/CS537/p3b/xv6-sp20/kernel/vectors.S:254
  106763:	6a 00                	push   $0x0
/u/a/b/abhijith/CS537/p3b/xv6-sp20/kernel/vectors.S:255
  106765:	6a 33                	push   $0x33
/u/a/b/abhijith/CS537/p3b/xv6-sp20/kernel/vectors.S:256
  106767:	e9 e9 f7 ff ff       	jmp    105f55 <alltraps>

0010676c <vector52>:
vector52():
/u/a/b/abhijith/CS537/p3b/xv6-sp20/kernel/vectors.S:259
  10676c:	6a 00                	push   $0x0
/u/a/b/abhijith/CS537/p3b/xv6-sp20/kernel/vectors.S:260
  10676e:	6a 34                	push   $0x34
/u/a/b/abhijith/CS537/p3b/xv6-sp20/kernel/vectors.S:261
  106770:	e9 e0 f7 ff ff       	jmp    105f55 <alltraps>

00106775 <vector53>:
vector53():
/u/a/b/abhijith/CS537/p3b/xv6-sp20/kernel/vectors.S:264
  106775:	6a 00                	push   $0x0
/u/a/b/abhijith/CS537/p3b/xv6-sp20/kernel/vectors.S:265
  106777:	6a 35                	push   $0x35
/u/a/b/abhijith/CS537/p3b/xv6-sp20/kernel/vectors.S:266
  106779:	e9 d7 f7 ff ff       	jmp    105f55 <alltraps>

0010677e <vector54>:
vector54():
/u/a/b/abhijith/CS537/p3b/xv6-sp20/kernel/vectors.S:269
  10677e:	6a 00                	push   $0x0
/u/a/b/abhijith/CS537/p3b/xv6-sp20/kernel/vectors.S:270
  106780:	6a 36                	push   $0x36
/u/a/b/abhijith/CS537/p3b/xv6-sp20/kernel/vectors.S:271
  106782:	e9 ce f7 ff ff       	jmp    105f55 <alltraps>

00106787 <vector55>:
vector55():
/u/a/b/abhijith/CS537/p3b/xv6-sp20/kernel/vectors.S:274
  106787:	6a 00                	push   $0x0
/u/a/b/abhijith/CS537/p3b/xv6-sp20/kernel/vectors.S:275
  106789:	6a 37                	push   $0x37
/u/a/b/abhijith/CS537/p3b/xv6-sp20/kernel/vectors.S:276
  10678b:	e9 c5 f7 ff ff       	jmp    105f55 <alltraps>

00106790 <vector56>:
vector56():
/u/a/b/abhijith/CS537/p3b/xv6-sp20/kernel/vectors.S:279
  106790:	6a 00                	push   $0x0
/u/a/b/abhijith/CS537/p3b/xv6-sp20/kernel/vectors.S:280
  106792:	6a 38                	push   $0x38
/u/a/b/abhijith/CS537/p3b/xv6-sp20/kernel/vectors.S:281
  106794:	e9 bc f7 ff ff       	jmp    105f55 <alltraps>

00106799 <vector57>:
vector57():
/u/a/b/abhijith/CS537/p3b/xv6-sp20/kernel/vectors.S:284
  106799:	6a 00                	push   $0x0
/u/a/b/abhijith/CS537/p3b/xv6-sp20/kernel/vectors.S:285
  10679b:	6a 39                	push   $0x39
/u/a/b/abhijith/CS537/p3b/xv6-sp20/kernel/vectors.S:286
  10679d:	e9 b3 f7 ff ff       	jmp    105f55 <alltraps>

001067a2 <vector58>:
vector58():
/u/a/b/abhijith/CS537/p3b/xv6-sp20/kernel/vectors.S:289
  1067a2:	6a 00                	push   $0x0
/u/a/b/abhijith/CS537/p3b/xv6-sp20/kernel/vectors.S:290
  1067a4:	6a 3a                	push   $0x3a
/u/a/b/abhijith/CS537/p3b/xv6-sp20/kernel/vectors.S:291
  1067a6:	e9 aa f7 ff ff       	jmp    105f55 <alltraps>

001067ab <vector59>:
vector59():
/u/a/b/abhijith/CS537/p3b/xv6-sp20/kernel/vectors.S:294
  1067ab:	6a 00                	push   $0x0
/u/a/b/abhijith/CS537/p3b/xv6-sp20/kernel/vectors.S:295
  1067ad:	6a 3b                	push   $0x3b
/u/a/b/abhijith/CS537/p3b/xv6-sp20/kernel/vectors.S:296
  1067af:	e9 a1 f7 ff ff       	jmp    105f55 <alltraps>

001067b4 <vector60>:
vector60():
/u/a/b/abhijith/CS537/p3b/xv6-sp20/kernel/vectors.S:299
  1067b4:	6a 00                	push   $0x0
/u/a/b/abhijith/CS537/p3b/xv6-sp20/kernel/vectors.S:300
  1067b6:	6a 3c                	push   $0x3c
/u/a/b/abhijith/CS537/p3b/xv6-sp20/kernel/vectors.S:301
  1067b8:	e9 98 f7 ff ff       	jmp    105f55 <alltraps>

001067bd <vector61>:
vector61():
/u/a/b/abhijith/CS537/p3b/xv6-sp20/kernel/vectors.S:304
  1067bd:	6a 00                	push   $0x0
/u/a/b/abhijith/CS537/p3b/xv6-sp20/kernel/vectors.S:305
  1067bf:	6a 3d                	push   $0x3d
/u/a/b/abhijith/CS537/p3b/xv6-sp20/kernel/vectors.S:306
  1067c1:	e9 8f f7 ff ff       	jmp    105f55 <alltraps>

001067c6 <vector62>:
vector62():
/u/a/b/abhijith/CS537/p3b/xv6-sp20/kernel/vectors.S:309
  1067c6:	6a 00                	push   $0x0
/u/a/b/abhijith/CS537/p3b/xv6-sp20/kernel/vectors.S:310
  1067c8:	6a 3e                	push   $0x3e
/u/a/b/abhijith/CS537/p3b/xv6-sp20/kernel/vectors.S:311
  1067ca:	e9 86 f7 ff ff       	jmp    105f55 <alltraps>

001067cf <vector63>:
vector63():
/u/a/b/abhijith/CS537/p3b/xv6-sp20/kernel/vectors.S:314
  1067cf:	6a 00                	push   $0x0
/u/a/b/abhijith/CS537/p3b/xv6-sp20/kernel/vectors.S:315
  1067d1:	6a 3f                	push   $0x3f
/u/a/b/abhijith/CS537/p3b/xv6-sp20/kernel/vectors.S:316
  1067d3:	e9 7d f7 ff ff       	jmp    105f55 <alltraps>

001067d8 <vector64>:
vector64():
/u/a/b/abhijith/CS537/p3b/xv6-sp20/kernel/vectors.S:319
  1067d8:	6a 00                	push   $0x0
/u/a/b/abhijith/CS537/p3b/xv6-sp20/kernel/vectors.S:320
  1067da:	6a 40                	push   $0x40
/u/a/b/abhijith/CS537/p3b/xv6-sp20/kernel/vectors.S:321
  1067dc:	e9 74 f7 ff ff       	jmp    105f55 <alltraps>

001067e1 <vector65>:
vector65():
/u/a/b/abhijith/CS537/p3b/xv6-sp20/kernel/vectors.S:324
  1067e1:	6a 00                	push   $0x0
/u/a/b/abhijith/CS537/p3b/xv6-sp20/kernel/vectors.S:325
  1067e3:	6a 41                	push   $0x41
/u/a/b/abhijith/CS537/p3b/xv6-sp20/kernel/vectors.S:326
  1067e5:	e9 6b f7 ff ff       	jmp    105f55 <alltraps>

001067ea <vector66>:
vector66():
/u/a/b/abhijith/CS537/p3b/xv6-sp20/kernel/vectors.S:329
  1067ea:	6a 00                	push   $0x0
/u/a/b/abhijith/CS537/p3b/xv6-sp20/kernel/vectors.S:330
  1067ec:	6a 42                	push   $0x42
/u/a/b/abhijith/CS537/p3b/xv6-sp20/kernel/vectors.S:331
  1067ee:	e9 62 f7 ff ff       	jmp    105f55 <alltraps>

001067f3 <vector67>:
vector67():
/u/a/b/abhijith/CS537/p3b/xv6-sp20/kernel/vectors.S:334
  1067f3:	6a 00                	push   $0x0
/u/a/b/abhijith/CS537/p3b/xv6-sp20/kernel/vectors.S:335
  1067f5:	6a 43                	push   $0x43
/u/a/b/abhijith/CS537/p3b/xv6-sp20/kernel/vectors.S:336
  1067f7:	e9 59 f7 ff ff       	jmp    105f55 <alltraps>

001067fc <vector68>:
vector68():
/u/a/b/abhijith/CS537/p3b/xv6-sp20/kernel/vectors.S:339
  1067fc:	6a 00                	push   $0x0
/u/a/b/abhijith/CS537/p3b/xv6-sp20/kernel/vectors.S:340
  1067fe:	6a 44                	push   $0x44
/u/a/b/abhijith/CS537/p3b/xv6-sp20/kernel/vectors.S:341
  106800:	e9 50 f7 ff ff       	jmp    105f55 <alltraps>

00106805 <vector69>:
vector69():
/u/a/b/abhijith/CS537/p3b/xv6-sp20/kernel/vectors.S:344
  106805:	6a 00                	push   $0x0
/u/a/b/abhijith/CS537/p3b/xv6-sp20/kernel/vectors.S:345
  106807:	6a 45                	push   $0x45
/u/a/b/abhijith/CS537/p3b/xv6-sp20/kernel/vectors.S:346
  106809:	e9 47 f7 ff ff       	jmp    105f55 <alltraps>

0010680e <vector70>:
vector70():
/u/a/b/abhijith/CS537/p3b/xv6-sp20/kernel/vectors.S:349
  10680e:	6a 00                	push   $0x0
/u/a/b/abhijith/CS537/p3b/xv6-sp20/kernel/vectors.S:350
  106810:	6a 46                	push   $0x46
/u/a/b/abhijith/CS537/p3b/xv6-sp20/kernel/vectors.S:351
  106812:	e9 3e f7 ff ff       	jmp    105f55 <alltraps>

00106817 <vector71>:
vector71():
/u/a/b/abhijith/CS537/p3b/xv6-sp20/kernel/vectors.S:354
  106817:	6a 00                	push   $0x0
/u/a/b/abhijith/CS537/p3b/xv6-sp20/kernel/vectors.S:355
  106819:	6a 47                	push   $0x47
/u/a/b/abhijith/CS537/p3b/xv6-sp20/kernel/vectors.S:356
  10681b:	e9 35 f7 ff ff       	jmp    105f55 <alltraps>

00106820 <vector72>:
vector72():
/u/a/b/abhijith/CS537/p3b/xv6-sp20/kernel/vectors.S:359
  106820:	6a 00                	push   $0x0
/u/a/b/abhijith/CS537/p3b/xv6-sp20/kernel/vectors.S:360
  106822:	6a 48                	push   $0x48
/u/a/b/abhijith/CS537/p3b/xv6-sp20/kernel/vectors.S:361
  106824:	e9 2c f7 ff ff       	jmp    105f55 <alltraps>

00106829 <vector73>:
vector73():
/u/a/b/abhijith/CS537/p3b/xv6-sp20/kernel/vectors.S:364
  106829:	6a 00                	push   $0x0
/u/a/b/abhijith/CS537/p3b/xv6-sp20/kernel/vectors.S:365
  10682b:	6a 49                	push   $0x49
/u/a/b/abhijith/CS537/p3b/xv6-sp20/kernel/vectors.S:366
  10682d:	e9 23 f7 ff ff       	jmp    105f55 <alltraps>

00106832 <vector74>:
vector74():
/u/a/b/abhijith/CS537/p3b/xv6-sp20/kernel/vectors.S:369
  106832:	6a 00                	push   $0x0
/u/a/b/abhijith/CS537/p3b/xv6-sp20/kernel/vectors.S:370
  106834:	6a 4a                	push   $0x4a
/u/a/b/abhijith/CS537/p3b/xv6-sp20/kernel/vectors.S:371
  106836:	e9 1a f7 ff ff       	jmp    105f55 <alltraps>

0010683b <vector75>:
vector75():
/u/a/b/abhijith/CS537/p3b/xv6-sp20/kernel/vectors.S:374
  10683b:	6a 00                	push   $0x0
/u/a/b/abhijith/CS537/p3b/xv6-sp20/kernel/vectors.S:375
  10683d:	6a 4b                	push   $0x4b
/u/a/b/abhijith/CS537/p3b/xv6-sp20/kernel/vectors.S:376
  10683f:	e9 11 f7 ff ff       	jmp    105f55 <alltraps>

00106844 <vector76>:
vector76():
/u/a/b/abhijith/CS537/p3b/xv6-sp20/kernel/vectors.S:379
  106844:	6a 00                	push   $0x0
/u/a/b/abhijith/CS537/p3b/xv6-sp20/kernel/vectors.S:380
  106846:	6a 4c                	push   $0x4c
/u/a/b/abhijith/CS537/p3b/xv6-sp20/kernel/vectors.S:381
  106848:	e9 08 f7 ff ff       	jmp    105f55 <alltraps>

0010684d <vector77>:
vector77():
/u/a/b/abhijith/CS537/p3b/xv6-sp20/kernel/vectors.S:384
  10684d:	6a 00                	push   $0x0
/u/a/b/abhijith/CS537/p3b/xv6-sp20/kernel/vectors.S:385
  10684f:	6a 4d                	push   $0x4d
/u/a/b/abhijith/CS537/p3b/xv6-sp20/kernel/vectors.S:386
  106851:	e9 ff f6 ff ff       	jmp    105f55 <alltraps>

00106856 <vector78>:
vector78():
/u/a/b/abhijith/CS537/p3b/xv6-sp20/kernel/vectors.S:389
  106856:	6a 00                	push   $0x0
/u/a/b/abhijith/CS537/p3b/xv6-sp20/kernel/vectors.S:390
  106858:	6a 4e                	push   $0x4e
/u/a/b/abhijith/CS537/p3b/xv6-sp20/kernel/vectors.S:391
  10685a:	e9 f6 f6 ff ff       	jmp    105f55 <alltraps>

0010685f <vector79>:
vector79():
/u/a/b/abhijith/CS537/p3b/xv6-sp20/kernel/vectors.S:394
  10685f:	6a 00                	push   $0x0
/u/a/b/abhijith/CS537/p3b/xv6-sp20/kernel/vectors.S:395
  106861:	6a 4f                	push   $0x4f
/u/a/b/abhijith/CS537/p3b/xv6-sp20/kernel/vectors.S:396
  106863:	e9 ed f6 ff ff       	jmp    105f55 <alltraps>

00106868 <vector80>:
vector80():
/u/a/b/abhijith/CS537/p3b/xv6-sp20/kernel/vectors.S:399
  106868:	6a 00                	push   $0x0
/u/a/b/abhijith/CS537/p3b/xv6-sp20/kernel/vectors.S:400
  10686a:	6a 50                	push   $0x50
/u/a/b/abhijith/CS537/p3b/xv6-sp20/kernel/vectors.S:401
  10686c:	e9 e4 f6 ff ff       	jmp    105f55 <alltraps>

00106871 <vector81>:
vector81():
/u/a/b/abhijith/CS537/p3b/xv6-sp20/kernel/vectors.S:404
  106871:	6a 00                	push   $0x0
/u/a/b/abhijith/CS537/p3b/xv6-sp20/kernel/vectors.S:405
  106873:	6a 51                	push   $0x51
/u/a/b/abhijith/CS537/p3b/xv6-sp20/kernel/vectors.S:406
  106875:	e9 db f6 ff ff       	jmp    105f55 <alltraps>

0010687a <vector82>:
vector82():
/u/a/b/abhijith/CS537/p3b/xv6-sp20/kernel/vectors.S:409
  10687a:	6a 00                	push   $0x0
/u/a/b/abhijith/CS537/p3b/xv6-sp20/kernel/vectors.S:410
  10687c:	6a 52                	push   $0x52
/u/a/b/abhijith/CS537/p3b/xv6-sp20/kernel/vectors.S:411
  10687e:	e9 d2 f6 ff ff       	jmp    105f55 <alltraps>

00106883 <vector83>:
vector83():
/u/a/b/abhijith/CS537/p3b/xv6-sp20/kernel/vectors.S:414
  106883:	6a 00                	push   $0x0
/u/a/b/abhijith/CS537/p3b/xv6-sp20/kernel/vectors.S:415
  106885:	6a 53                	push   $0x53
/u/a/b/abhijith/CS537/p3b/xv6-sp20/kernel/vectors.S:416
  106887:	e9 c9 f6 ff ff       	jmp    105f55 <alltraps>

0010688c <vector84>:
vector84():
/u/a/b/abhijith/CS537/p3b/xv6-sp20/kernel/vectors.S:419
  10688c:	6a 00                	push   $0x0
/u/a/b/abhijith/CS537/p3b/xv6-sp20/kernel/vectors.S:420
  10688e:	6a 54                	push   $0x54
/u/a/b/abhijith/CS537/p3b/xv6-sp20/kernel/vectors.S:421
  106890:	e9 c0 f6 ff ff       	jmp    105f55 <alltraps>

00106895 <vector85>:
vector85():
/u/a/b/abhijith/CS537/p3b/xv6-sp20/kernel/vectors.S:424
  106895:	6a 00                	push   $0x0
/u/a/b/abhijith/CS537/p3b/xv6-sp20/kernel/vectors.S:425
  106897:	6a 55                	push   $0x55
/u/a/b/abhijith/CS537/p3b/xv6-sp20/kernel/vectors.S:426
  106899:	e9 b7 f6 ff ff       	jmp    105f55 <alltraps>

0010689e <vector86>:
vector86():
/u/a/b/abhijith/CS537/p3b/xv6-sp20/kernel/vectors.S:429
  10689e:	6a 00                	push   $0x0
/u/a/b/abhijith/CS537/p3b/xv6-sp20/kernel/vectors.S:430
  1068a0:	6a 56                	push   $0x56
/u/a/b/abhijith/CS537/p3b/xv6-sp20/kernel/vectors.S:431
  1068a2:	e9 ae f6 ff ff       	jmp    105f55 <alltraps>

001068a7 <vector87>:
vector87():
/u/a/b/abhijith/CS537/p3b/xv6-sp20/kernel/vectors.S:434
  1068a7:	6a 00                	push   $0x0
/u/a/b/abhijith/CS537/p3b/xv6-sp20/kernel/vectors.S:435
  1068a9:	6a 57                	push   $0x57
/u/a/b/abhijith/CS537/p3b/xv6-sp20/kernel/vectors.S:436
  1068ab:	e9 a5 f6 ff ff       	jmp    105f55 <alltraps>

001068b0 <vector88>:
vector88():
/u/a/b/abhijith/CS537/p3b/xv6-sp20/kernel/vectors.S:439
  1068b0:	6a 00                	push   $0x0
/u/a/b/abhijith/CS537/p3b/xv6-sp20/kernel/vectors.S:440
  1068b2:	6a 58                	push   $0x58
/u/a/b/abhijith/CS537/p3b/xv6-sp20/kernel/vectors.S:441
  1068b4:	e9 9c f6 ff ff       	jmp    105f55 <alltraps>

001068b9 <vector89>:
vector89():
/u/a/b/abhijith/CS537/p3b/xv6-sp20/kernel/vectors.S:444
  1068b9:	6a 00                	push   $0x0
/u/a/b/abhijith/CS537/p3b/xv6-sp20/kernel/vectors.S:445
  1068bb:	6a 59                	push   $0x59
/u/a/b/abhijith/CS537/p3b/xv6-sp20/kernel/vectors.S:446
  1068bd:	e9 93 f6 ff ff       	jmp    105f55 <alltraps>

001068c2 <vector90>:
vector90():
/u/a/b/abhijith/CS537/p3b/xv6-sp20/kernel/vectors.S:449
  1068c2:	6a 00                	push   $0x0
/u/a/b/abhijith/CS537/p3b/xv6-sp20/kernel/vectors.S:450
  1068c4:	6a 5a                	push   $0x5a
/u/a/b/abhijith/CS537/p3b/xv6-sp20/kernel/vectors.S:451
  1068c6:	e9 8a f6 ff ff       	jmp    105f55 <alltraps>

001068cb <vector91>:
vector91():
/u/a/b/abhijith/CS537/p3b/xv6-sp20/kernel/vectors.S:454
  1068cb:	6a 00                	push   $0x0
/u/a/b/abhijith/CS537/p3b/xv6-sp20/kernel/vectors.S:455
  1068cd:	6a 5b                	push   $0x5b
/u/a/b/abhijith/CS537/p3b/xv6-sp20/kernel/vectors.S:456
  1068cf:	e9 81 f6 ff ff       	jmp    105f55 <alltraps>

001068d4 <vector92>:
vector92():
/u/a/b/abhijith/CS537/p3b/xv6-sp20/kernel/vectors.S:459
  1068d4:	6a 00                	push   $0x0
/u/a/b/abhijith/CS537/p3b/xv6-sp20/kernel/vectors.S:460
  1068d6:	6a 5c                	push   $0x5c
/u/a/b/abhijith/CS537/p3b/xv6-sp20/kernel/vectors.S:461
  1068d8:	e9 78 f6 ff ff       	jmp    105f55 <alltraps>

001068dd <vector93>:
vector93():
/u/a/b/abhijith/CS537/p3b/xv6-sp20/kernel/vectors.S:464
  1068dd:	6a 00                	push   $0x0
/u/a/b/abhijith/CS537/p3b/xv6-sp20/kernel/vectors.S:465
  1068df:	6a 5d                	push   $0x5d
/u/a/b/abhijith/CS537/p3b/xv6-sp20/kernel/vectors.S:466
  1068e1:	e9 6f f6 ff ff       	jmp    105f55 <alltraps>

001068e6 <vector94>:
vector94():
/u/a/b/abhijith/CS537/p3b/xv6-sp20/kernel/vectors.S:469
  1068e6:	6a 00                	push   $0x0
/u/a/b/abhijith/CS537/p3b/xv6-sp20/kernel/vectors.S:470
  1068e8:	6a 5e                	push   $0x5e
/u/a/b/abhijith/CS537/p3b/xv6-sp20/kernel/vectors.S:471
  1068ea:	e9 66 f6 ff ff       	jmp    105f55 <alltraps>

001068ef <vector95>:
vector95():
/u/a/b/abhijith/CS537/p3b/xv6-sp20/kernel/vectors.S:474
  1068ef:	6a 00                	push   $0x0
/u/a/b/abhijith/CS537/p3b/xv6-sp20/kernel/vectors.S:475
  1068f1:	6a 5f                	push   $0x5f
/u/a/b/abhijith/CS537/p3b/xv6-sp20/kernel/vectors.S:476
  1068f3:	e9 5d f6 ff ff       	jmp    105f55 <alltraps>

001068f8 <vector96>:
vector96():
/u/a/b/abhijith/CS537/p3b/xv6-sp20/kernel/vectors.S:479
  1068f8:	6a 00                	push   $0x0
/u/a/b/abhijith/CS537/p3b/xv6-sp20/kernel/vectors.S:480
  1068fa:	6a 60                	push   $0x60
/u/a/b/abhijith/CS537/p3b/xv6-sp20/kernel/vectors.S:481
  1068fc:	e9 54 f6 ff ff       	jmp    105f55 <alltraps>

00106901 <vector97>:
vector97():
/u/a/b/abhijith/CS537/p3b/xv6-sp20/kernel/vectors.S:484
  106901:	6a 00                	push   $0x0
/u/a/b/abhijith/CS537/p3b/xv6-sp20/kernel/vectors.S:485
  106903:	6a 61                	push   $0x61
/u/a/b/abhijith/CS537/p3b/xv6-sp20/kernel/vectors.S:486
  106905:	e9 4b f6 ff ff       	jmp    105f55 <alltraps>

0010690a <vector98>:
vector98():
/u/a/b/abhijith/CS537/p3b/xv6-sp20/kernel/vectors.S:489
  10690a:	6a 00                	push   $0x0
/u/a/b/abhijith/CS537/p3b/xv6-sp20/kernel/vectors.S:490
  10690c:	6a 62                	push   $0x62
/u/a/b/abhijith/CS537/p3b/xv6-sp20/kernel/vectors.S:491
  10690e:	e9 42 f6 ff ff       	jmp    105f55 <alltraps>

00106913 <vector99>:
vector99():
/u/a/b/abhijith/CS537/p3b/xv6-sp20/kernel/vectors.S:494
  106913:	6a 00                	push   $0x0
/u/a/b/abhijith/CS537/p3b/xv6-sp20/kernel/vectors.S:495
  106915:	6a 63                	push   $0x63
/u/a/b/abhijith/CS537/p3b/xv6-sp20/kernel/vectors.S:496
  106917:	e9 39 f6 ff ff       	jmp    105f55 <alltraps>

0010691c <vector100>:
vector100():
/u/a/b/abhijith/CS537/p3b/xv6-sp20/kernel/vectors.S:499
  10691c:	6a 00                	push   $0x0
/u/a/b/abhijith/CS537/p3b/xv6-sp20/kernel/vectors.S:500
  10691e:	6a 64                	push   $0x64
/u/a/b/abhijith/CS537/p3b/xv6-sp20/kernel/vectors.S:501
  106920:	e9 30 f6 ff ff       	jmp    105f55 <alltraps>

00106925 <vector101>:
vector101():
/u/a/b/abhijith/CS537/p3b/xv6-sp20/kernel/vectors.S:504
  106925:	6a 00                	push   $0x0
/u/a/b/abhijith/CS537/p3b/xv6-sp20/kernel/vectors.S:505
  106927:	6a 65                	push   $0x65
/u/a/b/abhijith/CS537/p3b/xv6-sp20/kernel/vectors.S:506
  106929:	e9 27 f6 ff ff       	jmp    105f55 <alltraps>

0010692e <vector102>:
vector102():
/u/a/b/abhijith/CS537/p3b/xv6-sp20/kernel/vectors.S:509
  10692e:	6a 00                	push   $0x0
/u/a/b/abhijith/CS537/p3b/xv6-sp20/kernel/vectors.S:510
  106930:	6a 66                	push   $0x66
/u/a/b/abhijith/CS537/p3b/xv6-sp20/kernel/vectors.S:511
  106932:	e9 1e f6 ff ff       	jmp    105f55 <alltraps>

00106937 <vector103>:
vector103():
/u/a/b/abhijith/CS537/p3b/xv6-sp20/kernel/vectors.S:514
  106937:	6a 00                	push   $0x0
/u/a/b/abhijith/CS537/p3b/xv6-sp20/kernel/vectors.S:515
  106939:	6a 67                	push   $0x67
/u/a/b/abhijith/CS537/p3b/xv6-sp20/kernel/vectors.S:516
  10693b:	e9 15 f6 ff ff       	jmp    105f55 <alltraps>

00106940 <vector104>:
vector104():
/u/a/b/abhijith/CS537/p3b/xv6-sp20/kernel/vectors.S:519
  106940:	6a 00                	push   $0x0
/u/a/b/abhijith/CS537/p3b/xv6-sp20/kernel/vectors.S:520
  106942:	6a 68                	push   $0x68
/u/a/b/abhijith/CS537/p3b/xv6-sp20/kernel/vectors.S:521
  106944:	e9 0c f6 ff ff       	jmp    105f55 <alltraps>

00106949 <vector105>:
vector105():
/u/a/b/abhijith/CS537/p3b/xv6-sp20/kernel/vectors.S:524
  106949:	6a 00                	push   $0x0
/u/a/b/abhijith/CS537/p3b/xv6-sp20/kernel/vectors.S:525
  10694b:	6a 69                	push   $0x69
/u/a/b/abhijith/CS537/p3b/xv6-sp20/kernel/vectors.S:526
  10694d:	e9 03 f6 ff ff       	jmp    105f55 <alltraps>

00106952 <vector106>:
vector106():
/u/a/b/abhijith/CS537/p3b/xv6-sp20/kernel/vectors.S:529
  106952:	6a 00                	push   $0x0
/u/a/b/abhijith/CS537/p3b/xv6-sp20/kernel/vectors.S:530
  106954:	6a 6a                	push   $0x6a
/u/a/b/abhijith/CS537/p3b/xv6-sp20/kernel/vectors.S:531
  106956:	e9 fa f5 ff ff       	jmp    105f55 <alltraps>

0010695b <vector107>:
vector107():
/u/a/b/abhijith/CS537/p3b/xv6-sp20/kernel/vectors.S:534
  10695b:	6a 00                	push   $0x0
/u/a/b/abhijith/CS537/p3b/xv6-sp20/kernel/vectors.S:535
  10695d:	6a 6b                	push   $0x6b
/u/a/b/abhijith/CS537/p3b/xv6-sp20/kernel/vectors.S:536
  10695f:	e9 f1 f5 ff ff       	jmp    105f55 <alltraps>

00106964 <vector108>:
vector108():
/u/a/b/abhijith/CS537/p3b/xv6-sp20/kernel/vectors.S:539
  106964:	6a 00                	push   $0x0
/u/a/b/abhijith/CS537/p3b/xv6-sp20/kernel/vectors.S:540
  106966:	6a 6c                	push   $0x6c
/u/a/b/abhijith/CS537/p3b/xv6-sp20/kernel/vectors.S:541
  106968:	e9 e8 f5 ff ff       	jmp    105f55 <alltraps>

0010696d <vector109>:
vector109():
/u/a/b/abhijith/CS537/p3b/xv6-sp20/kernel/vectors.S:544
  10696d:	6a 00                	push   $0x0
/u/a/b/abhijith/CS537/p3b/xv6-sp20/kernel/vectors.S:545
  10696f:	6a 6d                	push   $0x6d
/u/a/b/abhijith/CS537/p3b/xv6-sp20/kernel/vectors.S:546
  106971:	e9 df f5 ff ff       	jmp    105f55 <alltraps>

00106976 <vector110>:
vector110():
/u/a/b/abhijith/CS537/p3b/xv6-sp20/kernel/vectors.S:549
  106976:	6a 00                	push   $0x0
/u/a/b/abhijith/CS537/p3b/xv6-sp20/kernel/vectors.S:550
  106978:	6a 6e                	push   $0x6e
/u/a/b/abhijith/CS537/p3b/xv6-sp20/kernel/vectors.S:551
  10697a:	e9 d6 f5 ff ff       	jmp    105f55 <alltraps>

0010697f <vector111>:
vector111():
/u/a/b/abhijith/CS537/p3b/xv6-sp20/kernel/vectors.S:554
  10697f:	6a 00                	push   $0x0
/u/a/b/abhijith/CS537/p3b/xv6-sp20/kernel/vectors.S:555
  106981:	6a 6f                	push   $0x6f
/u/a/b/abhijith/CS537/p3b/xv6-sp20/kernel/vectors.S:556
  106983:	e9 cd f5 ff ff       	jmp    105f55 <alltraps>

00106988 <vector112>:
vector112():
/u/a/b/abhijith/CS537/p3b/xv6-sp20/kernel/vectors.S:559
  106988:	6a 00                	push   $0x0
/u/a/b/abhijith/CS537/p3b/xv6-sp20/kernel/vectors.S:560
  10698a:	6a 70                	push   $0x70
/u/a/b/abhijith/CS537/p3b/xv6-sp20/kernel/vectors.S:561
  10698c:	e9 c4 f5 ff ff       	jmp    105f55 <alltraps>

00106991 <vector113>:
vector113():
/u/a/b/abhijith/CS537/p3b/xv6-sp20/kernel/vectors.S:564
  106991:	6a 00                	push   $0x0
/u/a/b/abhijith/CS537/p3b/xv6-sp20/kernel/vectors.S:565
  106993:	6a 71                	push   $0x71
/u/a/b/abhijith/CS537/p3b/xv6-sp20/kernel/vectors.S:566
  106995:	e9 bb f5 ff ff       	jmp    105f55 <alltraps>

0010699a <vector114>:
vector114():
/u/a/b/abhijith/CS537/p3b/xv6-sp20/kernel/vectors.S:569
  10699a:	6a 00                	push   $0x0
/u/a/b/abhijith/CS537/p3b/xv6-sp20/kernel/vectors.S:570
  10699c:	6a 72                	push   $0x72
/u/a/b/abhijith/CS537/p3b/xv6-sp20/kernel/vectors.S:571
  10699e:	e9 b2 f5 ff ff       	jmp    105f55 <alltraps>

001069a3 <vector115>:
vector115():
/u/a/b/abhijith/CS537/p3b/xv6-sp20/kernel/vectors.S:574
  1069a3:	6a 00                	push   $0x0
/u/a/b/abhijith/CS537/p3b/xv6-sp20/kernel/vectors.S:575
  1069a5:	6a 73                	push   $0x73
/u/a/b/abhijith/CS537/p3b/xv6-sp20/kernel/vectors.S:576
  1069a7:	e9 a9 f5 ff ff       	jmp    105f55 <alltraps>

001069ac <vector116>:
vector116():
/u/a/b/abhijith/CS537/p3b/xv6-sp20/kernel/vectors.S:579
  1069ac:	6a 00                	push   $0x0
/u/a/b/abhijith/CS537/p3b/xv6-sp20/kernel/vectors.S:580
  1069ae:	6a 74                	push   $0x74
/u/a/b/abhijith/CS537/p3b/xv6-sp20/kernel/vectors.S:581
  1069b0:	e9 a0 f5 ff ff       	jmp    105f55 <alltraps>

001069b5 <vector117>:
vector117():
/u/a/b/abhijith/CS537/p3b/xv6-sp20/kernel/vectors.S:584
  1069b5:	6a 00                	push   $0x0
/u/a/b/abhijith/CS537/p3b/xv6-sp20/kernel/vectors.S:585
  1069b7:	6a 75                	push   $0x75
/u/a/b/abhijith/CS537/p3b/xv6-sp20/kernel/vectors.S:586
  1069b9:	e9 97 f5 ff ff       	jmp    105f55 <alltraps>

001069be <vector118>:
vector118():
/u/a/b/abhijith/CS537/p3b/xv6-sp20/kernel/vectors.S:589
  1069be:	6a 00                	push   $0x0
/u/a/b/abhijith/CS537/p3b/xv6-sp20/kernel/vectors.S:590
  1069c0:	6a 76                	push   $0x76
/u/a/b/abhijith/CS537/p3b/xv6-sp20/kernel/vectors.S:591
  1069c2:	e9 8e f5 ff ff       	jmp    105f55 <alltraps>

001069c7 <vector119>:
vector119():
/u/a/b/abhijith/CS537/p3b/xv6-sp20/kernel/vectors.S:594
  1069c7:	6a 00                	push   $0x0
/u/a/b/abhijith/CS537/p3b/xv6-sp20/kernel/vectors.S:595
  1069c9:	6a 77                	push   $0x77
/u/a/b/abhijith/CS537/p3b/xv6-sp20/kernel/vectors.S:596
  1069cb:	e9 85 f5 ff ff       	jmp    105f55 <alltraps>

001069d0 <vector120>:
vector120():
/u/a/b/abhijith/CS537/p3b/xv6-sp20/kernel/vectors.S:599
  1069d0:	6a 00                	push   $0x0
/u/a/b/abhijith/CS537/p3b/xv6-sp20/kernel/vectors.S:600
  1069d2:	6a 78                	push   $0x78
/u/a/b/abhijith/CS537/p3b/xv6-sp20/kernel/vectors.S:601
  1069d4:	e9 7c f5 ff ff       	jmp    105f55 <alltraps>

001069d9 <vector121>:
vector121():
/u/a/b/abhijith/CS537/p3b/xv6-sp20/kernel/vectors.S:604
  1069d9:	6a 00                	push   $0x0
/u/a/b/abhijith/CS537/p3b/xv6-sp20/kernel/vectors.S:605
  1069db:	6a 79                	push   $0x79
/u/a/b/abhijith/CS537/p3b/xv6-sp20/kernel/vectors.S:606
  1069dd:	e9 73 f5 ff ff       	jmp    105f55 <alltraps>

001069e2 <vector122>:
vector122():
/u/a/b/abhijith/CS537/p3b/xv6-sp20/kernel/vectors.S:609
  1069e2:	6a 00                	push   $0x0
/u/a/b/abhijith/CS537/p3b/xv6-sp20/kernel/vectors.S:610
  1069e4:	6a 7a                	push   $0x7a
/u/a/b/abhijith/CS537/p3b/xv6-sp20/kernel/vectors.S:611
  1069e6:	e9 6a f5 ff ff       	jmp    105f55 <alltraps>

001069eb <vector123>:
vector123():
/u/a/b/abhijith/CS537/p3b/xv6-sp20/kernel/vectors.S:614
  1069eb:	6a 00                	push   $0x0
/u/a/b/abhijith/CS537/p3b/xv6-sp20/kernel/vectors.S:615
  1069ed:	6a 7b                	push   $0x7b
/u/a/b/abhijith/CS537/p3b/xv6-sp20/kernel/vectors.S:616
  1069ef:	e9 61 f5 ff ff       	jmp    105f55 <alltraps>

001069f4 <vector124>:
vector124():
/u/a/b/abhijith/CS537/p3b/xv6-sp20/kernel/vectors.S:619
  1069f4:	6a 00                	push   $0x0
/u/a/b/abhijith/CS537/p3b/xv6-sp20/kernel/vectors.S:620
  1069f6:	6a 7c                	push   $0x7c
/u/a/b/abhijith/CS537/p3b/xv6-sp20/kernel/vectors.S:621
  1069f8:	e9 58 f5 ff ff       	jmp    105f55 <alltraps>

001069fd <vector125>:
vector125():
/u/a/b/abhijith/CS537/p3b/xv6-sp20/kernel/vectors.S:624
  1069fd:	6a 00                	push   $0x0
/u/a/b/abhijith/CS537/p3b/xv6-sp20/kernel/vectors.S:625
  1069ff:	6a 7d                	push   $0x7d
/u/a/b/abhijith/CS537/p3b/xv6-sp20/kernel/vectors.S:626
  106a01:	e9 4f f5 ff ff       	jmp    105f55 <alltraps>

00106a06 <vector126>:
vector126():
/u/a/b/abhijith/CS537/p3b/xv6-sp20/kernel/vectors.S:629
  106a06:	6a 00                	push   $0x0
/u/a/b/abhijith/CS537/p3b/xv6-sp20/kernel/vectors.S:630
  106a08:	6a 7e                	push   $0x7e
/u/a/b/abhijith/CS537/p3b/xv6-sp20/kernel/vectors.S:631
  106a0a:	e9 46 f5 ff ff       	jmp    105f55 <alltraps>

00106a0f <vector127>:
vector127():
/u/a/b/abhijith/CS537/p3b/xv6-sp20/kernel/vectors.S:634
  106a0f:	6a 00                	push   $0x0
/u/a/b/abhijith/CS537/p3b/xv6-sp20/kernel/vectors.S:635
  106a11:	6a 7f                	push   $0x7f
/u/a/b/abhijith/CS537/p3b/xv6-sp20/kernel/vectors.S:636
  106a13:	e9 3d f5 ff ff       	jmp    105f55 <alltraps>

00106a18 <vector128>:
vector128():
/u/a/b/abhijith/CS537/p3b/xv6-sp20/kernel/vectors.S:639
  106a18:	6a 00                	push   $0x0
/u/a/b/abhijith/CS537/p3b/xv6-sp20/kernel/vectors.S:640
  106a1a:	68 80 00 00 00       	push   $0x80
/u/a/b/abhijith/CS537/p3b/xv6-sp20/kernel/vectors.S:641
  106a1f:	e9 31 f5 ff ff       	jmp    105f55 <alltraps>

00106a24 <vector129>:
vector129():
/u/a/b/abhijith/CS537/p3b/xv6-sp20/kernel/vectors.S:644
  106a24:	6a 00                	push   $0x0
/u/a/b/abhijith/CS537/p3b/xv6-sp20/kernel/vectors.S:645
  106a26:	68 81 00 00 00       	push   $0x81
/u/a/b/abhijith/CS537/p3b/xv6-sp20/kernel/vectors.S:646
  106a2b:	e9 25 f5 ff ff       	jmp    105f55 <alltraps>

00106a30 <vector130>:
vector130():
/u/a/b/abhijith/CS537/p3b/xv6-sp20/kernel/vectors.S:649
  106a30:	6a 00                	push   $0x0
/u/a/b/abhijith/CS537/p3b/xv6-sp20/kernel/vectors.S:650
  106a32:	68 82 00 00 00       	push   $0x82
/u/a/b/abhijith/CS537/p3b/xv6-sp20/kernel/vectors.S:651
  106a37:	e9 19 f5 ff ff       	jmp    105f55 <alltraps>

00106a3c <vector131>:
vector131():
/u/a/b/abhijith/CS537/p3b/xv6-sp20/kernel/vectors.S:654
  106a3c:	6a 00                	push   $0x0
/u/a/b/abhijith/CS537/p3b/xv6-sp20/kernel/vectors.S:655
  106a3e:	68 83 00 00 00       	push   $0x83
/u/a/b/abhijith/CS537/p3b/xv6-sp20/kernel/vectors.S:656
  106a43:	e9 0d f5 ff ff       	jmp    105f55 <alltraps>

00106a48 <vector132>:
vector132():
/u/a/b/abhijith/CS537/p3b/xv6-sp20/kernel/vectors.S:659
  106a48:	6a 00                	push   $0x0
/u/a/b/abhijith/CS537/p3b/xv6-sp20/kernel/vectors.S:660
  106a4a:	68 84 00 00 00       	push   $0x84
/u/a/b/abhijith/CS537/p3b/xv6-sp20/kernel/vectors.S:661
  106a4f:	e9 01 f5 ff ff       	jmp    105f55 <alltraps>

00106a54 <vector133>:
vector133():
/u/a/b/abhijith/CS537/p3b/xv6-sp20/kernel/vectors.S:664
  106a54:	6a 00                	push   $0x0
/u/a/b/abhijith/CS537/p3b/xv6-sp20/kernel/vectors.S:665
  106a56:	68 85 00 00 00       	push   $0x85
/u/a/b/abhijith/CS537/p3b/xv6-sp20/kernel/vectors.S:666
  106a5b:	e9 f5 f4 ff ff       	jmp    105f55 <alltraps>

00106a60 <vector134>:
vector134():
/u/a/b/abhijith/CS537/p3b/xv6-sp20/kernel/vectors.S:669
  106a60:	6a 00                	push   $0x0
/u/a/b/abhijith/CS537/p3b/xv6-sp20/kernel/vectors.S:670
  106a62:	68 86 00 00 00       	push   $0x86
/u/a/b/abhijith/CS537/p3b/xv6-sp20/kernel/vectors.S:671
  106a67:	e9 e9 f4 ff ff       	jmp    105f55 <alltraps>

00106a6c <vector135>:
vector135():
/u/a/b/abhijith/CS537/p3b/xv6-sp20/kernel/vectors.S:674
  106a6c:	6a 00                	push   $0x0
/u/a/b/abhijith/CS537/p3b/xv6-sp20/kernel/vectors.S:675
  106a6e:	68 87 00 00 00       	push   $0x87
/u/a/b/abhijith/CS537/p3b/xv6-sp20/kernel/vectors.S:676
  106a73:	e9 dd f4 ff ff       	jmp    105f55 <alltraps>

00106a78 <vector136>:
vector136():
/u/a/b/abhijith/CS537/p3b/xv6-sp20/kernel/vectors.S:679
  106a78:	6a 00                	push   $0x0
/u/a/b/abhijith/CS537/p3b/xv6-sp20/kernel/vectors.S:680
  106a7a:	68 88 00 00 00       	push   $0x88
/u/a/b/abhijith/CS537/p3b/xv6-sp20/kernel/vectors.S:681
  106a7f:	e9 d1 f4 ff ff       	jmp    105f55 <alltraps>

00106a84 <vector137>:
vector137():
/u/a/b/abhijith/CS537/p3b/xv6-sp20/kernel/vectors.S:684
  106a84:	6a 00                	push   $0x0
/u/a/b/abhijith/CS537/p3b/xv6-sp20/kernel/vectors.S:685
  106a86:	68 89 00 00 00       	push   $0x89
/u/a/b/abhijith/CS537/p3b/xv6-sp20/kernel/vectors.S:686
  106a8b:	e9 c5 f4 ff ff       	jmp    105f55 <alltraps>

00106a90 <vector138>:
vector138():
/u/a/b/abhijith/CS537/p3b/xv6-sp20/kernel/vectors.S:689
  106a90:	6a 00                	push   $0x0
/u/a/b/abhijith/CS537/p3b/xv6-sp20/kernel/vectors.S:690
  106a92:	68 8a 00 00 00       	push   $0x8a
/u/a/b/abhijith/CS537/p3b/xv6-sp20/kernel/vectors.S:691
  106a97:	e9 b9 f4 ff ff       	jmp    105f55 <alltraps>

00106a9c <vector139>:
vector139():
/u/a/b/abhijith/CS537/p3b/xv6-sp20/kernel/vectors.S:694
  106a9c:	6a 00                	push   $0x0
/u/a/b/abhijith/CS537/p3b/xv6-sp20/kernel/vectors.S:695
  106a9e:	68 8b 00 00 00       	push   $0x8b
/u/a/b/abhijith/CS537/p3b/xv6-sp20/kernel/vectors.S:696
  106aa3:	e9 ad f4 ff ff       	jmp    105f55 <alltraps>

00106aa8 <vector140>:
vector140():
/u/a/b/abhijith/CS537/p3b/xv6-sp20/kernel/vectors.S:699
  106aa8:	6a 00                	push   $0x0
/u/a/b/abhijith/CS537/p3b/xv6-sp20/kernel/vectors.S:700
  106aaa:	68 8c 00 00 00       	push   $0x8c
/u/a/b/abhijith/CS537/p3b/xv6-sp20/kernel/vectors.S:701
  106aaf:	e9 a1 f4 ff ff       	jmp    105f55 <alltraps>

00106ab4 <vector141>:
vector141():
/u/a/b/abhijith/CS537/p3b/xv6-sp20/kernel/vectors.S:704
  106ab4:	6a 00                	push   $0x0
/u/a/b/abhijith/CS537/p3b/xv6-sp20/kernel/vectors.S:705
  106ab6:	68 8d 00 00 00       	push   $0x8d
/u/a/b/abhijith/CS537/p3b/xv6-sp20/kernel/vectors.S:706
  106abb:	e9 95 f4 ff ff       	jmp    105f55 <alltraps>

00106ac0 <vector142>:
vector142():
/u/a/b/abhijith/CS537/p3b/xv6-sp20/kernel/vectors.S:709
  106ac0:	6a 00                	push   $0x0
/u/a/b/abhijith/CS537/p3b/xv6-sp20/kernel/vectors.S:710
  106ac2:	68 8e 00 00 00       	push   $0x8e
/u/a/b/abhijith/CS537/p3b/xv6-sp20/kernel/vectors.S:711
  106ac7:	e9 89 f4 ff ff       	jmp    105f55 <alltraps>

00106acc <vector143>:
vector143():
/u/a/b/abhijith/CS537/p3b/xv6-sp20/kernel/vectors.S:714
  106acc:	6a 00                	push   $0x0
/u/a/b/abhijith/CS537/p3b/xv6-sp20/kernel/vectors.S:715
  106ace:	68 8f 00 00 00       	push   $0x8f
/u/a/b/abhijith/CS537/p3b/xv6-sp20/kernel/vectors.S:716
  106ad3:	e9 7d f4 ff ff       	jmp    105f55 <alltraps>

00106ad8 <vector144>:
vector144():
/u/a/b/abhijith/CS537/p3b/xv6-sp20/kernel/vectors.S:719
  106ad8:	6a 00                	push   $0x0
/u/a/b/abhijith/CS537/p3b/xv6-sp20/kernel/vectors.S:720
  106ada:	68 90 00 00 00       	push   $0x90
/u/a/b/abhijith/CS537/p3b/xv6-sp20/kernel/vectors.S:721
  106adf:	e9 71 f4 ff ff       	jmp    105f55 <alltraps>

00106ae4 <vector145>:
vector145():
/u/a/b/abhijith/CS537/p3b/xv6-sp20/kernel/vectors.S:724
  106ae4:	6a 00                	push   $0x0
/u/a/b/abhijith/CS537/p3b/xv6-sp20/kernel/vectors.S:725
  106ae6:	68 91 00 00 00       	push   $0x91
/u/a/b/abhijith/CS537/p3b/xv6-sp20/kernel/vectors.S:726
  106aeb:	e9 65 f4 ff ff       	jmp    105f55 <alltraps>

00106af0 <vector146>:
vector146():
/u/a/b/abhijith/CS537/p3b/xv6-sp20/kernel/vectors.S:729
  106af0:	6a 00                	push   $0x0
/u/a/b/abhijith/CS537/p3b/xv6-sp20/kernel/vectors.S:730
  106af2:	68 92 00 00 00       	push   $0x92
/u/a/b/abhijith/CS537/p3b/xv6-sp20/kernel/vectors.S:731
  106af7:	e9 59 f4 ff ff       	jmp    105f55 <alltraps>

00106afc <vector147>:
vector147():
/u/a/b/abhijith/CS537/p3b/xv6-sp20/kernel/vectors.S:734
  106afc:	6a 00                	push   $0x0
/u/a/b/abhijith/CS537/p3b/xv6-sp20/kernel/vectors.S:735
  106afe:	68 93 00 00 00       	push   $0x93
/u/a/b/abhijith/CS537/p3b/xv6-sp20/kernel/vectors.S:736
  106b03:	e9 4d f4 ff ff       	jmp    105f55 <alltraps>

00106b08 <vector148>:
vector148():
/u/a/b/abhijith/CS537/p3b/xv6-sp20/kernel/vectors.S:739
  106b08:	6a 00                	push   $0x0
/u/a/b/abhijith/CS537/p3b/xv6-sp20/kernel/vectors.S:740
  106b0a:	68 94 00 00 00       	push   $0x94
/u/a/b/abhijith/CS537/p3b/xv6-sp20/kernel/vectors.S:741
  106b0f:	e9 41 f4 ff ff       	jmp    105f55 <alltraps>

00106b14 <vector149>:
vector149():
/u/a/b/abhijith/CS537/p3b/xv6-sp20/kernel/vectors.S:744
  106b14:	6a 00                	push   $0x0
/u/a/b/abhijith/CS537/p3b/xv6-sp20/kernel/vectors.S:745
  106b16:	68 95 00 00 00       	push   $0x95
/u/a/b/abhijith/CS537/p3b/xv6-sp20/kernel/vectors.S:746
  106b1b:	e9 35 f4 ff ff       	jmp    105f55 <alltraps>

00106b20 <vector150>:
vector150():
/u/a/b/abhijith/CS537/p3b/xv6-sp20/kernel/vectors.S:749
  106b20:	6a 00                	push   $0x0
/u/a/b/abhijith/CS537/p3b/xv6-sp20/kernel/vectors.S:750
  106b22:	68 96 00 00 00       	push   $0x96
/u/a/b/abhijith/CS537/p3b/xv6-sp20/kernel/vectors.S:751
  106b27:	e9 29 f4 ff ff       	jmp    105f55 <alltraps>

00106b2c <vector151>:
vector151():
/u/a/b/abhijith/CS537/p3b/xv6-sp20/kernel/vectors.S:754
  106b2c:	6a 00                	push   $0x0
/u/a/b/abhijith/CS537/p3b/xv6-sp20/kernel/vectors.S:755
  106b2e:	68 97 00 00 00       	push   $0x97
/u/a/b/abhijith/CS537/p3b/xv6-sp20/kernel/vectors.S:756
  106b33:	e9 1d f4 ff ff       	jmp    105f55 <alltraps>

00106b38 <vector152>:
vector152():
/u/a/b/abhijith/CS537/p3b/xv6-sp20/kernel/vectors.S:759
  106b38:	6a 00                	push   $0x0
/u/a/b/abhijith/CS537/p3b/xv6-sp20/kernel/vectors.S:760
  106b3a:	68 98 00 00 00       	push   $0x98
/u/a/b/abhijith/CS537/p3b/xv6-sp20/kernel/vectors.S:761
  106b3f:	e9 11 f4 ff ff       	jmp    105f55 <alltraps>

00106b44 <vector153>:
vector153():
/u/a/b/abhijith/CS537/p3b/xv6-sp20/kernel/vectors.S:764
  106b44:	6a 00                	push   $0x0
/u/a/b/abhijith/CS537/p3b/xv6-sp20/kernel/vectors.S:765
  106b46:	68 99 00 00 00       	push   $0x99
/u/a/b/abhijith/CS537/p3b/xv6-sp20/kernel/vectors.S:766
  106b4b:	e9 05 f4 ff ff       	jmp    105f55 <alltraps>

00106b50 <vector154>:
vector154():
/u/a/b/abhijith/CS537/p3b/xv6-sp20/kernel/vectors.S:769
  106b50:	6a 00                	push   $0x0
/u/a/b/abhijith/CS537/p3b/xv6-sp20/kernel/vectors.S:770
  106b52:	68 9a 00 00 00       	push   $0x9a
/u/a/b/abhijith/CS537/p3b/xv6-sp20/kernel/vectors.S:771
  106b57:	e9 f9 f3 ff ff       	jmp    105f55 <alltraps>

00106b5c <vector155>:
vector155():
/u/a/b/abhijith/CS537/p3b/xv6-sp20/kernel/vectors.S:774
  106b5c:	6a 00                	push   $0x0
/u/a/b/abhijith/CS537/p3b/xv6-sp20/kernel/vectors.S:775
  106b5e:	68 9b 00 00 00       	push   $0x9b
/u/a/b/abhijith/CS537/p3b/xv6-sp20/kernel/vectors.S:776
  106b63:	e9 ed f3 ff ff       	jmp    105f55 <alltraps>

00106b68 <vector156>:
vector156():
/u/a/b/abhijith/CS537/p3b/xv6-sp20/kernel/vectors.S:779
  106b68:	6a 00                	push   $0x0
/u/a/b/abhijith/CS537/p3b/xv6-sp20/kernel/vectors.S:780
  106b6a:	68 9c 00 00 00       	push   $0x9c
/u/a/b/abhijith/CS537/p3b/xv6-sp20/kernel/vectors.S:781
  106b6f:	e9 e1 f3 ff ff       	jmp    105f55 <alltraps>

00106b74 <vector157>:
vector157():
/u/a/b/abhijith/CS537/p3b/xv6-sp20/kernel/vectors.S:784
  106b74:	6a 00                	push   $0x0
/u/a/b/abhijith/CS537/p3b/xv6-sp20/kernel/vectors.S:785
  106b76:	68 9d 00 00 00       	push   $0x9d
/u/a/b/abhijith/CS537/p3b/xv6-sp20/kernel/vectors.S:786
  106b7b:	e9 d5 f3 ff ff       	jmp    105f55 <alltraps>

00106b80 <vector158>:
vector158():
/u/a/b/abhijith/CS537/p3b/xv6-sp20/kernel/vectors.S:789
  106b80:	6a 00                	push   $0x0
/u/a/b/abhijith/CS537/p3b/xv6-sp20/kernel/vectors.S:790
  106b82:	68 9e 00 00 00       	push   $0x9e
/u/a/b/abhijith/CS537/p3b/xv6-sp20/kernel/vectors.S:791
  106b87:	e9 c9 f3 ff ff       	jmp    105f55 <alltraps>

00106b8c <vector159>:
vector159():
/u/a/b/abhijith/CS537/p3b/xv6-sp20/kernel/vectors.S:794
  106b8c:	6a 00                	push   $0x0
/u/a/b/abhijith/CS537/p3b/xv6-sp20/kernel/vectors.S:795
  106b8e:	68 9f 00 00 00       	push   $0x9f
/u/a/b/abhijith/CS537/p3b/xv6-sp20/kernel/vectors.S:796
  106b93:	e9 bd f3 ff ff       	jmp    105f55 <alltraps>

00106b98 <vector160>:
vector160():
/u/a/b/abhijith/CS537/p3b/xv6-sp20/kernel/vectors.S:799
  106b98:	6a 00                	push   $0x0
/u/a/b/abhijith/CS537/p3b/xv6-sp20/kernel/vectors.S:800
  106b9a:	68 a0 00 00 00       	push   $0xa0
/u/a/b/abhijith/CS537/p3b/xv6-sp20/kernel/vectors.S:801
  106b9f:	e9 b1 f3 ff ff       	jmp    105f55 <alltraps>

00106ba4 <vector161>:
vector161():
/u/a/b/abhijith/CS537/p3b/xv6-sp20/kernel/vectors.S:804
  106ba4:	6a 00                	push   $0x0
/u/a/b/abhijith/CS537/p3b/xv6-sp20/kernel/vectors.S:805
  106ba6:	68 a1 00 00 00       	push   $0xa1
/u/a/b/abhijith/CS537/p3b/xv6-sp20/kernel/vectors.S:806
  106bab:	e9 a5 f3 ff ff       	jmp    105f55 <alltraps>

00106bb0 <vector162>:
vector162():
/u/a/b/abhijith/CS537/p3b/xv6-sp20/kernel/vectors.S:809
  106bb0:	6a 00                	push   $0x0
/u/a/b/abhijith/CS537/p3b/xv6-sp20/kernel/vectors.S:810
  106bb2:	68 a2 00 00 00       	push   $0xa2
/u/a/b/abhijith/CS537/p3b/xv6-sp20/kernel/vectors.S:811
  106bb7:	e9 99 f3 ff ff       	jmp    105f55 <alltraps>

00106bbc <vector163>:
vector163():
/u/a/b/abhijith/CS537/p3b/xv6-sp20/kernel/vectors.S:814
  106bbc:	6a 00                	push   $0x0
/u/a/b/abhijith/CS537/p3b/xv6-sp20/kernel/vectors.S:815
  106bbe:	68 a3 00 00 00       	push   $0xa3
/u/a/b/abhijith/CS537/p3b/xv6-sp20/kernel/vectors.S:816
  106bc3:	e9 8d f3 ff ff       	jmp    105f55 <alltraps>

00106bc8 <vector164>:
vector164():
/u/a/b/abhijith/CS537/p3b/xv6-sp20/kernel/vectors.S:819
  106bc8:	6a 00                	push   $0x0
/u/a/b/abhijith/CS537/p3b/xv6-sp20/kernel/vectors.S:820
  106bca:	68 a4 00 00 00       	push   $0xa4
/u/a/b/abhijith/CS537/p3b/xv6-sp20/kernel/vectors.S:821
  106bcf:	e9 81 f3 ff ff       	jmp    105f55 <alltraps>

00106bd4 <vector165>:
vector165():
/u/a/b/abhijith/CS537/p3b/xv6-sp20/kernel/vectors.S:824
  106bd4:	6a 00                	push   $0x0
/u/a/b/abhijith/CS537/p3b/xv6-sp20/kernel/vectors.S:825
  106bd6:	68 a5 00 00 00       	push   $0xa5
/u/a/b/abhijith/CS537/p3b/xv6-sp20/kernel/vectors.S:826
  106bdb:	e9 75 f3 ff ff       	jmp    105f55 <alltraps>

00106be0 <vector166>:
vector166():
/u/a/b/abhijith/CS537/p3b/xv6-sp20/kernel/vectors.S:829
  106be0:	6a 00                	push   $0x0
/u/a/b/abhijith/CS537/p3b/xv6-sp20/kernel/vectors.S:830
  106be2:	68 a6 00 00 00       	push   $0xa6
/u/a/b/abhijith/CS537/p3b/xv6-sp20/kernel/vectors.S:831
  106be7:	e9 69 f3 ff ff       	jmp    105f55 <alltraps>

00106bec <vector167>:
vector167():
/u/a/b/abhijith/CS537/p3b/xv6-sp20/kernel/vectors.S:834
  106bec:	6a 00                	push   $0x0
/u/a/b/abhijith/CS537/p3b/xv6-sp20/kernel/vectors.S:835
  106bee:	68 a7 00 00 00       	push   $0xa7
/u/a/b/abhijith/CS537/p3b/xv6-sp20/kernel/vectors.S:836
  106bf3:	e9 5d f3 ff ff       	jmp    105f55 <alltraps>

00106bf8 <vector168>:
vector168():
/u/a/b/abhijith/CS537/p3b/xv6-sp20/kernel/vectors.S:839
  106bf8:	6a 00                	push   $0x0
/u/a/b/abhijith/CS537/p3b/xv6-sp20/kernel/vectors.S:840
  106bfa:	68 a8 00 00 00       	push   $0xa8
/u/a/b/abhijith/CS537/p3b/xv6-sp20/kernel/vectors.S:841
  106bff:	e9 51 f3 ff ff       	jmp    105f55 <alltraps>

00106c04 <vector169>:
vector169():
/u/a/b/abhijith/CS537/p3b/xv6-sp20/kernel/vectors.S:844
  106c04:	6a 00                	push   $0x0
/u/a/b/abhijith/CS537/p3b/xv6-sp20/kernel/vectors.S:845
  106c06:	68 a9 00 00 00       	push   $0xa9
/u/a/b/abhijith/CS537/p3b/xv6-sp20/kernel/vectors.S:846
  106c0b:	e9 45 f3 ff ff       	jmp    105f55 <alltraps>

00106c10 <vector170>:
vector170():
/u/a/b/abhijith/CS537/p3b/xv6-sp20/kernel/vectors.S:849
  106c10:	6a 00                	push   $0x0
/u/a/b/abhijith/CS537/p3b/xv6-sp20/kernel/vectors.S:850
  106c12:	68 aa 00 00 00       	push   $0xaa
/u/a/b/abhijith/CS537/p3b/xv6-sp20/kernel/vectors.S:851
  106c17:	e9 39 f3 ff ff       	jmp    105f55 <alltraps>

00106c1c <vector171>:
vector171():
/u/a/b/abhijith/CS537/p3b/xv6-sp20/kernel/vectors.S:854
  106c1c:	6a 00                	push   $0x0
/u/a/b/abhijith/CS537/p3b/xv6-sp20/kernel/vectors.S:855
  106c1e:	68 ab 00 00 00       	push   $0xab
/u/a/b/abhijith/CS537/p3b/xv6-sp20/kernel/vectors.S:856
  106c23:	e9 2d f3 ff ff       	jmp    105f55 <alltraps>

00106c28 <vector172>:
vector172():
/u/a/b/abhijith/CS537/p3b/xv6-sp20/kernel/vectors.S:859
  106c28:	6a 00                	push   $0x0
/u/a/b/abhijith/CS537/p3b/xv6-sp20/kernel/vectors.S:860
  106c2a:	68 ac 00 00 00       	push   $0xac
/u/a/b/abhijith/CS537/p3b/xv6-sp20/kernel/vectors.S:861
  106c2f:	e9 21 f3 ff ff       	jmp    105f55 <alltraps>

00106c34 <vector173>:
vector173():
/u/a/b/abhijith/CS537/p3b/xv6-sp20/kernel/vectors.S:864
  106c34:	6a 00                	push   $0x0
/u/a/b/abhijith/CS537/p3b/xv6-sp20/kernel/vectors.S:865
  106c36:	68 ad 00 00 00       	push   $0xad
/u/a/b/abhijith/CS537/p3b/xv6-sp20/kernel/vectors.S:866
  106c3b:	e9 15 f3 ff ff       	jmp    105f55 <alltraps>

00106c40 <vector174>:
vector174():
/u/a/b/abhijith/CS537/p3b/xv6-sp20/kernel/vectors.S:869
  106c40:	6a 00                	push   $0x0
/u/a/b/abhijith/CS537/p3b/xv6-sp20/kernel/vectors.S:870
  106c42:	68 ae 00 00 00       	push   $0xae
/u/a/b/abhijith/CS537/p3b/xv6-sp20/kernel/vectors.S:871
  106c47:	e9 09 f3 ff ff       	jmp    105f55 <alltraps>

00106c4c <vector175>:
vector175():
/u/a/b/abhijith/CS537/p3b/xv6-sp20/kernel/vectors.S:874
  106c4c:	6a 00                	push   $0x0
/u/a/b/abhijith/CS537/p3b/xv6-sp20/kernel/vectors.S:875
  106c4e:	68 af 00 00 00       	push   $0xaf
/u/a/b/abhijith/CS537/p3b/xv6-sp20/kernel/vectors.S:876
  106c53:	e9 fd f2 ff ff       	jmp    105f55 <alltraps>

00106c58 <vector176>:
vector176():
/u/a/b/abhijith/CS537/p3b/xv6-sp20/kernel/vectors.S:879
  106c58:	6a 00                	push   $0x0
/u/a/b/abhijith/CS537/p3b/xv6-sp20/kernel/vectors.S:880
  106c5a:	68 b0 00 00 00       	push   $0xb0
/u/a/b/abhijith/CS537/p3b/xv6-sp20/kernel/vectors.S:881
  106c5f:	e9 f1 f2 ff ff       	jmp    105f55 <alltraps>

00106c64 <vector177>:
vector177():
/u/a/b/abhijith/CS537/p3b/xv6-sp20/kernel/vectors.S:884
  106c64:	6a 00                	push   $0x0
/u/a/b/abhijith/CS537/p3b/xv6-sp20/kernel/vectors.S:885
  106c66:	68 b1 00 00 00       	push   $0xb1
/u/a/b/abhijith/CS537/p3b/xv6-sp20/kernel/vectors.S:886
  106c6b:	e9 e5 f2 ff ff       	jmp    105f55 <alltraps>

00106c70 <vector178>:
vector178():
/u/a/b/abhijith/CS537/p3b/xv6-sp20/kernel/vectors.S:889
  106c70:	6a 00                	push   $0x0
/u/a/b/abhijith/CS537/p3b/xv6-sp20/kernel/vectors.S:890
  106c72:	68 b2 00 00 00       	push   $0xb2
/u/a/b/abhijith/CS537/p3b/xv6-sp20/kernel/vectors.S:891
  106c77:	e9 d9 f2 ff ff       	jmp    105f55 <alltraps>

00106c7c <vector179>:
vector179():
/u/a/b/abhijith/CS537/p3b/xv6-sp20/kernel/vectors.S:894
  106c7c:	6a 00                	push   $0x0
/u/a/b/abhijith/CS537/p3b/xv6-sp20/kernel/vectors.S:895
  106c7e:	68 b3 00 00 00       	push   $0xb3
/u/a/b/abhijith/CS537/p3b/xv6-sp20/kernel/vectors.S:896
  106c83:	e9 cd f2 ff ff       	jmp    105f55 <alltraps>

00106c88 <vector180>:
vector180():
/u/a/b/abhijith/CS537/p3b/xv6-sp20/kernel/vectors.S:899
  106c88:	6a 00                	push   $0x0
/u/a/b/abhijith/CS537/p3b/xv6-sp20/kernel/vectors.S:900
  106c8a:	68 b4 00 00 00       	push   $0xb4
/u/a/b/abhijith/CS537/p3b/xv6-sp20/kernel/vectors.S:901
  106c8f:	e9 c1 f2 ff ff       	jmp    105f55 <alltraps>

00106c94 <vector181>:
vector181():
/u/a/b/abhijith/CS537/p3b/xv6-sp20/kernel/vectors.S:904
  106c94:	6a 00                	push   $0x0
/u/a/b/abhijith/CS537/p3b/xv6-sp20/kernel/vectors.S:905
  106c96:	68 b5 00 00 00       	push   $0xb5
/u/a/b/abhijith/CS537/p3b/xv6-sp20/kernel/vectors.S:906
  106c9b:	e9 b5 f2 ff ff       	jmp    105f55 <alltraps>

00106ca0 <vector182>:
vector182():
/u/a/b/abhijith/CS537/p3b/xv6-sp20/kernel/vectors.S:909
  106ca0:	6a 00                	push   $0x0
/u/a/b/abhijith/CS537/p3b/xv6-sp20/kernel/vectors.S:910
  106ca2:	68 b6 00 00 00       	push   $0xb6
/u/a/b/abhijith/CS537/p3b/xv6-sp20/kernel/vectors.S:911
  106ca7:	e9 a9 f2 ff ff       	jmp    105f55 <alltraps>

00106cac <vector183>:
vector183():
/u/a/b/abhijith/CS537/p3b/xv6-sp20/kernel/vectors.S:914
  106cac:	6a 00                	push   $0x0
/u/a/b/abhijith/CS537/p3b/xv6-sp20/kernel/vectors.S:915
  106cae:	68 b7 00 00 00       	push   $0xb7
/u/a/b/abhijith/CS537/p3b/xv6-sp20/kernel/vectors.S:916
  106cb3:	e9 9d f2 ff ff       	jmp    105f55 <alltraps>

00106cb8 <vector184>:
vector184():
/u/a/b/abhijith/CS537/p3b/xv6-sp20/kernel/vectors.S:919
  106cb8:	6a 00                	push   $0x0
/u/a/b/abhijith/CS537/p3b/xv6-sp20/kernel/vectors.S:920
  106cba:	68 b8 00 00 00       	push   $0xb8
/u/a/b/abhijith/CS537/p3b/xv6-sp20/kernel/vectors.S:921
  106cbf:	e9 91 f2 ff ff       	jmp    105f55 <alltraps>

00106cc4 <vector185>:
vector185():
/u/a/b/abhijith/CS537/p3b/xv6-sp20/kernel/vectors.S:924
  106cc4:	6a 00                	push   $0x0
/u/a/b/abhijith/CS537/p3b/xv6-sp20/kernel/vectors.S:925
  106cc6:	68 b9 00 00 00       	push   $0xb9
/u/a/b/abhijith/CS537/p3b/xv6-sp20/kernel/vectors.S:926
  106ccb:	e9 85 f2 ff ff       	jmp    105f55 <alltraps>

00106cd0 <vector186>:
vector186():
/u/a/b/abhijith/CS537/p3b/xv6-sp20/kernel/vectors.S:929
  106cd0:	6a 00                	push   $0x0
/u/a/b/abhijith/CS537/p3b/xv6-sp20/kernel/vectors.S:930
  106cd2:	68 ba 00 00 00       	push   $0xba
/u/a/b/abhijith/CS537/p3b/xv6-sp20/kernel/vectors.S:931
  106cd7:	e9 79 f2 ff ff       	jmp    105f55 <alltraps>

00106cdc <vector187>:
vector187():
/u/a/b/abhijith/CS537/p3b/xv6-sp20/kernel/vectors.S:934
  106cdc:	6a 00                	push   $0x0
/u/a/b/abhijith/CS537/p3b/xv6-sp20/kernel/vectors.S:935
  106cde:	68 bb 00 00 00       	push   $0xbb
/u/a/b/abhijith/CS537/p3b/xv6-sp20/kernel/vectors.S:936
  106ce3:	e9 6d f2 ff ff       	jmp    105f55 <alltraps>

00106ce8 <vector188>:
vector188():
/u/a/b/abhijith/CS537/p3b/xv6-sp20/kernel/vectors.S:939
  106ce8:	6a 00                	push   $0x0
/u/a/b/abhijith/CS537/p3b/xv6-sp20/kernel/vectors.S:940
  106cea:	68 bc 00 00 00       	push   $0xbc
/u/a/b/abhijith/CS537/p3b/xv6-sp20/kernel/vectors.S:941
  106cef:	e9 61 f2 ff ff       	jmp    105f55 <alltraps>

00106cf4 <vector189>:
vector189():
/u/a/b/abhijith/CS537/p3b/xv6-sp20/kernel/vectors.S:944
  106cf4:	6a 00                	push   $0x0
/u/a/b/abhijith/CS537/p3b/xv6-sp20/kernel/vectors.S:945
  106cf6:	68 bd 00 00 00       	push   $0xbd
/u/a/b/abhijith/CS537/p3b/xv6-sp20/kernel/vectors.S:946
  106cfb:	e9 55 f2 ff ff       	jmp    105f55 <alltraps>

00106d00 <vector190>:
vector190():
/u/a/b/abhijith/CS537/p3b/xv6-sp20/kernel/vectors.S:949
  106d00:	6a 00                	push   $0x0
/u/a/b/abhijith/CS537/p3b/xv6-sp20/kernel/vectors.S:950
  106d02:	68 be 00 00 00       	push   $0xbe
/u/a/b/abhijith/CS537/p3b/xv6-sp20/kernel/vectors.S:951
  106d07:	e9 49 f2 ff ff       	jmp    105f55 <alltraps>

00106d0c <vector191>:
vector191():
/u/a/b/abhijith/CS537/p3b/xv6-sp20/kernel/vectors.S:954
  106d0c:	6a 00                	push   $0x0
/u/a/b/abhijith/CS537/p3b/xv6-sp20/kernel/vectors.S:955
  106d0e:	68 bf 00 00 00       	push   $0xbf
/u/a/b/abhijith/CS537/p3b/xv6-sp20/kernel/vectors.S:956
  106d13:	e9 3d f2 ff ff       	jmp    105f55 <alltraps>

00106d18 <vector192>:
vector192():
/u/a/b/abhijith/CS537/p3b/xv6-sp20/kernel/vectors.S:959
  106d18:	6a 00                	push   $0x0
/u/a/b/abhijith/CS537/p3b/xv6-sp20/kernel/vectors.S:960
  106d1a:	68 c0 00 00 00       	push   $0xc0
/u/a/b/abhijith/CS537/p3b/xv6-sp20/kernel/vectors.S:961
  106d1f:	e9 31 f2 ff ff       	jmp    105f55 <alltraps>

00106d24 <vector193>:
vector193():
/u/a/b/abhijith/CS537/p3b/xv6-sp20/kernel/vectors.S:964
  106d24:	6a 00                	push   $0x0
/u/a/b/abhijith/CS537/p3b/xv6-sp20/kernel/vectors.S:965
  106d26:	68 c1 00 00 00       	push   $0xc1
/u/a/b/abhijith/CS537/p3b/xv6-sp20/kernel/vectors.S:966
  106d2b:	e9 25 f2 ff ff       	jmp    105f55 <alltraps>

00106d30 <vector194>:
vector194():
/u/a/b/abhijith/CS537/p3b/xv6-sp20/kernel/vectors.S:969
  106d30:	6a 00                	push   $0x0
/u/a/b/abhijith/CS537/p3b/xv6-sp20/kernel/vectors.S:970
  106d32:	68 c2 00 00 00       	push   $0xc2
/u/a/b/abhijith/CS537/p3b/xv6-sp20/kernel/vectors.S:971
  106d37:	e9 19 f2 ff ff       	jmp    105f55 <alltraps>

00106d3c <vector195>:
vector195():
/u/a/b/abhijith/CS537/p3b/xv6-sp20/kernel/vectors.S:974
  106d3c:	6a 00                	push   $0x0
/u/a/b/abhijith/CS537/p3b/xv6-sp20/kernel/vectors.S:975
  106d3e:	68 c3 00 00 00       	push   $0xc3
/u/a/b/abhijith/CS537/p3b/xv6-sp20/kernel/vectors.S:976
  106d43:	e9 0d f2 ff ff       	jmp    105f55 <alltraps>

00106d48 <vector196>:
vector196():
/u/a/b/abhijith/CS537/p3b/xv6-sp20/kernel/vectors.S:979
  106d48:	6a 00                	push   $0x0
/u/a/b/abhijith/CS537/p3b/xv6-sp20/kernel/vectors.S:980
  106d4a:	68 c4 00 00 00       	push   $0xc4
/u/a/b/abhijith/CS537/p3b/xv6-sp20/kernel/vectors.S:981
  106d4f:	e9 01 f2 ff ff       	jmp    105f55 <alltraps>

00106d54 <vector197>:
vector197():
/u/a/b/abhijith/CS537/p3b/xv6-sp20/kernel/vectors.S:984
  106d54:	6a 00                	push   $0x0
/u/a/b/abhijith/CS537/p3b/xv6-sp20/kernel/vectors.S:985
  106d56:	68 c5 00 00 00       	push   $0xc5
/u/a/b/abhijith/CS537/p3b/xv6-sp20/kernel/vectors.S:986
  106d5b:	e9 f5 f1 ff ff       	jmp    105f55 <alltraps>

00106d60 <vector198>:
vector198():
/u/a/b/abhijith/CS537/p3b/xv6-sp20/kernel/vectors.S:989
  106d60:	6a 00                	push   $0x0
/u/a/b/abhijith/CS537/p3b/xv6-sp20/kernel/vectors.S:990
  106d62:	68 c6 00 00 00       	push   $0xc6
/u/a/b/abhijith/CS537/p3b/xv6-sp20/kernel/vectors.S:991
  106d67:	e9 e9 f1 ff ff       	jmp    105f55 <alltraps>

00106d6c <vector199>:
vector199():
/u/a/b/abhijith/CS537/p3b/xv6-sp20/kernel/vectors.S:994
  106d6c:	6a 00                	push   $0x0
/u/a/b/abhijith/CS537/p3b/xv6-sp20/kernel/vectors.S:995
  106d6e:	68 c7 00 00 00       	push   $0xc7
/u/a/b/abhijith/CS537/p3b/xv6-sp20/kernel/vectors.S:996
  106d73:	e9 dd f1 ff ff       	jmp    105f55 <alltraps>

00106d78 <vector200>:
vector200():
/u/a/b/abhijith/CS537/p3b/xv6-sp20/kernel/vectors.S:999
  106d78:	6a 00                	push   $0x0
/u/a/b/abhijith/CS537/p3b/xv6-sp20/kernel/vectors.S:1000
  106d7a:	68 c8 00 00 00       	push   $0xc8
/u/a/b/abhijith/CS537/p3b/xv6-sp20/kernel/vectors.S:1001
  106d7f:	e9 d1 f1 ff ff       	jmp    105f55 <alltraps>

00106d84 <vector201>:
vector201():
/u/a/b/abhijith/CS537/p3b/xv6-sp20/kernel/vectors.S:1004
  106d84:	6a 00                	push   $0x0
/u/a/b/abhijith/CS537/p3b/xv6-sp20/kernel/vectors.S:1005
  106d86:	68 c9 00 00 00       	push   $0xc9
/u/a/b/abhijith/CS537/p3b/xv6-sp20/kernel/vectors.S:1006
  106d8b:	e9 c5 f1 ff ff       	jmp    105f55 <alltraps>

00106d90 <vector202>:
vector202():
/u/a/b/abhijith/CS537/p3b/xv6-sp20/kernel/vectors.S:1009
  106d90:	6a 00                	push   $0x0
/u/a/b/abhijith/CS537/p3b/xv6-sp20/kernel/vectors.S:1010
  106d92:	68 ca 00 00 00       	push   $0xca
/u/a/b/abhijith/CS537/p3b/xv6-sp20/kernel/vectors.S:1011
  106d97:	e9 b9 f1 ff ff       	jmp    105f55 <alltraps>

00106d9c <vector203>:
vector203():
/u/a/b/abhijith/CS537/p3b/xv6-sp20/kernel/vectors.S:1014
  106d9c:	6a 00                	push   $0x0
/u/a/b/abhijith/CS537/p3b/xv6-sp20/kernel/vectors.S:1015
  106d9e:	68 cb 00 00 00       	push   $0xcb
/u/a/b/abhijith/CS537/p3b/xv6-sp20/kernel/vectors.S:1016
  106da3:	e9 ad f1 ff ff       	jmp    105f55 <alltraps>

00106da8 <vector204>:
vector204():
/u/a/b/abhijith/CS537/p3b/xv6-sp20/kernel/vectors.S:1019
  106da8:	6a 00                	push   $0x0
/u/a/b/abhijith/CS537/p3b/xv6-sp20/kernel/vectors.S:1020
  106daa:	68 cc 00 00 00       	push   $0xcc
/u/a/b/abhijith/CS537/p3b/xv6-sp20/kernel/vectors.S:1021
  106daf:	e9 a1 f1 ff ff       	jmp    105f55 <alltraps>

00106db4 <vector205>:
vector205():
/u/a/b/abhijith/CS537/p3b/xv6-sp20/kernel/vectors.S:1024
  106db4:	6a 00                	push   $0x0
/u/a/b/abhijith/CS537/p3b/xv6-sp20/kernel/vectors.S:1025
  106db6:	68 cd 00 00 00       	push   $0xcd
/u/a/b/abhijith/CS537/p3b/xv6-sp20/kernel/vectors.S:1026
  106dbb:	e9 95 f1 ff ff       	jmp    105f55 <alltraps>

00106dc0 <vector206>:
vector206():
/u/a/b/abhijith/CS537/p3b/xv6-sp20/kernel/vectors.S:1029
  106dc0:	6a 00                	push   $0x0
/u/a/b/abhijith/CS537/p3b/xv6-sp20/kernel/vectors.S:1030
  106dc2:	68 ce 00 00 00       	push   $0xce
/u/a/b/abhijith/CS537/p3b/xv6-sp20/kernel/vectors.S:1031
  106dc7:	e9 89 f1 ff ff       	jmp    105f55 <alltraps>

00106dcc <vector207>:
vector207():
/u/a/b/abhijith/CS537/p3b/xv6-sp20/kernel/vectors.S:1034
  106dcc:	6a 00                	push   $0x0
/u/a/b/abhijith/CS537/p3b/xv6-sp20/kernel/vectors.S:1035
  106dce:	68 cf 00 00 00       	push   $0xcf
/u/a/b/abhijith/CS537/p3b/xv6-sp20/kernel/vectors.S:1036
  106dd3:	e9 7d f1 ff ff       	jmp    105f55 <alltraps>

00106dd8 <vector208>:
vector208():
/u/a/b/abhijith/CS537/p3b/xv6-sp20/kernel/vectors.S:1039
  106dd8:	6a 00                	push   $0x0
/u/a/b/abhijith/CS537/p3b/xv6-sp20/kernel/vectors.S:1040
  106dda:	68 d0 00 00 00       	push   $0xd0
/u/a/b/abhijith/CS537/p3b/xv6-sp20/kernel/vectors.S:1041
  106ddf:	e9 71 f1 ff ff       	jmp    105f55 <alltraps>

00106de4 <vector209>:
vector209():
/u/a/b/abhijith/CS537/p3b/xv6-sp20/kernel/vectors.S:1044
  106de4:	6a 00                	push   $0x0
/u/a/b/abhijith/CS537/p3b/xv6-sp20/kernel/vectors.S:1045
  106de6:	68 d1 00 00 00       	push   $0xd1
/u/a/b/abhijith/CS537/p3b/xv6-sp20/kernel/vectors.S:1046
  106deb:	e9 65 f1 ff ff       	jmp    105f55 <alltraps>

00106df0 <vector210>:
vector210():
/u/a/b/abhijith/CS537/p3b/xv6-sp20/kernel/vectors.S:1049
  106df0:	6a 00                	push   $0x0
/u/a/b/abhijith/CS537/p3b/xv6-sp20/kernel/vectors.S:1050
  106df2:	68 d2 00 00 00       	push   $0xd2
/u/a/b/abhijith/CS537/p3b/xv6-sp20/kernel/vectors.S:1051
  106df7:	e9 59 f1 ff ff       	jmp    105f55 <alltraps>

00106dfc <vector211>:
vector211():
/u/a/b/abhijith/CS537/p3b/xv6-sp20/kernel/vectors.S:1054
  106dfc:	6a 00                	push   $0x0
/u/a/b/abhijith/CS537/p3b/xv6-sp20/kernel/vectors.S:1055
  106dfe:	68 d3 00 00 00       	push   $0xd3
/u/a/b/abhijith/CS537/p3b/xv6-sp20/kernel/vectors.S:1056
  106e03:	e9 4d f1 ff ff       	jmp    105f55 <alltraps>

00106e08 <vector212>:
vector212():
/u/a/b/abhijith/CS537/p3b/xv6-sp20/kernel/vectors.S:1059
  106e08:	6a 00                	push   $0x0
/u/a/b/abhijith/CS537/p3b/xv6-sp20/kernel/vectors.S:1060
  106e0a:	68 d4 00 00 00       	push   $0xd4
/u/a/b/abhijith/CS537/p3b/xv6-sp20/kernel/vectors.S:1061
  106e0f:	e9 41 f1 ff ff       	jmp    105f55 <alltraps>

00106e14 <vector213>:
vector213():
/u/a/b/abhijith/CS537/p3b/xv6-sp20/kernel/vectors.S:1064
  106e14:	6a 00                	push   $0x0
/u/a/b/abhijith/CS537/p3b/xv6-sp20/kernel/vectors.S:1065
  106e16:	68 d5 00 00 00       	push   $0xd5
/u/a/b/abhijith/CS537/p3b/xv6-sp20/kernel/vectors.S:1066
  106e1b:	e9 35 f1 ff ff       	jmp    105f55 <alltraps>

00106e20 <vector214>:
vector214():
/u/a/b/abhijith/CS537/p3b/xv6-sp20/kernel/vectors.S:1069
  106e20:	6a 00                	push   $0x0
/u/a/b/abhijith/CS537/p3b/xv6-sp20/kernel/vectors.S:1070
  106e22:	68 d6 00 00 00       	push   $0xd6
/u/a/b/abhijith/CS537/p3b/xv6-sp20/kernel/vectors.S:1071
  106e27:	e9 29 f1 ff ff       	jmp    105f55 <alltraps>

00106e2c <vector215>:
vector215():
/u/a/b/abhijith/CS537/p3b/xv6-sp20/kernel/vectors.S:1074
  106e2c:	6a 00                	push   $0x0
/u/a/b/abhijith/CS537/p3b/xv6-sp20/kernel/vectors.S:1075
  106e2e:	68 d7 00 00 00       	push   $0xd7
/u/a/b/abhijith/CS537/p3b/xv6-sp20/kernel/vectors.S:1076
  106e33:	e9 1d f1 ff ff       	jmp    105f55 <alltraps>

00106e38 <vector216>:
vector216():
/u/a/b/abhijith/CS537/p3b/xv6-sp20/kernel/vectors.S:1079
  106e38:	6a 00                	push   $0x0
/u/a/b/abhijith/CS537/p3b/xv6-sp20/kernel/vectors.S:1080
  106e3a:	68 d8 00 00 00       	push   $0xd8
/u/a/b/abhijith/CS537/p3b/xv6-sp20/kernel/vectors.S:1081
  106e3f:	e9 11 f1 ff ff       	jmp    105f55 <alltraps>

00106e44 <vector217>:
vector217():
/u/a/b/abhijith/CS537/p3b/xv6-sp20/kernel/vectors.S:1084
  106e44:	6a 00                	push   $0x0
/u/a/b/abhijith/CS537/p3b/xv6-sp20/kernel/vectors.S:1085
  106e46:	68 d9 00 00 00       	push   $0xd9
/u/a/b/abhijith/CS537/p3b/xv6-sp20/kernel/vectors.S:1086
  106e4b:	e9 05 f1 ff ff       	jmp    105f55 <alltraps>

00106e50 <vector218>:
vector218():
/u/a/b/abhijith/CS537/p3b/xv6-sp20/kernel/vectors.S:1089
  106e50:	6a 00                	push   $0x0
/u/a/b/abhijith/CS537/p3b/xv6-sp20/kernel/vectors.S:1090
  106e52:	68 da 00 00 00       	push   $0xda
/u/a/b/abhijith/CS537/p3b/xv6-sp20/kernel/vectors.S:1091
  106e57:	e9 f9 f0 ff ff       	jmp    105f55 <alltraps>

00106e5c <vector219>:
vector219():
/u/a/b/abhijith/CS537/p3b/xv6-sp20/kernel/vectors.S:1094
  106e5c:	6a 00                	push   $0x0
/u/a/b/abhijith/CS537/p3b/xv6-sp20/kernel/vectors.S:1095
  106e5e:	68 db 00 00 00       	push   $0xdb
/u/a/b/abhijith/CS537/p3b/xv6-sp20/kernel/vectors.S:1096
  106e63:	e9 ed f0 ff ff       	jmp    105f55 <alltraps>

00106e68 <vector220>:
vector220():
/u/a/b/abhijith/CS537/p3b/xv6-sp20/kernel/vectors.S:1099
  106e68:	6a 00                	push   $0x0
/u/a/b/abhijith/CS537/p3b/xv6-sp20/kernel/vectors.S:1100
  106e6a:	68 dc 00 00 00       	push   $0xdc
/u/a/b/abhijith/CS537/p3b/xv6-sp20/kernel/vectors.S:1101
  106e6f:	e9 e1 f0 ff ff       	jmp    105f55 <alltraps>

00106e74 <vector221>:
vector221():
/u/a/b/abhijith/CS537/p3b/xv6-sp20/kernel/vectors.S:1104
  106e74:	6a 00                	push   $0x0
/u/a/b/abhijith/CS537/p3b/xv6-sp20/kernel/vectors.S:1105
  106e76:	68 dd 00 00 00       	push   $0xdd
/u/a/b/abhijith/CS537/p3b/xv6-sp20/kernel/vectors.S:1106
  106e7b:	e9 d5 f0 ff ff       	jmp    105f55 <alltraps>

00106e80 <vector222>:
vector222():
/u/a/b/abhijith/CS537/p3b/xv6-sp20/kernel/vectors.S:1109
  106e80:	6a 00                	push   $0x0
/u/a/b/abhijith/CS537/p3b/xv6-sp20/kernel/vectors.S:1110
  106e82:	68 de 00 00 00       	push   $0xde
/u/a/b/abhijith/CS537/p3b/xv6-sp20/kernel/vectors.S:1111
  106e87:	e9 c9 f0 ff ff       	jmp    105f55 <alltraps>

00106e8c <vector223>:
vector223():
/u/a/b/abhijith/CS537/p3b/xv6-sp20/kernel/vectors.S:1114
  106e8c:	6a 00                	push   $0x0
/u/a/b/abhijith/CS537/p3b/xv6-sp20/kernel/vectors.S:1115
  106e8e:	68 df 00 00 00       	push   $0xdf
/u/a/b/abhijith/CS537/p3b/xv6-sp20/kernel/vectors.S:1116
  106e93:	e9 bd f0 ff ff       	jmp    105f55 <alltraps>

00106e98 <vector224>:
vector224():
/u/a/b/abhijith/CS537/p3b/xv6-sp20/kernel/vectors.S:1119
  106e98:	6a 00                	push   $0x0
/u/a/b/abhijith/CS537/p3b/xv6-sp20/kernel/vectors.S:1120
  106e9a:	68 e0 00 00 00       	push   $0xe0
/u/a/b/abhijith/CS537/p3b/xv6-sp20/kernel/vectors.S:1121
  106e9f:	e9 b1 f0 ff ff       	jmp    105f55 <alltraps>

00106ea4 <vector225>:
vector225():
/u/a/b/abhijith/CS537/p3b/xv6-sp20/kernel/vectors.S:1124
  106ea4:	6a 00                	push   $0x0
/u/a/b/abhijith/CS537/p3b/xv6-sp20/kernel/vectors.S:1125
  106ea6:	68 e1 00 00 00       	push   $0xe1
/u/a/b/abhijith/CS537/p3b/xv6-sp20/kernel/vectors.S:1126
  106eab:	e9 a5 f0 ff ff       	jmp    105f55 <alltraps>

00106eb0 <vector226>:
vector226():
/u/a/b/abhijith/CS537/p3b/xv6-sp20/kernel/vectors.S:1129
  106eb0:	6a 00                	push   $0x0
/u/a/b/abhijith/CS537/p3b/xv6-sp20/kernel/vectors.S:1130
  106eb2:	68 e2 00 00 00       	push   $0xe2
/u/a/b/abhijith/CS537/p3b/xv6-sp20/kernel/vectors.S:1131
  106eb7:	e9 99 f0 ff ff       	jmp    105f55 <alltraps>

00106ebc <vector227>:
vector227():
/u/a/b/abhijith/CS537/p3b/xv6-sp20/kernel/vectors.S:1134
  106ebc:	6a 00                	push   $0x0
/u/a/b/abhijith/CS537/p3b/xv6-sp20/kernel/vectors.S:1135
  106ebe:	68 e3 00 00 00       	push   $0xe3
/u/a/b/abhijith/CS537/p3b/xv6-sp20/kernel/vectors.S:1136
  106ec3:	e9 8d f0 ff ff       	jmp    105f55 <alltraps>

00106ec8 <vector228>:
vector228():
/u/a/b/abhijith/CS537/p3b/xv6-sp20/kernel/vectors.S:1139
  106ec8:	6a 00                	push   $0x0
/u/a/b/abhijith/CS537/p3b/xv6-sp20/kernel/vectors.S:1140
  106eca:	68 e4 00 00 00       	push   $0xe4
/u/a/b/abhijith/CS537/p3b/xv6-sp20/kernel/vectors.S:1141
  106ecf:	e9 81 f0 ff ff       	jmp    105f55 <alltraps>

00106ed4 <vector229>:
vector229():
/u/a/b/abhijith/CS537/p3b/xv6-sp20/kernel/vectors.S:1144
  106ed4:	6a 00                	push   $0x0
/u/a/b/abhijith/CS537/p3b/xv6-sp20/kernel/vectors.S:1145
  106ed6:	68 e5 00 00 00       	push   $0xe5
/u/a/b/abhijith/CS537/p3b/xv6-sp20/kernel/vectors.S:1146
  106edb:	e9 75 f0 ff ff       	jmp    105f55 <alltraps>

00106ee0 <vector230>:
vector230():
/u/a/b/abhijith/CS537/p3b/xv6-sp20/kernel/vectors.S:1149
  106ee0:	6a 00                	push   $0x0
/u/a/b/abhijith/CS537/p3b/xv6-sp20/kernel/vectors.S:1150
  106ee2:	68 e6 00 00 00       	push   $0xe6
/u/a/b/abhijith/CS537/p3b/xv6-sp20/kernel/vectors.S:1151
  106ee7:	e9 69 f0 ff ff       	jmp    105f55 <alltraps>

00106eec <vector231>:
vector231():
/u/a/b/abhijith/CS537/p3b/xv6-sp20/kernel/vectors.S:1154
  106eec:	6a 00                	push   $0x0
/u/a/b/abhijith/CS537/p3b/xv6-sp20/kernel/vectors.S:1155
  106eee:	68 e7 00 00 00       	push   $0xe7
/u/a/b/abhijith/CS537/p3b/xv6-sp20/kernel/vectors.S:1156
  106ef3:	e9 5d f0 ff ff       	jmp    105f55 <alltraps>

00106ef8 <vector232>:
vector232():
/u/a/b/abhijith/CS537/p3b/xv6-sp20/kernel/vectors.S:1159
  106ef8:	6a 00                	push   $0x0
/u/a/b/abhijith/CS537/p3b/xv6-sp20/kernel/vectors.S:1160
  106efa:	68 e8 00 00 00       	push   $0xe8
/u/a/b/abhijith/CS537/p3b/xv6-sp20/kernel/vectors.S:1161
  106eff:	e9 51 f0 ff ff       	jmp    105f55 <alltraps>

00106f04 <vector233>:
vector233():
/u/a/b/abhijith/CS537/p3b/xv6-sp20/kernel/vectors.S:1164
  106f04:	6a 00                	push   $0x0
/u/a/b/abhijith/CS537/p3b/xv6-sp20/kernel/vectors.S:1165
  106f06:	68 e9 00 00 00       	push   $0xe9
/u/a/b/abhijith/CS537/p3b/xv6-sp20/kernel/vectors.S:1166
  106f0b:	e9 45 f0 ff ff       	jmp    105f55 <alltraps>

00106f10 <vector234>:
vector234():
/u/a/b/abhijith/CS537/p3b/xv6-sp20/kernel/vectors.S:1169
  106f10:	6a 00                	push   $0x0
/u/a/b/abhijith/CS537/p3b/xv6-sp20/kernel/vectors.S:1170
  106f12:	68 ea 00 00 00       	push   $0xea
/u/a/b/abhijith/CS537/p3b/xv6-sp20/kernel/vectors.S:1171
  106f17:	e9 39 f0 ff ff       	jmp    105f55 <alltraps>

00106f1c <vector235>:
vector235():
/u/a/b/abhijith/CS537/p3b/xv6-sp20/kernel/vectors.S:1174
  106f1c:	6a 00                	push   $0x0
/u/a/b/abhijith/CS537/p3b/xv6-sp20/kernel/vectors.S:1175
  106f1e:	68 eb 00 00 00       	push   $0xeb
/u/a/b/abhijith/CS537/p3b/xv6-sp20/kernel/vectors.S:1176
  106f23:	e9 2d f0 ff ff       	jmp    105f55 <alltraps>

00106f28 <vector236>:
vector236():
/u/a/b/abhijith/CS537/p3b/xv6-sp20/kernel/vectors.S:1179
  106f28:	6a 00                	push   $0x0
/u/a/b/abhijith/CS537/p3b/xv6-sp20/kernel/vectors.S:1180
  106f2a:	68 ec 00 00 00       	push   $0xec
/u/a/b/abhijith/CS537/p3b/xv6-sp20/kernel/vectors.S:1181
  106f2f:	e9 21 f0 ff ff       	jmp    105f55 <alltraps>

00106f34 <vector237>:
vector237():
/u/a/b/abhijith/CS537/p3b/xv6-sp20/kernel/vectors.S:1184
  106f34:	6a 00                	push   $0x0
/u/a/b/abhijith/CS537/p3b/xv6-sp20/kernel/vectors.S:1185
  106f36:	68 ed 00 00 00       	push   $0xed
/u/a/b/abhijith/CS537/p3b/xv6-sp20/kernel/vectors.S:1186
  106f3b:	e9 15 f0 ff ff       	jmp    105f55 <alltraps>

00106f40 <vector238>:
vector238():
/u/a/b/abhijith/CS537/p3b/xv6-sp20/kernel/vectors.S:1189
  106f40:	6a 00                	push   $0x0
/u/a/b/abhijith/CS537/p3b/xv6-sp20/kernel/vectors.S:1190
  106f42:	68 ee 00 00 00       	push   $0xee
/u/a/b/abhijith/CS537/p3b/xv6-sp20/kernel/vectors.S:1191
  106f47:	e9 09 f0 ff ff       	jmp    105f55 <alltraps>

00106f4c <vector239>:
vector239():
/u/a/b/abhijith/CS537/p3b/xv6-sp20/kernel/vectors.S:1194
  106f4c:	6a 00                	push   $0x0
/u/a/b/abhijith/CS537/p3b/xv6-sp20/kernel/vectors.S:1195
  106f4e:	68 ef 00 00 00       	push   $0xef
/u/a/b/abhijith/CS537/p3b/xv6-sp20/kernel/vectors.S:1196
  106f53:	e9 fd ef ff ff       	jmp    105f55 <alltraps>

00106f58 <vector240>:
vector240():
/u/a/b/abhijith/CS537/p3b/xv6-sp20/kernel/vectors.S:1199
  106f58:	6a 00                	push   $0x0
/u/a/b/abhijith/CS537/p3b/xv6-sp20/kernel/vectors.S:1200
  106f5a:	68 f0 00 00 00       	push   $0xf0
/u/a/b/abhijith/CS537/p3b/xv6-sp20/kernel/vectors.S:1201
  106f5f:	e9 f1 ef ff ff       	jmp    105f55 <alltraps>

00106f64 <vector241>:
vector241():
/u/a/b/abhijith/CS537/p3b/xv6-sp20/kernel/vectors.S:1204
  106f64:	6a 00                	push   $0x0
/u/a/b/abhijith/CS537/p3b/xv6-sp20/kernel/vectors.S:1205
  106f66:	68 f1 00 00 00       	push   $0xf1
/u/a/b/abhijith/CS537/p3b/xv6-sp20/kernel/vectors.S:1206
  106f6b:	e9 e5 ef ff ff       	jmp    105f55 <alltraps>

00106f70 <vector242>:
vector242():
/u/a/b/abhijith/CS537/p3b/xv6-sp20/kernel/vectors.S:1209
  106f70:	6a 00                	push   $0x0
/u/a/b/abhijith/CS537/p3b/xv6-sp20/kernel/vectors.S:1210
  106f72:	68 f2 00 00 00       	push   $0xf2
/u/a/b/abhijith/CS537/p3b/xv6-sp20/kernel/vectors.S:1211
  106f77:	e9 d9 ef ff ff       	jmp    105f55 <alltraps>

00106f7c <vector243>:
vector243():
/u/a/b/abhijith/CS537/p3b/xv6-sp20/kernel/vectors.S:1214
  106f7c:	6a 00                	push   $0x0
/u/a/b/abhijith/CS537/p3b/xv6-sp20/kernel/vectors.S:1215
  106f7e:	68 f3 00 00 00       	push   $0xf3
/u/a/b/abhijith/CS537/p3b/xv6-sp20/kernel/vectors.S:1216
  106f83:	e9 cd ef ff ff       	jmp    105f55 <alltraps>

00106f88 <vector244>:
vector244():
/u/a/b/abhijith/CS537/p3b/xv6-sp20/kernel/vectors.S:1219
  106f88:	6a 00                	push   $0x0
/u/a/b/abhijith/CS537/p3b/xv6-sp20/kernel/vectors.S:1220
  106f8a:	68 f4 00 00 00       	push   $0xf4
/u/a/b/abhijith/CS537/p3b/xv6-sp20/kernel/vectors.S:1221
  106f8f:	e9 c1 ef ff ff       	jmp    105f55 <alltraps>

00106f94 <vector245>:
vector245():
/u/a/b/abhijith/CS537/p3b/xv6-sp20/kernel/vectors.S:1224
  106f94:	6a 00                	push   $0x0
/u/a/b/abhijith/CS537/p3b/xv6-sp20/kernel/vectors.S:1225
  106f96:	68 f5 00 00 00       	push   $0xf5
/u/a/b/abhijith/CS537/p3b/xv6-sp20/kernel/vectors.S:1226
  106f9b:	e9 b5 ef ff ff       	jmp    105f55 <alltraps>

00106fa0 <vector246>:
vector246():
/u/a/b/abhijith/CS537/p3b/xv6-sp20/kernel/vectors.S:1229
  106fa0:	6a 00                	push   $0x0
/u/a/b/abhijith/CS537/p3b/xv6-sp20/kernel/vectors.S:1230
  106fa2:	68 f6 00 00 00       	push   $0xf6
/u/a/b/abhijith/CS537/p3b/xv6-sp20/kernel/vectors.S:1231
  106fa7:	e9 a9 ef ff ff       	jmp    105f55 <alltraps>

00106fac <vector247>:
vector247():
/u/a/b/abhijith/CS537/p3b/xv6-sp20/kernel/vectors.S:1234
  106fac:	6a 00                	push   $0x0
/u/a/b/abhijith/CS537/p3b/xv6-sp20/kernel/vectors.S:1235
  106fae:	68 f7 00 00 00       	push   $0xf7
/u/a/b/abhijith/CS537/p3b/xv6-sp20/kernel/vectors.S:1236
  106fb3:	e9 9d ef ff ff       	jmp    105f55 <alltraps>

00106fb8 <vector248>:
vector248():
/u/a/b/abhijith/CS537/p3b/xv6-sp20/kernel/vectors.S:1239
  106fb8:	6a 00                	push   $0x0
/u/a/b/abhijith/CS537/p3b/xv6-sp20/kernel/vectors.S:1240
  106fba:	68 f8 00 00 00       	push   $0xf8
/u/a/b/abhijith/CS537/p3b/xv6-sp20/kernel/vectors.S:1241
  106fbf:	e9 91 ef ff ff       	jmp    105f55 <alltraps>

00106fc4 <vector249>:
vector249():
/u/a/b/abhijith/CS537/p3b/xv6-sp20/kernel/vectors.S:1244
  106fc4:	6a 00                	push   $0x0
/u/a/b/abhijith/CS537/p3b/xv6-sp20/kernel/vectors.S:1245
  106fc6:	68 f9 00 00 00       	push   $0xf9
/u/a/b/abhijith/CS537/p3b/xv6-sp20/kernel/vectors.S:1246
  106fcb:	e9 85 ef ff ff       	jmp    105f55 <alltraps>

00106fd0 <vector250>:
vector250():
/u/a/b/abhijith/CS537/p3b/xv6-sp20/kernel/vectors.S:1249
  106fd0:	6a 00                	push   $0x0
/u/a/b/abhijith/CS537/p3b/xv6-sp20/kernel/vectors.S:1250
  106fd2:	68 fa 00 00 00       	push   $0xfa
/u/a/b/abhijith/CS537/p3b/xv6-sp20/kernel/vectors.S:1251
  106fd7:	e9 79 ef ff ff       	jmp    105f55 <alltraps>

00106fdc <vector251>:
vector251():
/u/a/b/abhijith/CS537/p3b/xv6-sp20/kernel/vectors.S:1254
  106fdc:	6a 00                	push   $0x0
/u/a/b/abhijith/CS537/p3b/xv6-sp20/kernel/vectors.S:1255
  106fde:	68 fb 00 00 00       	push   $0xfb
/u/a/b/abhijith/CS537/p3b/xv6-sp20/kernel/vectors.S:1256
  106fe3:	e9 6d ef ff ff       	jmp    105f55 <alltraps>

00106fe8 <vector252>:
vector252():
/u/a/b/abhijith/CS537/p3b/xv6-sp20/kernel/vectors.S:1259
  106fe8:	6a 00                	push   $0x0
/u/a/b/abhijith/CS537/p3b/xv6-sp20/kernel/vectors.S:1260
  106fea:	68 fc 00 00 00       	push   $0xfc
/u/a/b/abhijith/CS537/p3b/xv6-sp20/kernel/vectors.S:1261
  106fef:	e9 61 ef ff ff       	jmp    105f55 <alltraps>

00106ff4 <vector253>:
vector253():
/u/a/b/abhijith/CS537/p3b/xv6-sp20/kernel/vectors.S:1264
  106ff4:	6a 00                	push   $0x0
/u/a/b/abhijith/CS537/p3b/xv6-sp20/kernel/vectors.S:1265
  106ff6:	68 fd 00 00 00       	push   $0xfd
/u/a/b/abhijith/CS537/p3b/xv6-sp20/kernel/vectors.S:1266
  106ffb:	e9 55 ef ff ff       	jmp    105f55 <alltraps>

00107000 <vector254>:
vector254():
/u/a/b/abhijith/CS537/p3b/xv6-sp20/kernel/vectors.S:1269
  107000:	6a 00                	push   $0x0
/u/a/b/abhijith/CS537/p3b/xv6-sp20/kernel/vectors.S:1270
  107002:	68 fe 00 00 00       	push   $0xfe
/u/a/b/abhijith/CS537/p3b/xv6-sp20/kernel/vectors.S:1271
  107007:	e9 49 ef ff ff       	jmp    105f55 <alltraps>

0010700c <vector255>:
vector255():
/u/a/b/abhijith/CS537/p3b/xv6-sp20/kernel/vectors.S:1274
  10700c:	6a 00                	push   $0x0
/u/a/b/abhijith/CS537/p3b/xv6-sp20/kernel/vectors.S:1275
  10700e:	68 ff 00 00 00       	push   $0xff
/u/a/b/abhijith/CS537/p3b/xv6-sp20/kernel/vectors.S:1276
  107013:	e9 3d ef ff ff       	jmp    105f55 <alltraps>

00107018 <lgdt>:
lgdt():
/u/a/b/abhijith/CS537/p3b/xv6-sp20/include/x86.h:57
  107018:	55                   	push   %ebp
  107019:	89 e5                	mov    %esp,%ebp
  10701b:	83 ec 10             	sub    $0x10,%esp
/u/a/b/abhijith/CS537/p3b/xv6-sp20/include/x86.h:60
  10701e:	8b 45 0c             	mov    0xc(%ebp),%eax
  107021:	83 e8 01             	sub    $0x1,%eax
  107024:	66 89 45 fa          	mov    %ax,-0x6(%ebp)
/u/a/b/abhijith/CS537/p3b/xv6-sp20/include/x86.h:61
  107028:	8b 45 08             	mov    0x8(%ebp),%eax
  10702b:	66 89 45 fc          	mov    %ax,-0x4(%ebp)
/u/a/b/abhijith/CS537/p3b/xv6-sp20/include/x86.h:62
  10702f:	8b 45 08             	mov    0x8(%ebp),%eax
  107032:	c1 e8 10             	shr    $0x10,%eax
  107035:	66 89 45 fe          	mov    %ax,-0x2(%ebp)
/u/a/b/abhijith/CS537/p3b/xv6-sp20/include/x86.h:64
  107039:	8d 45 fa             	lea    -0x6(%ebp),%eax
  10703c:	0f 01 10             	lgdtl  (%eax)
/u/a/b/abhijith/CS537/p3b/xv6-sp20/include/x86.h:65
  10703f:	90                   	nop
  107040:	c9                   	leave  
  107041:	c3                   	ret    

00107042 <ltr>:
ltr():
/u/a/b/abhijith/CS537/p3b/xv6-sp20/include/x86.h:83
  107042:	55                   	push   %ebp
  107043:	89 e5                	mov    %esp,%ebp
  107045:	83 ec 04             	sub    $0x4,%esp
  107048:	8b 45 08             	mov    0x8(%ebp),%eax
  10704b:	66 89 45 fc          	mov    %ax,-0x4(%ebp)
/u/a/b/abhijith/CS537/p3b/xv6-sp20/include/x86.h:84
  10704f:	0f b7 45 fc          	movzwl -0x4(%ebp),%eax
  107053:	0f 00 d8             	ltr    %ax
/u/a/b/abhijith/CS537/p3b/xv6-sp20/include/x86.h:85
  107056:	90                   	nop
  107057:	c9                   	leave  
  107058:	c3                   	ret    

00107059 <loadgs>:
loadgs():
/u/a/b/abhijith/CS537/p3b/xv6-sp20/include/x86.h:97
  107059:	55                   	push   %ebp
  10705a:	89 e5                	mov    %esp,%ebp
  10705c:	83 ec 04             	sub    $0x4,%esp
  10705f:	8b 45 08             	mov    0x8(%ebp),%eax
  107062:	66 89 45 fc          	mov    %ax,-0x4(%ebp)
/u/a/b/abhijith/CS537/p3b/xv6-sp20/include/x86.h:98
  107066:	0f b7 45 fc          	movzwl -0x4(%ebp),%eax
  10706a:	8e e8                	mov    %eax,%gs
/u/a/b/abhijith/CS537/p3b/xv6-sp20/include/x86.h:99
  10706c:	90                   	nop
  10706d:	c9                   	leave  
  10706e:	c3                   	ret    

0010706f <lcr0>:
lcr0():
/u/a/b/abhijith/CS537/p3b/xv6-sp20/include/x86.h:144
  10706f:	55                   	push   %ebp
  107070:	89 e5                	mov    %esp,%ebp
/u/a/b/abhijith/CS537/p3b/xv6-sp20/include/x86.h:145
  107072:	8b 45 08             	mov    0x8(%ebp),%eax
  107075:	0f 22 c0             	mov    %eax,%cr0
/u/a/b/abhijith/CS537/p3b/xv6-sp20/include/x86.h:146
  107078:	90                   	nop
  107079:	5d                   	pop    %ebp
  10707a:	c3                   	ret    

0010707b <rcr0>:
rcr0():
/u/a/b/abhijith/CS537/p3b/xv6-sp20/include/x86.h:150
  10707b:	55                   	push   %ebp
  10707c:	89 e5                	mov    %esp,%ebp
  10707e:	83 ec 10             	sub    $0x10,%esp
/u/a/b/abhijith/CS537/p3b/xv6-sp20/include/x86.h:152
  107081:	0f 20 c0             	mov    %cr0,%eax
  107084:	89 45 fc             	mov    %eax,-0x4(%ebp)
/u/a/b/abhijith/CS537/p3b/xv6-sp20/include/x86.h:153
  107087:	8b 45 fc             	mov    -0x4(%ebp),%eax
/u/a/b/abhijith/CS537/p3b/xv6-sp20/include/x86.h:154
  10708a:	c9                   	leave  
  10708b:	c3                   	ret    

0010708c <lcr3>:
lcr3():
/u/a/b/abhijith/CS537/p3b/xv6-sp20/include/x86.h:166
  10708c:	55                   	push   %ebp
  10708d:	89 e5                	mov    %esp,%ebp
/u/a/b/abhijith/CS537/p3b/xv6-sp20/include/x86.h:167
  10708f:	8b 45 08             	mov    0x8(%ebp),%eax
  107092:	0f 22 d8             	mov    %eax,%cr3
/u/a/b/abhijith/CS537/p3b/xv6-sp20/include/x86.h:168
  107095:	90                   	nop
  107096:	5d                   	pop    %ebp
  107097:	c3                   	ret    

00107098 <kvmalloc>:
kvmalloc():
/u/a/b/abhijith/CS537/p3b/xv6-sp20/kernel/vm.c:17
  107098:	55                   	push   %ebp
  107099:	89 e5                	mov    %esp,%ebp
  10709b:	83 ec 08             	sub    $0x8,%esp
/u/a/b/abhijith/CS537/p3b/xv6-sp20/kernel/vm.c:18
  10709e:	e8 99 05 00 00       	call   10763c <setupkvm>
  1070a3:	a3 1c c5 10 00       	mov    %eax,0x10c51c
/u/a/b/abhijith/CS537/p3b/xv6-sp20/kernel/vm.c:19
  1070a8:	90                   	nop
  1070a9:	c9                   	leave  
  1070aa:	c3                   	ret    

001070ab <seginit>:
seginit():
/u/a/b/abhijith/CS537/p3b/xv6-sp20/kernel/vm.c:25
  1070ab:	55                   	push   %ebp
  1070ac:	89 e5                	mov    %esp,%ebp
  1070ae:	53                   	push   %ebx
  1070af:	83 ec 14             	sub    $0x14,%esp
/u/a/b/abhijith/CS537/p3b/xv6-sp20/kernel/vm.c:32
  1070b2:	e8 4d bf ff ff       	call   103004 <cpunum>
  1070b7:	69 c0 bc 00 00 00    	imul   $0xbc,%eax,%eax
  1070bd:	05 80 07 11 00       	add    $0x110780,%eax
  1070c2:	89 45 f4             	mov    %eax,-0xc(%ebp)
/u/a/b/abhijith/CS537/p3b/xv6-sp20/kernel/vm.c:33
  1070c5:	8b 45 f4             	mov    -0xc(%ebp),%eax
  1070c8:	66 c7 40 78 ff ff    	movw   $0xffff,0x78(%eax)
  1070ce:	8b 45 f4             	mov    -0xc(%ebp),%eax
  1070d1:	66 c7 40 7a 00 00    	movw   $0x0,0x7a(%eax)
  1070d7:	8b 45 f4             	mov    -0xc(%ebp),%eax
  1070da:	c6 40 7c 00          	movb   $0x0,0x7c(%eax)
  1070de:	8b 45 f4             	mov    -0xc(%ebp),%eax
  1070e1:	0f b6 50 7d          	movzbl 0x7d(%eax),%edx
  1070e5:	83 e2 f0             	and    $0xfffffff0,%edx
  1070e8:	83 ca 0a             	or     $0xa,%edx
  1070eb:	88 50 7d             	mov    %dl,0x7d(%eax)
  1070ee:	8b 45 f4             	mov    -0xc(%ebp),%eax
  1070f1:	0f b6 50 7d          	movzbl 0x7d(%eax),%edx
  1070f5:	83 ca 10             	or     $0x10,%edx
  1070f8:	88 50 7d             	mov    %dl,0x7d(%eax)
  1070fb:	8b 45 f4             	mov    -0xc(%ebp),%eax
  1070fe:	0f b6 50 7d          	movzbl 0x7d(%eax),%edx
  107102:	83 e2 9f             	and    $0xffffff9f,%edx
  107105:	88 50 7d             	mov    %dl,0x7d(%eax)
  107108:	8b 45 f4             	mov    -0xc(%ebp),%eax
  10710b:	0f b6 50 7d          	movzbl 0x7d(%eax),%edx
  10710f:	83 ca 80             	or     $0xffffff80,%edx
  107112:	88 50 7d             	mov    %dl,0x7d(%eax)
  107115:	8b 45 f4             	mov    -0xc(%ebp),%eax
  107118:	0f b6 50 7e          	movzbl 0x7e(%eax),%edx
  10711c:	83 ca 0f             	or     $0xf,%edx
  10711f:	88 50 7e             	mov    %dl,0x7e(%eax)
  107122:	8b 45 f4             	mov    -0xc(%ebp),%eax
  107125:	0f b6 50 7e          	movzbl 0x7e(%eax),%edx
  107129:	83 e2 ef             	and    $0xffffffef,%edx
  10712c:	88 50 7e             	mov    %dl,0x7e(%eax)
  10712f:	8b 45 f4             	mov    -0xc(%ebp),%eax
  107132:	0f b6 50 7e          	movzbl 0x7e(%eax),%edx
  107136:	83 e2 df             	and    $0xffffffdf,%edx
  107139:	88 50 7e             	mov    %dl,0x7e(%eax)
  10713c:	8b 45 f4             	mov    -0xc(%ebp),%eax
  10713f:	0f b6 50 7e          	movzbl 0x7e(%eax),%edx
  107143:	83 ca 40             	or     $0x40,%edx
  107146:	88 50 7e             	mov    %dl,0x7e(%eax)
  107149:	8b 45 f4             	mov    -0xc(%ebp),%eax
  10714c:	0f b6 50 7e          	movzbl 0x7e(%eax),%edx
  107150:	83 ca 80             	or     $0xffffff80,%edx
  107153:	88 50 7e             	mov    %dl,0x7e(%eax)
  107156:	8b 45 f4             	mov    -0xc(%ebp),%eax
  107159:	c6 40 7f 00          	movb   $0x0,0x7f(%eax)
/u/a/b/abhijith/CS537/p3b/xv6-sp20/kernel/vm.c:34
  10715d:	8b 45 f4             	mov    -0xc(%ebp),%eax
  107160:	66 c7 80 80 00 00 00 	movw   $0xffff,0x80(%eax)
  107167:	ff ff 
  107169:	8b 45 f4             	mov    -0xc(%ebp),%eax
  10716c:	66 c7 80 82 00 00 00 	movw   $0x0,0x82(%eax)
  107173:	00 00 
  107175:	8b 45 f4             	mov    -0xc(%ebp),%eax
  107178:	c6 80 84 00 00 00 00 	movb   $0x0,0x84(%eax)
  10717f:	8b 45 f4             	mov    -0xc(%ebp),%eax
  107182:	0f b6 90 85 00 00 00 	movzbl 0x85(%eax),%edx
  107189:	83 e2 f0             	and    $0xfffffff0,%edx
  10718c:	83 ca 02             	or     $0x2,%edx
  10718f:	88 90 85 00 00 00    	mov    %dl,0x85(%eax)
  107195:	8b 45 f4             	mov    -0xc(%ebp),%eax
  107198:	0f b6 90 85 00 00 00 	movzbl 0x85(%eax),%edx
  10719f:	83 ca 10             	or     $0x10,%edx
  1071a2:	88 90 85 00 00 00    	mov    %dl,0x85(%eax)
  1071a8:	8b 45 f4             	mov    -0xc(%ebp),%eax
  1071ab:	0f b6 90 85 00 00 00 	movzbl 0x85(%eax),%edx
  1071b2:	83 e2 9f             	and    $0xffffff9f,%edx
  1071b5:	88 90 85 00 00 00    	mov    %dl,0x85(%eax)
  1071bb:	8b 45 f4             	mov    -0xc(%ebp),%eax
  1071be:	0f b6 90 85 00 00 00 	movzbl 0x85(%eax),%edx
  1071c5:	83 ca 80             	or     $0xffffff80,%edx
  1071c8:	88 90 85 00 00 00    	mov    %dl,0x85(%eax)
  1071ce:	8b 45 f4             	mov    -0xc(%ebp),%eax
  1071d1:	0f b6 90 86 00 00 00 	movzbl 0x86(%eax),%edx
  1071d8:	83 ca 0f             	or     $0xf,%edx
  1071db:	88 90 86 00 00 00    	mov    %dl,0x86(%eax)
  1071e1:	8b 45 f4             	mov    -0xc(%ebp),%eax
  1071e4:	0f b6 90 86 00 00 00 	movzbl 0x86(%eax),%edx
  1071eb:	83 e2 ef             	and    $0xffffffef,%edx
  1071ee:	88 90 86 00 00 00    	mov    %dl,0x86(%eax)
  1071f4:	8b 45 f4             	mov    -0xc(%ebp),%eax
  1071f7:	0f b6 90 86 00 00 00 	movzbl 0x86(%eax),%edx
  1071fe:	83 e2 df             	and    $0xffffffdf,%edx
  107201:	88 90 86 00 00 00    	mov    %dl,0x86(%eax)
  107207:	8b 45 f4             	mov    -0xc(%ebp),%eax
  10720a:	0f b6 90 86 00 00 00 	movzbl 0x86(%eax),%edx
  107211:	83 ca 40             	or     $0x40,%edx
  107214:	88 90 86 00 00 00    	mov    %dl,0x86(%eax)
  10721a:	8b 45 f4             	mov    -0xc(%ebp),%eax
  10721d:	0f b6 90 86 00 00 00 	movzbl 0x86(%eax),%edx
  107224:	83 ca 80             	or     $0xffffff80,%edx
  107227:	88 90 86 00 00 00    	mov    %dl,0x86(%eax)
  10722d:	8b 45 f4             	mov    -0xc(%ebp),%eax
  107230:	c6 80 87 00 00 00 00 	movb   $0x0,0x87(%eax)
/u/a/b/abhijith/CS537/p3b/xv6-sp20/kernel/vm.c:35
  107237:	8b 45 f4             	mov    -0xc(%ebp),%eax
  10723a:	66 c7 80 90 00 00 00 	movw   $0xffff,0x90(%eax)
  107241:	ff ff 
  107243:	8b 45 f4             	mov    -0xc(%ebp),%eax
  107246:	66 c7 80 92 00 00 00 	movw   $0x0,0x92(%eax)
  10724d:	00 00 
  10724f:	8b 45 f4             	mov    -0xc(%ebp),%eax
  107252:	c6 80 94 00 00 00 00 	movb   $0x0,0x94(%eax)
  107259:	8b 45 f4             	mov    -0xc(%ebp),%eax
  10725c:	0f b6 90 95 00 00 00 	movzbl 0x95(%eax),%edx
  107263:	83 e2 f0             	and    $0xfffffff0,%edx
  107266:	83 ca 0a             	or     $0xa,%edx
  107269:	88 90 95 00 00 00    	mov    %dl,0x95(%eax)
  10726f:	8b 45 f4             	mov    -0xc(%ebp),%eax
  107272:	0f b6 90 95 00 00 00 	movzbl 0x95(%eax),%edx
  107279:	83 ca 10             	or     $0x10,%edx
  10727c:	88 90 95 00 00 00    	mov    %dl,0x95(%eax)
  107282:	8b 45 f4             	mov    -0xc(%ebp),%eax
  107285:	0f b6 90 95 00 00 00 	movzbl 0x95(%eax),%edx
  10728c:	83 ca 60             	or     $0x60,%edx
  10728f:	88 90 95 00 00 00    	mov    %dl,0x95(%eax)
  107295:	8b 45 f4             	mov    -0xc(%ebp),%eax
  107298:	0f b6 90 95 00 00 00 	movzbl 0x95(%eax),%edx
  10729f:	83 ca 80             	or     $0xffffff80,%edx
  1072a2:	88 90 95 00 00 00    	mov    %dl,0x95(%eax)
  1072a8:	8b 45 f4             	mov    -0xc(%ebp),%eax
  1072ab:	0f b6 90 96 00 00 00 	movzbl 0x96(%eax),%edx
  1072b2:	83 ca 0f             	or     $0xf,%edx
  1072b5:	88 90 96 00 00 00    	mov    %dl,0x96(%eax)
  1072bb:	8b 45 f4             	mov    -0xc(%ebp),%eax
  1072be:	0f b6 90 96 00 00 00 	movzbl 0x96(%eax),%edx
  1072c5:	83 e2 ef             	and    $0xffffffef,%edx
  1072c8:	88 90 96 00 00 00    	mov    %dl,0x96(%eax)
  1072ce:	8b 45 f4             	mov    -0xc(%ebp),%eax
  1072d1:	0f b6 90 96 00 00 00 	movzbl 0x96(%eax),%edx
  1072d8:	83 e2 df             	and    $0xffffffdf,%edx
  1072db:	88 90 96 00 00 00    	mov    %dl,0x96(%eax)
  1072e1:	8b 45 f4             	mov    -0xc(%ebp),%eax
  1072e4:	0f b6 90 96 00 00 00 	movzbl 0x96(%eax),%edx
  1072eb:	83 ca 40             	or     $0x40,%edx
  1072ee:	88 90 96 00 00 00    	mov    %dl,0x96(%eax)
  1072f4:	8b 45 f4             	mov    -0xc(%ebp),%eax
  1072f7:	0f b6 90 96 00 00 00 	movzbl 0x96(%eax),%edx
  1072fe:	83 ca 80             	or     $0xffffff80,%edx
  107301:	88 90 96 00 00 00    	mov    %dl,0x96(%eax)
  107307:	8b 45 f4             	mov    -0xc(%ebp),%eax
  10730a:	c6 80 97 00 00 00 00 	movb   $0x0,0x97(%eax)
/u/a/b/abhijith/CS537/p3b/xv6-sp20/kernel/vm.c:36
  107311:	8b 45 f4             	mov    -0xc(%ebp),%eax
  107314:	66 c7 80 98 00 00 00 	movw   $0xffff,0x98(%eax)
  10731b:	ff ff 
  10731d:	8b 45 f4             	mov    -0xc(%ebp),%eax
  107320:	66 c7 80 9a 00 00 00 	movw   $0x0,0x9a(%eax)
  107327:	00 00 
  107329:	8b 45 f4             	mov    -0xc(%ebp),%eax
  10732c:	c6 80 9c 00 00 00 00 	movb   $0x0,0x9c(%eax)
  107333:	8b 45 f4             	mov    -0xc(%ebp),%eax
  107336:	0f b6 90 9d 00 00 00 	movzbl 0x9d(%eax),%edx
  10733d:	83 e2 f0             	and    $0xfffffff0,%edx
  107340:	83 ca 02             	or     $0x2,%edx
  107343:	88 90 9d 00 00 00    	mov    %dl,0x9d(%eax)
  107349:	8b 45 f4             	mov    -0xc(%ebp),%eax
  10734c:	0f b6 90 9d 00 00 00 	movzbl 0x9d(%eax),%edx
  107353:	83 ca 10             	or     $0x10,%edx
  107356:	88 90 9d 00 00 00    	mov    %dl,0x9d(%eax)
  10735c:	8b 45 f4             	mov    -0xc(%ebp),%eax
  10735f:	0f b6 90 9d 00 00 00 	movzbl 0x9d(%eax),%edx
  107366:	83 ca 60             	or     $0x60,%edx
  107369:	88 90 9d 00 00 00    	mov    %dl,0x9d(%eax)
  10736f:	8b 45 f4             	mov    -0xc(%ebp),%eax
  107372:	0f b6 90 9d 00 00 00 	movzbl 0x9d(%eax),%edx
  107379:	83 ca 80             	or     $0xffffff80,%edx
  10737c:	88 90 9d 00 00 00    	mov    %dl,0x9d(%eax)
  107382:	8b 45 f4             	mov    -0xc(%ebp),%eax
  107385:	0f b6 90 9e 00 00 00 	movzbl 0x9e(%eax),%edx
  10738c:	83 ca 0f             	or     $0xf,%edx
  10738f:	88 90 9e 00 00 00    	mov    %dl,0x9e(%eax)
  107395:	8b 45 f4             	mov    -0xc(%ebp),%eax
  107398:	0f b6 90 9e 00 00 00 	movzbl 0x9e(%eax),%edx
  10739f:	83 e2 ef             	and    $0xffffffef,%edx
  1073a2:	88 90 9e 00 00 00    	mov    %dl,0x9e(%eax)
  1073a8:	8b 45 f4             	mov    -0xc(%ebp),%eax
  1073ab:	0f b6 90 9e 00 00 00 	movzbl 0x9e(%eax),%edx
  1073b2:	83 e2 df             	and    $0xffffffdf,%edx
  1073b5:	88 90 9e 00 00 00    	mov    %dl,0x9e(%eax)
  1073bb:	8b 45 f4             	mov    -0xc(%ebp),%eax
  1073be:	0f b6 90 9e 00 00 00 	movzbl 0x9e(%eax),%edx
  1073c5:	83 ca 40             	or     $0x40,%edx
  1073c8:	88 90 9e 00 00 00    	mov    %dl,0x9e(%eax)
  1073ce:	8b 45 f4             	mov    -0xc(%ebp),%eax
  1073d1:	0f b6 90 9e 00 00 00 	movzbl 0x9e(%eax),%edx
  1073d8:	83 ca 80             	or     $0xffffff80,%edx
  1073db:	88 90 9e 00 00 00    	mov    %dl,0x9e(%eax)
  1073e1:	8b 45 f4             	mov    -0xc(%ebp),%eax
  1073e4:	c6 80 9f 00 00 00 00 	movb   $0x0,0x9f(%eax)
/u/a/b/abhijith/CS537/p3b/xv6-sp20/kernel/vm.c:39
  1073eb:	8b 45 f4             	mov    -0xc(%ebp),%eax
  1073ee:	05 b4 00 00 00       	add    $0xb4,%eax
  1073f3:	89 c3                	mov    %eax,%ebx
  1073f5:	8b 45 f4             	mov    -0xc(%ebp),%eax
  1073f8:	05 b4 00 00 00       	add    $0xb4,%eax
  1073fd:	c1 e8 10             	shr    $0x10,%eax
  107400:	89 c2                	mov    %eax,%edx
  107402:	8b 45 f4             	mov    -0xc(%ebp),%eax
  107405:	05 b4 00 00 00       	add    $0xb4,%eax
  10740a:	c1 e8 18             	shr    $0x18,%eax
  10740d:	89 c1                	mov    %eax,%ecx
  10740f:	8b 45 f4             	mov    -0xc(%ebp),%eax
  107412:	66 c7 80 88 00 00 00 	movw   $0x0,0x88(%eax)
  107419:	00 00 
  10741b:	8b 45 f4             	mov    -0xc(%ebp),%eax
  10741e:	66 89 98 8a 00 00 00 	mov    %bx,0x8a(%eax)
  107425:	8b 45 f4             	mov    -0xc(%ebp),%eax
  107428:	88 90 8c 00 00 00    	mov    %dl,0x8c(%eax)
  10742e:	8b 45 f4             	mov    -0xc(%ebp),%eax
  107431:	0f b6 90 8d 00 00 00 	movzbl 0x8d(%eax),%edx
  107438:	83 e2 f0             	and    $0xfffffff0,%edx
  10743b:	83 ca 02             	or     $0x2,%edx
  10743e:	88 90 8d 00 00 00    	mov    %dl,0x8d(%eax)
  107444:	8b 45 f4             	mov    -0xc(%ebp),%eax
  107447:	0f b6 90 8d 00 00 00 	movzbl 0x8d(%eax),%edx
  10744e:	83 ca 10             	or     $0x10,%edx
  107451:	88 90 8d 00 00 00    	mov    %dl,0x8d(%eax)
  107457:	8b 45 f4             	mov    -0xc(%ebp),%eax
  10745a:	0f b6 90 8d 00 00 00 	movzbl 0x8d(%eax),%edx
  107461:	83 e2 9f             	and    $0xffffff9f,%edx
  107464:	88 90 8d 00 00 00    	mov    %dl,0x8d(%eax)
  10746a:	8b 45 f4             	mov    -0xc(%ebp),%eax
  10746d:	0f b6 90 8d 00 00 00 	movzbl 0x8d(%eax),%edx
  107474:	83 ca 80             	or     $0xffffff80,%edx
  107477:	88 90 8d 00 00 00    	mov    %dl,0x8d(%eax)
  10747d:	8b 45 f4             	mov    -0xc(%ebp),%eax
  107480:	0f b6 90 8e 00 00 00 	movzbl 0x8e(%eax),%edx
  107487:	83 e2 f0             	and    $0xfffffff0,%edx
  10748a:	88 90 8e 00 00 00    	mov    %dl,0x8e(%eax)
  107490:	8b 45 f4             	mov    -0xc(%ebp),%eax
  107493:	0f b6 90 8e 00 00 00 	movzbl 0x8e(%eax),%edx
  10749a:	83 e2 ef             	and    $0xffffffef,%edx
  10749d:	88 90 8e 00 00 00    	mov    %dl,0x8e(%eax)
  1074a3:	8b 45 f4             	mov    -0xc(%ebp),%eax
  1074a6:	0f b6 90 8e 00 00 00 	movzbl 0x8e(%eax),%edx
  1074ad:	83 e2 df             	and    $0xffffffdf,%edx
  1074b0:	88 90 8e 00 00 00    	mov    %dl,0x8e(%eax)
  1074b6:	8b 45 f4             	mov    -0xc(%ebp),%eax
  1074b9:	0f b6 90 8e 00 00 00 	movzbl 0x8e(%eax),%edx
  1074c0:	83 ca 40             	or     $0x40,%edx
  1074c3:	88 90 8e 00 00 00    	mov    %dl,0x8e(%eax)
  1074c9:	8b 45 f4             	mov    -0xc(%ebp),%eax
  1074cc:	0f b6 90 8e 00 00 00 	movzbl 0x8e(%eax),%edx
  1074d3:	83 ca 80             	or     $0xffffff80,%edx
  1074d6:	88 90 8e 00 00 00    	mov    %dl,0x8e(%eax)
  1074dc:	8b 45 f4             	mov    -0xc(%ebp),%eax
  1074df:	88 88 8f 00 00 00    	mov    %cl,0x8f(%eax)
/u/a/b/abhijith/CS537/p3b/xv6-sp20/kernel/vm.c:41
  1074e5:	8b 45 f4             	mov    -0xc(%ebp),%eax
  1074e8:	83 c0 70             	add    $0x70,%eax
  1074eb:	83 ec 08             	sub    $0x8,%esp
  1074ee:	6a 38                	push   $0x38
  1074f0:	50                   	push   %eax
  1074f1:	e8 22 fb ff ff       	call   107018 <lgdt>
  1074f6:	83 c4 10             	add    $0x10,%esp
/u/a/b/abhijith/CS537/p3b/xv6-sp20/kernel/vm.c:42
  1074f9:	83 ec 0c             	sub    $0xc,%esp
  1074fc:	6a 18                	push   $0x18
  1074fe:	e8 56 fb ff ff       	call   107059 <loadgs>
  107503:	83 c4 10             	add    $0x10,%esp
/u/a/b/abhijith/CS537/p3b/xv6-sp20/kernel/vm.c:45
  107506:	8b 45 f4             	mov    -0xc(%ebp),%eax
  107509:	65 a3 00 00 00 00    	mov    %eax,%gs:0x0
/u/a/b/abhijith/CS537/p3b/xv6-sp20/kernel/vm.c:46
  10750f:	65 c7 05 04 00 00 00 	movl   $0x0,%gs:0x4
  107516:	00 00 00 00 
/u/a/b/abhijith/CS537/p3b/xv6-sp20/kernel/vm.c:47
  10751a:	90                   	nop
  10751b:	8b 5d fc             	mov    -0x4(%ebp),%ebx
  10751e:	c9                   	leave  
  10751f:	c3                   	ret    

00107520 <walkpgdir>:
walkpgdir():
/u/a/b/abhijith/CS537/p3b/xv6-sp20/kernel/vm.c:54
  107520:	55                   	push   %ebp
  107521:	89 e5                	mov    %esp,%ebp
  107523:	83 ec 18             	sub    $0x18,%esp
/u/a/b/abhijith/CS537/p3b/xv6-sp20/kernel/vm.c:58
  107526:	8b 45 0c             	mov    0xc(%ebp),%eax
  107529:	c1 e8 16             	shr    $0x16,%eax
  10752c:	8d 14 85 00 00 00 00 	lea    0x0(,%eax,4),%edx
  107533:	8b 45 08             	mov    0x8(%ebp),%eax
  107536:	01 d0                	add    %edx,%eax
  107538:	89 45 f0             	mov    %eax,-0x10(%ebp)
/u/a/b/abhijith/CS537/p3b/xv6-sp20/kernel/vm.c:60
  10753b:	8b 45 f0             	mov    -0x10(%ebp),%eax
  10753e:	8b 00                	mov    (%eax),%eax
  107540:	83 e0 01             	and    $0x1,%eax
  107543:	85 c0                	test   %eax,%eax
  107545:	74 0f                	je     107556 <walkpgdir+0x36>
/u/a/b/abhijith/CS537/p3b/xv6-sp20/kernel/vm.c:61
  107547:	8b 45 f0             	mov    -0x10(%ebp),%eax
  10754a:	8b 00                	mov    (%eax),%eax
  10754c:	25 00 f0 ff ff       	and    $0xfffff000,%eax
  107551:	89 45 f4             	mov    %eax,-0xc(%ebp)
  107554:	eb 3d                	jmp    107593 <walkpgdir+0x73>
/u/a/b/abhijith/CS537/p3b/xv6-sp20/kernel/vm.c:63
  107556:	83 7d 10 00          	cmpl   $0x0,0x10(%ebp)
  10755a:	74 0e                	je     10756a <walkpgdir+0x4a>
/u/a/b/abhijith/CS537/p3b/xv6-sp20/kernel/vm.c:63 (discriminator 1)
  10755c:	e8 6a b6 ff ff       	call   102bcb <kalloc>
  107561:	89 45 f4             	mov    %eax,-0xc(%ebp)
  107564:	83 7d f4 00          	cmpl   $0x0,-0xc(%ebp)
  107568:	75 07                	jne    107571 <walkpgdir+0x51>
/u/a/b/abhijith/CS537/p3b/xv6-sp20/kernel/vm.c:64
  10756a:	b8 00 00 00 00       	mov    $0x0,%eax
  10756f:	eb 39                	jmp    1075aa <walkpgdir+0x8a>
/u/a/b/abhijith/CS537/p3b/xv6-sp20/kernel/vm.c:66
  107571:	83 ec 04             	sub    $0x4,%esp
  107574:	68 00 10 00 00       	push   $0x1000
  107579:	6a 00                	push   $0x0
  10757b:	ff 75 f4             	pushl  -0xc(%ebp)
  10757e:	e8 7f d5 ff ff       	call   104b02 <memset>
  107583:	83 c4 10             	add    $0x10,%esp
/u/a/b/abhijith/CS537/p3b/xv6-sp20/kernel/vm.c:71
  107586:	8b 45 f4             	mov    -0xc(%ebp),%eax
  107589:	83 c8 07             	or     $0x7,%eax
  10758c:	89 c2                	mov    %eax,%edx
  10758e:	8b 45 f0             	mov    -0x10(%ebp),%eax
  107591:	89 10                	mov    %edx,(%eax)
/u/a/b/abhijith/CS537/p3b/xv6-sp20/kernel/vm.c:74
  107593:	8b 45 0c             	mov    0xc(%ebp),%eax
  107596:	c1 e8 0c             	shr    $0xc,%eax
  107599:	25 ff 03 00 00       	and    $0x3ff,%eax
  10759e:	8d 14 85 00 00 00 00 	lea    0x0(,%eax,4),%edx
  1075a5:	8b 45 f4             	mov    -0xc(%ebp),%eax
  1075a8:	01 d0                	add    %edx,%eax
/u/a/b/abhijith/CS537/p3b/xv6-sp20/kernel/vm.c:75
  1075aa:	c9                   	leave  
  1075ab:	c3                   	ret    

001075ac <mappages>:
mappages():
/u/a/b/abhijith/CS537/p3b/xv6-sp20/kernel/vm.c:82
  1075ac:	55                   	push   %ebp
  1075ad:	89 e5                	mov    %esp,%ebp
  1075af:	83 ec 18             	sub    $0x18,%esp
/u/a/b/abhijith/CS537/p3b/xv6-sp20/kernel/vm.c:86
  1075b2:	8b 45 0c             	mov    0xc(%ebp),%eax
  1075b5:	25 00 f0 ff ff       	and    $0xfffff000,%eax
  1075ba:	89 45 f4             	mov    %eax,-0xc(%ebp)
/u/a/b/abhijith/CS537/p3b/xv6-sp20/kernel/vm.c:87
  1075bd:	8b 45 10             	mov    0x10(%ebp),%eax
  1075c0:	8d 50 ff             	lea    -0x1(%eax),%edx
  1075c3:	8b 45 0c             	mov    0xc(%ebp),%eax
  1075c6:	01 d0                	add    %edx,%eax
  1075c8:	25 00 f0 ff ff       	and    $0xfffff000,%eax
  1075cd:	89 45 f0             	mov    %eax,-0x10(%ebp)
/u/a/b/abhijith/CS537/p3b/xv6-sp20/kernel/vm.c:89
  1075d0:	83 ec 04             	sub    $0x4,%esp
  1075d3:	6a 01                	push   $0x1
  1075d5:	ff 75 f4             	pushl  -0xc(%ebp)
  1075d8:	ff 75 08             	pushl  0x8(%ebp)
  1075db:	e8 40 ff ff ff       	call   107520 <walkpgdir>
  1075e0:	83 c4 10             	add    $0x10,%esp
  1075e3:	89 45 ec             	mov    %eax,-0x14(%ebp)
/u/a/b/abhijith/CS537/p3b/xv6-sp20/kernel/vm.c:90
  1075e6:	83 7d ec 00          	cmpl   $0x0,-0x14(%ebp)
  1075ea:	75 07                	jne    1075f3 <mappages+0x47>
/u/a/b/abhijith/CS537/p3b/xv6-sp20/kernel/vm.c:91
  1075ec:	b8 ff ff ff ff       	mov    $0xffffffff,%eax
  1075f1:	eb 47                	jmp    10763a <mappages+0x8e>
/u/a/b/abhijith/CS537/p3b/xv6-sp20/kernel/vm.c:92
  1075f3:	8b 45 ec             	mov    -0x14(%ebp),%eax
  1075f6:	8b 00                	mov    (%eax),%eax
  1075f8:	83 e0 01             	and    $0x1,%eax
  1075fb:	85 c0                	test   %eax,%eax
  1075fd:	74 0d                	je     10760c <mappages+0x60>
/u/a/b/abhijith/CS537/p3b/xv6-sp20/kernel/vm.c:93
  1075ff:	83 ec 0c             	sub    $0xc,%esp
  107602:	68 50 84 10 00       	push   $0x108450
  107607:	e8 6c 8f ff ff       	call   100578 <panic>
/u/a/b/abhijith/CS537/p3b/xv6-sp20/kernel/vm.c:94
  10760c:	8b 45 18             	mov    0x18(%ebp),%eax
  10760f:	0b 45 14             	or     0x14(%ebp),%eax
  107612:	83 c8 01             	or     $0x1,%eax
  107615:	89 c2                	mov    %eax,%edx
  107617:	8b 45 ec             	mov    -0x14(%ebp),%eax
  10761a:	89 10                	mov    %edx,(%eax)
/u/a/b/abhijith/CS537/p3b/xv6-sp20/kernel/vm.c:95
  10761c:	8b 45 f4             	mov    -0xc(%ebp),%eax
  10761f:	3b 45 f0             	cmp    -0x10(%ebp),%eax
  107622:	74 10                	je     107634 <mappages+0x88>
/u/a/b/abhijith/CS537/p3b/xv6-sp20/kernel/vm.c:97
  107624:	81 45 f4 00 10 00 00 	addl   $0x1000,-0xc(%ebp)
/u/a/b/abhijith/CS537/p3b/xv6-sp20/kernel/vm.c:98
  10762b:	81 45 14 00 10 00 00 	addl   $0x1000,0x14(%ebp)
/u/a/b/abhijith/CS537/p3b/xv6-sp20/kernel/vm.c:89
  107632:	eb 9c                	jmp    1075d0 <mappages+0x24>
/u/a/b/abhijith/CS537/p3b/xv6-sp20/kernel/vm.c:96
  107634:	90                   	nop
/u/a/b/abhijith/CS537/p3b/xv6-sp20/kernel/vm.c:100
  107635:	b8 00 00 00 00       	mov    $0x0,%eax
/u/a/b/abhijith/CS537/p3b/xv6-sp20/kernel/vm.c:101
  10763a:	c9                   	leave  
  10763b:	c3                   	ret    

0010763c <setupkvm>:
setupkvm():
/u/a/b/abhijith/CS537/p3b/xv6-sp20/kernel/vm.c:139
  10763c:	55                   	push   %ebp
  10763d:	89 e5                	mov    %esp,%ebp
  10763f:	53                   	push   %ebx
  107640:	83 ec 14             	sub    $0x14,%esp
/u/a/b/abhijith/CS537/p3b/xv6-sp20/kernel/vm.c:143
  107643:	e8 83 b5 ff ff       	call   102bcb <kalloc>
  107648:	89 45 f0             	mov    %eax,-0x10(%ebp)
  10764b:	83 7d f0 00          	cmpl   $0x0,-0x10(%ebp)
  10764f:	75 07                	jne    107658 <setupkvm+0x1c>
/u/a/b/abhijith/CS537/p3b/xv6-sp20/kernel/vm.c:144
  107651:	b8 00 00 00 00       	mov    $0x0,%eax
  107656:	eb 77                	jmp    1076cf <setupkvm+0x93>
/u/a/b/abhijith/CS537/p3b/xv6-sp20/kernel/vm.c:145
  107658:	83 ec 04             	sub    $0x4,%esp
  10765b:	68 00 10 00 00       	push   $0x1000
  107660:	6a 00                	push   $0x0
  107662:	ff 75 f0             	pushl  -0x10(%ebp)
  107665:	e8 98 d4 ff ff       	call   104b02 <memset>
  10766a:	83 c4 10             	add    $0x10,%esp
/u/a/b/abhijith/CS537/p3b/xv6-sp20/kernel/vm.c:146
  10766d:	c7 45 f4 e0 b9 10 00 	movl   $0x10b9e0,-0xc(%ebp)
/u/a/b/abhijith/CS537/p3b/xv6-sp20/kernel/vm.c:147
  107674:	c7 45 f4 e0 b9 10 00 	movl   $0x10b9e0,-0xc(%ebp)
  10767b:	eb 46                	jmp    1076c3 <setupkvm+0x87>
/u/a/b/abhijith/CS537/p3b/xv6-sp20/kernel/vm.c:149
  10767d:	8b 45 f4             	mov    -0xc(%ebp),%eax
  107680:	8b 50 08             	mov    0x8(%eax),%edx
  107683:	8b 45 f4             	mov    -0xc(%ebp),%eax
  107686:	8b 00                	mov    (%eax),%eax
  107688:	89 c3                	mov    %eax,%ebx
  10768a:	8b 45 f4             	mov    -0xc(%ebp),%eax
  10768d:	8b 40 04             	mov    0x4(%eax),%eax
  107690:	89 c1                	mov    %eax,%ecx
  107692:	8b 45 f4             	mov    -0xc(%ebp),%eax
  107695:	8b 00                	mov    (%eax),%eax
  107697:	29 c1                	sub    %eax,%ecx
  107699:	89 c8                	mov    %ecx,%eax
  10769b:	89 c1                	mov    %eax,%ecx
  10769d:	8b 45 f4             	mov    -0xc(%ebp),%eax
  1076a0:	8b 00                	mov    (%eax),%eax
  1076a2:	83 ec 0c             	sub    $0xc,%esp
  1076a5:	52                   	push   %edx
  1076a6:	53                   	push   %ebx
  1076a7:	51                   	push   %ecx
  1076a8:	50                   	push   %eax
  1076a9:	ff 75 f0             	pushl  -0x10(%ebp)
  1076ac:	e8 fb fe ff ff       	call   1075ac <mappages>
  1076b1:	83 c4 20             	add    $0x20,%esp
  1076b4:	85 c0                	test   %eax,%eax
  1076b6:	79 07                	jns    1076bf <setupkvm+0x83>
/u/a/b/abhijith/CS537/p3b/xv6-sp20/kernel/vm.c:150
  1076b8:	b8 00 00 00 00       	mov    $0x0,%eax
  1076bd:	eb 10                	jmp    1076cf <setupkvm+0x93>
/u/a/b/abhijith/CS537/p3b/xv6-sp20/kernel/vm.c:147 (discriminator 2)
  1076bf:	83 45 f4 0c          	addl   $0xc,-0xc(%ebp)
/u/a/b/abhijith/CS537/p3b/xv6-sp20/kernel/vm.c:147 (discriminator 1)
  1076c3:	81 7d f4 10 ba 10 00 	cmpl   $0x10ba10,-0xc(%ebp)
  1076ca:	72 b1                	jb     10767d <setupkvm+0x41>
/u/a/b/abhijith/CS537/p3b/xv6-sp20/kernel/vm.c:152
  1076cc:	8b 45 f0             	mov    -0x10(%ebp),%eax
/u/a/b/abhijith/CS537/p3b/xv6-sp20/kernel/vm.c:153
  1076cf:	8b 5d fc             	mov    -0x4(%ebp),%ebx
  1076d2:	c9                   	leave  
  1076d3:	c3                   	ret    

001076d4 <vmenable>:
vmenable():
/u/a/b/abhijith/CS537/p3b/xv6-sp20/kernel/vm.c:158
  1076d4:	55                   	push   %ebp
  1076d5:	89 e5                	mov    %esp,%ebp
  1076d7:	83 ec 18             	sub    $0x18,%esp
/u/a/b/abhijith/CS537/p3b/xv6-sp20/kernel/vm.c:161
  1076da:	e8 20 00 00 00       	call   1076ff <switchkvm>
/u/a/b/abhijith/CS537/p3b/xv6-sp20/kernel/vm.c:162
  1076df:	e8 97 f9 ff ff       	call   10707b <rcr0>
  1076e4:	89 45 f4             	mov    %eax,-0xc(%ebp)
/u/a/b/abhijith/CS537/p3b/xv6-sp20/kernel/vm.c:163
  1076e7:	81 4d f4 00 00 00 80 	orl    $0x80000000,-0xc(%ebp)
/u/a/b/abhijith/CS537/p3b/xv6-sp20/kernel/vm.c:164
  1076ee:	83 ec 0c             	sub    $0xc,%esp
  1076f1:	ff 75 f4             	pushl  -0xc(%ebp)
  1076f4:	e8 76 f9 ff ff       	call   10706f <lcr0>
  1076f9:	83 c4 10             	add    $0x10,%esp
/u/a/b/abhijith/CS537/p3b/xv6-sp20/kernel/vm.c:165
  1076fc:	90                   	nop
  1076fd:	c9                   	leave  
  1076fe:	c3                   	ret    

001076ff <switchkvm>:
switchkvm():
/u/a/b/abhijith/CS537/p3b/xv6-sp20/kernel/vm.c:171
  1076ff:	55                   	push   %ebp
  107700:	89 e5                	mov    %esp,%ebp
/u/a/b/abhijith/CS537/p3b/xv6-sp20/kernel/vm.c:172
  107702:	a1 1c c5 10 00       	mov    0x10c51c,%eax
  107707:	50                   	push   %eax
  107708:	e8 7f f9 ff ff       	call   10708c <lcr3>
  10770d:	83 c4 04             	add    $0x4,%esp
/u/a/b/abhijith/CS537/p3b/xv6-sp20/kernel/vm.c:173
  107710:	90                   	nop
  107711:	c9                   	leave  
  107712:	c3                   	ret    

00107713 <switchuvm>:
switchuvm():
/u/a/b/abhijith/CS537/p3b/xv6-sp20/kernel/vm.c:178
  107713:	55                   	push   %ebp
  107714:	89 e5                	mov    %esp,%ebp
  107716:	56                   	push   %esi
  107717:	53                   	push   %ebx
/u/a/b/abhijith/CS537/p3b/xv6-sp20/kernel/vm.c:179
  107718:	e8 05 d3 ff ff       	call   104a22 <pushcli>
/u/a/b/abhijith/CS537/p3b/xv6-sp20/kernel/vm.c:180
  10771d:	65 a1 00 00 00 00    	mov    %gs:0x0,%eax
  107723:	65 8b 15 00 00 00 00 	mov    %gs:0x0,%edx
  10772a:	83 c2 08             	add    $0x8,%edx
  10772d:	89 d6                	mov    %edx,%esi
  10772f:	65 8b 15 00 00 00 00 	mov    %gs:0x0,%edx
  107736:	83 c2 08             	add    $0x8,%edx
  107739:	c1 ea 10             	shr    $0x10,%edx
  10773c:	89 d3                	mov    %edx,%ebx
  10773e:	65 8b 15 00 00 00 00 	mov    %gs:0x0,%edx
  107745:	83 c2 08             	add    $0x8,%edx
  107748:	c1 ea 18             	shr    $0x18,%edx
  10774b:	89 d1                	mov    %edx,%ecx
  10774d:	66 c7 80 a0 00 00 00 	movw   $0x67,0xa0(%eax)
  107754:	67 00 
  107756:	66 89 b0 a2 00 00 00 	mov    %si,0xa2(%eax)
  10775d:	88 98 a4 00 00 00    	mov    %bl,0xa4(%eax)
  107763:	0f b6 90 a5 00 00 00 	movzbl 0xa5(%eax),%edx
  10776a:	83 e2 f0             	and    $0xfffffff0,%edx
  10776d:	83 ca 09             	or     $0x9,%edx
  107770:	88 90 a5 00 00 00    	mov    %dl,0xa5(%eax)
  107776:	0f b6 90 a5 00 00 00 	movzbl 0xa5(%eax),%edx
  10777d:	83 ca 10             	or     $0x10,%edx
  107780:	88 90 a5 00 00 00    	mov    %dl,0xa5(%eax)
  107786:	0f b6 90 a5 00 00 00 	movzbl 0xa5(%eax),%edx
  10778d:	83 e2 9f             	and    $0xffffff9f,%edx
  107790:	88 90 a5 00 00 00    	mov    %dl,0xa5(%eax)
  107796:	0f b6 90 a5 00 00 00 	movzbl 0xa5(%eax),%edx
  10779d:	83 ca 80             	or     $0xffffff80,%edx
  1077a0:	88 90 a5 00 00 00    	mov    %dl,0xa5(%eax)
  1077a6:	0f b6 90 a6 00 00 00 	movzbl 0xa6(%eax),%edx
  1077ad:	83 e2 f0             	and    $0xfffffff0,%edx
  1077b0:	88 90 a6 00 00 00    	mov    %dl,0xa6(%eax)
  1077b6:	0f b6 90 a6 00 00 00 	movzbl 0xa6(%eax),%edx
  1077bd:	83 e2 ef             	and    $0xffffffef,%edx
  1077c0:	88 90 a6 00 00 00    	mov    %dl,0xa6(%eax)
  1077c6:	0f b6 90 a6 00 00 00 	movzbl 0xa6(%eax),%edx
  1077cd:	83 e2 df             	and    $0xffffffdf,%edx
  1077d0:	88 90 a6 00 00 00    	mov    %dl,0xa6(%eax)
  1077d6:	0f b6 90 a6 00 00 00 	movzbl 0xa6(%eax),%edx
  1077dd:	83 ca 40             	or     $0x40,%edx
  1077e0:	88 90 a6 00 00 00    	mov    %dl,0xa6(%eax)
  1077e6:	0f b6 90 a6 00 00 00 	movzbl 0xa6(%eax),%edx
  1077ed:	83 e2 7f             	and    $0x7f,%edx
  1077f0:	88 90 a6 00 00 00    	mov    %dl,0xa6(%eax)
  1077f6:	88 88 a7 00 00 00    	mov    %cl,0xa7(%eax)
/u/a/b/abhijith/CS537/p3b/xv6-sp20/kernel/vm.c:181
  1077fc:	65 a1 00 00 00 00    	mov    %gs:0x0,%eax
  107802:	0f b6 90 a5 00 00 00 	movzbl 0xa5(%eax),%edx
  107809:	83 e2 ef             	and    $0xffffffef,%edx
  10780c:	88 90 a5 00 00 00    	mov    %dl,0xa5(%eax)
/u/a/b/abhijith/CS537/p3b/xv6-sp20/kernel/vm.c:182
  107812:	65 a1 00 00 00 00    	mov    %gs:0x0,%eax
  107818:	66 c7 40 10 10 00    	movw   $0x10,0x10(%eax)
/u/a/b/abhijith/CS537/p3b/xv6-sp20/kernel/vm.c:183
  10781e:	65 a1 04 00 00 00    	mov    %gs:0x4,%eax
  107824:	8b 40 08             	mov    0x8(%eax),%eax
  107827:	89 c2                	mov    %eax,%edx
  107829:	65 a1 00 00 00 00    	mov    %gs:0x0,%eax
  10782f:	81 c2 00 10 00 00    	add    $0x1000,%edx
  107835:	89 50 0c             	mov    %edx,0xc(%eax)
/u/a/b/abhijith/CS537/p3b/xv6-sp20/kernel/vm.c:184
  107838:	83 ec 0c             	sub    $0xc,%esp
  10783b:	6a 30                	push   $0x30
  10783d:	e8 00 f8 ff ff       	call   107042 <ltr>
  107842:	83 c4 10             	add    $0x10,%esp
/u/a/b/abhijith/CS537/p3b/xv6-sp20/kernel/vm.c:185
  107845:	8b 45 08             	mov    0x8(%ebp),%eax
  107848:	8b 40 04             	mov    0x4(%eax),%eax
  10784b:	85 c0                	test   %eax,%eax
  10784d:	75 0d                	jne    10785c <switchuvm+0x149>
/u/a/b/abhijith/CS537/p3b/xv6-sp20/kernel/vm.c:186
  10784f:	83 ec 0c             	sub    $0xc,%esp
  107852:	68 56 84 10 00       	push   $0x108456
  107857:	e8 1c 8d ff ff       	call   100578 <panic>
/u/a/b/abhijith/CS537/p3b/xv6-sp20/kernel/vm.c:187
  10785c:	8b 45 08             	mov    0x8(%ebp),%eax
  10785f:	8b 40 04             	mov    0x4(%eax),%eax
  107862:	83 ec 0c             	sub    $0xc,%esp
  107865:	50                   	push   %eax
  107866:	e8 21 f8 ff ff       	call   10708c <lcr3>
  10786b:	83 c4 10             	add    $0x10,%esp
/u/a/b/abhijith/CS537/p3b/xv6-sp20/kernel/vm.c:188
  10786e:	e8 f4 d1 ff ff       	call   104a67 <popcli>
/u/a/b/abhijith/CS537/p3b/xv6-sp20/kernel/vm.c:189
  107873:	90                   	nop
  107874:	8d 65 f8             	lea    -0x8(%ebp),%esp
  107877:	5b                   	pop    %ebx
  107878:	5e                   	pop    %esi
  107879:	5d                   	pop    %ebp
  10787a:	c3                   	ret    

0010787b <inituvm>:
inituvm():
/u/a/b/abhijith/CS537/p3b/xv6-sp20/kernel/vm.c:195
  10787b:	55                   	push   %ebp
  10787c:	89 e5                	mov    %esp,%ebp
  10787e:	83 ec 18             	sub    $0x18,%esp
/u/a/b/abhijith/CS537/p3b/xv6-sp20/kernel/vm.c:198
  107881:	81 7d 10 ff 0f 00 00 	cmpl   $0xfff,0x10(%ebp)
  107888:	76 0d                	jbe    107897 <inituvm+0x1c>
/u/a/b/abhijith/CS537/p3b/xv6-sp20/kernel/vm.c:199
  10788a:	83 ec 0c             	sub    $0xc,%esp
  10788d:	68 6a 84 10 00       	push   $0x10846a
  107892:	e8 e1 8c ff ff       	call   100578 <panic>
/u/a/b/abhijith/CS537/p3b/xv6-sp20/kernel/vm.c:200
  107897:	e8 2f b3 ff ff       	call   102bcb <kalloc>
  10789c:	89 45 f4             	mov    %eax,-0xc(%ebp)
/u/a/b/abhijith/CS537/p3b/xv6-sp20/kernel/vm.c:201
  10789f:	83 ec 04             	sub    $0x4,%esp
  1078a2:	68 00 10 00 00       	push   $0x1000
  1078a7:	6a 00                	push   $0x0
  1078a9:	ff 75 f4             	pushl  -0xc(%ebp)
  1078ac:	e8 51 d2 ff ff       	call   104b02 <memset>
  1078b1:	83 c4 10             	add    $0x10,%esp
/u/a/b/abhijith/CS537/p3b/xv6-sp20/kernel/vm.c:202
  1078b4:	8b 45 f4             	mov    -0xc(%ebp),%eax
  1078b7:	83 ec 0c             	sub    $0xc,%esp
  1078ba:	6a 06                	push   $0x6
  1078bc:	50                   	push   %eax
  1078bd:	68 00 10 00 00       	push   $0x1000
  1078c2:	6a 00                	push   $0x0
  1078c4:	ff 75 08             	pushl  0x8(%ebp)
  1078c7:	e8 e0 fc ff ff       	call   1075ac <mappages>
  1078cc:	83 c4 20             	add    $0x20,%esp
/u/a/b/abhijith/CS537/p3b/xv6-sp20/kernel/vm.c:203
  1078cf:	83 ec 04             	sub    $0x4,%esp
  1078d2:	ff 75 10             	pushl  0x10(%ebp)
  1078d5:	ff 75 0c             	pushl  0xc(%ebp)
  1078d8:	ff 75 f4             	pushl  -0xc(%ebp)
  1078db:	e8 94 d2 ff ff       	call   104b74 <memmove>
  1078e0:	83 c4 10             	add    $0x10,%esp
/u/a/b/abhijith/CS537/p3b/xv6-sp20/kernel/vm.c:204
  1078e3:	90                   	nop
  1078e4:	c9                   	leave  
  1078e5:	c3                   	ret    

001078e6 <loaduvm>:
loaduvm():
/u/a/b/abhijith/CS537/p3b/xv6-sp20/kernel/vm.c:210
  1078e6:	55                   	push   %ebp
  1078e7:	89 e5                	mov    %esp,%ebp
  1078e9:	83 ec 18             	sub    $0x18,%esp
/u/a/b/abhijith/CS537/p3b/xv6-sp20/kernel/vm.c:214
  1078ec:	8b 45 0c             	mov    0xc(%ebp),%eax
  1078ef:	25 ff 0f 00 00       	and    $0xfff,%eax
  1078f4:	85 c0                	test   %eax,%eax
  1078f6:	74 0d                	je     107905 <loaduvm+0x1f>
/u/a/b/abhijith/CS537/p3b/xv6-sp20/kernel/vm.c:215
  1078f8:	83 ec 0c             	sub    $0xc,%esp
  1078fb:	68 84 84 10 00       	push   $0x108484
  107900:	e8 73 8c ff ff       	call   100578 <panic>
/u/a/b/abhijith/CS537/p3b/xv6-sp20/kernel/vm.c:216
  107905:	c7 45 f4 00 00 00 00 	movl   $0x0,-0xc(%ebp)
  10790c:	e9 89 00 00 00       	jmp    10799a <loaduvm+0xb4>
/u/a/b/abhijith/CS537/p3b/xv6-sp20/kernel/vm.c:217
  107911:	8b 55 0c             	mov    0xc(%ebp),%edx
  107914:	8b 45 f4             	mov    -0xc(%ebp),%eax
  107917:	01 d0                	add    %edx,%eax
  107919:	83 ec 04             	sub    $0x4,%esp
  10791c:	6a 00                	push   $0x0
  10791e:	50                   	push   %eax
  10791f:	ff 75 08             	pushl  0x8(%ebp)
  107922:	e8 f9 fb ff ff       	call   107520 <walkpgdir>
  107927:	83 c4 10             	add    $0x10,%esp
  10792a:	89 45 ec             	mov    %eax,-0x14(%ebp)
  10792d:	83 7d ec 00          	cmpl   $0x0,-0x14(%ebp)
  107931:	75 0d                	jne    107940 <loaduvm+0x5a>
/u/a/b/abhijith/CS537/p3b/xv6-sp20/kernel/vm.c:218
  107933:	83 ec 0c             	sub    $0xc,%esp
  107936:	68 a7 84 10 00       	push   $0x1084a7
  10793b:	e8 38 8c ff ff       	call   100578 <panic>
/u/a/b/abhijith/CS537/p3b/xv6-sp20/kernel/vm.c:219
  107940:	8b 45 ec             	mov    -0x14(%ebp),%eax
  107943:	8b 00                	mov    (%eax),%eax
  107945:	25 00 f0 ff ff       	and    $0xfffff000,%eax
  10794a:	89 45 e8             	mov    %eax,-0x18(%ebp)
/u/a/b/abhijith/CS537/p3b/xv6-sp20/kernel/vm.c:220
  10794d:	8b 45 18             	mov    0x18(%ebp),%eax
  107950:	2b 45 f4             	sub    -0xc(%ebp),%eax
  107953:	3d ff 0f 00 00       	cmp    $0xfff,%eax
  107958:	77 0b                	ja     107965 <loaduvm+0x7f>
/u/a/b/abhijith/CS537/p3b/xv6-sp20/kernel/vm.c:221
  10795a:	8b 45 18             	mov    0x18(%ebp),%eax
  10795d:	2b 45 f4             	sub    -0xc(%ebp),%eax
  107960:	89 45 f0             	mov    %eax,-0x10(%ebp)
  107963:	eb 07                	jmp    10796c <loaduvm+0x86>
/u/a/b/abhijith/CS537/p3b/xv6-sp20/kernel/vm.c:223
  107965:	c7 45 f0 00 10 00 00 	movl   $0x1000,-0x10(%ebp)
/u/a/b/abhijith/CS537/p3b/xv6-sp20/kernel/vm.c:224
  10796c:	8b 55 14             	mov    0x14(%ebp),%edx
  10796f:	8b 45 f4             	mov    -0xc(%ebp),%eax
  107972:	01 c2                	add    %eax,%edx
  107974:	8b 45 e8             	mov    -0x18(%ebp),%eax
  107977:	ff 75 f0             	pushl  -0x10(%ebp)
  10797a:	52                   	push   %edx
  10797b:	50                   	push   %eax
  10797c:	ff 75 10             	pushl  0x10(%ebp)
  10797f:	e8 2e a4 ff ff       	call   101db2 <readi>
  107984:	83 c4 10             	add    $0x10,%esp
  107987:	39 45 f0             	cmp    %eax,-0x10(%ebp)
  10798a:	74 07                	je     107993 <loaduvm+0xad>
/u/a/b/abhijith/CS537/p3b/xv6-sp20/kernel/vm.c:225
  10798c:	b8 ff ff ff ff       	mov    $0xffffffff,%eax
  107991:	eb 18                	jmp    1079ab <loaduvm+0xc5>
/u/a/b/abhijith/CS537/p3b/xv6-sp20/kernel/vm.c:216 (discriminator 2)
  107993:	81 45 f4 00 10 00 00 	addl   $0x1000,-0xc(%ebp)
/u/a/b/abhijith/CS537/p3b/xv6-sp20/kernel/vm.c:216 (discriminator 1)
  10799a:	8b 45 f4             	mov    -0xc(%ebp),%eax
  10799d:	3b 45 18             	cmp    0x18(%ebp),%eax
  1079a0:	0f 82 6b ff ff ff    	jb     107911 <loaduvm+0x2b>
/u/a/b/abhijith/CS537/p3b/xv6-sp20/kernel/vm.c:227
  1079a6:	b8 00 00 00 00       	mov    $0x0,%eax
/u/a/b/abhijith/CS537/p3b/xv6-sp20/kernel/vm.c:228
  1079ab:	c9                   	leave  
  1079ac:	c3                   	ret    

001079ad <allocuvm>:
allocuvm():
/u/a/b/abhijith/CS537/p3b/xv6-sp20/kernel/vm.c:234
  1079ad:	55                   	push   %ebp
  1079ae:	89 e5                	mov    %esp,%ebp
  1079b0:	83 ec 18             	sub    $0x18,%esp
/u/a/b/abhijith/CS537/p3b/xv6-sp20/kernel/vm.c:238
  1079b3:	81 7d 10 00 00 0a 00 	cmpl   $0xa0000,0x10(%ebp)
  1079ba:	76 0a                	jbe    1079c6 <allocuvm+0x19>
/u/a/b/abhijith/CS537/p3b/xv6-sp20/kernel/vm.c:239
  1079bc:	b8 00 00 00 00       	mov    $0x0,%eax
  1079c1:	e9 9f 00 00 00       	jmp    107a65 <allocuvm+0xb8>
/u/a/b/abhijith/CS537/p3b/xv6-sp20/kernel/vm.c:240
  1079c6:	8b 45 10             	mov    0x10(%ebp),%eax
  1079c9:	3b 45 0c             	cmp    0xc(%ebp),%eax
  1079cc:	73 08                	jae    1079d6 <allocuvm+0x29>
/u/a/b/abhijith/CS537/p3b/xv6-sp20/kernel/vm.c:241
  1079ce:	8b 45 0c             	mov    0xc(%ebp),%eax
  1079d1:	e9 8f 00 00 00       	jmp    107a65 <allocuvm+0xb8>
/u/a/b/abhijith/CS537/p3b/xv6-sp20/kernel/vm.c:243
  1079d6:	8b 45 0c             	mov    0xc(%ebp),%eax
  1079d9:	05 ff 0f 00 00       	add    $0xfff,%eax
  1079de:	25 00 f0 ff ff       	and    $0xfffff000,%eax
  1079e3:	89 45 f4             	mov    %eax,-0xc(%ebp)
/u/a/b/abhijith/CS537/p3b/xv6-sp20/kernel/vm.c:244
  1079e6:	eb 72                	jmp    107a5a <allocuvm+0xad>
/u/a/b/abhijith/CS537/p3b/xv6-sp20/kernel/vm.c:245
  1079e8:	e8 de b1 ff ff       	call   102bcb <kalloc>
  1079ed:	89 45 f0             	mov    %eax,-0x10(%ebp)
/u/a/b/abhijith/CS537/p3b/xv6-sp20/kernel/vm.c:246
  1079f0:	83 7d f0 00          	cmpl   $0x0,-0x10(%ebp)
  1079f4:	75 2b                	jne    107a21 <allocuvm+0x74>
/u/a/b/abhijith/CS537/p3b/xv6-sp20/kernel/vm.c:247
  1079f6:	83 ec 0c             	sub    $0xc,%esp
  1079f9:	68 c5 84 10 00       	push   $0x1084c5
  1079fe:	e8 e9 89 ff ff       	call   1003ec <cprintf>
  107a03:	83 c4 10             	add    $0x10,%esp
/u/a/b/abhijith/CS537/p3b/xv6-sp20/kernel/vm.c:248
  107a06:	83 ec 04             	sub    $0x4,%esp
  107a09:	ff 75 0c             	pushl  0xc(%ebp)
  107a0c:	ff 75 10             	pushl  0x10(%ebp)
  107a0f:	ff 75 08             	pushl  0x8(%ebp)
  107a12:	e8 50 00 00 00       	call   107a67 <deallocuvm>
  107a17:	83 c4 10             	add    $0x10,%esp
/u/a/b/abhijith/CS537/p3b/xv6-sp20/kernel/vm.c:249
  107a1a:	b8 00 00 00 00       	mov    $0x0,%eax
  107a1f:	eb 44                	jmp    107a65 <allocuvm+0xb8>
/u/a/b/abhijith/CS537/p3b/xv6-sp20/kernel/vm.c:251
  107a21:	83 ec 04             	sub    $0x4,%esp
  107a24:	68 00 10 00 00       	push   $0x1000
  107a29:	6a 00                	push   $0x0
  107a2b:	ff 75 f0             	pushl  -0x10(%ebp)
  107a2e:	e8 cf d0 ff ff       	call   104b02 <memset>
  107a33:	83 c4 10             	add    $0x10,%esp
/u/a/b/abhijith/CS537/p3b/xv6-sp20/kernel/vm.c:252
  107a36:	8b 55 f0             	mov    -0x10(%ebp),%edx
  107a39:	8b 45 f4             	mov    -0xc(%ebp),%eax
  107a3c:	83 ec 0c             	sub    $0xc,%esp
  107a3f:	6a 06                	push   $0x6
  107a41:	52                   	push   %edx
  107a42:	68 00 10 00 00       	push   $0x1000
  107a47:	50                   	push   %eax
  107a48:	ff 75 08             	pushl  0x8(%ebp)
  107a4b:	e8 5c fb ff ff       	call   1075ac <mappages>
  107a50:	83 c4 20             	add    $0x20,%esp
/u/a/b/abhijith/CS537/p3b/xv6-sp20/kernel/vm.c:244
  107a53:	81 45 f4 00 10 00 00 	addl   $0x1000,-0xc(%ebp)
/u/a/b/abhijith/CS537/p3b/xv6-sp20/kernel/vm.c:244 (discriminator 1)
  107a5a:	8b 45 f4             	mov    -0xc(%ebp),%eax
  107a5d:	3b 45 10             	cmp    0x10(%ebp),%eax
  107a60:	72 86                	jb     1079e8 <allocuvm+0x3b>
/u/a/b/abhijith/CS537/p3b/xv6-sp20/kernel/vm.c:254
  107a62:	8b 45 10             	mov    0x10(%ebp),%eax
/u/a/b/abhijith/CS537/p3b/xv6-sp20/kernel/vm.c:255
  107a65:	c9                   	leave  
  107a66:	c3                   	ret    

00107a67 <deallocuvm>:
deallocuvm():
/u/a/b/abhijith/CS537/p3b/xv6-sp20/kernel/vm.c:263
  107a67:	55                   	push   %ebp
  107a68:	89 e5                	mov    %esp,%ebp
  107a6a:	83 ec 18             	sub    $0x18,%esp
/u/a/b/abhijith/CS537/p3b/xv6-sp20/kernel/vm.c:267
  107a6d:	8b 45 10             	mov    0x10(%ebp),%eax
  107a70:	3b 45 0c             	cmp    0xc(%ebp),%eax
  107a73:	72 08                	jb     107a7d <deallocuvm+0x16>
/u/a/b/abhijith/CS537/p3b/xv6-sp20/kernel/vm.c:268
  107a75:	8b 45 0c             	mov    0xc(%ebp),%eax
  107a78:	e9 85 00 00 00       	jmp    107b02 <deallocuvm+0x9b>
/u/a/b/abhijith/CS537/p3b/xv6-sp20/kernel/vm.c:270
  107a7d:	8b 45 10             	mov    0x10(%ebp),%eax
  107a80:	05 ff 0f 00 00       	add    $0xfff,%eax
  107a85:	25 00 f0 ff ff       	and    $0xfffff000,%eax
  107a8a:	89 45 f4             	mov    %eax,-0xc(%ebp)
/u/a/b/abhijith/CS537/p3b/xv6-sp20/kernel/vm.c:271
  107a8d:	eb 68                	jmp    107af7 <deallocuvm+0x90>
/u/a/b/abhijith/CS537/p3b/xv6-sp20/kernel/vm.c:272
  107a8f:	8b 45 f4             	mov    -0xc(%ebp),%eax
  107a92:	83 ec 04             	sub    $0x4,%esp
  107a95:	6a 00                	push   $0x0
  107a97:	50                   	push   %eax
  107a98:	ff 75 08             	pushl  0x8(%ebp)
  107a9b:	e8 80 fa ff ff       	call   107520 <walkpgdir>
  107aa0:	83 c4 10             	add    $0x10,%esp
  107aa3:	89 45 f0             	mov    %eax,-0x10(%ebp)
/u/a/b/abhijith/CS537/p3b/xv6-sp20/kernel/vm.c:273
  107aa6:	83 7d f0 00          	cmpl   $0x0,-0x10(%ebp)
  107aaa:	74 44                	je     107af0 <deallocuvm+0x89>
/u/a/b/abhijith/CS537/p3b/xv6-sp20/kernel/vm.c:273 (discriminator 1)
  107aac:	8b 45 f0             	mov    -0x10(%ebp),%eax
  107aaf:	8b 00                	mov    (%eax),%eax
  107ab1:	83 e0 01             	and    $0x1,%eax
  107ab4:	85 c0                	test   %eax,%eax
  107ab6:	74 38                	je     107af0 <deallocuvm+0x89>
/u/a/b/abhijith/CS537/p3b/xv6-sp20/kernel/vm.c:274
  107ab8:	8b 45 f0             	mov    -0x10(%ebp),%eax
  107abb:	8b 00                	mov    (%eax),%eax
  107abd:	25 00 f0 ff ff       	and    $0xfffff000,%eax
  107ac2:	89 45 ec             	mov    %eax,-0x14(%ebp)
/u/a/b/abhijith/CS537/p3b/xv6-sp20/kernel/vm.c:275
  107ac5:	83 7d ec 00          	cmpl   $0x0,-0x14(%ebp)
  107ac9:	75 0d                	jne    107ad8 <deallocuvm+0x71>
/u/a/b/abhijith/CS537/p3b/xv6-sp20/kernel/vm.c:276
  107acb:	83 ec 0c             	sub    $0xc,%esp
  107ace:	68 dd 84 10 00       	push   $0x1084dd
  107ad3:	e8 a0 8a ff ff       	call   100578 <panic>
/u/a/b/abhijith/CS537/p3b/xv6-sp20/kernel/vm.c:277
  107ad8:	8b 45 ec             	mov    -0x14(%ebp),%eax
  107adb:	83 ec 0c             	sub    $0xc,%esp
  107ade:	50                   	push   %eax
  107adf:	e8 49 b0 ff ff       	call   102b2d <kfree>
  107ae4:	83 c4 10             	add    $0x10,%esp
/u/a/b/abhijith/CS537/p3b/xv6-sp20/kernel/vm.c:278
  107ae7:	8b 45 f0             	mov    -0x10(%ebp),%eax
  107aea:	c7 00 00 00 00 00    	movl   $0x0,(%eax)
/u/a/b/abhijith/CS537/p3b/xv6-sp20/kernel/vm.c:271
  107af0:	81 45 f4 00 10 00 00 	addl   $0x1000,-0xc(%ebp)
/u/a/b/abhijith/CS537/p3b/xv6-sp20/kernel/vm.c:271 (discriminator 1)
  107af7:	8b 45 f4             	mov    -0xc(%ebp),%eax
  107afa:	3b 45 0c             	cmp    0xc(%ebp),%eax
  107afd:	72 90                	jb     107a8f <deallocuvm+0x28>
/u/a/b/abhijith/CS537/p3b/xv6-sp20/kernel/vm.c:281
  107aff:	8b 45 10             	mov    0x10(%ebp),%eax
/u/a/b/abhijith/CS537/p3b/xv6-sp20/kernel/vm.c:282
  107b02:	c9                   	leave  
  107b03:	c3                   	ret    

00107b04 <freevm>:
freevm():
/u/a/b/abhijith/CS537/p3b/xv6-sp20/kernel/vm.c:288
  107b04:	55                   	push   %ebp
  107b05:	89 e5                	mov    %esp,%ebp
  107b07:	83 ec 18             	sub    $0x18,%esp
/u/a/b/abhijith/CS537/p3b/xv6-sp20/kernel/vm.c:291
  107b0a:	83 7d 08 00          	cmpl   $0x0,0x8(%ebp)
  107b0e:	75 0d                	jne    107b1d <freevm+0x19>
/u/a/b/abhijith/CS537/p3b/xv6-sp20/kernel/vm.c:292
  107b10:	83 ec 0c             	sub    $0xc,%esp
  107b13:	68 e3 84 10 00       	push   $0x1084e3
  107b18:	e8 5b 8a ff ff       	call   100578 <panic>
/u/a/b/abhijith/CS537/p3b/xv6-sp20/kernel/vm.c:293
  107b1d:	83 ec 04             	sub    $0x4,%esp
  107b20:	6a 00                	push   $0x0
  107b22:	68 00 00 0a 00       	push   $0xa0000
  107b27:	ff 75 08             	pushl  0x8(%ebp)
  107b2a:	e8 38 ff ff ff       	call   107a67 <deallocuvm>
  107b2f:	83 c4 10             	add    $0x10,%esp
/u/a/b/abhijith/CS537/p3b/xv6-sp20/kernel/vm.c:294
  107b32:	c7 45 f4 00 00 00 00 	movl   $0x0,-0xc(%ebp)
  107b39:	eb 3e                	jmp    107b79 <freevm+0x75>
/u/a/b/abhijith/CS537/p3b/xv6-sp20/kernel/vm.c:295
  107b3b:	8b 45 f4             	mov    -0xc(%ebp),%eax
  107b3e:	8d 14 85 00 00 00 00 	lea    0x0(,%eax,4),%edx
  107b45:	8b 45 08             	mov    0x8(%ebp),%eax
  107b48:	01 d0                	add    %edx,%eax
  107b4a:	8b 00                	mov    (%eax),%eax
  107b4c:	83 e0 01             	and    $0x1,%eax
  107b4f:	85 c0                	test   %eax,%eax
  107b51:	74 22                	je     107b75 <freevm+0x71>
/u/a/b/abhijith/CS537/p3b/xv6-sp20/kernel/vm.c:296
  107b53:	8b 45 f4             	mov    -0xc(%ebp),%eax
  107b56:	8d 14 85 00 00 00 00 	lea    0x0(,%eax,4),%edx
  107b5d:	8b 45 08             	mov    0x8(%ebp),%eax
  107b60:	01 d0                	add    %edx,%eax
  107b62:	8b 00                	mov    (%eax),%eax
  107b64:	25 00 f0 ff ff       	and    $0xfffff000,%eax
  107b69:	83 ec 0c             	sub    $0xc,%esp
  107b6c:	50                   	push   %eax
  107b6d:	e8 bb af ff ff       	call   102b2d <kfree>
  107b72:	83 c4 10             	add    $0x10,%esp
/u/a/b/abhijith/CS537/p3b/xv6-sp20/kernel/vm.c:294 (discriminator 2)
  107b75:	83 45 f4 01          	addl   $0x1,-0xc(%ebp)
/u/a/b/abhijith/CS537/p3b/xv6-sp20/kernel/vm.c:294 (discriminator 1)
  107b79:	81 7d f4 ff 03 00 00 	cmpl   $0x3ff,-0xc(%ebp)
  107b80:	76 b9                	jbe    107b3b <freevm+0x37>
/u/a/b/abhijith/CS537/p3b/xv6-sp20/kernel/vm.c:298
  107b82:	83 ec 0c             	sub    $0xc,%esp
  107b85:	ff 75 08             	pushl  0x8(%ebp)
  107b88:	e8 a0 af ff ff       	call   102b2d <kfree>
  107b8d:	83 c4 10             	add    $0x10,%esp
/u/a/b/abhijith/CS537/p3b/xv6-sp20/kernel/vm.c:299
  107b90:	90                   	nop
  107b91:	c9                   	leave  
  107b92:	c3                   	ret    

00107b93 <copyuvm>:
copyuvm():
/u/a/b/abhijith/CS537/p3b/xv6-sp20/kernel/vm.c:305
  107b93:	55                   	push   %ebp
  107b94:	89 e5                	mov    %esp,%ebp
  107b96:	83 ec 28             	sub    $0x28,%esp
/u/a/b/abhijith/CS537/p3b/xv6-sp20/kernel/vm.c:311
  107b99:	c7 45 f0 01 00 00 00 	movl   $0x1,-0x10(%ebp)
/u/a/b/abhijith/CS537/p3b/xv6-sp20/kernel/vm.c:313
  107ba0:	e8 97 fa ff ff       	call   10763c <setupkvm>
  107ba5:	89 45 ec             	mov    %eax,-0x14(%ebp)
  107ba8:	83 7d ec 00          	cmpl   $0x0,-0x14(%ebp)
  107bac:	75 0a                	jne    107bb8 <copyuvm+0x25>
/u/a/b/abhijith/CS537/p3b/xv6-sp20/kernel/vm.c:314
  107bae:	b8 00 00 00 00       	mov    $0x0,%eax
  107bb3:	e9 07 01 00 00       	jmp    107cbf <copyuvm+0x12c>
/u/a/b/abhijith/CS537/p3b/xv6-sp20/kernel/vm.c:315
  107bb8:	c7 45 f4 00 00 00 00 	movl   $0x0,-0xc(%ebp)
  107bbf:	e9 d3 00 00 00       	jmp    107c97 <copyuvm+0x104>
/u/a/b/abhijith/CS537/p3b/xv6-sp20/kernel/vm.c:316
  107bc4:	8b 45 f4             	mov    -0xc(%ebp),%eax
  107bc7:	83 ec 04             	sub    $0x4,%esp
  107bca:	6a 00                	push   $0x0
  107bcc:	50                   	push   %eax
  107bcd:	ff 75 08             	pushl  0x8(%ebp)
  107bd0:	e8 4b f9 ff ff       	call   107520 <walkpgdir>
  107bd5:	83 c4 10             	add    $0x10,%esp
  107bd8:	89 45 e8             	mov    %eax,-0x18(%ebp)
  107bdb:	83 7d e8 00          	cmpl   $0x0,-0x18(%ebp)
  107bdf:	75 0d                	jne    107bee <copyuvm+0x5b>
/u/a/b/abhijith/CS537/p3b/xv6-sp20/kernel/vm.c:317
  107be1:	83 ec 0c             	sub    $0xc,%esp
  107be4:	68 f4 84 10 00       	push   $0x1084f4
  107be9:	e8 8a 89 ff ff       	call   100578 <panic>
/u/a/b/abhijith/CS537/p3b/xv6-sp20/kernel/vm.c:318
  107bee:	8b 45 e8             	mov    -0x18(%ebp),%eax
  107bf1:	8b 00                	mov    (%eax),%eax
  107bf3:	83 e0 01             	and    $0x1,%eax
  107bf6:	85 c0                	test   %eax,%eax
  107bf8:	75 0d                	jne    107c07 <copyuvm+0x74>
/u/a/b/abhijith/CS537/p3b/xv6-sp20/kernel/vm.c:319
  107bfa:	83 ec 0c             	sub    $0xc,%esp
  107bfd:	68 0e 85 10 00       	push   $0x10850e
  107c02:	e8 71 89 ff ff       	call   100578 <panic>
/u/a/b/abhijith/CS537/p3b/xv6-sp20/kernel/vm.c:320
  107c07:	8b 45 e8             	mov    -0x18(%ebp),%eax
  107c0a:	8b 00                	mov    (%eax),%eax
  107c0c:	25 00 f0 ff ff       	and    $0xfffff000,%eax
  107c11:	89 45 e4             	mov    %eax,-0x1c(%ebp)
/u/a/b/abhijith/CS537/p3b/xv6-sp20/kernel/vm.c:322
  107c14:	8b 45 e8             	mov    -0x18(%ebp),%eax
  107c17:	8b 00                	mov    (%eax),%eax
  107c19:	d1 e8                	shr    %eax
  107c1b:	83 e0 01             	and    $0x1,%eax
  107c1e:	89 45 f0             	mov    %eax,-0x10(%ebp)
/u/a/b/abhijith/CS537/p3b/xv6-sp20/kernel/vm.c:324
  107c21:	e8 a5 af ff ff       	call   102bcb <kalloc>
  107c26:	89 45 e0             	mov    %eax,-0x20(%ebp)
  107c29:	83 7d e0 00          	cmpl   $0x0,-0x20(%ebp)
  107c2d:	74 79                	je     107ca8 <copyuvm+0x115>
/u/a/b/abhijith/CS537/p3b/xv6-sp20/kernel/vm.c:326
  107c2f:	8b 45 e4             	mov    -0x1c(%ebp),%eax
  107c32:	83 ec 04             	sub    $0x4,%esp
  107c35:	68 00 10 00 00       	push   $0x1000
  107c3a:	50                   	push   %eax
  107c3b:	ff 75 e0             	pushl  -0x20(%ebp)
  107c3e:	e8 31 cf ff ff       	call   104b74 <memmove>
  107c43:	83 c4 10             	add    $0x10,%esp
/u/a/b/abhijith/CS537/p3b/xv6-sp20/kernel/vm.c:328
  107c46:	83 7d f0 00          	cmpl   $0x0,-0x10(%ebp)
  107c4a:	74 23                	je     107c6f <copyuvm+0xdc>
/u/a/b/abhijith/CS537/p3b/xv6-sp20/kernel/vm.c:330
  107c4c:	8b 55 e0             	mov    -0x20(%ebp),%edx
  107c4f:	8b 45 f4             	mov    -0xc(%ebp),%eax
  107c52:	83 ec 0c             	sub    $0xc,%esp
  107c55:	6a 06                	push   $0x6
  107c57:	52                   	push   %edx
  107c58:	68 00 10 00 00       	push   $0x1000
  107c5d:	50                   	push   %eax
  107c5e:	ff 75 ec             	pushl  -0x14(%ebp)
  107c61:	e8 46 f9 ff ff       	call   1075ac <mappages>
  107c66:	83 c4 20             	add    $0x20,%esp
  107c69:	85 c0                	test   %eax,%eax
  107c6b:	79 23                	jns    107c90 <copyuvm+0xfd>
/u/a/b/abhijith/CS537/p3b/xv6-sp20/kernel/vm.c:331
  107c6d:	eb 3d                	jmp    107cac <copyuvm+0x119>
/u/a/b/abhijith/CS537/p3b/xv6-sp20/kernel/vm.c:335
  107c6f:	8b 55 e0             	mov    -0x20(%ebp),%edx
  107c72:	8b 45 f4             	mov    -0xc(%ebp),%eax
  107c75:	83 ec 0c             	sub    $0xc,%esp
  107c78:	6a 04                	push   $0x4
  107c7a:	52                   	push   %edx
  107c7b:	68 00 10 00 00       	push   $0x1000
  107c80:	50                   	push   %eax
  107c81:	ff 75 ec             	pushl  -0x14(%ebp)
  107c84:	e8 23 f9 ff ff       	call   1075ac <mappages>
  107c89:	83 c4 20             	add    $0x20,%esp
  107c8c:	85 c0                	test   %eax,%eax
  107c8e:	78 1b                	js     107cab <copyuvm+0x118>
/u/a/b/abhijith/CS537/p3b/xv6-sp20/kernel/vm.c:315 (discriminator 2)
  107c90:	81 45 f4 00 10 00 00 	addl   $0x1000,-0xc(%ebp)
/u/a/b/abhijith/CS537/p3b/xv6-sp20/kernel/vm.c:315 (discriminator 1)
  107c97:	8b 45 f4             	mov    -0xc(%ebp),%eax
  107c9a:	3b 45 0c             	cmp    0xc(%ebp),%eax
  107c9d:	0f 82 21 ff ff ff    	jb     107bc4 <copyuvm+0x31>
/u/a/b/abhijith/CS537/p3b/xv6-sp20/kernel/vm.c:339
  107ca3:	8b 45 ec             	mov    -0x14(%ebp),%eax
  107ca6:	eb 17                	jmp    107cbf <copyuvm+0x12c>
/u/a/b/abhijith/CS537/p3b/xv6-sp20/kernel/vm.c:325
  107ca8:	90                   	nop
  107ca9:	eb 01                	jmp    107cac <copyuvm+0x119>
/u/a/b/abhijith/CS537/p3b/xv6-sp20/kernel/vm.c:336
  107cab:	90                   	nop
/u/a/b/abhijith/CS537/p3b/xv6-sp20/kernel/vm.c:342
  107cac:	83 ec 0c             	sub    $0xc,%esp
  107caf:	ff 75 ec             	pushl  -0x14(%ebp)
  107cb2:	e8 4d fe ff ff       	call   107b04 <freevm>
  107cb7:	83 c4 10             	add    $0x10,%esp
/u/a/b/abhijith/CS537/p3b/xv6-sp20/kernel/vm.c:343
  107cba:	b8 00 00 00 00       	mov    $0x0,%eax
/u/a/b/abhijith/CS537/p3b/xv6-sp20/kernel/vm.c:344
  107cbf:	c9                   	leave  
  107cc0:	c3                   	ret    

00107cc1 <uva2ka>:
uva2ka():
/u/a/b/abhijith/CS537/p3b/xv6-sp20/kernel/vm.c:349
  107cc1:	55                   	push   %ebp
  107cc2:	89 e5                	mov    %esp,%ebp
  107cc4:	83 ec 18             	sub    $0x18,%esp
/u/a/b/abhijith/CS537/p3b/xv6-sp20/kernel/vm.c:352
  107cc7:	83 ec 04             	sub    $0x4,%esp
  107cca:	6a 00                	push   $0x0
  107ccc:	ff 75 0c             	pushl  0xc(%ebp)
  107ccf:	ff 75 08             	pushl  0x8(%ebp)
  107cd2:	e8 49 f8 ff ff       	call   107520 <walkpgdir>
  107cd7:	83 c4 10             	add    $0x10,%esp
  107cda:	89 45 f4             	mov    %eax,-0xc(%ebp)
/u/a/b/abhijith/CS537/p3b/xv6-sp20/kernel/vm.c:353
  107cdd:	8b 45 f4             	mov    -0xc(%ebp),%eax
  107ce0:	8b 00                	mov    (%eax),%eax
  107ce2:	83 e0 01             	and    $0x1,%eax
  107ce5:	85 c0                	test   %eax,%eax
  107ce7:	75 07                	jne    107cf0 <uva2ka+0x2f>
/u/a/b/abhijith/CS537/p3b/xv6-sp20/kernel/vm.c:354
  107ce9:	b8 00 00 00 00       	mov    $0x0,%eax
  107cee:	eb 1d                	jmp    107d0d <uva2ka+0x4c>
/u/a/b/abhijith/CS537/p3b/xv6-sp20/kernel/vm.c:355
  107cf0:	8b 45 f4             	mov    -0xc(%ebp),%eax
  107cf3:	8b 00                	mov    (%eax),%eax
  107cf5:	83 e0 04             	and    $0x4,%eax
  107cf8:	85 c0                	test   %eax,%eax
  107cfa:	75 07                	jne    107d03 <uva2ka+0x42>
/u/a/b/abhijith/CS537/p3b/xv6-sp20/kernel/vm.c:356
  107cfc:	b8 00 00 00 00       	mov    $0x0,%eax
  107d01:	eb 0a                	jmp    107d0d <uva2ka+0x4c>
/u/a/b/abhijith/CS537/p3b/xv6-sp20/kernel/vm.c:357
  107d03:	8b 45 f4             	mov    -0xc(%ebp),%eax
  107d06:	8b 00                	mov    (%eax),%eax
  107d08:	25 00 f0 ff ff       	and    $0xfffff000,%eax
/u/a/b/abhijith/CS537/p3b/xv6-sp20/kernel/vm.c:358
  107d0d:	c9                   	leave  
  107d0e:	c3                   	ret    

00107d0f <copyout>:
copyout():
/u/a/b/abhijith/CS537/p3b/xv6-sp20/kernel/vm.c:365
  107d0f:	55                   	push   %ebp
  107d10:	89 e5                	mov    %esp,%ebp
  107d12:	83 ec 18             	sub    $0x18,%esp
/u/a/b/abhijith/CS537/p3b/xv6-sp20/kernel/vm.c:369
  107d15:	8b 45 10             	mov    0x10(%ebp),%eax
  107d18:	89 45 f4             	mov    %eax,-0xc(%ebp)
/u/a/b/abhijith/CS537/p3b/xv6-sp20/kernel/vm.c:370
  107d1b:	eb 7f                	jmp    107d9c <copyout+0x8d>
/u/a/b/abhijith/CS537/p3b/xv6-sp20/kernel/vm.c:371
  107d1d:	8b 45 0c             	mov    0xc(%ebp),%eax
  107d20:	25 00 f0 ff ff       	and    $0xfffff000,%eax
  107d25:	89 45 ec             	mov    %eax,-0x14(%ebp)
/u/a/b/abhijith/CS537/p3b/xv6-sp20/kernel/vm.c:372
  107d28:	8b 45 ec             	mov    -0x14(%ebp),%eax
  107d2b:	83 ec 08             	sub    $0x8,%esp
  107d2e:	50                   	push   %eax
  107d2f:	ff 75 08             	pushl  0x8(%ebp)
  107d32:	e8 8a ff ff ff       	call   107cc1 <uva2ka>
  107d37:	83 c4 10             	add    $0x10,%esp
  107d3a:	89 45 e8             	mov    %eax,-0x18(%ebp)
/u/a/b/abhijith/CS537/p3b/xv6-sp20/kernel/vm.c:373
  107d3d:	83 7d e8 00          	cmpl   $0x0,-0x18(%ebp)
  107d41:	75 07                	jne    107d4a <copyout+0x3b>
/u/a/b/abhijith/CS537/p3b/xv6-sp20/kernel/vm.c:374
  107d43:	b8 ff ff ff ff       	mov    $0xffffffff,%eax
  107d48:	eb 61                	jmp    107dab <copyout+0x9c>
/u/a/b/abhijith/CS537/p3b/xv6-sp20/kernel/vm.c:375
  107d4a:	8b 45 ec             	mov    -0x14(%ebp),%eax
  107d4d:	2b 45 0c             	sub    0xc(%ebp),%eax
  107d50:	05 00 10 00 00       	add    $0x1000,%eax
  107d55:	89 45 f0             	mov    %eax,-0x10(%ebp)
/u/a/b/abhijith/CS537/p3b/xv6-sp20/kernel/vm.c:376
  107d58:	8b 45 f0             	mov    -0x10(%ebp),%eax
  107d5b:	3b 45 14             	cmp    0x14(%ebp),%eax
  107d5e:	76 06                	jbe    107d66 <copyout+0x57>
/u/a/b/abhijith/CS537/p3b/xv6-sp20/kernel/vm.c:377
  107d60:	8b 45 14             	mov    0x14(%ebp),%eax
  107d63:	89 45 f0             	mov    %eax,-0x10(%ebp)
/u/a/b/abhijith/CS537/p3b/xv6-sp20/kernel/vm.c:378
  107d66:	8b 45 0c             	mov    0xc(%ebp),%eax
  107d69:	2b 45 ec             	sub    -0x14(%ebp),%eax
  107d6c:	89 c2                	mov    %eax,%edx
  107d6e:	8b 45 e8             	mov    -0x18(%ebp),%eax
  107d71:	01 d0                	add    %edx,%eax
  107d73:	83 ec 04             	sub    $0x4,%esp
  107d76:	ff 75 f0             	pushl  -0x10(%ebp)
  107d79:	ff 75 f4             	pushl  -0xc(%ebp)
  107d7c:	50                   	push   %eax
  107d7d:	e8 f2 cd ff ff       	call   104b74 <memmove>
  107d82:	83 c4 10             	add    $0x10,%esp
/u/a/b/abhijith/CS537/p3b/xv6-sp20/kernel/vm.c:379
  107d85:	8b 45 f0             	mov    -0x10(%ebp),%eax
  107d88:	29 45 14             	sub    %eax,0x14(%ebp)
/u/a/b/abhijith/CS537/p3b/xv6-sp20/kernel/vm.c:380
  107d8b:	8b 45 f0             	mov    -0x10(%ebp),%eax
  107d8e:	01 45 f4             	add    %eax,-0xc(%ebp)
/u/a/b/abhijith/CS537/p3b/xv6-sp20/kernel/vm.c:381
  107d91:	8b 45 ec             	mov    -0x14(%ebp),%eax
  107d94:	05 00 10 00 00       	add    $0x1000,%eax
  107d99:	89 45 0c             	mov    %eax,0xc(%ebp)
/u/a/b/abhijith/CS537/p3b/xv6-sp20/kernel/vm.c:370
  107d9c:	83 7d 14 00          	cmpl   $0x0,0x14(%ebp)
  107da0:	0f 85 77 ff ff ff    	jne    107d1d <copyout+0xe>
/u/a/b/abhijith/CS537/p3b/xv6-sp20/kernel/vm.c:383
  107da6:	b8 00 00 00 00       	mov    $0x0,%eax
/u/a/b/abhijith/CS537/p3b/xv6-sp20/kernel/vm.c:384
  107dab:	c9                   	leave  
  107dac:	c3                   	ret    

00107dad <vm_set_clear_readonly>:
vm_set_clear_readonly():
/u/a/b/abhijith/CS537/p3b/xv6-sp20/kernel/vm.c:388
  107dad:	55                   	push   %ebp
  107dae:	89 e5                	mov    %esp,%ebp
  107db0:	83 ec 18             	sub    $0x18,%esp
/u/a/b/abhijith/CS537/p3b/xv6-sp20/kernel/vm.c:392
  107db3:	8b 45 10             	mov    0x10(%ebp),%eax
  107db6:	c1 e0 0c             	shl    $0xc,%eax
  107db9:	89 c2                	mov    %eax,%edx
  107dbb:	8b 45 0c             	mov    0xc(%ebp),%eax
  107dbe:	01 d0                	add    %edx,%eax
  107dc0:	3d 00 00 0a 00       	cmp    $0xa0000,%eax
  107dc5:	76 0a                	jbe    107dd1 <vm_set_clear_readonly+0x24>
/u/a/b/abhijith/CS537/p3b/xv6-sp20/kernel/vm.c:393
  107dc7:	b8 ff ff ff ff       	mov    $0xffffffff,%eax
  107dcc:	e9 cd 00 00 00       	jmp    107e9e <vm_set_clear_readonly+0xf1>
/u/a/b/abhijith/CS537/p3b/xv6-sp20/kernel/vm.c:395
  107dd1:	c7 45 f4 00 00 00 00 	movl   $0x0,-0xc(%ebp)
  107dd8:	eb 45                	jmp    107e1f <vm_set_clear_readonly+0x72>
/u/a/b/abhijith/CS537/p3b/xv6-sp20/kernel/vm.c:397
  107dda:	8b 55 f4             	mov    -0xc(%ebp),%edx
  107ddd:	8b 45 0c             	mov    0xc(%ebp),%eax
  107de0:	01 d0                	add    %edx,%eax
  107de2:	83 ec 04             	sub    $0x4,%esp
  107de5:	6a 00                	push   $0x0
  107de7:	50                   	push   %eax
  107de8:	ff 75 08             	pushl  0x8(%ebp)
  107deb:	e8 30 f7 ff ff       	call   107520 <walkpgdir>
  107df0:	83 c4 10             	add    $0x10,%esp
  107df3:	89 45 f0             	mov    %eax,-0x10(%ebp)
/u/a/b/abhijith/CS537/p3b/xv6-sp20/kernel/vm.c:398
  107df6:	8b 45 f0             	mov    -0x10(%ebp),%eax
  107df9:	8b 00                	mov    (%eax),%eax
  107dfb:	83 e0 01             	and    $0x1,%eax
  107dfe:	85 c0                	test   %eax,%eax
  107e00:	74 0c                	je     107e0e <vm_set_clear_readonly+0x61>
/u/a/b/abhijith/CS537/p3b/xv6-sp20/kernel/vm.c:398 (discriminator 1)
  107e02:	8b 45 f0             	mov    -0x10(%ebp),%eax
  107e05:	8b 00                	mov    (%eax),%eax
  107e07:	83 e0 04             	and    $0x4,%eax
  107e0a:	85 c0                	test   %eax,%eax
  107e0c:	75 0a                	jne    107e18 <vm_set_clear_readonly+0x6b>
/u/a/b/abhijith/CS537/p3b/xv6-sp20/kernel/vm.c:399
  107e0e:	b8 ff ff ff ff       	mov    $0xffffffff,%eax
  107e13:	e9 86 00 00 00       	jmp    107e9e <vm_set_clear_readonly+0xf1>
/u/a/b/abhijith/CS537/p3b/xv6-sp20/kernel/vm.c:395 (discriminator 2)
  107e18:	81 45 f4 00 10 00 00 	addl   $0x1000,-0xc(%ebp)
/u/a/b/abhijith/CS537/p3b/xv6-sp20/kernel/vm.c:395 (discriminator 1)
  107e1f:	8b 45 f4             	mov    -0xc(%ebp),%eax
  107e22:	3b 45 10             	cmp    0x10(%ebp),%eax
  107e25:	7c b3                	jl     107dda <vm_set_clear_readonly+0x2d>
/u/a/b/abhijith/CS537/p3b/xv6-sp20/kernel/vm.c:403
  107e27:	c7 45 f4 00 00 00 00 	movl   $0x0,-0xc(%ebp)
  107e2e:	eb 49                	jmp    107e79 <vm_set_clear_readonly+0xcc>
/u/a/b/abhijith/CS537/p3b/xv6-sp20/kernel/vm.c:405
  107e30:	8b 55 f4             	mov    -0xc(%ebp),%edx
  107e33:	8b 45 0c             	mov    0xc(%ebp),%eax
  107e36:	01 d0                	add    %edx,%eax
  107e38:	83 ec 04             	sub    $0x4,%esp
  107e3b:	6a 00                	push   $0x0
  107e3d:	50                   	push   %eax
  107e3e:	ff 75 08             	pushl  0x8(%ebp)
  107e41:	e8 da f6 ff ff       	call   107520 <walkpgdir>
  107e46:	83 c4 10             	add    $0x10,%esp
  107e49:	89 45 f0             	mov    %eax,-0x10(%ebp)
/u/a/b/abhijith/CS537/p3b/xv6-sp20/kernel/vm.c:406
  107e4c:	83 7d 14 00          	cmpl   $0x0,0x14(%ebp)
  107e50:	74 11                	je     107e63 <vm_set_clear_readonly+0xb6>
/u/a/b/abhijith/CS537/p3b/xv6-sp20/kernel/vm.c:407
  107e52:	8b 45 f0             	mov    -0x10(%ebp),%eax
  107e55:	8b 00                	mov    (%eax),%eax
  107e57:	83 c8 02             	or     $0x2,%eax
  107e5a:	89 c2                	mov    %eax,%edx
  107e5c:	8b 45 f0             	mov    -0x10(%ebp),%eax
  107e5f:	89 10                	mov    %edx,(%eax)
  107e61:	eb 0f                	jmp    107e72 <vm_set_clear_readonly+0xc5>
/u/a/b/abhijith/CS537/p3b/xv6-sp20/kernel/vm.c:409
  107e63:	8b 45 f0             	mov    -0x10(%ebp),%eax
  107e66:	8b 00                	mov    (%eax),%eax
  107e68:	83 e0 fd             	and    $0xfffffffd,%eax
  107e6b:	89 c2                	mov    %eax,%edx
  107e6d:	8b 45 f0             	mov    -0x10(%ebp),%eax
  107e70:	89 10                	mov    %edx,(%eax)
/u/a/b/abhijith/CS537/p3b/xv6-sp20/kernel/vm.c:403 (discriminator 2)
  107e72:	81 45 f4 00 10 00 00 	addl   $0x1000,-0xc(%ebp)
/u/a/b/abhijith/CS537/p3b/xv6-sp20/kernel/vm.c:403 (discriminator 1)
  107e79:	8b 45 10             	mov    0x10(%ebp),%eax
  107e7c:	c1 e0 0c             	shl    $0xc,%eax
  107e7f:	39 45 f4             	cmp    %eax,-0xc(%ebp)
  107e82:	7c ac                	jl     107e30 <vm_set_clear_readonly+0x83>
/u/a/b/abhijith/CS537/p3b/xv6-sp20/kernel/vm.c:413
  107e84:	65 a1 04 00 00 00    	mov    %gs:0x4,%eax
  107e8a:	8b 40 04             	mov    0x4(%eax),%eax
  107e8d:	83 ec 0c             	sub    $0xc,%esp
  107e90:	50                   	push   %eax
  107e91:	e8 f6 f1 ff ff       	call   10708c <lcr3>
  107e96:	83 c4 10             	add    $0x10,%esp
/u/a/b/abhijith/CS537/p3b/xv6-sp20/kernel/vm.c:415
  107e99:	b8 00 00 00 00       	mov    $0x0,%eax
/u/a/b/abhijith/CS537/p3b/xv6-sp20/kernel/vm.c:416
  107e9e:	c9                   	leave  
  107e9f:	c3                   	ret    

00107ea0 <xv6_srand>:
xv6_srand():
/u/a/b/abhijith/CS537/p3b/xv6-sp20/kernel/rand.c:29
  107ea0:	55                   	push   %ebp
  107ea1:	89 e5                	mov    %esp,%ebp
/u/a/b/abhijith/CS537/p3b/xv6-sp20/kernel/rand.c:30
  107ea3:	90                   	nop
/u/a/b/abhijith/CS537/p3b/xv6-sp20/kernel/rand.c:31
  107ea4:	5d                   	pop    %ebp
  107ea5:	c3                   	ret    

00107ea6 <xv6_rand>:
xv6_rand():
/u/a/b/abhijith/CS537/p3b/xv6-sp20/kernel/rand.c:34
  107ea6:	55                   	push   %ebp
  107ea7:	89 e5                	mov    %esp,%ebp
/u/a/b/abhijith/CS537/p3b/xv6-sp20/kernel/rand.c:35
  107ea9:	a1 20 c5 10 00       	mov    0x10c520,%eax
  107eae:	83 f8 63             	cmp    $0x63,%eax
  107eb1:	76 07                	jbe    107eba <xv6_rand+0x14>
/u/a/b/abhijith/CS537/p3b/xv6-sp20/kernel/rand.c:35 (discriminator 1)
  107eb3:	b8 00 00 00 00       	mov    $0x0,%eax
  107eb8:	eb 34                	jmp    107eee <xv6_rand+0x48>
/u/a/b/abhijith/CS537/p3b/xv6-sp20/kernel/rand.c:36
  107eba:	a1 20 c5 10 00       	mov    0x10c520,%eax
  107ebf:	8d 50 01             	lea    0x1(%eax),%edx
  107ec2:	89 15 20 c5 10 00    	mov    %edx,0x10c520
  107ec8:	8b 0c 85 20 ba 10 00 	mov    0x10ba20(,%eax,4),%ecx
  107ecf:	ba 03 00 00 00       	mov    $0x3,%edx
  107ed4:	89 c8                	mov    %ecx,%eax
  107ed6:	f7 e2                	mul    %edx
  107ed8:	89 c8                	mov    %ecx,%eax
  107eda:	29 d0                	sub    %edx,%eax
  107edc:	d1 e8                	shr    %eax
  107ede:	01 d0                	add    %edx,%eax
  107ee0:	c1 e8 1e             	shr    $0x1e,%eax
  107ee3:	89 c2                	mov    %eax,%edx
  107ee5:	c1 e2 1f             	shl    $0x1f,%edx
  107ee8:	29 c2                	sub    %eax,%edx
  107eea:	89 c8                	mov    %ecx,%eax
  107eec:	29 d0                	sub    %edx,%eax
/u/a/b/abhijith/CS537/p3b/xv6-sp20/kernel/rand.c:37
  107eee:	5d                   	pop    %ebp
  107eef:	c3                   	ret    
